 awt

 Timestamp is 4dff5f06 (Mon Jun 20 07:53:58 2011)

 Preferred load address is 10000000

 Start         Length     Name                   Class
 0001:00000000 000b0b0cH .text                   CODE
 0001:000b0b10 00003a51H .text$x                 CODE
 0001:000b4570 0000041cH .text$yc                CODE
 0001:000b4990 000001bcH .text$yd                CODE
 0002:00000000 00000320H .idata$5                DATA
 0002:00000320 00000004H .CRT$XCA                DATA
 0002:00000324 00000098H .CRT$XCU                DATA
 0002:000003bc 00000004H .CRT$XCZ                DATA
 0002:000003c0 00000004H .CRT$XIA                DATA
 0002:000003c4 00000004H .CRT$XIAA               DATA
 0002:000003c8 00000004H .CRT$XIC                DATA
 0002:000003cc 00000004H .CRT$XIZ                DATA
 0002:000003d0 0001e200H .rdata                  DATA
 0002:0001e5d0 00000064H .rdata$debug            DATA
 0002:0001e634 00001488H .rdata$r                DATA
 0002:0001fac0 000007a0H .rdata$sxdata           DATA
 0002:00020260 00000004H .rtc$IAA                DATA
 0002:00020264 00000004H .rtc$IZZ                DATA
 0002:00020268 00000004H .rtc$TAA                DATA
 0002:0002026c 00000004H .rtc$TZZ                DATA
 0002:00020270 0000c3e4H .xdata$x                DATA
 0002:0002c654 00000140H .didat$2                DATA
 0002:0002c794 00000020H .didat$3                DATA
 0002:0002c7b4 000005acH .didat$4                DATA
 0002:0002cd60 000017b0H .didat$6                DATA
 0002:0002e510 000005acH .didat$7                DATA
 0002:0002eabc 00000078H .idata$2                DATA
 0002:0002eb34 00000014H .idata$3                DATA
 0002:0002eb48 00000320H .idata$4                DATA
 0002:0002ee68 00000d12H .idata$6                DATA
 0002:0002fb80 0000b1efH .edata                  DATA
 0003:00000000 000076c0H .data                   DATA
 0003:000076c0 000005acH .didat$5                DATA
 0003:00007c80 00023430H .bss                    DATA
 0004:00000000 000006c8H .rsrc$01                DATA
 0004:000006d0 000134c8H .rsrc$02                DATA

  Address         Publics by Value              Rva+Base       Lib:Object

 0000:00000000       __except_list              00000000     <absolute>
 0000:000001e8       ___safe_se_handler_count   000001e8     <absolute>
 0000:00009876       __ldused                   00009876     <absolute>
 0000:00009876       __fltused                  00009876     <absolute>
 0000:00000000       ___ImageBase               10000000     <linker-defined>
 0001:00000000       _GrPrim_RefineBounds       10001000 f   GraphicsPrimitiveMgr.obj
 0001:000000f0       _Java_sun_java2d_loops_GraphicsPrimitiveMgr_registerNativeLoops@8 100010f0 f   GraphicsPrimitiveMgr.obj
 0001:000002f0       _RegisterPrimitives        100012f0 f   GraphicsPrimitiveMgr.obj
 0001:00000460       _GetNativePrim@8           10001460 f   GraphicsPrimitiveMgr.obj
 0001:000004a0       _GrPrim_Sg2dGetCompInfo@16 100014a0 f   GraphicsPrimitiveMgr.obj
 0001:000004e0       _GrPrim_CompGetXorColor@8  100014e0 f   GraphicsPrimitiveMgr.obj
 0001:00000530       _GrPrim_Sg2dGetClip@12     10001530 f   GraphicsPrimitiveMgr.obj
 0001:00000560       _GrPrim_Sg2dGetPixel@8     10001560 f   GraphicsPrimitiveMgr.obj
 0001:00000580       _GrPrim_Sg2dGetEaRGB@8     10001580 f   GraphicsPrimitiveMgr.obj
 0001:000005a0       _GrPrim_Sg2dGetLCDTextContrast@8 100015a0 f   GraphicsPrimitiveMgr.obj
 0001:000005c0       _GrPrim_CompGetXorInfo@12  100015c0 f   GraphicsPrimitiveMgr.obj
 0001:00000610       _GrPrim_CompGetAlphaInfo@12 10001610 f   GraphicsPrimitiveMgr.obj
 0001:00000650       _Transform_GetInfo@12      10001650 f   GraphicsPrimitiveMgr.obj
 0001:000006f0       _Transform_transform@12    100016f0 f   GraphicsPrimitiveMgr.obj
 0001:00000730       _Java_sun_java2d_loops_GraphicsPrimitiveMgr_initIDs@52 10001730 f   GraphicsPrimitiveMgr.obj
 0001:00000ac0       _Java_sun_java2d_loops_Blit_Blit@48 10001ac0 f   Blit.obj
 0001:00000e50       _Java_sun_java2d_loops_BlitBg_BlitBg@52 10001e50 f   BlitBg.obj
 0001:00001380       _Java_sun_java2d_loops_ScaledBlit_Scale@72 10002380 f   ScaledBlit.obj
 0001:00001dd0       _Java_sun_java2d_loops_FillRect_FillRect@32 10002dd0 f   FillRect.obj
 0001:00001f70       _Java_sun_java2d_loops_FillSpans_FillSpans@32 10002f70 f   FillSpans.obj
 0001:00002130       _Java_sun_java2d_loops_FillParallelogram_FillParallelogram@64 10003130 f   FillParallelogram.obj
 0001:00002840       _Java_sun_java2d_loops_DrawParallelogram_DrawParallelogram@80 10003840 f   DrawParallelogram.obj
 0001:00004290       _LineUtils_SetupBresenham  10005290 f   DrawLine.obj
 0001:00004720       _Java_sun_java2d_loops_DrawLine_DrawLine@32 10005720 f   DrawLine.obj
 0001:00004a50       _Java_sun_java2d_loops_DrawRect_DrawRect@32 10005a50 f   DrawRect.obj
 0001:00005300       _Java_sun_java2d_loops_DrawPolygons_DrawPolygons@44 10006300 f   DrawPolygons.obj
 0001:00005860       _Java_sun_java2d_loops_DrawPath_DrawPath@28 10006860 f   DrawPath.obj
 0001:00005bf0       _Java_sun_java2d_loops_FillPath_FillPath@28 10006bf0 f   FillPath.obj
 0001:00005f70       _ProcessFixedLine          10006f70 f   ProcessPath.obj
 0001:00008240       _ProcessPath               10009240 f   ProcessPath.obj
 0001:000089d0       _FillPolygon               100099d0 f   ProcessPath.obj
 0001:00008ef0       _StoreFixedLine            10009ef0 f   ProcessPath.obj
 0001:000093e0       _doFillPath                1000a3e0 f   ProcessPath.obj
 0001:00009510       _doDrawPath                1000a510 f   ProcessPath.obj
 0001:00009580       _Java_sun_java2d_loops_MaskBlit_MaskBlit@60 1000a580 f   MaskBlit.obj
 0001:00009980       _Java_sun_java2d_loops_MaskFill_MaskFill@48 1000a980 f   MaskFill.obj
 0001:0000b3b0       _Java_sun_java2d_loops_MaskFill_FillAAPgram@68 1000c3b0 f   MaskFill.obj
 0001:0000d560       _Java_sun_java2d_loops_MaskFill_DrawAAPgram@84 1000e560 f   MaskFill.obj
 0001:0000eb10       _Java_sun_java2d_loops_TransformHelper_Transform@80 1000fb10 f   TransformHelper.obj
 0001:0000f34e       _initAlphaTables           1001034e f   AlphaMath.obj
 0001:0000f400       _RegisterAnyByte           10010400 f   AnyByte.obj
 0001:0000f420       _AnyByteIsomorphicCopy     10010420 f   AnyByte.obj
 0001:0000f460       _AnyByteIsomorphicScaleCopy 10010460 f   AnyByte.obj
 0001:0000f4e0       _AnyByteIsomorphicXorCopy  100104e0 f   AnyByte.obj
 0001:0000f530       _AnyByteSetRect            10010530 f   AnyByte.obj
 0001:0000f580       _AnyByteSetSpans           10010580 f   AnyByte.obj
 0001:0000f630       _AnyByteSetParallelogram   10010630 f   AnyByte.obj
 0001:0000f6c0       _AnyByteSetLine            100106c0 f   AnyByte.obj
 0001:0000f780       _AnyByteXorRect            10010780 f   AnyByte.obj
 0001:0000f7e0       _AnyByteXorSpans           100107e0 f   AnyByte.obj
 0001:0000f8b0       _AnyByteXorLine            100108b0 f   AnyByte.obj
 0001:0000f980       _AnyByteDrawGlyphList      10010980 f   AnyByte.obj
 0001:0000fa80       _AnyByteDrawGlyphListXor   10010a80 f   AnyByte.obj
 0001:0000fba0       _RegisterByteBinary1Bit    10010ba0 f   ByteBinary1Bit.obj
 0001:0000fbc0       _PixelForByteIndexed       10010bc0 f   ByteIndexed.obj
 0001:0000fbc0       _PixelForByteBinary        10010bc0 f   ByteBinary1Bit.obj
 0001:0000fc00       _ByteBinary1BitSetRect     10010c00 f   ByteBinary1Bit.obj
 0001:0000fca0       _ByteBinary1BitSetSpans    10010ca0 f   ByteBinary1Bit.obj
 0001:0000fdb0       _ByteBinary1BitSetLine     10010db0 f   ByteBinary1Bit.obj
 0001:0000ff20       _ByteBinary1BitXorRect     10010f20 f   ByteBinary1Bit.obj
 0001:0000ffd0       _ByteBinary1BitXorSpans    10010fd0 f   ByteBinary1Bit.obj
 0001:000100f0       _ByteBinary1BitXorLine     100110f0 f   ByteBinary1Bit.obj
 0001:00010250       _ByteBinary1BitDrawGlyphList 10011250 f   ByteBinary1Bit.obj
 0001:000103c0       _ByteBinary1BitDrawGlyphListAA 100113c0 f   ByteBinary1Bit.obj
 0001:00010650       _ByteBinary1BitDrawGlyphListXor 10011650 f   ByteBinary1Bit.obj
 0001:000107c0       _ByteBinary1BitToByteBinary1BitConvert 100117c0 f   ByteBinary1Bit.obj
 0001:00010950       _ByteBinary1BitToIntArgbConvert 10011950 f   ByteBinary1Bit.obj
 0001:00010a10       _IntArgbToByteBinary1BitConvert 10011a10 f   ByteBinary1Bit.obj
 0001:00010b30       _IntArgbToByteBinary1BitXorBlit 10011b30 f   ByteBinary1Bit.obj
 0001:00010c50       _ByteBinary1BitToIntArgbAlphaMaskBlit 10011c50 f   ByteBinary1Bit.obj
 0001:00011060       _IntArgbToByteBinary1BitAlphaMaskBlit 10012060 f   ByteBinary1Bit.obj
 0001:00011480       _ByteBinary1BitAlphaMaskFill 10012480 f   ByteBinary1Bit.obj
 0001:00011880       _RegisterByteBinary2Bit    10012880 f   ByteBinary2Bit.obj
 0001:000118a0       _ByteBinary2BitSetRect     100128a0 f   ByteBinary2Bit.obj
 0001:00011960       _ByteBinary2BitSetSpans    10012960 f   ByteBinary2Bit.obj
 0001:00011a80       _ByteBinary2BitSetLine     10012a80 f   ByteBinary2Bit.obj
 0001:00011c00       _ByteBinary2BitXorRect     10012c00 f   ByteBinary2Bit.obj
 0001:00011cc0       _ByteBinary2BitXorSpans    10012cc0 f   ByteBinary2Bit.obj
 0001:00011df0       _ByteBinary2BitXorLine     10012df0 f   ByteBinary2Bit.obj
 0001:00011f60       _ByteBinary2BitDrawGlyphList 10012f60 f   ByteBinary2Bit.obj
 0001:000120d0       _ByteBinary2BitDrawGlyphListAA 100130d0 f   ByteBinary2Bit.obj
 0001:00012370       _ByteBinary2BitDrawGlyphListXor 10013370 f   ByteBinary2Bit.obj
 0001:000124f0       _ByteBinary2BitToByteBinary2BitConvert 100134f0 f   ByteBinary2Bit.obj
 0001:00012690       _ByteBinary2BitToIntArgbConvert 10013690 f   ByteBinary2Bit.obj
 0001:00012760       _IntArgbToByteBinary2BitConvert 10013760 f   ByteBinary2Bit.obj
 0001:00012880       _IntArgbToByteBinary2BitXorBlit 10013880 f   ByteBinary2Bit.obj
 0001:000129a0       _ByteBinary2BitToIntArgbAlphaMaskBlit 100139a0 f   ByteBinary2Bit.obj
 0001:00012db0       _IntArgbToByteBinary2BitAlphaMaskBlit 10013db0 f   ByteBinary2Bit.obj
 0001:000131d0       _ByteBinary2BitAlphaMaskFill 100141d0 f   ByteBinary2Bit.obj
 0001:000135d0       _RegisterByteBinary4Bit    100145d0 f   ByteBinary4Bit.obj
 0001:000135f0       _ByteBinary4BitSetRect     100145f0 f   ByteBinary4Bit.obj
 0001:000136a0       _ByteBinary4BitSetSpans    100146a0 f   ByteBinary4Bit.obj
 0001:000137c0       _ByteBinary4BitSetLine     100147c0 f   ByteBinary4Bit.obj
 0001:00013940       _ByteBinary4BitXorRect     10014940 f   ByteBinary4Bit.obj
 0001:00013a00       _ByteBinary4BitXorSpans    10014a00 f   ByteBinary4Bit.obj
 0001:00013b30       _ByteBinary4BitXorLine     10014b30 f   ByteBinary4Bit.obj
 0001:00013ca0       _ByteBinary4BitDrawGlyphList 10014ca0 f   ByteBinary4Bit.obj
 0001:00013e10       _ByteBinary4BitDrawGlyphListAA 10014e10 f   ByteBinary4Bit.obj
 0001:000140a0       _ByteBinary4BitDrawGlyphListXor 100150a0 f   ByteBinary4Bit.obj
 0001:00014220       _ByteBinary4BitToByteBinary4BitConvert 10015220 f   ByteBinary4Bit.obj
 0001:000143c0       _ByteBinary4BitToIntArgbConvert 100153c0 f   ByteBinary4Bit.obj
 0001:00014490       _IntArgbToByteBinary4BitConvert 10015490 f   ByteBinary4Bit.obj
 0001:000145c0       _IntArgbToByteBinary4BitXorBlit 100155c0 f   ByteBinary4Bit.obj
 0001:000146e0       _ByteBinary4BitToIntArgbAlphaMaskBlit 100156e0 f   ByteBinary4Bit.obj
 0001:00014af0       _IntArgbToByteBinary4BitAlphaMaskBlit 10015af0 f   ByteBinary4Bit.obj
 0001:00014f10       _ByteBinary4BitAlphaMaskFill 10015f10 f   ByteBinary4Bit.obj
 0001:00015310       _RegisterByteIndexed       10016310 f   ByteIndexed.obj
 0001:00015330       _checkSameLut              10016330 f   ByteIndexed.obj
 0001:00015380       _IntArgbToByteIndexedConvert 10016380 f   ByteIndexed.obj
 0001:000154f0       _ThreeByteBgrToByteIndexedConvert 100164f0 f   ByteIndexed.obj
 0001:00015650       _ByteGrayToByteIndexedConvert 10016650 f   ByteIndexed.obj
 0001:000157a0       _Index12GrayToByteIndexedConvert 100167a0 f   ByteIndexed.obj
 0001:00015900       _ByteIndexedToByteIndexedConvert 10016900 f   ByteIndexed.obj
 0001:00015af0       _IntArgbToByteIndexedScaleConvert 10016af0 f   ByteIndexed.obj
 0001:00015c80       _ThreeByteBgrToByteIndexedScaleConvert 10016c80 f   ByteIndexed.obj
 0001:00015e20       _ByteGrayToByteIndexedScaleConvert 10016e20 f   ByteIndexed.obj
 0001:00015fa0       _Index12GrayToByteIndexedScaleConvert 10016fa0 f   ByteIndexed.obj
 0001:00016140       _ByteIndexedToByteIndexedScaleConvert 10017140 f   ByteIndexed.obj
 0001:00016390       _ByteIndexedBmToByteIndexedXparOver 10017390 f   ByteIndexed.obj
 0001:00016500       _ByteIndexedBmToByteIndexedScaleXparOver 10017500 f   ByteIndexed.obj
 0001:000166a0       _IntArgbBmToByteIndexedScaleXparOver 100176a0 f   ByteIndexed.obj
 0001:00016840       _ByteIndexedBmToByteIndexedXparBgCopy 10017840 f   ByteIndexed.obj
 0001:000169c0       _IntArgbBmToByteIndexedXparOver 100179c0 f   ByteIndexed.obj
 0001:00016b40       _IntArgbBmToByteIndexedXparBgCopy 10017b40 f   ByteIndexed.obj
 0001:00016cc0       _IntArgbToByteIndexedXorBlit 10017cc0 f   ByteIndexed.obj
 0001:00016d80       _ByteIndexedAlphaMaskFill  10017d80 f   ByteIndexed.obj
 0001:000171c0       _IntArgbToByteIndexedAlphaMaskBlit 100181c0 f   ByteIndexed.obj
 0001:00017630       _IntArgbPreToByteIndexedAlphaMaskBlit 10018630 f   ByteIndexed.obj
 0001:00017ab0       _IntRgbToByteIndexedAlphaMaskBlit 10018ab0 f   ByteIndexed.obj
 0001:00017f00       _ByteIndexedDrawGlyphListAA 10018f00 f   ByteIndexed.obj
 0001:000181f0       _ByteIndexedNrstNbrTransformHelper 100191f0 f   ByteIndexed.obj
 0001:000182f0       _ByteIndexedBilinearTransformHelper 100192f0 f   ByteIndexed.obj
 0001:00018600       _ByteIndexedBicubicTransformHelper 10019600 f   ByteIndexed.obj
 0001:00018ee0       _ByteIndexedBmNrstNbrTransformHelper 10019ee0 f   ByteIndexed.obj
 0001:00018f80       _ByteIndexedBmBilinearTransformHelper 10019f80 f   ByteIndexed.obj
 0001:000190f0       _ByteIndexedBmBicubicTransformHelper 1001a0f0 f   ByteIndexed.obj
 0001:000193a0       _RegisterByteGray          1001a3a0 f   ByteGray.obj
 0001:000193c0       _PixelForByteGray          1001a3c0 f   ByteGray.obj
 0001:00019410       _ByteGrayToIntArgbConvert  1001a410 f   ByteGray.obj
 0001:00019480       _IntArgbToByteGrayConvert  1001a480 f   ByteGray.obj
 0001:00019510       _ThreeByteBgrToByteGrayConvert 1001a510 f   ByteGray.obj
 0001:000195a0       _UshortGrayToByteGrayConvert 1001a5a0 f   ByteGray.obj
 0001:000195f0       _ByteIndexedToByteGrayConvert 1001a5f0 f   ByteGray.obj
 0001:00019700       _Index8GrayToByteGrayConvert 1001a700 f   ByteGray.obj
 0001:00019750       _Index12GrayToByteGrayConvert 1001a750 f   ByteGray.obj
 0001:000197b0       _ByteGrayToIntArgbScaleConvert 1001a7b0 f   ByteGray.obj
 0001:00019840       _IntArgbToByteGrayScaleConvert 1001a840 f   ByteGray.obj
 0001:000198f0       _ThreeByteBgrToByteGrayScaleConvert 1001a8f0 f   ByteGray.obj
 0001:00019990       _UshortGrayToByteGrayScaleConvert 1001a990 f   ByteGray.obj
 0001:00019a10       _Index8GrayToByteGrayScaleConvert 1001aa10 f   ByteGray.obj
 0001:00019a90       _Index12GrayToByteGrayScaleConvert 1001aa90 f   ByteGray.obj
 0001:00019b20       _ByteIndexedToByteGrayScaleConvert 1001ab20 f   ByteGray.obj
 0001:00019c80       _ByteIndexedBmToByteGrayXparOver 1001ac80 f   ByteGray.obj
 0001:00019db0       _ByteIndexedBmToByteGrayScaleXparOver 1001adb0 f   ByteGray.obj
 0001:00019f30       _IntArgbBmToByteGrayScaleXparOver 1001af30 f   ByteGray.obj
 0001:00019ff0       _ByteIndexedBmToByteGrayXparBgCopy 1001aff0 f   ByteGray.obj
 0001:0001a130       _IntArgbBmToByteGrayXparOver 1001b130 f   ByteGray.obj
 0001:0001a1d0       _IntArgbBmToByteGrayXparBgCopy 1001b1d0 f   ByteGray.obj
 0001:0001a270       _IntArgbToByteGrayXorBlit  1001b270 f   ByteGray.obj
 0001:0001a320       _ByteGraySrcMaskFill       1001b320 f   ByteGray.obj
 0001:0001a490       _ByteGraySrcOverMaskFill   1001b490 f   ByteGray.obj
 0001:0001a600       _ByteGrayAlphaMaskFill     1001b600 f   ByteGray.obj
 0001:0001a850       _IntArgbToByteGraySrcOverMaskBlit 1001b850 f   ByteGray.obj
 0001:0001aa70       _IntArgbToByteGrayAlphaMaskBlit 1001ba70 f   ByteGray.obj
 0001:0001ad20       _IntArgbPreToByteGraySrcOverMaskBlit 1001bd20 f   ByteGray.obj
 0001:0001af80       _IntArgbPreToByteGrayAlphaMaskBlit 1001bf80 f   ByteGray.obj
 0001:0001b250       _IntRgbToByteGrayAlphaMaskBlit 1001c250 f   ByteGray.obj
 0001:0001b500       _ByteGrayDrawGlyphListAA   1001c500 f   ByteGray.obj
 0001:0001b680       _ByteGrayNrstNbrTransformHelper 1001c680 f   ByteGray.obj
 0001:0001b720       _ByteGrayBilinearTransformHelper 1001c720 f   ByteGray.obj
 0001:0001b890       _ByteGrayBicubicTransformHelper 1001c890 f   ByteGray.obj
 0001:0001bbb0       _RegisterIndex8Gray        1001cbb0 f   Index8Gray.obj
 0001:0001bbd0       _PixelForIndex12Gray       1001cbd0 f   Index12Gray.obj
 0001:0001bbd0       _PixelForIndex8Gray        1001cbd0 f   Index8Gray.obj
 0001:0001bc20       _IntArgbToIndex8GrayConvert 1001cc20 f   Index8Gray.obj
 0001:0001bcc0       _ThreeByteBgrToIndex8GrayConvert 1001ccc0 f   Index8Gray.obj
 0001:0001bd50       _ByteGrayToIndex8GrayConvert 1001cd50 f   Index8Gray.obj
 0001:0001bda0       _Index12GrayToIndex8GrayConvert 1001cda0 f   Index8Gray.obj
 0001:0001be20       _ByteIndexedToIndex8GrayConvert 1001ce20 f   Index8Gray.obj
 0001:0001bf30       _Index8GrayToIndex8GrayConvert 1001cf30 f   Index8Gray.obj
 0001:0001bfe0       _Index12GrayToIndex12GrayScaleConvert 1001cfe0 f   Index12Gray.obj
 0001:0001bfe0       _Index8GrayToIndex8GrayScaleConvert 1001cfe0 f   Index8Gray.obj
 0001:0001c100       _IntArgbToIndex8GrayScaleConvert 1001d100 f   Index8Gray.obj
 0001:0001c1d0       _ThreeByteBgrToIndex8GrayScaleConvert 1001d1d0 f   Index8Gray.obj
 0001:0001c290       _UshortGrayToIndex8GrayScaleConvert 1001d290 f   Index8Gray.obj
 0001:0001c310       _ByteIndexedToIndex8GrayScaleConvert 1001d310 f   Index8Gray.obj
 0001:0001c470       _ByteGrayToIndex8GrayScaleConvert 1001d470 f   Index8Gray.obj
 0001:0001c4f0       _Index12GrayToIndex8GrayScaleConvert 1001d4f0 f   Index8Gray.obj
 0001:0001c590       _ByteIndexedBmToIndex8GrayXparOver 1001d590 f   Index8Gray.obj
 0001:0001c6d0       _ByteIndexedBmToIndex8GrayXparBgCopy 1001d6d0 f   Index8Gray.obj
 0001:0001c820       _IntArgbToIndex8GrayXorBlit 1001d820 f   Index8Gray.obj
 0001:0001c900       _Index8GrayAlphaMaskFill   1001d900 f   Index8Gray.obj
 0001:0001cb70       _IntArgbToIndex8GrayAlphaMaskBlit 1001db70 f   Index8Gray.obj
 0001:0001ce50       _IntArgbPreToIndex8GrayAlphaMaskBlit 1001de50 f   Index8Gray.obj
 0001:0001d130       _IntRgbToIndex8GrayAlphaMaskBlit 1001e130 f   Index8Gray.obj
 0001:0001d400       _Index8GraySrcOverMaskFill 1001e400 f   Index8Gray.obj
 0001:0001d5b0       _IntArgbToIndex8GraySrcOverMaskBlit 1001e5b0 f   Index8Gray.obj
 0001:0001d800       _IntArgbPreToIndex8GraySrcOverMaskBlit 1001e800 f   Index8Gray.obj
 0001:0001da90       _Index8GrayDrawGlyphListAA 1001ea90 f   Index8Gray.obj
 0001:0001dc40       _Index8GrayNrstNbrTransformHelper 1001ec40 f   Index8Gray.obj
 0001:0001dce0       _Index8GrayBilinearTransformHelper 1001ece0 f   Index8Gray.obj
 0001:0001de20       _Index8GrayBicubicTransformHelper 1001ee20 f   Index8Gray.obj
 0001:0001e060       _RegisterIndex12Gray       1001f060 f   Index12Gray.obj
 0001:0001e080       _IntArgbToIndex12GrayConvert 1001f080 f   Index12Gray.obj
 0001:0001e130       _ThreeByteBgrToIndex12GrayConvert 1001f130 f   Index12Gray.obj
 0001:0001e1c0       _ByteGrayToIndex12GrayConvert 1001f1c0 f   Index12Gray.obj
 0001:0001e220       _Index8GrayToIndex12GrayConvert 1001f220 f   Index12Gray.obj
 0001:0001e290       _ByteIndexedToIndex12GrayConvert 1001f290 f   Index12Gray.obj
 0001:0001e340       _Index12GrayToIndex12GrayConvert 1001f340 f   Index12Gray.obj
 0001:0001e400       _Index12GrayToIntArgbScaleConvert 1001f400 f   Index12Gray.obj
 0001:0001e400       _UshortIndexedToIntArgbScaleConvert 1001f400 f   UshortIndexed.obj
 0001:0001e4a0       _IntArgbToIndex12GrayScaleConvert 1001f4a0 f   Index12Gray.obj
 0001:0001e570       _ThreeByteBgrToIndex12GrayScaleConvert 1001f570 f   Index12Gray.obj
 0001:0001e630       _UshortGrayToIndex12GrayScaleConvert 1001f630 f   Index12Gray.obj
 0001:0001e6c0       _ByteIndexedToIndex12GrayScaleConvert 1001f6c0 f   Index12Gray.obj
 0001:0001e6c0       _Index8GrayToIndex12GrayScaleConvert 1001f6c0 f   Index12Gray.obj
 0001:0001e830       _ByteGrayToIndex12GrayScaleConvert 1001f830 f   Index12Gray.obj
 0001:0001e8c0       _ByteIndexedBmToIndex12GrayXparOver 1001f8c0 f   Index12Gray.obj
 0001:0001ea10       _ByteIndexedBmToIndex12GrayXparBgCopy 1001fa10 f   Index12Gray.obj
 0001:0001eb60       _IntArgbToIndex12GrayXorBlit 1001fb60 f   Index12Gray.obj
 0001:0001ec30       _Index12GrayAlphaMaskFill  1001fc30 f   Index12Gray.obj
 0001:0001eec0       _IntArgbToIndex12GrayAlphaMaskBlit 1001fec0 f   Index12Gray.obj
 0001:0001f1b0       _IntArgbPreToIndex12GrayAlphaMaskBlit 100201b0 f   Index12Gray.obj
 0001:0001f4b0       _IntRgbToIndex12GrayAlphaMaskBlit 100204b0 f   Index12Gray.obj
 0001:0001f790       _Index12GraySrcOverMaskFill 10020790 f   Index12Gray.obj
 0001:0001f960       _IntArgbToIndex12GraySrcOverMaskBlit 10020960 f   Index12Gray.obj
 0001:0001fbc0       _IntArgbPreToIndex12GraySrcOverMaskBlit 10020bc0 f   Index12Gray.obj
 0001:0001fe70       _Index12GrayDrawGlyphListAA 10020e70 f   Index12Gray.obj
 0001:00020000       _Index12GrayNrstNbrTransformHelper 10021000 f   Index12Gray.obj
 0001:000200a0       _Index12GrayBilinearTransformHelper 100210a0 f   Index12Gray.obj
 0001:00020200       _Index12GrayBicubicTransformHelper 10021200 f   Index12Gray.obj
 0001:00020490       _RegisterAnyShort          10021490 f   AnyShort.obj
 0001:000204b0       _AnyShortIsomorphicCopy    100214b0 f   AnyShort.obj
 0001:00020500       _AnyShortIsomorphicScaleCopy 10021500 f   AnyShort.obj
 0001:00020580       _AnyShortIsomorphicXorCopy 10021580 f   AnyShort.obj
 0001:000205e0       _AnyShortSetRect           100215e0 f   AnyShort.obj
 0001:00020630       _AnyShortSetSpans          10021630 f   AnyShort.obj
 0001:00020700       _AnyShortSetParallelogram  10021700 f   AnyShort.obj
 0001:000207a0       _AnyShortSetLine           100217a0 f   AnyShort.obj
 0001:00020870       _AnyShortXorRect           10021870 f   AnyShort.obj
 0001:000208d0       _AnyShortXorSpans          100218d0 f   AnyShort.obj
 0001:000209a0       _AnyShortXorLine           100219a0 f   AnyShort.obj
 0001:00020a70       _AnyShortDrawGlyphList     10021a70 f   AnyShort.obj
 0001:00020b60       _AnyShortDrawGlyphListXor  10021b60 f   AnyShort.obj
 0001:00020c70       _RegisterUshort555Rgb      10021c70 f   Ushort555Rgb.obj
 0001:00020c90       _PixelForUshort555Rgb      10021c90 f   Ushort555Rgb.obj
 0001:00020cc0       _Ushort555RgbToIntArgbConvert 10021cc0 f   Ushort555Rgb.obj
 0001:00020d70       _IntArgbToUshort555RgbConvert 10021d70 f   Ushort555Rgb.obj
 0001:00020df0       _ThreeByteBgrToUshort555RgbConvert 10021df0 f   Ushort555Rgb.obj
 0001:00020e70       _ByteGrayToUshort555RgbConvert 10021e70 f   Ushort555Rgb.obj
 0001:00020ee0       _ByteIndexedToUshort555RgbConvert 10021ee0 f   Ushort555Rgb.obj
 0001:00020fe0       _Ushort555RgbToIntArgbScaleConvert 10021fe0 f   Ushort555Rgb.obj
 0001:000210b0       _IntArgbToUshort555RgbScaleConvert 100220b0 f   Ushort555Rgb.obj
 0001:00021160       _ThreeByteBgrToUshort555RgbScaleConvert 10022160 f   Ushort555Rgb.obj
 0001:00021210       _ByteGrayToUshort555RgbScaleConvert 10022210 f   Ushort555Rgb.obj
 0001:000212a0       _ByteIndexedToUshort555RgbScaleConvert 100222a0 f   Ushort555Rgb.obj
 0001:000213f0       _ByteIndexedBmToUshort555RgbXparOver 100223f0 f   Ushort555Rgb.obj
 0001:00021500       _ByteIndexedBmToUshort555RgbScaleXparOver 10022500 f   Ushort555Rgb.obj
 0001:00021660       _IntArgbBmToUshort555RgbScaleXparOver 10022660 f   Ushort555Rgb.obj
 0001:00021700       _ByteIndexedBmToUshort555RgbXparBgCopy 10022700 f   Ushort555Rgb.obj
 0001:00021830       _IntArgbBmToUshort555RgbXparOver 10022830 f   Ushort555Rgb.obj
 0001:000218b0       _IntArgbBmToUshort555RgbXparBgCopy 100228b0 f   Ushort555Rgb.obj
 0001:00021940       _IntArgbToUshort555RgbXorBlit 10022940 f   Ushort555Rgb.obj
 0001:000219e0       _Ushort555RgbSrcMaskFill   100229e0 f   Ushort555Rgb.obj
 0001:00021c40       _Ushort555RgbSrcOverMaskFill 10022c40 f   Ushort555Rgb.obj
 0001:00021f30       _Ushort555RgbAlphaMaskFill 10022f30 f   Ushort555Rgb.obj
 0001:00022290       _IntArgbToUshort555RgbSrcOverMaskBlit 10023290 f   Ushort555Rgb.obj
 0001:000225e0       _IntArgbToUshort555RgbAlphaMaskBlit 100235e0 f   Ushort555Rgb.obj
 0001:00022960       _IntArgbPreToUshort555RgbSrcOverMaskBlit 10023960 f   Ushort555Rgb.obj
 0001:00022d10       _IntArgbPreToUshort555RgbAlphaMaskBlit 10023d10 f   Ushort555Rgb.obj
 0001:00023080       _IntRgbToUshort555RgbAlphaMaskBlit 10024080 f   Ushort555Rgb.obj
 0001:000233f0       _Ushort555RgbDrawGlyphListAA 100243f0 f   Ushort555Rgb.obj
 0001:00023610       _Ushort555RgbDrawGlyphListLCD 10024610 f   Ushort555Rgb.obj
 0001:000238f0       _RegisterUshort565Rgb      100248f0 f   Ushort565Rgb.obj
 0001:00023910       _PixelForUshort565Rgb      10024910 f   Ushort565Rgb.obj
 0001:00023940       _Ushort565RgbToIntArgbConvert 10024940 f   Ushort565Rgb.obj
 0001:000239e0       _IntArgbToUshort565RgbConvert 100249e0 f   Ushort565Rgb.obj
 0001:00023a60       _ThreeByteBgrToUshort565RgbConvert 10024a60 f   Ushort565Rgb.obj
 0001:00023af0       _ByteGrayToUshort565RgbConvert 10024af0 f   Ushort565Rgb.obj
 0001:00023b60       _ByteIndexedToUshort565RgbConvert 10024b60 f   Ushort565Rgb.obj
 0001:00023c60       _Ushort565RgbToIntArgbScaleConvert 10024c60 f   Ushort565Rgb.obj
 0001:00023d20       _IntArgbToUshort565RgbScaleConvert 10024d20 f   Ushort565Rgb.obj
 0001:00023dd0       _ThreeByteBgrToUshort565RgbScaleConvert 10024dd0 f   Ushort565Rgb.obj
 0001:00023e80       _ByteGrayToUshort565RgbScaleConvert 10024e80 f   Ushort565Rgb.obj
 0001:00023f20       _ByteIndexedToUshort565RgbScaleConvert 10024f20 f   Ushort565Rgb.obj
 0001:00024070       _ByteIndexedBmToUshort565RgbXparOver 10025070 f   Ushort565Rgb.obj
 0001:00024180       _ByteIndexedBmToUshort565RgbScaleXparOver 10025180 f   Ushort565Rgb.obj
 0001:000242e0       _IntArgbBmToUshort565RgbScaleXparOver 100252e0 f   Ushort565Rgb.obj
 0001:00024380       _ByteIndexedBmToUshort565RgbXparBgCopy 10025380 f   Ushort565Rgb.obj
 0001:000244b0       _IntArgbBmToUshort565RgbXparOver 100254b0 f   Ushort565Rgb.obj
 0001:00024530       _IntArgbBmToUshort565RgbXparBgCopy 10025530 f   Ushort565Rgb.obj
 0001:000245c0       _IntArgbToUshort565RgbXorBlit 100255c0 f   Ushort565Rgb.obj
 0001:00024660       _Ushort565RgbSrcMaskFill   10025660 f   Ushort565Rgb.obj
 0001:000248c0       _Ushort565RgbSrcOverMaskFill 100258c0 f   Ushort565Rgb.obj
 0001:00024ba0       _Ushort565RgbAlphaMaskFill 10025ba0 f   Ushort565Rgb.obj
 0001:00024f00       _IntArgbToUshort565RgbSrcOverMaskBlit 10025f00 f   Ushort565Rgb.obj
 0001:00025250       _IntArgbPreToUshort565RgbSrcOverMaskBlit 10026250 f   Ushort565Rgb.obj
 0001:000255f0       _Ushort4444ArgbToUshort565RgbSrcOverMaskBlit 100265f0 f   Ushort565Rgb.obj
 0001:000259d0       _IntArgbToUshort565RgbAlphaMaskBlit 100269d0 f   Ushort565Rgb.obj
 0001:00025d40       _IntArgbPreToUshort565RgbAlphaMaskBlit 10026d40 f   Ushort565Rgb.obj
 0001:000260b0       _IntRgbToUshort565RgbAlphaMaskBlit 100270b0 f   Ushort565Rgb.obj
 0001:00026410       _Ushort565RgbDrawGlyphListAA 10027410 f   Ushort565Rgb.obj
 0001:00026630       _Ushort565RgbDrawGlyphListLCD 10027630 f   Ushort565Rgb.obj
 0001:00026910       _RegisterUshort4444Argb    10027910 f   Ushort4444Argb.obj
 0001:00026930       _PixelForUshort4444Argb    10027930 f   Ushort4444Argb.obj
 0001:00026970       _IntArgbToUshort4444ArgbSrcOverMaskBlit 10027970 f   Ushort4444Argb.obj
 0001:00026d60       _RegisterUshort555Rgbx     10027d60 f   Ushort555Rgbx.obj
 0001:00026d80       _PixelForUshort555Rgbx     10027d80 f   Ushort555Rgbx.obj
 0001:00026db0       _Ushort555RgbxToIntArgbConvert 10027db0 f   Ushort555Rgbx.obj
 0001:00026e60       _IntArgbToUshort555RgbxConvert 10027e60 f   Ushort555Rgbx.obj
 0001:00026ee0       _ThreeByteBgrToUshort555RgbxConvert 10027ee0 f   Ushort555Rgbx.obj
 0001:00026f70       _ByteGrayToUshort555RgbxConvert 10027f70 f   Ushort555Rgbx.obj
 0001:00026fe0       _ByteIndexedToUshort555RgbxConvert 10027fe0 f   Ushort555Rgbx.obj
 0001:000270e0       _Ushort555RgbxToIntArgbScaleConvert 100280e0 f   Ushort555Rgbx.obj
 0001:000271b0       _IntArgbToUshort555RgbxScaleConvert 100281b0 f   Ushort555Rgbx.obj
 0001:00027260       _ThreeByteBgrToUshort555RgbxScaleConvert 10028260 f   Ushort555Rgbx.obj
 0001:00027320       _ByteGrayToUshort555RgbxScaleConvert 10028320 f   Ushort555Rgbx.obj
 0001:000273c0       _ByteIndexedToUshort555RgbxScaleConvert 100283c0 f   Ushort555Rgbx.obj
 0001:00027510       _ByteIndexedBmToUshort555RgbxXparOver 10028510 f   Ushort555Rgbx.obj
 0001:00027620       _ByteIndexedBmToUshort555RgbxScaleXparOver 10028620 f   Ushort555Rgbx.obj
 0001:00027780       _IntArgbBmToUshort555RgbxScaleXparOver 10028780 f   Ushort555Rgbx.obj
 0001:00027820       _ByteIndexedBmToUshort555RgbxXparBgCopy 10028820 f   Ushort555Rgbx.obj
 0001:00027950       _IntArgbToUshort555RgbxXorBlit 10028950 f   Ushort555Rgbx.obj
 0001:000279f0       _Ushort555RgbxDrawGlyphListAA 100289f0 f   Ushort555Rgbx.obj
 0001:00027c20       _Ushort555RgbxDrawGlyphListLCD 10028c20 f   Ushort555Rgbx.obj
 0001:00027f10       _RegisterUshortGray        10028f10 f   UshortGray.obj
 0001:00027f30       _PixelForUshortGray        10028f30 f   UshortGray.obj
 0001:00027f80       _UshortGrayToIntArgbConvert 10028f80 f   UshortGray.obj
 0001:00027ff0       _IntArgbToUshortGrayConvert 10028ff0 f   UshortGray.obj
 0001:00028090       _ThreeByteBgrToUshortGrayConvert 10029090 f   UshortGray.obj
 0001:00028120       _ByteGrayToUshortGrayConvert 10029120 f   UshortGray.obj
 0001:00028180       _ByteIndexedToUshortGrayConvert 10029180 f   UshortGray.obj
 0001:00028290       _UshortGrayToIntArgbScaleConvert 10029290 f   UshortGray.obj
 0001:00028320       _IntArgbToUshortGrayScaleConvert 10029320 f   UshortGray.obj
 0001:000283f0       _ThreeByteBgrToUshortGrayScaleConvert 100293f0 f   UshortGray.obj
 0001:000284a0       _ByteGrayToUshortGrayScaleConvert 100294a0 f   UshortGray.obj
 0001:00028520       _ByteIndexedToUshortGrayScaleConvert 10029520 f   UshortGray.obj
 0001:00028680       _ByteIndexedBmToUshortGrayXparOver 10029680 f   UshortGray.obj
 0001:000287b0       _ByteIndexedBmToUshortGrayScaleXparOver 100297b0 f   UshortGray.obj
 0001:00028930       _IntArgbBmToUshortGrayScaleXparOver 10029930 f   UshortGray.obj
 0001:000289f0       _ByteIndexedBmToUshortGrayXparBgCopy 100299f0 f   UshortGray.obj
 0001:00028b30       _IntArgbToUshortGrayXorBlit 10029b30 f   UshortGray.obj
 0001:00028bf0       _UshortGraySrcMaskFill     10029bf0 f   UshortGray.obj
 0001:00028da0       _UshortGraySrcOverMaskFill 10029da0 f   UshortGray.obj
 0001:00028f70       _UshortGrayAlphaMaskFill   10029f70 f   UshortGray.obj
 0001:00029220       _IntArgbToUshortGraySrcOverMaskBlit 1002a220 f   UshortGray.obj
 0001:00029480       _IntArgbToUshortGrayAlphaMaskBlit 1002a480 f   UshortGray.obj
 0001:000297e0       _IntArgbPreToUshortGraySrcOverMaskBlit 1002a7e0 f   UshortGray.obj
 0001:00029a90       _IntArgbPreToUshortGrayAlphaMaskBlit 1002aa90 f   UshortGray.obj
 0001:00029e20       _IntRgbToUshortGrayAlphaMaskBlit 1002ae20 f   UshortGray.obj
 0001:0002a170       _UshortGrayDrawGlyphListAA 1002b170 f   UshortGray.obj
 0001:0002a2e0       _RegisterUshortIndexed     1002b2e0 f   UshortIndexed.obj
 0001:0002a300       _PixelForUshortIndexed     1002b300 f   UshortIndexed.obj
 0001:0002a310       _IntArgbToUshortIndexedConvert 1002b310 f   UshortIndexed.obj
 0001:0002a480       _ThreeByteBgrToUshortIndexedConvert 1002b480 f   UshortIndexed.obj
 0001:0002a5e0       _ByteGrayToUshortIndexedConvert 1002b5e0 f   UshortIndexed.obj
 0001:0002a730       _Index12GrayToUshortIndexedConvert 1002b730 f   UshortIndexed.obj
 0001:0002a890       _UshortIndexedToIntArgbConvert 1002b890 f   UshortIndexed.obj
 0001:0002a890       _Index12GrayToIntArgbConvert 1002b890 f   IntArgb.obj
 0001:0002a900       _UshortIndexedToUshortIndexedConvert 1002b900 f   UshortIndexed.obj
 0001:0002aad0       _IntArgbToUshortIndexedScaleConvert 1002bad0 f   UshortIndexed.obj
 0001:0002ac70       _ThreeByteBgrToUshortIndexedScaleConvert 1002bc70 f   UshortIndexed.obj
 0001:0002ae20       _ByteGrayToUshortIndexedScaleConvert 1002be20 f   UshortIndexed.obj
 0001:0002afb0       _Index12GrayToUshortIndexedScaleConvert 1002bfb0 f   UshortIndexed.obj
 0001:0002b150       _UshortIndexedToUshortIndexedScaleConvert 1002c150 f   UshortIndexed.obj
 0001:0002b380       _ByteIndexedBmToUshortIndexedXparOver 1002c380 f   UshortIndexed.obj
 0001:0002b500       _ByteIndexedBmToUshortIndexedScaleXparOver 1002c500 f   UshortIndexed.obj
 0001:0002b6b0       _IntArgbBmToUshortIndexedScaleXparOver 1002c6b0 f   UshortIndexed.obj
 0001:0002b860       _ByteIndexedBmToUshortIndexedXparBgCopy 1002c860 f   UshortIndexed.obj
 0001:0002b9f0       _IntArgbBmToUshortIndexedXparOver 1002c9f0 f   UshortIndexed.obj
 0001:0002bb80       _IntArgbBmToUshortIndexedXparBgCopy 1002cb80 f   UshortIndexed.obj
 0001:0002bd10       _IntArgbToUshortIndexedXorBlit 1002cd10 f   UshortIndexed.obj
 0001:0002bdc0       _UshortIndexedAlphaMaskFill 1002cdc0 f   UshortIndexed.obj
 0001:0002c210       _IntArgbToUshortIndexedAlphaMaskBlit 1002d210 f   UshortIndexed.obj
 0001:0002c690       _IntArgbPreToUshortIndexedAlphaMaskBlit 1002d690 f   UshortIndexed.obj
 0001:0002cb30       _IntRgbToUshortIndexedAlphaMaskBlit 1002db30 f   UshortIndexed.obj
 0001:0002cf90       _UshortIndexedDrawGlyphListAA 1002df90 f   UshortIndexed.obj
 0001:0002d260       _RegisterAny3Byte          1002e260 f   Any3Byte.obj
 0001:0002d280       _Any3ByteIsomorphicCopy    1002e280 f   Any3Byte.obj
 0001:0002d2d0       _Any3ByteIsomorphicScaleCopy 1002e2d0 f   Any3Byte.obj
 0001:0002d360       _Any3ByteIsomorphicXorCopy 1002e360 f   Any3Byte.obj
 0001:0002d3e0       _Any3ByteSetRect           1002e3e0 f   Any3Byte.obj
 0001:0002d470       _Any3ByteSetSpans          1002e470 f   Any3Byte.obj
 0001:0002d550       _Any3ByteSetParallelogram  1002e550 f   Any3Byte.obj
 0001:0002d610       _Any3ByteSetLine           1002e610 f   Any3Byte.obj
 0001:0002d700       _Any3ByteXorRect           1002e700 f   Any3Byte.obj
 0001:0002d7f0       _Any3ByteXorSpans          1002e7f0 f   Any3Byte.obj
 0001:0002d940       _Any3ByteXorLine           1002e940 f   Any3Byte.obj
 0001:0002dab0       _Any3ByteDrawGlyphList     1002eab0 f   Any3Byte.obj
 0001:0002dbd0       _Any3ByteDrawGlyphListXor  1002ebd0 f   Any3Byte.obj
 0001:0002dd60       _RegisterThreeByteBgr      1002ed60 f   ThreeByteBgr.obj
 0001:0002dd80       _ThreeByteBgrToIntArgbConvert 1002ed80 f   ThreeByteBgr.obj
 0001:0002de00       _IntArgbToThreeByteBgrConvert 1002ee00 f   ThreeByteBgr.obj
 0001:0002de60       _ByteGrayToThreeByteBgrConvert 1002ee60 f   ThreeByteBgr.obj
 0001:0002deb0       _ByteIndexedToThreeByteBgrConvert 1002eeb0 f   ThreeByteBgr.obj
 0001:0002df20       _ThreeByteBgrToIntArgbScaleConvert 1002ef20 f   ThreeByteBgr.obj
 0001:0002dfc0       _IntArgbToThreeByteBgrScaleConvert 1002efc0 f   ThreeByteBgr.obj
 0001:0002e050       _ByteGrayToThreeByteBgrScaleConvert 1002f050 f   ThreeByteBgr.obj
 0001:0002e0d0       _ByteIndexedToThreeByteBgrScaleConvert 1002f0d0 f   ThreeByteBgr.obj
 0001:0002e170       _ByteIndexedBmToThreeByteBgrXparOver 1002f170 f   ThreeByteBgr.obj
 0001:0002e1e0       _ByteIndexedBmToThreeByteBgrScaleXparOver 1002f1e0 f   ThreeByteBgr.obj
 0001:0002e280       _IntArgbBmToThreeByteBgrScaleXparOver 1002f280 f   ThreeByteBgr.obj
 0001:0002e310       _ByteIndexedBmToThreeByteBgrXparBgCopy 1002f310 f   ThreeByteBgr.obj
 0001:0002e3b0       _IntArgbBmToThreeByteBgrXparOver 1002f3b0 f   ThreeByteBgr.obj
 0001:0002e420       _IntArgbBmToThreeByteBgrXparBgCopy 1002f420 f   ThreeByteBgr.obj
 0001:0002e4c0       _IntArgbToThreeByteBgrXorBlit 1002f4c0 f   ThreeByteBgr.obj
 0001:0002e590       _ThreeByteBgrSrcMaskFill   1002f590 f   ThreeByteBgr.obj
 0001:0002e7f0       _ThreeByteBgrSrcOverMaskFill 1002f7f0 f   ThreeByteBgr.obj
 0001:0002ea30       _ThreeByteBgrAlphaMaskFill 1002fa30 f   ThreeByteBgr.obj
 0001:0002ed40       _IntArgbToThreeByteBgrSrcOverMaskBlit 1002fd40 f   ThreeByteBgr.obj
 0001:0002efd0       _IntArgbToThreeByteBgrAlphaMaskBlit 1002ffd0 f   ThreeByteBgr.obj
 0001:0002f310       _IntArgbPreToThreeByteBgrSrcOverMaskBlit 10030310 f   ThreeByteBgr.obj
 0001:0002f5f0       _IntArgbPreToThreeByteBgrAlphaMaskBlit 100305f0 f   ThreeByteBgr.obj
 0001:0002f940       _IntRgbToThreeByteBgrAlphaMaskBlit 10030940 f   ThreeByteBgr.obj
 0001:0002fc60       _ThreeByteBgrDrawGlyphListAA 10030c60 f   ThreeByteBgr.obj
 0001:0002fe60       _ThreeByteBgrDrawGlyphListLCD 10030e60 f   ThreeByteBgr.obj
 0001:00030140       _ThreeByteBgrNrstNbrTransformHelper 10031140 f   ThreeByteBgr.obj
 0001:000301f0       _ThreeByteBgrBilinearTransformHelper 100311f0 f   ThreeByteBgr.obj
 0001:00030390       _ThreeByteBgrBicubicTransformHelper 10031390 f   ThreeByteBgr.obj
 0001:00030740       _RegisterAnyInt            10031740 f   AnyInt.obj
 0001:00030760       _AnyIntIsomorphicCopy      10031760 f   AnyInt.obj
 0001:00030760       _Any4ByteIsomorphicCopy    10031760 f   Any4Byte.obj
 0001:000307b0       _AnyIntIsomorphicXorCopy   100317b0 f   AnyInt.obj
 0001:00030810       _AnyIntIsomorphicScaleCopy 10031810 f   AnyInt.obj
 0001:00030890       _AnyIntSetRect             10031890 f   AnyInt.obj
 0001:000308e0       _AnyIntSetSpans            100318e0 f   AnyInt.obj
 0001:00030980       _AnyIntSetParallelogram    10031980 f   AnyInt.obj
 0001:00030a10       _AnyIntSetLine             10031a10 f   AnyInt.obj
 0001:00030ad0       _AnyIntXorRect             10031ad0 f   AnyInt.obj
 0001:00030b30       _AnyIntXorSpans            10031b30 f   AnyInt.obj
 0001:00030c00       _AnyIntXorLine             10031c00 f   AnyInt.obj
 0001:00030cd0       _AnyIntDrawGlyphList       10031cd0 f   AnyInt.obj
 0001:00030dc0       _AnyIntDrawGlyphListXor    10031dc0 f   AnyInt.obj
 0001:00030ed0       _RegisterIntArgb           10031ed0 f   IntArgb.obj
 0001:00030ef0       _ByteIndexedToIntArgbConvert 10031ef0 f   IntArgb.obj
 0001:00030f50       _ByteIndexedToIntArgbScaleConvert 10031f50 f   IntArgb.obj
 0001:00030fe0       _ByteIndexedBmToIntArgbXparOver 10031fe0 f   IntArgb.obj
 0001:00031040       _ByteIndexedBmToIntArgbScaleXparOver 10032040 f   IntArgb.obj
 0001:000310d0       _IntArgbBmToIntArgbScaleXparOver 100320d0 f   IntArgb.obj
 0001:00031150       _ByteIndexedBmToIntArgbXparBgCopy 10032150 f   IntArgb.obj
 0001:000311b0       _IntArgbSrcMaskFill        100321b0 f   IntArgb.obj
 0001:000313f0       _IntArgbSrcOverMaskFill    100323f0 f   IntArgb.obj
 0001:000316f0       _IntArgbAlphaMaskFill      100326f0 f   IntArgb.obj
 0001:00031a30       _IntArgbToIntArgbSrcOverMaskBlit 10032a30 f   IntArgb.obj
 0001:00031d60       _IntArgbToIntArgbAlphaMaskBlit 10032d60 f   IntArgb.obj
 0001:000320e0       _IntArgbPreToIntArgbSrcOverMaskBlit 100330e0 f   IntArgb.obj
 0001:00032490       _IntArgbPreToIntArgbAlphaMaskBlit 10033490 f   IntArgb.obj
 0001:00032820       _IntRgbToIntArgbAlphaMaskBlit 10033820 f   IntArgb.obj
 0001:00032b80       _IntArgbDrawGlyphListAA    10033b80 f   IntArgb.obj
 0001:00032de0       _IntArgbDrawGlyphListLCD   10033de0 f   IntArgb.obj
 0001:00033100       _IntArgbNrstNbrTransformHelper 10034100 f   IntArgb.obj
 0001:00033200       _IntArgbBilinearTransformHelper 10034200 f   IntArgb.obj
 0001:000334e0       _IntArgbBicubicTransformHelper 100344e0 f   IntArgb.obj
 0001:00033d60       _RegisterIntArgbPre        10034d60 f   IntArgbPre.obj
 0001:00033d80       _PixelForIntArgbPre        10034d80 f   IntArgbPre.obj
 0001:00033de0       _IntArgbPreToIntArgbConvert 10034de0 f   IntArgbPre.obj
 0001:00033e90       _IntArgbToIntArgbPreConvert 10034e90 f   IntArgbPre.obj
 0001:00033f50       _IntRgbToIntArgbPreConvert 10034f50 f   IntArgbPre.obj
 0001:00034010       _ThreeByteBgrToIntArgbPreConvert 10035010 f   IntArgbPre.obj
 0001:00034100       _ByteGrayToIntArgbPreConvert 10035100 f   IntArgbPre.obj
 0001:000341e0       _ByteIndexedToIntArgbPreConvert 100351e0 f   IntArgbPre.obj
 0001:000342b0       _IntArgbPreToIntArgbScaleConvert 100352b0 f   IntArgbPre.obj
 0001:000343a0       _IntArgbToIntArgbPreScaleConvert 100353a0 f   IntArgbPre.obj
 0001:00034490       _IntRgbToIntArgbPreScaleConvert 10035490 f   IntArgbPre.obj
 0001:00034580       _ThreeByteBgrToIntArgbPreScaleConvert 10035580 f   IntArgbPre.obj
 0001:00034690       _ByteGrayToIntArgbPreScaleConvert 10035690 f   IntArgbPre.obj
 0001:00034790       _ByteIndexedToIntArgbPreScaleConvert 10035790 f   IntArgbPre.obj
 0001:000348a0       _ByteIndexedBmToIntArgbPreXparOver 100358a0 f   IntArgbPre.obj
 0001:00034970       _ByteIndexedBmToIntArgbPreScaleXparOver 10035970 f   IntArgbPre.obj
 0001:00034a80       _ByteIndexedBmToIntArgbPreXparBgCopy 10035a80 f   IntArgbPre.obj
 0001:00034b60       _IntArgbToIntArgbPreXorBlit 10035b60 f   IntArgbPre.obj
 0001:00034c50       _IntArgbPreSrcMaskFill     10035c50 f   IntArgbPre.obj
 0001:00034e50       _IntArgbPreSrcOverMaskFill 10035e50 f   IntArgbPre.obj
 0001:000350f0       _IntArgbPreAlphaMaskFill   100360f0 f   IntArgbPre.obj
 0001:000353f0       _IntArgbToIntArgbPreSrcOverMaskBlit 100363f0 f   IntArgbPre.obj
 0001:000356e0       _IntArgbToIntArgbPreAlphaMaskBlit 100366e0 f   IntArgbPre.obj
 0001:00035a30       _IntArgbPreToIntArgbPreSrcOverMaskBlit 10036a30 f   IntArgbPre.obj
 0001:00035d80       _IntArgbPreToIntArgbPreAlphaMaskBlit 10036d80 f   IntArgbPre.obj
 0001:000360f0       _IntRgbToIntArgbPreAlphaMaskBlit 100370f0 f   IntArgbPre.obj
 0001:00036420       _IntArgbPreDrawGlyphListAA 10037420 f   IntArgbPre.obj
 0001:00036690       _IntArgbPreDrawGlyphListLCD 10037690 f   IntArgbPre.obj
 0001:00036a40       _IntArgbPreNrstNbrTransformHelper 10037a40 f   IntArgbPre.obj
 0001:00036ac0       _IntArgbPreBilinearTransformHelper 10037ac0 f   IntArgbPre.obj
 0001:00036bf0       _IntArgbPreBicubicTransformHelper 10037bf0 f   IntArgbPre.obj
 0001:00036dd0       _RegisterIntArgbBm         10037dd0 f   IntArgbBm.obj
 0001:00036df0       _PixelForIntArgbBm         10037df0 f   IntArgbBm.obj
 0001:00036e10       _IntArgbBmToIntArgbConvert 10037e10 f   IntArgbBm.obj
 0001:00036e70       _IntArgbToIntArgbBmConvert 10037e70 f   IntArgbBm.obj
 0001:00036ed0       _ByteIndexedToIntArgbBmConvert 10037ed0 f   IntArgbBm.obj
 0001:00036f40       _IntArgbToIntArgbBmScaleConvert 10037f40 f   IntArgbBm.obj
 0001:00036fd0       _ByteIndexedToIntArgbBmScaleConvert 10037fd0 f   IntArgbBm.obj
 0001:00037070       _ByteIndexedBmToIntArgbBmXparOver 10038070 f   IntArgbBm.obj
 0001:00037170       _ByteIndexedBmToIntArgbBmScaleXparOver 10038170 f   IntArgbBm.obj
 0001:000372c0       _ByteIndexedBmToIntArgbBmXparBgCopy 100382c0 f   IntArgbBm.obj
 0001:000373c0       _IntArgbToIntArgbBmXorBlit 100383c0 f   IntArgbBm.obj
 0001:00037440       _IntArgbBmAlphaMaskFill    10038440 f   IntArgbBm.obj
 0001:00037790       _IntArgbToIntArgbBmAlphaMaskBlit 10038790 f   IntArgbBm.obj
 0001:00037b20       _IntArgbPreToIntArgbBmAlphaMaskBlit 10038b20 f   IntArgbBm.obj
 0001:00037eb0       _IntArgbBmDrawGlyphListAA  10038eb0 f   IntArgbBm.obj
 0001:00038110       _IntArgbBmDrawGlyphListLCD 10039110 f   IntArgbBm.obj
 0001:00038440       _IntArgbBmNrstNbrTransformHelper 10039440 f   IntArgbBm.obj
 0001:000384d0       _IntArgbBmBilinearTransformHelper 100394d0 f   IntArgbBm.obj
 0001:00038630       _IntArgbBmBicubicTransformHelper 10039630 f   IntArgbBm.obj
 0001:000388f0       _RegisterIntRgb            100398f0 f   IntRgb.obj
 0001:00038910       _IntRgbToIntArgbConvert    10039910 f   IntRgb.obj
 0001:00038970       _ThreeByteBgrToIntRgbConvert 10039970 f   IntRgb.obj
 0001:000389e0       _ByteGrayToIntRgbConvert   100399e0 f   IntRgb.obj
 0001:00038a40       _IntArgbBmToIntRgbXparOver 10039a40 f   IntRgb.obj
 0001:00038aa0       _IntArgbBmToIntRgbXparBgCopy 10039aa0 f   IntRgb.obj
 0001:00038b00       _IntRgbToIntArgbScaleConvert 10039b00 f   IntRgb.obj
 0001:00038b80       _ThreeByteBgrToIntRgbScaleConvert 10039b80 f   IntRgb.obj
 0001:00038c20       _ByteGrayToIntRgbScaleConvert 10039c20 f   IntRgb.obj
 0001:00038cb0       _IntArgbToIntArgbXorBlit   10039cb0 f   IntArgb.obj
 0001:00038cb0       _IntArgbToIntRgbXorBlit    10039cb0 f   IntRgb.obj
 0001:00038d30       _IntRgbSrcMaskFill         10039d30 f   IntRgb.obj
 0001:00038f40       _IntRgbSrcOverMaskFill     10039f40 f   IntRgb.obj
 0001:000391a0       _IntRgbAlphaMaskFill       1003a1a0 f   IntRgb.obj
 0001:000394d0       _IntArgbToIntRgbSrcOverMaskBlit 1003a4d0 f   IntRgb.obj
 0001:00039780       _IntArgbToIntRgbAlphaMaskBlit 1003a780 f   IntRgb.obj
 0001:00039ac0       _IntArgbPreToIntRgbSrcOverMaskBlit 1003aac0 f   IntRgb.obj
 0001:00039dc0       _IntArgbPreToIntRgbAlphaMaskBlit 1003adc0 f   IntRgb.obj
 0001:0003a120       _IntRgbToIntRgbAlphaMaskBlit 1003b120 f   IntRgb.obj
 0001:0003a450       _IntRgbDrawGlyphListAA     1003b450 f   IntRgb.obj
 0001:0003a640       _IntRgbDrawGlyphListLCD    1003b640 f   IntRgb.obj
 0001:0003a8d0       _IntRgbNrstNbrTransformHelper 1003b8d0 f   IntRgb.obj
 0001:0003a960       _IntRgbBilinearTransformHelper 1003b960 f   IntRgb.obj
 0001:0003aab0       _IntRgbBicubicTransformHelper 1003bab0 f   IntRgb.obj
 0001:0003acf0       _RegisterIntBgr            1003bcf0 f   IntBgr.obj
 0001:0003ad10       _PixelForIntBgr            1003bd10 f   IntBgr.obj
 0001:0003ad30       _IntBgrToIntArgbConvert    1003bd30 f   IntBgr.obj
 0001:0003adb0       _IntArgbToIntBgrConvert    1003bdb0 f   IntBgr.obj
 0001:0003ae20       _ThreeByteBgrToIntBgrConvert 1003be20 f   IntBgr.obj
 0001:0003ae90       _ByteIndexedToIntBgrConvert 1003be90 f   IntBgr.obj
 0001:0003af90       _IntBgrToIntArgbScaleConvert 1003bf90 f   IntBgr.obj
 0001:0003b040       _IntArgbToIntBgrScaleConvert 1003c040 f   IntBgr.obj
 0001:0003b0e0       _ThreeByteBgrToIntBgrScaleConvert 1003c0e0 f   IntBgr.obj
 0001:0003b180       _ByteIndexedToIntBgrScaleConvert 1003c180 f   IntBgr.obj
 0001:0003b2d0       _ByteIndexedBmToIntBgrXparOver 1003c2d0 f   IntBgr.obj
 0001:0003b3e0       _IntArgbBmToIntBgrXparOver 1003c3e0 f   IntBgr.obj
 0001:0003b460       _IntArgbBmToIntBgrScaleXparOver 1003c460 f   IntBgr.obj
 0001:0003b500       _ByteIndexedBmToIntBgrScaleXparOver 1003c500 f   IntBgr.obj
 0001:0003b670       _ByteIndexedBmToIntBgrXparBgCopy 1003c670 f   IntBgr.obj
 0001:0003b790       _IntArgbBmToIntBgrXparBgCopy 1003c790 f   IntBgr.obj
 0001:0003b810       _IntArgbToIntBgrXorBlit    1003c810 f   IntBgr.obj
 0001:0003b8a0       _IntBgrSrcMaskFill         1003c8a0 f   IntBgr.obj
 0001:0003bac0       _IntBgrSrcOverMaskFill     1003cac0 f   IntBgr.obj
 0001:0003bd30       _IntBgrAlphaMaskFill       1003cd30 f   IntBgr.obj
 0001:0003c060       _IntArgbToIntBgrSrcOverMaskBlit 1003d060 f   IntBgr.obj
 0001:0003c310       _IntArgbToIntBgrAlphaMaskBlit 1003d310 f   IntBgr.obj
 0001:0003c670       _IntArgbPreToIntBgrSrcOverMaskBlit 1003d670 f   IntBgr.obj
 0001:0003c960       _IntArgbPreToIntBgrAlphaMaskBlit 1003d960 f   IntBgr.obj
 0001:0003cc90       _IntRgbToIntBgrAlphaMaskBlit 1003dc90 f   IntBgr.obj
 0001:0003cfc0       _IntBgrToIntBgrAlphaMaskBlit 1003dfc0 f   IntBgr.obj
 0001:0003d2f0       _IntBgrDrawGlyphListAA     1003e2f0 f   IntBgr.obj
 0001:0003d4d0       _IntBgrDrawGlyphListLCD    1003e4d0 f   IntBgr.obj
 0001:0003d760       _IntBgrNrstNbrTransformHelper 1003e760 f   IntBgr.obj
 0001:0003d810       _IntBgrBilinearTransformHelper 1003e810 f   IntBgr.obj
 0001:0003d9d0       _IntBgrBicubicTransformHelper 1003e9d0 f   IntBgr.obj
 0001:0003dde0       _RegisterIntRgbx           1003ede0 f   IntRgbx.obj
 0001:0003de00       _PixelForIntRgbx           1003ee00 f   IntRgbx.obj
 0001:0003de10       _IntRgbxToIntArgbConvert   1003ee10 f   IntRgbx.obj
 0001:0003de70       _IntArgbToIntRgbxConvert   1003ee70 f   IntRgbx.obj
 0001:0003dec0       _ThreeByteBgrToIntRgbxConvert 1003eec0 f   IntRgbx.obj
 0001:0003df30       _ByteGrayToIntRgbxConvert  1003ef30 f   IntRgbx.obj
 0001:0003df90       _ByteIndexedToIntRgbxConvert 1003ef90 f   IntRgbx.obj
 0001:0003dff0       _IntRgbxToIntArgbScaleConvert 1003eff0 f   IntRgbx.obj
 0001:0003e070       _IntArgbToIntRgbxScaleConvert 1003f070 f   IntRgbx.obj
 0001:0003e0f0       _ThreeByteBgrToIntRgbxScaleConvert 1003f0f0 f   IntRgbx.obj
 0001:0003e190       _ByteGrayToIntRgbxScaleConvert 1003f190 f   IntRgbx.obj
 0001:0003e220       _ByteIndexedToIntRgbxScaleConvert 1003f220 f   IntRgbx.obj
 0001:0003e2b0       _ByteIndexedBmToIntRgbxXparOver 1003f2b0 f   IntRgbx.obj
 0001:0003e310       _ByteIndexedBmToIntRgbxScaleXparOver 1003f310 f   IntRgbx.obj
 0001:0003e3b0       _IntArgbBmToIntRgbxScaleXparOver 1003f3b0 f   IntRgbx.obj
 0001:0003e430       _ByteIndexedBmToIntRgbxXparBgCopy 1003f430 f   IntRgbx.obj
 0001:0003e490       _IntArgbToIntRgbxXorBlit   1003f490 f   IntRgbx.obj
 0001:0003e510       _IntRgbxSrcMaskFill        1003f510 f   IntRgbx.obj
 0001:0003e730       _IntRgbxSrcOverMaskFill    1003f730 f   IntRgbx.obj
 0001:0003e990       _IntRgbxAlphaMaskFill      1003f990 f   IntRgbx.obj
 0001:0003ecd0       _IntArgbToIntRgbxSrcOverMaskBlit 1003fcd0 f   IntRgbx.obj
 0001:0003ef80       _IntArgbToIntRgbxAlphaMaskBlit 1003ff80 f   IntRgbx.obj
 0001:0003f2c0       _IntArgbPreToIntRgbxSrcOverMaskBlit 100402c0 f   IntRgbx.obj
 0001:0003f5c0       _IntArgbPreToIntRgbxAlphaMaskBlit 100405c0 f   IntRgbx.obj
 0001:0003f930       _IntRgbToIntRgbxAlphaMaskBlit 10040930 f   IntRgbx.obj
 0001:0003fc70       _IntRgbxDrawGlyphListAA    10040c70 f   IntRgbx.obj
 0001:0003fe60       _IntRgbxDrawGlyphListLCD   10040e60 f   IntRgbx.obj
 0001:00040100       _IntRgbxNrstNbrTransformHelper 10041100 f   IntRgbx.obj
 0001:00040190       _IntRgbxBilinearTransformHelper 10041190 f   IntRgbx.obj
 0001:000402e0       _IntRgbxBicubicTransformHelper 100412e0 f   IntRgbx.obj
 0001:00040550       _RegisterAny4Byte          10041550 f   Any4Byte.obj
 0001:00040570       _Any4ByteIsomorphicScaleCopy 10041570 f   Any4Byte.obj
 0001:00040600       _Any4ByteSetRect           10041600 f   Any4Byte.obj
 0001:00040690       _Any4ByteSetSpans          10041690 f   Any4Byte.obj
 0001:00040790       _Any4ByteSetParallelogram  10041790 f   Any4Byte.obj
 0001:00040860       _Any4ByteSetLine           10041860 f   Any4Byte.obj
 0001:00040970       _Any4ByteXorRect           10041970 f   Any4Byte.obj
 0001:00040a90       _Any4ByteXorSpans          10041a90 f   Any4Byte.obj
 0001:00040c20       _Any4ByteXorLine           10041c20 f   Any4Byte.obj
 0001:00040de0       _Any4ByteDrawGlyphList     10041de0 f   Any4Byte.obj
 0001:00040f10       _Any4ByteDrawGlyphListXor  10041f10 f   Any4Byte.obj
 0001:000410d0       _RegisterFourByteAbgr      100420d0 f   FourByteAbgr.obj
 0001:000410f0       _PixelForFourByteAbgr      100420f0 f   FourByteAbgr.obj
 0001:00041100       _FourByteAbgrToIntArgbConvert 10042100 f   FourByteAbgr.obj
 0001:00041170       _IntArgbToFourByteAbgrConvert 10042170 f   FourByteAbgr.obj
 0001:000411e0       _ByteIndexedToFourByteAbgrConvert 100421e0 f   FourByteAbgr.obj
 0001:00041250       _FourByteAbgrToIntArgbScaleConvert 10042250 f   FourByteAbgr.obj
 0001:000412f0       _IntArgbToFourByteAbgrScaleConvert 100422f0 f   FourByteAbgr.obj
 0001:00041380       _ByteGrayToFourByteAbgrPreScaleConvert 10042380 f   FourByteAbgrPre.obj
 0001:00041380       _ByteGrayToFourByteAbgrScaleConvert 10042380 f   FourByteAbgr.obj
 0001:00041400       _ByteIndexedToFourByteAbgrScaleConvert 10042400 f   FourByteAbgr.obj
 0001:000414b0       _ByteIndexedBmToFourByteAbgrXparOver 100424b0 f   FourByteAbgr.obj
 0001:00041530       _ByteIndexedBmToFourByteAbgrScaleXparOver 10042530 f   FourByteAbgr.obj
 0001:000415e0       _ByteIndexedBmToFourByteAbgrXparBgCopy 100425e0 f   FourByteAbgr.obj
 0001:000416a0       _IntArgbToFourByteAbgrXorBlit 100426a0 f   FourByteAbgr.obj
 0001:000417a0       _FourByteAbgrSrcMaskFill   100427a0 f   FourByteAbgr.obj
 0001:00041a20       _FourByteAbgrSrcOverMaskFill 10042a20 f   FourByteAbgr.obj
 0001:00041d20       _FourByteAbgrAlphaMaskFill 10042d20 f   FourByteAbgr.obj
 0001:00042030       _IntArgbToFourByteAbgrSrcOverMaskBlit 10043030 f   FourByteAbgr.obj
 0001:00042380       _IntArgbToFourByteAbgrAlphaMaskBlit 10043380 f   FourByteAbgr.obj
 0001:000426d0       _IntArgbPreToFourByteAbgrSrcOverMaskBlit 100436d0 f   FourByteAbgr.obj
 0001:00042a80       _IntArgbPreToFourByteAbgrAlphaMaskBlit 10043a80 f   FourByteAbgr.obj
 0001:00042dd0       _IntRgbToFourByteAbgrAlphaMaskBlit 10043dd0 f   FourByteAbgr.obj
 0001:00043110       _FourByteAbgrDrawGlyphListAA 10044110 f   FourByteAbgr.obj
 0001:000433a0       _FourByteAbgrDrawGlyphListLCD 100443a0 f   FourByteAbgr.obj
 0001:00043710       _FourByteAbgrNrstNbrTransformHelper 10044710 f   FourByteAbgr.obj
 0001:00043800       _FourByteAbgrBilinearTransformHelper 10044800 f   FourByteAbgr.obj
 0001:00043ac0       _FourByteAbgrBicubicTransformHelper 10044ac0 f   FourByteAbgr.obj
 0001:00044370       _RegisterFourByteAbgrPre   10045370 f   FourByteAbgrPre.obj
 0001:00044390       _PixelForFourByteAbgrPre   10045390 f   FourByteAbgrPre.obj
 0001:00044400       _FourByteAbgrPreToIntArgbConvert 10045400 f   FourByteAbgrPre.obj
 0001:000444b0       _IntArgbToFourByteAbgrPreConvert 100454b0 f   FourByteAbgrPre.obj
 0001:00044580       _IntRgbToFourByteAbgrConvert 10045580 f   FourByteAbgr.obj
 0001:00044580       _IntRgbToFourByteAbgrPreConvert 10045580 f   FourByteAbgrPre.obj
 0001:000445e0       _ThreeByteBgrToFourByteAbgrPreConvert 100455e0 f   FourByteAbgrPre.obj
 0001:000445e0       _ThreeByteBgrToFourByteAbgrConvert 100455e0 f   FourByteAbgr.obj
 0001:00044650       _ByteGrayToFourByteAbgrPreConvert 10045650 f   FourByteAbgrPre.obj
 0001:00044650       _ByteGrayToFourByteAbgrConvert 10045650 f   FourByteAbgr.obj
 0001:000446b0       _ByteIndexedToFourByteAbgrPreConvert 100456b0 f   FourByteAbgrPre.obj
 0001:00044790       _FourByteAbgrPreToIntArgbScaleConvert 10045790 f   FourByteAbgrPre.obj
 0001:00044880       _IntArgbToFourByteAbgrPreScaleConvert 10045880 f   FourByteAbgrPre.obj
 0001:00044970       _IntRgbToFourByteAbgrScaleConvert 10045970 f   FourByteAbgr.obj
 0001:00044970       _IntRgbToFourByteAbgrPreScaleConvert 10045970 f   FourByteAbgrPre.obj
 0001:00044a00       _ThreeByteBgrToFourByteAbgrScaleConvert 10045a00 f   FourByteAbgr.obj
 0001:00044a00       _ThreeByteBgrToFourByteAbgrPreScaleConvert 10045a00 f   FourByteAbgrPre.obj
 0001:00044aa0       _ByteIndexedToFourByteAbgrPreScaleConvert 10045aa0 f   FourByteAbgrPre.obj
 0001:00044ba0       _ByteIndexedBmToFourByteAbgrPreXparOver 10045ba0 f   FourByteAbgrPre.obj
 0001:00044c80       _ByteIndexedBmToFourByteAbgrPreScaleXparOver 10045c80 f   FourByteAbgrPre.obj
 0001:00044d90       _IntArgbBmToFourByteAbgrScaleXparOver 10045d90 f   FourByteAbgr.obj
 0001:00044d90       _IntArgbBmToFourByteAbgrPreScaleXparOver 10045d90 f   FourByteAbgrPre.obj
 0001:00044e20       _ByteIndexedBmToFourByteAbgrPreXparBgCopy 10045e20 f   FourByteAbgrPre.obj
 0001:00044f50       _IntArgbToFourByteAbgrPreXorBlit 10045f50 f   FourByteAbgrPre.obj
 0001:000450e0       _FourByteAbgrPreSrcMaskFill 100460e0 f   FourByteAbgrPre.obj
 0001:000452e0       _FourByteAbgrPreSrcOverMaskFill 100462e0 f   FourByteAbgrPre.obj
 0001:00045570       _FourByteAbgrPreAlphaMaskFill 10046570 f   FourByteAbgrPre.obj
 0001:00045850       _IntArgbToFourByteAbgrPreSrcOverMaskBlit 10046850 f   FourByteAbgrPre.obj
 0001:00045b10       _IntArgbToFourByteAbgrPreAlphaMaskBlit 10046b10 f   FourByteAbgrPre.obj
 0001:00045e50       _IntArgbPreToFourByteAbgrPreSrcOverMaskBlit 10046e50 f   FourByteAbgrPre.obj
 0001:00046170       _IntArgbPreToFourByteAbgrPreAlphaMaskBlit 10047170 f   FourByteAbgrPre.obj
 0001:00046490       _IntRgbToFourByteAbgrPreAlphaMaskBlit 10047490 f   FourByteAbgrPre.obj
 0001:000467b0       _FourByteAbgrPreDrawGlyphListAA 100477b0 f   FourByteAbgrPre.obj
 0001:00046a60       _FourByteAbgrPreDrawGlyphListLCD 10047a60 f   FourByteAbgrPre.obj
 0001:00046e60       _FourByteAbgrPreNrstNbrTransformHelper 10047e60 f   FourByteAbgrPre.obj
 0001:00046f10       _FourByteAbgrPreBilinearTransformHelper 10047f10 f   FourByteAbgrPre.obj
 0001:000470b0       _FourByteAbgrPreBicubicTransformHelper 100480b0 f   FourByteAbgrPre.obj
 0001:000474a0       _Java_sun_java2d_pipe_BufferedMaskBlit_enqueueTile@76 100484a0 f   BufferedMaskBlit.obj
 0001:00047a8c       _Java_sun_java2d_pipe_BufferedRenderPipe_fillSpans@48 10048a8c f   BufferedRenderPipe.obj
 0001:00047c20       _Java_sun_java2d_pipe_ShapeSpanIterator_initIDs@8 10048c20 f   ShapeSpanIterator.obj
 0001:00047c50       _Java_sun_java2d_pipe_ShapeSpanIterator_setOutputAreaXYXY@24 10048c50 f   ShapeSpanIterator.obj
 0001:00047cc0       _Java_sun_java2d_pipe_ShapeSpanIterator_setRule@12 10048cc0 f   ShapeSpanIterator.obj
 0001:00047d20       _Java_sun_java2d_pipe_ShapeSpanIterator_getNativeIterator@8 10048d20 f   ShapeSpanIterator.obj
 0001:00047d30       _Java_sun_java2d_pipe_ShapeSpanIterator_dispose@8 10048d30 f   ShapeSpanIterator.obj
 0001:00047da0       _Java_sun_java2d_pipe_ShapeSpanIterator_getNativeConsumer@8 10048da0 f   ShapeSpanIterator.obj
 0001:00048c10       _Java_sun_java2d_pipe_ShapeSpanIterator_addSegment@16 10049c10 f   ShapeSpanIterator.obj
 0001:00049490       _Java_sun_java2d_pipe_ShapeSpanIterator_getPathBox@12 1004a490 f   ShapeSpanIterator.obj
 0001:00049540       _Java_sun_java2d_pipe_ShapeSpanIterator_intersectClipBox@24 1004a540 f   ShapeSpanIterator.obj
 0001:000495c0       _Java_sun_java2d_pipe_ShapeSpanIterator_appendPoly@28 1004a5c0 f   ShapeSpanIterator.obj
 0001:00049a50       _Java_sun_java2d_pipe_ShapeSpanIterator_moveTo@16 1004aa50 f   ShapeSpanIterator.obj
 0001:00049c20       _Java_sun_java2d_pipe_ShapeSpanIterator_lineTo@16 1004ac20 f   ShapeSpanIterator.obj
 0001:00049dc0       _Java_sun_java2d_pipe_ShapeSpanIterator_quadTo@24 1004adc0 f   ShapeSpanIterator.obj
 0001:0004a010       _Java_sun_java2d_pipe_ShapeSpanIterator_curveTo@32 1004b010 f   ShapeSpanIterator.obj
 0001:0004a2e0       _Java_sun_java2d_pipe_ShapeSpanIterator_closePath@8 1004b2e0 f   ShapeSpanIterator.obj
 0001:0004a3a0       _Java_sun_java2d_pipe_ShapeSpanIterator_pathDone@8 1004b3a0 f   ShapeSpanIterator.obj
 0001:0004b190       _Java_sun_java2d_pipe_ShapeSpanIterator_setNormalize@12 1004c190 f   ShapeSpanIterator.obj
 0001:0004b1b0       _Java_sun_java2d_pipe_ShapeSpanIterator_nextSpan@12 1004c1b0 f   ShapeSpanIterator.obj
 0001:0004b270       _Java_sun_java2d_pipe_ShapeSpanIterator_skipDownTo@12 1004c270 f   ShapeSpanIterator.obj
 0001:0004b2f0       _Java_sun_java2d_pipe_SpanClipRenderer_initIDs@16 1004c2f0 f   SpanClipRenderer.obj
 0001:0004b3e7       _Java_sun_java2d_pipe_SpanClipRenderer_eraseTile@28 1004c3e7 f   SpanClipRenderer.obj
 0001:0004b76d       _Java_sun_java2d_pipe_SpanClipRenderer_fillTile@28 1004c76d f   SpanClipRenderer.obj
 0001:0004b855       _Java_sun_java2d_SurfaceData_initIDs@8 1004c855 f   SurfaceData.obj
 0001:0004b90b       _Java_sun_java2d_SurfaceData_isOpaqueGray@12 1004c90b f   SurfaceData.obj
 0001:0004b930       _SurfaceData_ThrowInvalidPipeException@8 1004c930 f   SurfaceData.obj
 0001:0004b947       _SurfaceData_IntersectBounds@8 1004c947 f   SurfaceData.obj
 0001:0004b97b       _SurfaceData_IntersectBoundsXYXY@20 1004c97b f   SurfaceData.obj
 0001:0004b9af       _SurfaceData_IntersectBoundsXYWH@20 1004c9af f   SurfaceData.obj
 0001:0004ba09       _SurfaceData_IntersectBlitBounds@16 1004ca09 f   SurfaceData.obj
 0001:0004ba82       _SurfaceData_DisposeOps    1004ca82 f   SurfaceData.obj
 0001:0004bb45       _SurfaceData_GetOps@8      1004cb45 f   SurfaceData.obj
 0001:0004bb5c       _SurfaceData_GetOpsNoSetup@8 1004cb5c f   SurfaceData.obj
 0001:0004bb73       _SurfaceData_SetOps@12     1004cb73 f   SurfaceData.obj
 0001:0004bbd2       _SurfaceData_InitOps       1004cbd2 f   SurfaceData.obj
 0001:0004bc17       _Java_sun_java2d_pipe_Region_initIDs@8 1004cc17 f   Region.obj
 0001:0004bcc3       _Region_GetInfo@12         1004ccc3 f   Region.obj
 0001:0004bd71       _Region_GetBounds@12       1004cd71 f   Region.obj
 0001:0004bdec       _Region_StartIteration@8   1004cdec f   Region.obj
 0001:0004be1c       _Region_CountIterationRects@4 1004ce1c f   Region.obj
 0001:0004beb2       _Region_NextIteration@8    1004ceb2 f   Region.obj
 0001:0004bfa2       _Region_EndIteration@8     1004cfa2 f   Region.obj
 0001:0004bfc4       _RegionToYXBandedRectangles@32 1004cfc4 f   Region.obj
 0001:0004c0c4       _DBN_GetPixelPointer       1004d0c4 f   DataBufferNative.obj
 0001:0004c14c       _Java_sun_awt_image_DataBufferNative_getElem@20 1004d14c f   DataBufferNative.obj
 0001:0004c1fd       _Java_sun_awt_image_DataBufferNative_setElem@24 1004d1fd f   DataBufferNative.obj
 0001:0004c2a0       _Java_sun_awt_image_BufImgSurfaceData_initIDs@16 1004d2a0 f   BufImgSurfaceData.obj
 0001:0004c395       _Java_sun_awt_image_BufImgSurfaceData_freeNativeICMData@16 1004d395 f   BufImgSurfaceData.obj
 0001:0004c65f       _Java_sun_awt_image_BufImgSurfaceData_initRaster@40 1004d65f f   BufImgSurfaceData.obj
 0001:0004c73e       _Java_sun_java2d_Disposer_initIDs@8 1004d73e f   Disposer.obj
 0001:0004c781       _Disposer_AddRecord@20     1004d781 f   Disposer.obj
 0001:0004c7c8       _Java_sun_java2d_DefaultDisposerRecord_invokeNativeDispose@24 1004d7c8 f   Disposer.obj
 0001:0004c7ee       _J2dTraceInit@0            1004d7ee f   Trace.obj
 0001:0004c881       _J2dTraceImpl              1004d881 f   Trace.obj
 0001:0004c923       _make_uns_ordered_dither_array 1004d923 f   img_globals.obj
 0001:0004c9aa       _make_sgn_ordered_dither_array 1004d9aa f   img_globals.obj
 0001:0004ca3b       _Java_sun_awt_image_GifImageDecoder_initIDs@8 1004da3b f   gifdecoder.obj
 0001:0004cac6       _Java_sun_awt_image_GifImageDecoder_parseImage@44 1004dac6 f   gifdecoder.obj
 0001:0004d460       _awt_parseRaster           1004e460 f   awt_parseImage.obj
 0001:0004daf0       _awt_parseColorModel       1004eaf0 f   awt_parseImage.obj
 0001:0004def0       _awt_freeParsedRaster      1004eef0 f   awt_parseImage.obj
 0001:0004df20       _awt_freeParsedImage       1004ef20 f   awt_parseImage.obj
 0001:0004e4b0       _awt_getPixelByte          1004f4b0 f   awt_parseImage.obj
 0001:0004e760       _awt_setPixelByte          1004f760 f   awt_parseImage.obj
 0001:0004ea00       _awt_getPixelShort         1004fa00 f   awt_parseImage.obj
 0001:0004ecd0       _awt_setPixelShort         1004fcd0 f   awt_parseImage.obj
 0001:0004ef70       _awt_parseImage            1004ff70 f   awt_parseImage.obj
 0001:0004f0b1       _Java_sun_awt_image_ImageRepresentation_initIDs@8 100500b1 f   awt_ImageRep.obj
 0001:0004f0f1       _Java_sun_awt_image_ImageRepresentation_setICMpixels@44 100500f1 f   awt_ImageRep.obj
 0001:0004f3e8       _Java_sun_awt_image_ImageRepresentation_setDiffICM@60 100503e8 f   awt_ImageRep.obj
 0001:0004f6c0       _Java_sun_awt_image_ImagingLib_init@8 100506c0 f   awt_ImagingLib.obj
 0001:00052c40       _Java_sun_awt_image_ImagingLib_convolveRaster@24 10053c40 f   awt_ImagingLib.obj
 0001:00053510       _Java_sun_awt_image_ImagingLib_transformRaster@24 10054510 f   awt_ImagingLib.obj
 0001:000539d0       _Java_sun_awt_image_ImagingLib_lookupByteRaster@20 100549d0 f   awt_ImagingLib.obj
 0001:00054240       _Java_sun_awt_image_ImagingLib_convolveBI@24 10055240 f   awt_ImagingLib.obj
 0001:00054a40       _Java_sun_awt_image_ImagingLib_transformBI@24 10055a40 f   awt_ImagingLib.obj
 0001:00054f30       _Java_sun_awt_image_ImagingLib_lookupByteBI@20 10055f30 f   awt_ImagingLib.obj
 0001:000555de       _initInverseGrayLut        100565de f   dither.obj
 0001:000556a0       _freeICMColorData          100566a0 f   dither.obj
 0001:00055925       _initCubemap               10056925 f   dither.obj
 0001:00055adb       _make_dither_arrays        10056adb f   dither.obj
 0001:00055b9c       _initDitherTables          10056b9c f   dither.obj
 0001:00055bd5       _Java_java_awt_image_BufferedImage_initIDs@8 10056bd5 f   imageInitIDs.obj
 0001:00055c8e       _Java_java_awt_image_Raster_initIDs@8 10056c8e f   imageInitIDs.obj
 0001:00055e0d       _Java_sun_awt_image_ByteComponentRaster_initIDs@8 10056e0d f   imageInitIDs.obj
 0001:00055eda       _Java_sun_awt_image_BytePackedRaster_initIDs@8 10056eda f   imageInitIDs.obj
 0001:00055f8a       _Java_sun_awt_image_ShortComponentRaster_initIDs@8 10056f8a f   imageInitIDs.obj
 0001:0005605f       _Java_sun_awt_image_IntegerComponentRaster_initIDs@8 1005705f f   imageInitIDs.obj
 0001:0005615a       _Java_java_awt_image_SinglePixelPackedSampleModel_initIDs@8 1005715a f   imageInitIDs.obj
 0001:000561f1       _Java_java_awt_image_ColorModel_initIDs@8 100571f1 f   imageInitIDs.obj
 0001:00056370       _Java_java_awt_image_IndexColorModel_initIDs@8 10057370 f   imageInitIDs.obj
 0001:000563ed       _Java_java_awt_image_SampleModel_initIDs@8 100573ed f   imageInitIDs.obj
 0001:00056488       _Java_java_awt_image_ComponentSampleModel_initIDs@8 10057488 f   imageInitIDs.obj
 0001:00056505       _Java_java_awt_image_Kernel_initIDs@8 10057505 f   imageInitIDs.obj
 0001:00056582       _Java_java_awt_image_DataBufferInt_initIDs@8 10057582 f   imageInitIDs.obj
 0001:000565b6       _Java_sun_awt_DebugSettings_setCTracingOn__Z@12 100575b6 f   debug_trace.obj
 0001:000565b6       ?GetData@CSegTable@@MAEXKPAXK@Z 100575b6 f   awt_Font.obj
 0001:000565b9       _Java_sun_awt_DebugSettings_setCTracingOn__ZLjava_lang_String_2@16 100575b9 f   debug_trace.obj
 0001:000565bc       _Java_sun_awt_DebugSettings_setCTracingOn__ZLjava_lang_String_2I@20 100575bc f   debug_trace.obj
 0001:00057050       _OGLBlitLoops_IsoBlit      10058050 f   OGLBlitLoops.obj
 0001:00057390       _OGLBlitLoops_Blit         10058390 f   OGLBlitLoops.obj
 0001:000577e0       _OGLBlitLoops_SurfaceToSwBlit 100587e0 f   OGLBlitLoops.obj
 0001:00057ae0       _OGLBlitLoops_CopyArea     10058ae0 f   OGLBlitLoops.obj
 0001:00057d10       _OGLBufImgOps_EnableConvolveOp 10058d10 f   OGLBufImgOps.obj
 0001:000580e0       _OGLBufImgOps_EnableRescaleOp 100590e0 f   OGLBufImgOps.obj
 0001:000581e0       _OGLBufImgOps_DisableRescaleOp 100591e0 f   OGLBufImgOps.obj
 0001:000581e0       _OGLBufImgOps_DisableConvolveOp 100591e0 f   OGLBufImgOps.obj
 0001:000582f0       _OGLBufImgOps_EnableLookupOp 100592f0 f   OGLBufImgOps.obj
 0001:000584d0       _OGLBufImgOps_DisableLookupOp 100594d0 f   OGLBufImgOps.obj
 0001:00058630       _OGLContext_SetSurfaces    10059630 f   OGLContext.obj
 0001:00058700       _OGLContext_ResetClip      10059700 f   OGLContext.obj
 0001:00058730       _OGLContext_SetRectClip    10059730 f   OGLContext.obj
 0001:000587b0       _OGLContext_BeginShapeClip 100597b0 f   OGLContext.obj
 0001:00058840       _OGLContext_EndShapeClip   10059840 f   OGLContext.obj
 0001:00058890       _OGLContext_SetExtraAlpha  10059890 f   OGLContext.obj
 0001:000588e0       _OGLContext_ResetComposite 100598e0 f   OGLContext.obj
 0001:00058940       _OGLContext_SetAlphaComposite 10059940 f   OGLContext.obj
 0001:000589f0       _OGLContext_SetXorComposite 100599f0 f   OGLContext.obj
 0001:00058a60       _OGLContext_ResetTransform 10059a60 f   OGLContext.obj
 0001:00058a90       _OGLContext_SetTransform   10059a90 f   OGLContext.obj
 0001:00058b30       _OGLContext_CreateBlitTexture 10059b30 f   OGLContext.obj
 0001:00058ca0       _OGLContext_InitBlitTileTexture 10059ca0 f   OGLContext.obj
 0001:00058cd0       _OGLContext_DestroyContextResources 10059cd0 f   OGLContext.obj
 0001:00058d00       _OGLContext_IsExtensionAvailable 10059d00 f   OGLContext.obj
 0001:00058f70       _OGLContext_GetExtensionInfo 10059f70 f   OGLContext.obj
 0001:000591c0       _OGLContext_IsVersionSupported 1005a1c0 f   OGLContext.obj
 0001:00059200       _OGLContext_CreateFragmentProgram 1005a200 f   OGLContext.obj
 0001:000593b0       _Java_sun_java2d_opengl_OGLContext_getOGLIdString@8 1005a3b0 f   OGLContext.obj
 0001:0005946e       _OGLFuncs_OpenLibrary      1005a46e f   OGLFuncs.obj
 0001:000594a9       _OGLFuncs_CloseLibrary     1005a4a9 f   OGLFuncs.obj
 0001:000594e7       _OGLFuncs_InitPlatformFuncs 1005a4e7 f   OGLFuncs.obj
 0001:000595d4       _OGLFuncs_InitBaseFuncs    1005a5d4 f   OGLFuncs.obj
 0001:00059e59       _OGLFuncs_InitExtFuncs     1005ae59 f   OGLFuncs.obj
 0001:0005a180       _OGLMaskBlit_MaskBlit      1005b180 f   OGLMaskBlit.obj
 0001:0005a310       _OGLMaskFill_MaskFill      1005b310 f   OGLMaskFill.obj
 0001:0005a410       _Java_sun_java2d_opengl_OGLMaskFill_maskFill@40 1005b410 f   OGLMaskFill.obj
 0001:0005a4a0       _OGLPaints_ResetPaint      1005b4a0 f   OGLPaints.obj
 0001:0005a5e0       _OGLPaints_SetColor        1005b5e0 f   OGLPaints.obj
 0001:0005a710       _OGLPaints_SetGradientPaint 1005b710 f   OGLPaints.obj
 0001:0005a880       _OGLPaints_SetTexturePaint 1005b880 f   OGLPaints.obj
 0001:0005ae70       _OGLPaints_SetLinearGradientPaint 1005be70 f   OGLPaints.obj
 0001:0005afa0       _OGLPaints_SetRadialGradientPaint 1005bfa0 f   OGLPaints.obj
 0001:0005b130       _OGLRenderQueue_GetCurrentContext 1005c130 f   OGLRenderQueue.obj
 0001:0005b140       _OGLRenderQueue_GetCurrentDestination 1005c140 f   OGLRenderQueue.obj
 0001:0005b150       _OGLRenderQueue_CheckPreviousOp 1005c150 f   OGLRenderQueue.obj
 0001:0005b280       _Java_sun_java2d_opengl_OGLRenderQueue_flushBuffer@20 1005c280 f   OGLRenderQueue.obj
 0001:0005c040       _OGLRenderer_DrawLine      1005d040 f   OGLRenderer.obj
 0001:0005c250       _OGLRenderer_DrawRect      1005d250 f   OGLRenderer.obj
 0001:0005c3f0       _OGLRenderer_DrawPoly      1005d3f0 f   OGLRenderer.obj
 0001:0005c590       _Java_sun_java2d_opengl_OGLRenderer_drawPoly@32 1005d590 f   OGLRenderer.obj
 0001:0005c630       _OGLRenderer_DrawScanlines 1005d630 f   OGLRenderer.obj
 0001:0005c6c0       _OGLRenderer_FillRect      1005d6c0 f   OGLRenderer.obj
 0001:0005c720       _OGLRenderer_FillSpans     1005d720 f   OGLRenderer.obj
 0001:0005c790       _OGLRenderer_FillParallelogram 1005d790 f   OGLRenderer.obj
 0001:0005c860       _OGLRenderer_DrawParallelogram 1005d860 f   OGLRenderer.obj
 0001:0005ccf0       _OGLRenderer_FillAAParallelogram 1005dcf0 f   OGLRenderer.obj
 0001:0005d0c0       _OGLRenderer_FillAAParallelogramInnerOuter 1005e0c0 f   OGLRenderer.obj
 0001:0005d670       _OGLRenderer_DrawAAParallelogram 1005e670 f   OGLRenderer.obj
 0001:0005d850       _OGLRenderer_EnableAAParallelogramProgram 1005e850 f   OGLRenderer.obj
 0001:0005d890       _OGLRenderer_DisableAAParallelogramProgram 1005e890 f   OGLRenderer.obj
 0001:0005d899       _OGLSD_NextPowerOfTwo      1005e899 f   OGLSurfaceData.obj
 0001:0005dad0       _OGLSD_InitFBObject        1005ead0 f   OGLSurfaceData.obj
 0001:0005dc06       _Java_sun_java2d_opengl_OGLSurfaceData_getTextureTarget@16 1005ec06 f   OGLSurfaceData.obj
 0001:0005dc29       _Java_sun_java2d_opengl_OGLSurfaceData_getTextureID@16 1005ec29 f   OGLSurfaceData.obj
 0001:0005dc4c       _OGLSD_SetNativeDimensions 1005ec4c f   OGLSurfaceData.obj
 0001:0005dc9f       _OGLSD_Flush               1005ec9f f   OGLSurfaceData.obj
 0001:0005dd11       _OGLSD_Dispose             1005ed11 f   OGLSurfaceData.obj
 0001:0005dd41       _OGLSD_Lock                1005ed41 f   OGLSurfaceData.obj
 0001:0005dd53       _OGLSD_GetRasInfo          1005ed53 f   OGLSurfaceData.obj
 0001:0005dd62       _OGLSD_Unlock              1005ed62 f   OGLSurfaceData.obj
 0001:0005dd71       _Java_sun_java2d_opengl_OGLSurfaceData_initTexture@36 1005ed71 f   OGLSurfaceData.obj
 0001:0005ddf5       _Java_sun_java2d_opengl_OGLSurfaceData_initFBObject@36 1005edf5 f   OGLSurfaceData.obj
 0001:0005deb1       _Java_sun_java2d_opengl_OGLSurfaceData_initFlipBackbuffer@16 1005eeb1 f   OGLSurfaceData.obj
 0001:0005e5e0       _OGLTR_EnableGlyphVertexCache 1005f5e0 f   OGLTextRenderer.obj
 0001:0005e650       _OGLTR_DisableGlyphVertexCache 1005f650 f   OGLTextRenderer.obj
 0001:0005f140       _OGLTR_DrawGlyphList       10060140 f   OGLTextRenderer.obj
 0001:0005f430       _Java_sun_java2d_opengl_OGLTextRenderer_drawGlyphList@44 10060430 f   OGLTextRenderer.obj
 0001:0005f730       _OGLVertexCache_InitVertexCache 10060730 f   OGLVertexCache.obj
 0001:0005f7c0       _OGLVertexCache_FlushVertexCache 100607c0 f   OGLVertexCache.obj
 0001:0005f7e0       _OGLVertexCache_RestoreColorState 100607e0 f   OGLVertexCache.obj
 0001:0005f8b0       _OGLVertexCache_EnableMaskCache 100608b0 f   OGLVertexCache.obj
 0001:0005f920       _OGLVertexCache_DisableMaskCache 10060920 f   OGLVertexCache.obj
 0001:0005f9a0       _OGLVertexCache_AddMaskQuad 100609a0 f   OGLVertexCache.obj
 0001:0005fc00       _OGLVertexCache_AddGlyphQuad 10060c00 f   OGLVertexCache.obj
 0001:0005fd20       _Java_sun_java2d_opengl_WGLGraphicsConfig_initWGL@8 10060d20 f   WGLGraphicsConfig.obj
 0001:0005fde0       _OGLGC_DestroyOGLGraphicsConfig 10060de0 f   WGLGraphicsConfig.obj
 0001:0005fe20       _WGLGC_CreateScratchWindow 10060e20 f   WGLGraphicsConfig.obj
 0001:000603e0       _Java_sun_java2d_opengl_WGLGraphicsConfig_getWGLConfigInfo@16 100613e0 f   WGLGraphicsConfig.obj
 0001:000607d0       _Java_sun_java2d_opengl_WGLGraphicsConfig_getDefaultPixFmt@12 100617d0 f   WGLGraphicsConfig.obj
 0001:000607e0       _Java_sun_java2d_opengl_WGLGraphicsConfig_getOGLCapabilities@16 100617e0 f   WGLGraphicsConfig.obj
 0001:00060800       _Java_sun_java2d_opengl_WGLSurfaceData_initOps@28 10061800 f   WGLSurfaceData.obj
 0001:00060920       _OGLSD_DestroyOGLSurface   10061920 f   WGLSurfaceData.obj
 0001:000609b0       _OGLSD_GetNativeConfigInfo 100619b0 f   WGLSurfaceData.obj
 0001:000609f0       _OGLSD_SetScratchSurface   100619f0 f   WGLSurfaceData.obj
 0001:00060a70       _OGLSD_MakeOGLContextCurrent 10061a70 f   WGLSurfaceData.obj
 0001:00060b90       _OGLSD_InitOGLWindow       10061b90 f   WGLSurfaceData.obj
 0001:00060d30       _Java_sun_java2d_opengl_WGLSurfaceData_initPbuffer@36 10061d30 f   WGLSurfaceData.obj
 0001:00060fb0       _OGLSD_SwapBuffers         10061fb0 f   WGLSurfaceData.obj
 0001:00061050       _Java_sun_java2d_opengl_WGLSurfaceData_updateWindowAccelImpl@28 10062050 f   WGLSurfaceData.obj
 0001:000611f5       _AccelGlyphCache_Init      100621f5 f   AccelGlyphCache.obj
 0001:00061244       _AccelGlyphCache_AddCellInfo 10062244 f   AccelGlyphCache.obj
 0001:0006125d       _AccelGlyphCache_RemoveCellInfo 1006225d f   AccelGlyphCache.obj
 0001:00061291       _AccelGlyphCache_RemoveAllCellInfos 10062291 f   AccelGlyphCache.obj
 0001:000612b4       _AccelGlyphCache_GetCellInfoForCache 100622b4 f   AccelGlyphCache.obj
 0001:000612cd       _AccelGlyphCache_AddGlyph  100622cd f   AccelGlyphCache.obj
 0001:00061437       _AccelGlyphCache_Invalidate 10062437 f   AccelGlyphCache.obj
 0001:00061466       _AccelGlyphCache_Free      10062466 f   AccelGlyphCache.obj
 0001:000614ad       _BitmapToYXBandedRectangles 100624ad f   rect.obj
 0001:000615d0       _MapAccelFunction          100625d0 f   MapAccelFunc.obj
 0001:000615d5       ??0CriticalSection@@QAE@XZ 100625d5 f i CmdIDList.obj
 0001:000615ec       ??1CriticalSection@@QAE@XZ 100625ec f i CmdIDList.obj
 0001:000615fd       ??1Lock@CriticalSection@@QAE@XZ 100625fd f i CmdIDList.obj
 0001:00061604       ?Enter@CriticalSection@@UAEXXZ 10062604 f i CmdIDList.obj
 0001:0006160f       ?TryEnter@CriticalSection@@UAEHXZ 1006260f f i CmdIDList.obj
 0001:0006161a       ?Leave@CriticalSection@@UAEXXZ 1006261a f i CmdIDList.obj
 0001:00061625       ??1AwtCmdIDList@@QAE@XZ    10062625 f   CmdIDList.obj
 0001:00061644       ?BuildFreeList@AwtCmdIDList@@AAEXI@Z 10062644 f i CmdIDList.obj
 0001:0006167a       ?Add@AwtCmdIDList@@QAEIPAVAwtObject@@@Z 1006267a f   CmdIDList.obj
 0001:000616ff       ?Lookup@AwtCmdIDList@@QAEPAVAwtObject@@I@Z 100626ff f   CmdIDList.obj
 0001:0006173c       ?Remove@AwtCmdIDList@@QAEXI@Z 1006273c f   CmdIDList.obj
 0001:0006175e       ??0AwtCmdIDList@@QAE@XZ    1006275e f   CmdIDList.obj
 0001:000617a2       ??0Hashtable@@QAE@PBDP6AXPAX@ZHM@Z 100627a2 f   Hashtable.obj
 0001:00061800       ?get@Hashtable@@QAEPAXPAX@Z 10062800 f   Hashtable.obj
 0001:00061857       ?rehash@Hashtable@@IAEXXZ  10062857 f   Hashtable.obj
 0001:000618e0       ?put@Hashtable@@UAEPAXPAX0@Z 100628e0 f   Hashtable.obj
 0001:00061988       ?remove@Hashtable@@QAEPAXPAX@Z 10062988 f   Hashtable.obj
 0001:00061a09       ?clear@Hashtable@@QAEXXZ   10062a09 f   Hashtable.obj
 0001:00061a77       ??1Hashtable@@UAE@XZ       10062a77 f   Hashtable.obj
 0001:00061ab8       ??_GHashtable@@UAEPAXI@Z   10062ab8 f i Hashtable.obj
 0001:00061ab8       ??_EHashtable@@UAEPAXI@Z   10062ab8 f i Hashtable.obj
 0001:00061ad4       ?put@GDIHashtable@@UAEPAXPAX0@Z 10062ad4 f   GDIHashtable.obj
 0001:00061adf       ?release@GDIHashtable@@QAEXPAX@Z 10062adf f   GDIHashtable.obj
 0001:00061afd       ?flush@GDIHashtable@@QAEXXZ 10062afd f   GDIHashtable.obj
 0001:00061b91       ?flushAll@List@GDIHashtable@@QAEXXZ 10062b91 f   GDIHashtable.obj
 0001:00061bd2       ?add@List@GDIHashtable@@QAEXPAV2@@Z 10062bd2 f   GDIHashtable.obj
 0001:00061c17       ?remove@List@GDIHashtable@@QAEXPAV2@@Z 10062c17 f   GDIHashtable.obj
 0001:00061c78       ?clear@List@GDIHashtable@@AAEXXZ 10062c78 f   GDIHashtable.obj
 0001:00061cc0       ??1List@GDIHashtable@@QAE@XZ 10062cc0 f i GDIHashtable.obj
 0001:00061cf1       ??1BatchDestructionManager@GDIHashtable@@QAE@XZ 10062cf1 f i GDIHashtable.obj
 0001:00061d0e       ??0BatchDestructionManager@GDIHashtable@@QAE@III@Z 10062d0e f   GDIHashtable.obj
 0001:00061d4a       ??1D3DVertexCacher@@QAE@XZ 10062d4a f i Devices.obj
 0001:00061d4f       ?GetColor@D3DVertexCacher@@QAEJXZ 10062d4f f i Devices.obj
 0001:00061d56       ?SetColor@D3DVertexCacher@@QAEXJ@Z 10062d56 f i Devices.obj
 0001:00061d63       ?GetFreeVertices@D3DVertexCacher@@QAEIXZ 10062d63 f i Devices.obj
 0001:00061d6c       ??4D3DVertexCacher@@QAEAAV0@ABV0@@Z 10062d6c f i Devices.obj
 0001:00061d90       ?GetGrayscaleGlyphCache@D3DContext@@QAEPAVD3DGlyphCache@@XZ 10062d90 f i Devices.obj
 0001:00061da0       ?GetLCDGlyphCache@D3DContext@@QAEPAVD3DGlyphCache@@XZ 10062da0 f i Devices.obj
 0001:00061db0       ?GetResourceManager@D3DContext@@QAEPAVD3DResourceManager@@XZ 10062db0 f i Devices.obj
 0001:00061dc0       ?GetMaskCache@D3DContext@@QAEPAVD3DMaskCache@@XZ 10062dc0 f i Devices.obj
 0001:00061dd0       ?GetDeviceCaps@D3DContext@@QAEPAU_D3DCAPS9@@XZ 10062dd0 f i Devices.obj
 0001:00061de0       ?GetContextCaps@D3DContext@@QAEHXZ 10062de0 f i Devices.obj
 0001:00061df0       ?GetPresentationParams@D3DContext@@QAEPAU_D3DPRESENT_PARAMETERS_@@XZ 10062df0 f i Devices.obj
 0001:00061e00       ?Get3DObject@D3DContext@@QAEPAUIDirect3D9@@XZ 10062e00 f i Devices.obj
 0001:00061e10       ?IsPow2TexturesOnly@D3DContext@@QAEHXZ 10062e10 f i Devices.obj
 0001:00061e20       ?IsSquareTexturesOnly@D3DContext@@QAEHXZ 10062e20 f i Devices.obj
 0001:00061e30       ?IsHWRasterizer@D3DContext@@QAEHXZ 10062e30 f i Devices.obj
 0001:00061e40       ?IsDynamicTextureSupported@D3DContext@@QAEHXZ 10062e40 f i Devices.obj
 0001:00061e50       ?IsImmediateIntervalSupported@D3DContext@@QAEHXZ 10062e50 f i Devices.obj
 0001:00061e60       ?IsPixelShader20Supported@D3DContext@@QAEHXZ 10062e60 f i Devices.obj
 0001:00061e70       ?IsGradientInstructionExtensionSupported@D3DContext@@QAEHXZ 10062e70 f i Devices.obj
 0001:00061e80       ?IsPixelShader30Supported@D3DContext@@QAEHXZ 10062e80 f i Devices.obj
 0001:00061e90       ?IsMultiTexturingSupported@D3DContext@@QAEHXZ 10062e90 f i Devices.obj
 0001:00061ea0       ?GetPaintState@D3DContext@@QAEJXZ 10062ea0 f i Devices.obj
 0001:00061eb0       ?SetPaintState@D3DContext@@QAEXJ@Z 10062eb0 f i Devices.obj
 0001:00061ec0       ?IsIdentityTx@D3DContext@@QAEHXZ 10062ec0 f i Devices.obj
 0001:00061ed0       ??0D3DContext@@QAE@ABV0@@Z 10062ed0 f i Devices.obj
 0001:00062060       ??4D3DContext@@QAEAAV0@ABV0@@Z 10063060 f i Devices.obj
 0001:000621e0       ??_ED3DContext@@UAEPAXI@Z  100631e0 f i Devices.obj
 0001:00062240       ?GetD3DObject@D3DPipelineManager@@QAEPAUIDirect3D9@@XZ 10063240 f i Devices.obj
 0001:00062250       ?GetDeviceType@D3DPipelineManager@@QAE?AW4_D3DDEVTYPE@@XZ 10063250 f i Devices.obj
 0001:00062260       ??4D3DPipelineManager@@QAEAAV0@ABV0@@Z 10063260 f i Devices.obj
 0001:00062280       ?clb_fCountMonitors@@YGHPAUHMONITOR__@@PAUHDC__@@PAUtagRECT@@J@Z 10063280 f   Devices.obj
 0001:00062290       ?clb_fCollectMonitors@@YGHPAUHMONITOR__@@PAUHDC__@@PAUtagRECT@@J@Z 10063290 f   Devices.obj
 0001:000622d0       ?MonitorBounds@@YGHPAUHMONITOR__@@PAUtagRECT@@@Z 100632d0 f   Devices.obj
 0001:00062350       ?GetInstance@Devices@@SAPAV1@XZ 10063350 f   Devices.obj
 0001:000623f0       ?GetDevice@Devices@@QAEPAVAwtWin32GraphicsDevice@@HH@Z 100633f0 f   Devices.obj
 0001:00062410       ?GetDeviceReference@Devices@@QAEPAVAwtWin32GraphicsDevice@@HH@Z 10063410 f   Devices.obj
 0001:00062460       ?Release@Devices@@QAEHXZ   10063460 f   Devices.obj
 0001:00062560       ?UpdateInstance@Devices@@SAHPAUJNIEnv_@@@Z 10063560 f   Devices.obj
 0001:000627b5       ??0AwtObjectList@@QAE@XZ   100637b5 f   ObjectList.obj
 0001:000627c7       ?Add@AwtObjectList@@QAEXPAVAwtObject@@@Z 100637c7 f   ObjectList.obj
 0001:00062818       ?Remove@AwtObjectList@@QAEHPAVAwtObject@@@Z 10063818 f   ObjectList.obj
 0001:00062880       ?Cleanup@AwtObjectList@@SAXXZ 10063880 f   ObjectList.obj
 0001:0006291a       _Java_sun_java2d_windows_GDIBlitLoops_nativeBlit@60 1006391a f   GDIBlitLoops.obj
 0001:00062ca0       ?floor@@YAMM@Z             10063ca0 f i GDIRenderer.obj
 0001:00062e90       _Java_sun_java2d_windows_GDIRenderer_doDrawLine@40 10063e90 f   GDIRenderer.obj
 0001:00062f90       _Java_sun_java2d_windows_GDIRenderer_doDrawRect@40 10063f90 f   GDIRenderer.obj
 0001:000630c0       _Java_sun_java2d_windows_GDIRenderer_doDrawRoundRect@48 100640c0 f   GDIRenderer.obj
 0001:000631a0       _Java_sun_java2d_windows_GDIRenderer_doDrawOval@40 100641a0 f   GDIRenderer.obj
 0001:00063260       _Java_sun_java2d_windows_GDIRenderer_doDrawArc@48 10064260 f   GDIRenderer.obj
 0001:000633e0       _Java_sun_java2d_windows_GDIRenderer_doDrawPoly@48 100643e0 f   GDIRenderer.obj
 0001:000635c0       _Java_sun_java2d_windows_GDIRenderer_doFillRect@40 100645c0 f   GDIRenderer.obj
 0001:00063640       _Java_sun_java2d_windows_GDIRenderer_doFillRoundRect@48 10064640 f   GDIRenderer.obj
 0001:00063720       _Java_sun_java2d_windows_GDIRenderer_doFillOval@40 10064720 f   GDIRenderer.obj
 0001:00063870       _Java_sun_java2d_windows_GDIRenderer_doFillArc@48 10064870 f   GDIRenderer.obj
 0001:000639e0       _Java_sun_java2d_windows_GDIRenderer_doFillPoly@44 100649e0 f   GDIRenderer.obj
 0001:00063bc0       _Java_sun_java2d_windows_GDIRenderer_doShape@40 10064bc0 f   GDIRenderer.obj
 0001:00064290       _Java_sun_java2d_windows_GDIRenderer_devCopyArea@36 10065290 f   GDIRenderer.obj
 0001:000643c7       ?CallStaticObjectMethod@JNIEnv_@@QAAPAV_jobject@@PAV_jclass@@PAU_jmethodID@@ZZ 100653c7 f i GDIWindowSurfaceData.obj
 0001:000643e2       ??1InstanceAccess@Devices@@QAE@XZ 100653e2 f i GDIWindowSurfaceData.obj
 0001:000643f0       _DisposeThreadGraphicsInfo 100653f0 f   GDIWindowSurfaceData.obj
 0001:00064460       _SurfaceDepthsCompatible   10065460 f   GDIWindowSurfaceData.obj
 0001:000644e0       _Java_sun_java2d_windows_GDIWindowSurfaceData_initIDs@12 100654e0 f   GDIWindowSurfaceData.obj
 0001:00064560       _GDIWindowSurfaceData_GetOps@8 10065560 f   GDIWindowSurfaceData.obj
 0001:00064570       _GDIWindowSurfaceData_GetOpsNoSetup@8 10065570 f   GDIWindowSurfaceData.obj
 0001:00064580       _GDIWindowSurfaceData_GetComp@8 10065580 f   GDIWindowSurfaceData.obj
 0001:00064660       _GDIWindowSurfaceData_GetWindow@8 10065660 f   GDIWindowSurfaceData.obj
 0001:00064cd0       ?CheckGrayColor@@YAKPAU_GDIWinSDOps@@H@Z 10065cd0 f   GDIWindowSurfaceData.obj
 0001:00064d70       _GDIWinSD_InitDC@32        10065d70 f   GDIWindowSurfaceData.obj
 0001:00065210       ??_GCriticalSection@@QAEPAXI@Z 10066210 f i GDIWindowSurfaceData.obj
 0001:00065240       _Java_sun_java2d_windows_GDIWindowSurfaceData_invalidateSD@8 10066240 f   GDIWindowSurfaceData.obj
 0001:00065270       _SetupThreadGraphicsInfo   10066270 f   GDIWindowSurfaceData.obj
 0001:00065510       _Java_sun_java2d_windows_GDIWindowSurfaceData_initOps@32 10066510 f   GDIWindowSurfaceData.obj
 0001:000656ad       ?SetIDs@@YAXPAUJNIEnv_@@PAV_jclass@@@Z 100666ad f   WindowsFlags.obj
 0001:000656fa       ?GetStaticBoolean@@YAHPAUJNIEnv_@@PAV_jclass@@PBD@Z 100666fa f   WindowsFlags.obj
 0001:00065728       ?GetStaticObject@@YAPAV_jobject@@PAUJNIEnv_@@PAV_jclass@@PBD2@Z 10066728 f   WindowsFlags.obj
 0001:00065751       ?SetD3DEnabledFlag@@YAXPAUJNIEnv_@@HH@Z 10066751 f   WindowsFlags.obj
 0001:000657b6       ?IsD3DEnabled@@YAHXZ       100667b6 f   WindowsFlags.obj
 0001:000657bc       ?IsD3DForced@@YAHXZ        100667bc f   WindowsFlags.obj
 0001:000657c2       ?GetFlagValues@@YAXPAUJNIEnv_@@PAV_jclass@@@Z 100667c2 f   WindowsFlags.obj
 0001:000658e8       _Java_sun_java2d_windows_WindowsFlags_initNativeFlags@8 100668e8 f   WindowsFlags.obj
 0001:00065908       ?SetLongField@JNIEnv_@@QAEXPAV_jobject@@PAU_jfieldID@@_J@Z 10066908 f i WPrinterJob.obj
 0001:00065924       _Java_sun_print_Win32PrintServiceLookup_getDefaultPrinterName@8 10066924 f   WPrinterJob.obj
 0001:00065a0c       _Java_sun_print_Win32PrintServiceLookup_getAllPrinterNames@8 10066a0c f   WPrinterJob.obj
 0001:00065b4e       _Java_sun_print_Win32PrintServiceLookup_notifyFirstPrinterChange@12 10066b4e f   WPrinterJob.obj
 0001:00065bb0       _Java_sun_print_Win32PrintServiceLookup_notifyClosePrinterChange@16 10066bb0 f   WPrinterJob.obj
 0001:00065bbc       _Java_sun_print_Win32PrintServiceLookup_notifyPrinterChange@16 10066bbc f   WPrinterJob.obj
 0001:00065be5       _Java_sun_print_Win32PrintService_getMediaPrintableArea@16 10066be5 f   WPrinterJob.obj
 0001:00065dde       _Java_sun_print_Win32PrintService_getAllMediaIDs@16 10066dde f   WPrinterJob.obj
 0001:00065f46       _Java_sun_print_Win32PrintService_getAllMediaTrays@16 10066f46 f   WPrinterJob.obj
 0001:000660ac       _Java_sun_print_Win32PrintService_getAllMediaSizes@16 100670ac f   WPrinterJob.obj
 0001:00066225       _getAllDCNames             10067225 f   WPrinterJob.obj
 0001:000663cc       _Java_sun_print_Win32PrintService_getAllMediaNames@16 100673cc f   WPrinterJob.obj
 0001:000663eb       _Java_sun_print_Win32PrintService_getAllMediaTrayNames@16 100673eb f   WPrinterJob.obj
 0001:0006640a       _Java_sun_print_Win32PrintService_getCopiesSupported@16 1006740a f   WPrinterJob.obj
 0001:000664a1       _Java_sun_print_Win32PrintService_getAllResolutions@16 100674a1 f   WPrinterJob.obj
 0001:000666ea       _Java_sun_print_Win32PrintService_getPrinterPort@12 100676ea f   WPrinterJob.obj
 0001:000667af       _Java_sun_print_Win32PrintService_getCapabilities@16 100677af f   WPrinterJob.obj
 0001:000668e4       _Java_sun_print_Win32PrintService_getDefaultSettings@16 100678e4 f   WPrinterJob.obj
 0001:00066b65       _Java_sun_print_Win32PrintService_getJobStatus@16 10067b65 f   WPrinterJob.obj
 0001:00066c71       _Java_sun_print_Win32PrintJob_startPrintRawData@16 10067c71 f   WPrinterJob.obj
 0001:00066d65       _Java_sun_print_Win32PrintJob_printRawData@16 10067d65 f   WPrinterJob.obj
 0001:00066e31       _Java_sun_print_Win32PrintJob_endPrintRawData@8 10067e31 f   WPrinterJob.obj
 0001:00066e83       ?saveMSG@AwtAWTEvent@@SAXPAUJNIEnv_@@PAUtagMSG@@PAV_jobject@@@Z 10067e83 f   awt_AWTEvent.obj
 0001:00066eef       _Java_java_awt_AWTEvent_initIDs@8 10067eef f   awt_AWTEvent.obj
 0001:00066f78       _Java_java_awt_AWTEvent_nativeSetSource@12 10067f78 f   awt_AWTEvent.obj
 0001:00067070       ?CreateTransparencyMaskFromARGB@BitmapUtil@@SAPAUHBITMAP__@@HHPAH@Z 10068070 f   awt_BitmapUtil.obj
 0001:00067120       ?CreateV4BitmapFromARGB@BitmapUtil@@SAPAUHBITMAP__@@HHPAH@Z 10068120 f   awt_BitmapUtil.obj
 0001:00067270       ?CreateBitmapFromARGBPre@BitmapUtil@@SAPAUHBITMAP__@@HHHPAH@Z 10068270 f   awt_BitmapUtil.obj
 0001:00067370       _BitmapUtil_CreateBitmapFromARGBPre 10068370 f   awt_BitmapUtil.obj
 0001:00067380       ?BitmapToRgn@BitmapUtil@@SAPAUHRGN__@@PAUHBITMAP__@@@Z 10068380 f   awt_BitmapUtil.obj
 0001:000674f0       ?CreateARGBBitmap@BitmapUtil@@SAPAUHBITMAP__@@HHPAPAX@Z 100684f0 f   awt_BitmapUtil.obj
 0001:00067562       ??1GDIHashtable@@UAE@XZ    10068562 f i awt_Brush.obj
 0001:00067599       ??_EGDIHashtable@@UAEPAXI@Z 10068599 f i awt_Brush.obj
 0001:00067599       ??_GGDIHashtable@@UAEPAXI@Z 10068599 f i awt_Brush.obj
 0001:000675b5       ??1AwtGDIObject@@MAE@XZ    100685b5 f i awt_Brush.obj
 0001:000675cf       ??_GAwtGDIObject@@MAEPAXI@Z 100685cf f i awt_Brush.obj
 0001:000675cf       ??_EAwtGDIObject@@MAEPAXI@Z 100685cf f i awt_Brush.obj
 0001:000675eb       ??0AwtBrush@@AAE@K@Z       100685eb f   awt_Brush.obj
 0001:0006764c       ??_GAwtBrush@@EAEPAXI@Z    1006864c f i awt_Brush.obj
 0001:0006764c       ??_EAwtBrush@@EAEPAXI@Z    1006864c f i awt_Brush.obj
 0001:0006766e       ?Get@AwtBrush@@SAPAV1@K@Z  1006866e f   awt_Brush.obj
 0001:000676ef       ?ReleaseInCache@AwtBrush@@MAEXXZ 100686ef f   awt_Brush.obj
 0001:00067738       ?CallObjectMethod@JNIEnv_@@QAAPAV_jobject@@PAV2@PAU_jmethodID@@ZZ 10068738 f i awt_Button.obj
 0001:00067753       ?CallBooleanMethod@JNIEnv_@@QAAEPAV_jobject@@PAU_jmethodID@@ZZ 10068753 f i awt_Button.obj
 0001:0006776e       ?getMFStringSize@AwtFont@@SA?AUtagSIZE@@PAUHDC__@@PAV_jobject@@PAV_jstring@@I@Z 1006876e f i awt_Button.obj
 0001:0006778c       ?isEnabled@AwtComponent@@QAEHXZ 1006878c f i awt_Button.obj
 0001:000677e8       ??0AwtButton@@QAE@XZ       100687e8 f   awt_Button.obj
 0001:00067801       ?GetInsets@AwtComponent@@UAEXPAUtagRECT@@@Z 10068801 f i awt_Button.obj
 0001:00067807       ?WmCreate@AwtComponent@@UAE?AW4MsgRouting@@XZ 10068807 f i awt_Button.obj
 0001:00067807       ?InheritsNativeMouseWheelBehavior@AwtList@@UAEHXZ 10068807 f i awt_List.obj
 0001:00067807       ?IsScrollbar@AwtScrollbar@@UAEHXZ 10068807 f i awt_Scrollbar.obj
 0001:00067807       ?IsContainer@AwtWindow@@UAEHXZ 10068807 f i awt_Dialog.obj
 0001:00067807       ?WmSizing@AwtComponent@@UAE?AW4MsgRouting@@XZ 10068807 f i awt_Component.obj
 0001:00067807       ?IsEUDC@CEUDCSegTable@@UAEHXZ 10068807 f i awt_Font.obj
 0001:00067807       ?IsTopLevel@AwtWindow@@UAEHXZ 10068807 f i awt_Dialog.obj
 0001:00067807       ?WmClose@AwtComponent@@UAE?AW4MsgRouting@@XZ 10068807 f i awt_Button.obj
 0001:00067807       ?IsSimpleWindow@AwtWindow@@UAEHXZ 10068807 f i awt_Window.obj
 0001:00067807       ?CanBeDeleted@AwtObject@@UAEHXZ 10068807 f i awt_Cursor.obj
 0001:00067807       ?InheritsNativeMouseWheelBehavior@AwtTextArea@@UAEHXZ 10068807 f i awt_TextArea.obj
 0001:00067807       ?WmExitSizeMove@AwtComponent@@UAE?AW4MsgRouting@@XZ 10068807 f i awt_Component.obj
 0001:00067807       ?WmPaste@AwtComponent@@UAE?AW4MsgRouting@@XZ 10068807 f i awt_Component.obj
 0001:00067807       ?NeedDblClick@AwtList@@UAEHXZ 10068807 f i awt_List.obj
 0001:00067807       ?InheritsNativeMouseWheelBehavior@AwtChoice@@UAEHXZ 10068807 f i awt_Choice.obj
 0001:00067807       ?WmCreate@AwtWindow@@UAE?AW4MsgRouting@@XZ 10068807 f i awt_Window.obj
 0001:00067807       ?IsUndecorated@AwtWindow@@UAEHXZ 10068807 f i awt_Window.obj
 0001:0006780b       ?WmSysCommand@AwtComponent@@UAE?AW4MsgRouting@@IHH@Z 1006880b f i awt_Component.obj
 0001:0006780b       ?WmNcCalcSize@AwtComponent@@UAE?AW4MsgRouting@@HPAUtagNCCALCSIZE_PARAMS@@AAJ@Z 1006880b f i awt_Component.obj
 0001:0006780b       ?WmContextMenu@AwtComponent@@UAE?AW4MsgRouting@@PAUHWND__@@II@Z 1006880b f i awt_Button.obj
 0001:0006780b       ?WmActivate@AwtComponent@@UAE?AW4MsgRouting@@IHPAUHWND__@@@Z 1006880b f i awt_Button.obj
 0001:0006780b       ?WmNcHitTest@AwtComponent@@UAE?AW4MsgRouting@@IIAAJ@Z 1006880b f i awt_Component.obj
 0001:00067811       ?WmExitMenuLoop@AwtComponent@@UAE?AW4MsgRouting@@H@Z 10068811 f i awt_Component.obj
 0001:00067811       ?WmPaint@AwtButton@@UAE?AW4MsgRouting@@PAUHDC__@@@Z 10068811 f i awt_Button.obj
 0001:00067811       ?WmWindowPosChanging@AwtComponent@@UAE?AW4MsgRouting@@J@Z 10068811 f i awt_Component.obj
 0001:00067811       ?WmTimer@AwtComponent@@UAE?AW4MsgRouting@@I@Z 10068811 f i awt_Button.obj
 0001:00067811       ?WmNotify@AwtComponent@@UAE?AW4MsgRouting@@I@Z 10068811 f i awt_Component.obj
 0001:00067811       ?WmPaint@AwtCheckbox@@UAE?AW4MsgRouting@@PAUHDC__@@@Z 10068811 f i awt_Checkbox.obj
 0001:00067811       ?WmEnterMenuLoop@AwtComponent@@UAE?AW4MsgRouting@@H@Z 10068811 f i awt_Component.obj
 0001:00067811       ?WmNcPaint@AwtComponent@@UAE?AW4MsgRouting@@PAUHRGN__@@@Z 10068811 f i awt_Component.obj
 0001:00067811       ?WmWindowPosChanging@AwtWindow@@UAE?AW4MsgRouting@@J@Z 10068811 f i awt_Window.obj
 0001:00067811       ?WmWindowPosChanged@AwtComponent@@UAE?AW4MsgRouting@@J@Z 10068811 f i awt_Component.obj
 0001:00067811       ?WmGetMinMaxInfo@AwtComponent@@UAE?AW4MsgRouting@@PAUtagMINMAXINFO@@@Z 10068811 f i awt_Component.obj
 0001:00067817       ?CanBeDeleted@AwtComponent@@UAEHXZ 10068817 f i awt_Button.obj
 0001:00067820       ?Create@AwtButton@@SAPAV1@PAV_jobject@@0@Z 10068820 f   awt_Button.obj
 0001:00067a75       ?WmMouseDown@AwtButton@@UAE?AW4MsgRouting@@IHHH@Z 10068a75 f   awt_Button.obj
 0001:00067a8c       ?NotifyListeners@AwtButton@@AAEXXZ 10068a8c f   awt_Button.obj
 0001:00067ab1       ?OwnerDrawItem@AwtButton@@UAE?AW4MsgRouting@@IAAUtagDRAWITEMSTRUCT@@@Z 10068ab1 f   awt_Button.obj
 0001:00067c79       ?IsFocusingKeyMessage@AwtCheckbox@@UAEHPAUtagMSG@@@Z 10068c79 f   awt_Checkbox.obj
 0001:00067c79       ?IsFocusingKeyMessage@AwtButton@@UAEHPAUtagMSG@@@Z 10068c79 f   awt_Button.obj
 0001:00067c9e       ?HandleEvent@AwtButton@@UAE?AW4MsgRouting@@PAUtagMSG@@H@Z 10068c9e f   awt_Button.obj
 0001:00067d01       _Java_sun_awt_windows_WButtonPeer_initIDs@8 10068d01 f   awt_Button.obj
 0001:00067d61       _Java_sun_awt_windows_WButtonPeer_setLabel@12 10068d61 f   awt_Button.obj
 0001:00067e1b       _Java_sun_awt_windows_WButtonPeer_create@12 10068e1b f   awt_Button.obj
 0001:00067eca       ?WmMouseUp@AwtButton@@UAE?AW4MsgRouting@@IHHH@Z 10068eca f   awt_Button.obj
 0001:00067f67       ??0AwtCanvas@@QAE@XZ       10068f67 f   awt_Canvas.obj
 0001:00067f82       ??1AwtCanvas@@UAE@XZ       10068f82 f   awt_Canvas.obj
 0001:00067f8d       ?GetClassNameW@AwtCanvas@@UAEPBGXZ 10068f8d f   awt_Canvas.obj
 0001:00067f93       ?Create@AwtCanvas@@SAPAV1@PAV_jobject@@0@Z 10068f93 f   awt_Canvas.obj
 0001:00068206       ?WmEraseBkgnd@AwtCanvas@@UAE?AW4MsgRouting@@PAUHDC__@@AAH@Z 10069206 f   awt_Canvas.obj
 0001:00068273       ?WmPaint@AwtCanvas@@UAE?AW4MsgRouting@@PAUHDC__@@@Z 10069273 f   awt_Canvas.obj
 0001:00068280       ?_SetEraseBackground@AwtCanvas@@SAXPAX@Z 10069280 f   awt_Canvas.obj
 0001:0006830f       _Java_sun_awt_windows_WCanvasPeer_create@12 1006930f f   awt_Canvas.obj
 0001:000683be       _Java_sun_awt_windows_WCanvasPeer_setNativeBackgroundErase@16 100693be f   awt_Canvas.obj
 0001:00068427       ??_GAwtCanvas@@UAEPAXI@Z   10069427 f i awt_Canvas.obj
 0001:00068427       ??_EAwtCanvas@@UAEPAXI@Z   10069427 f i awt_Canvas.obj
 0001:00068449       ?GetTarget@AwtObject@@QAEPAV_jobject@@PAUJNIEnv_@@@Z 10069449 f i awt_Checkbox.obj
 0001:0006846b       ??0AwtCheckbox@@QAE@XZ     1006946b f   awt_Checkbox.obj
 0001:00068484       ?GetClassNameW@AwtButton@@UAEPBGXZ 10069484 f   awt_Button.obj
 0001:00068484       ?GetClassNameW@AwtCheckbox@@UAEPBGXZ 10069484 f   awt_Checkbox.obj
 0001:0006848a       ?Create@AwtCheckbox@@SAPAV1@PAV_jobject@@0@Z 1006948a f   awt_Checkbox.obj
 0001:000686b6       ?WmMouseUp@AwtCheckbox@@UAE?AW4MsgRouting@@IHHH@Z 100696b6 f   awt_Checkbox.obj
 0001:00068758       ?WmMouseDown@AwtCheckbox@@UAE?AW4MsgRouting@@IHHH@Z 10069758 f   awt_Checkbox.obj
 0001:00068767       ?GetState@AwtCheckbox@@QAEHXZ 10069767 f   awt_Checkbox.obj
 0001:000687be       ?OwnerDrawItem@AwtCheckbox@@UAE?AW4MsgRouting@@IAAUtagDRAWITEMSTRUCT@@@Z 100697be f   awt_Checkbox.obj
 0001:00068a44       ?IsFocusingMouseMessage@AwtButton@@UAEHPAUtagMSG@@@Z 10069a44 f   awt_Button.obj
 0001:00068a44       ?IsFocusingMouseMessage@AwtCheckbox@@UAEHPAUtagMSG@@@Z 10069a44 f   awt_Checkbox.obj
 0001:00068a63       ?HandleEvent@AwtCheckbox@@UAE?AW4MsgRouting@@PAUtagMSG@@H@Z 10069a63 f   awt_Checkbox.obj
 0001:00068b0b       ?_SetLabel@AwtButton@@SAXPAX@Z 10069b0b f   awt_Button.obj
 0001:00068b0b       ?_SetLabel@AwtCheckbox@@SAXPAX@Z 10069b0b f   awt_Checkbox.obj
 0001:00068c12       ?_SetCheckboxGroup@AwtCheckbox@@SAXPAX@Z 10069c12 f   awt_Checkbox.obj
 0001:00068ce4       ?_SetState@AwtCheckbox@@SAXPAX@Z 10069ce4 f   awt_Checkbox.obj
 0001:00068e28       _Java_java_awt_Checkbox_initIDs@8 10069e28 f   awt_Checkbox.obj
 0001:00068eb1       _Java_sun_awt_windows_WCheckboxPeer_getCheckMarkSize@8 10069eb1 f   awt_Checkbox.obj
 0001:00068eb7       _Java_sun_awt_windows_WCheckboxPeer_setState@12 10069eb7 f   awt_Checkbox.obj
 0001:00068f1a       _Java_sun_awt_windows_WCheckboxPeer_setCheckboxGroup@12 10069f1a f   awt_Checkbox.obj
 0001:00068f83       _Java_sun_awt_windows_WCheckboxPeer_setLabel@12 10069f83 f   awt_Checkbox.obj
 0001:00068ff6       _Java_sun_awt_windows_WCheckboxPeer_create@12 10069ff6 f   awt_Checkbox.obj
 0001:000690a5       ??_GAwtCheckbox@@UAEPAXI@Z 1006a0a5 f i awt_Checkbox.obj
 0001:000690a5       ??_GAwtLabel@@UAEPAXI@Z    1006a0a5 f i awt_Label.obj
 0001:000690a5       ??_GAwtComponent@@UAEPAXI@Z 1006a0a5 f i awt_Component.obj
 0001:000690a5       ??_GAwtButton@@UAEPAXI@Z   1006a0a5 f i awt_Button.obj
 0001:000690a5       ??_GAwtChoice@@UAEPAXI@Z   1006a0a5 f i awt_Choice.obj
 0001:000690a5       ??_EAwtChoice@@UAEPAXI@Z   1006a0a5 f i awt_Choice.obj
 0001:000690a5       ??_EAwtTextComponent@@UAEPAXI@Z 1006a0a5 f i awt_TextComponent.obj
 0001:000690a5       ??_EAwtComponent@@UAEPAXI@Z 1006a0a5 f i awt_Component.obj
 0001:000690a5       ??_GAwtTextComponent@@UAEPAXI@Z 1006a0a5 f i awt_TextComponent.obj
 0001:000690a5       ??_EAwtCheckbox@@UAEPAXI@Z 1006a0a5 f i awt_Checkbox.obj
 0001:000690a5       ??_GAwtTextField@@UAEPAXI@Z 1006a0a5 f i awt_TextField.obj
 0001:000690a5       ??_EAwtButton@@UAEPAXI@Z   1006a0a5 f i awt_Button.obj
 0001:000690a5       ??_EAwtTextField@@UAEPAXI@Z 1006a0a5 f i awt_TextField.obj
 0001:000690a5       ??_EAwtLabel@@UAEPAXI@Z    1006a0a5 f i awt_Label.obj
 0001:000690c1       ?WmNotify@AwtCheckbox@@UAE?AW4MsgRouting@@I@Z 1006a0c1 f   awt_Checkbox.obj
 0001:000690f0       ??0JavaStringBuffer@@QAE@PAUJNIEnv_@@PAV_jstring@@@Z 1006a0f0 f i awt_Choice.obj
 0001:0006914d       ??1JavaStringBuffer@@QAE@XZ 1006a14d f i awt_Choice.obj
 0001:00069157       ?PushChild@AwtComponent@@QAEXIPAV1@@Z 1006a157 f i awt_Choice.obj
 0001:0006918e       ??0AwtChoice@@QAE@XZ       1006a18e f   awt_Choice.obj
 0001:000691b5       ?GetClassNameW@AwtChoice@@UAEPBGXZ 1006a1b5 f   awt_Choice.obj
 0001:000691bb       ?Create@AwtChoice@@SAPAV1@PAV_jobject@@0@Z 1006a1bb f   awt_Choice.obj
 0001:00069441       ?GetDropDownHeight@AwtChoice@@QAEHXZ 1006a441 f   awt_Choice.obj
 0001:00069486       ?GetFieldHeight@AwtChoice@@AAEHXZ 1006a486 f   awt_Choice.obj
 0001:000694a9       ?GetTotalHeight@AwtChoice@@AAEHXZ 1006a4a9 f   awt_Choice.obj
 0001:000694cd       ?ResetDropDownHeight@AwtChoice@@QAEXXZ 1006a4cd f   awt_Choice.obj
 0001:00069519       ?SetDragCapture@AwtChoice@@UAEXI@Z 1006a519 f   awt_Choice.obj
 0001:00069569       ?ReleaseDragCapture@AwtChoice@@UAEXI@Z 1006a569 f   awt_Choice.obj
 0001:00069598       ?Reshape@AwtChoice@@UAEXHHHH@Z 1006a598 f   awt_Choice.obj
 0001:000696d5       ?PreferredItemSize@AwtChoice@@UAEPAV_jobject@@PAUJNIEnv_@@@Z 1006a6d5 f   awt_Choice.obj
 0001:00069725       ?SetFont@AwtChoice@@UAEXPAVAwtFont@@@Z 1006a725 f   awt_Choice.obj
 0001:0006984d       ?WmKillFocus@AwtChoice@@UAE?AW4MsgRouting@@PAUHWND__@@@Z 1006a84d f   awt_Choice.obj
 0001:0006985c       ?WmMouseUp@AwtChoice@@UAE?AW4MsgRouting@@IHHH@Z 1006a85c f   awt_Choice.obj
 0001:00069877       ?HandleEvent@AwtChoice@@UAE?AW4MsgRouting@@PAUtagMSG@@H@Z 1006a877 f   awt_Choice.obj
 0001:00069907       ?_Reshape@AwtChoice@@SAXPAX@Z 1006a907 f   awt_Choice.obj
 0001:000699c1       ?_Select@AwtChoice@@SAXPAX@Z 1006a9c1 f   awt_Choice.obj
 0001:00069a62       ?_AddItems@AwtChoice@@SAXPAX@Z 1006aa62 f   awt_Choice.obj
 0001:00069bdd       ?_Remove@AwtChoice@@SAXPAX@Z 1006abdd f   awt_Choice.obj
 0001:00069c85       ?_RemoveAll@AwtChoice@@SAXPAX@Z 1006ac85 f   awt_Choice.obj
 0001:00069d17       ?_CloseList@AwtChoice@@SAXPAX@Z 1006ad17 f   awt_Choice.obj
 0001:00069dba       _Java_sun_awt_windows_WChoicePeer_select@12 1006adba f   awt_Choice.obj
 0001:00069e1d       _Java_sun_awt_windows_WChoicePeer_remove@12 1006ae1d f   awt_Choice.obj
 0001:00069e80       _Java_sun_awt_windows_WChoicePeer_removeAll@8 1006ae80 f   awt_Choice.obj
 0001:00069ed1       _Java_sun_awt_windows_WChoicePeer_addItems@16 1006aed1 f   awt_Choice.obj
 0001:00069f40       _Java_sun_awt_windows_WChoicePeer_reshape@24 1006af40 f   awt_Choice.obj
 0001:00069fb5       _Java_sun_awt_windows_WChoicePeer_create@12 1006afb5 f   awt_Choice.obj
 0001:0006a064       _Java_sun_awt_windows_WChoicePeer_closeList@8 1006b064 f   awt_Choice.obj
 0001:0006a0b5       ?GetInstance@ComCtl32Util@@SAAAV1@XZ 1006b0b5 f i awt_Choice.obj
 0001:0006a0f5       ?ListWindowProc@AwtChoice@@CGJPAUHWND__@@IIJ@Z 1006b0f5 f   awt_Choice.obj
 0001:0006a218       ?WmNotify@AwtChoice@@UAE?AW4MsgRouting@@I@Z 1006b218 f   awt_Choice.obj
 0001:0006a306       ?Dispose@AwtChoice@@UAEXXZ 1006b306 f   awt_Choice.obj
 0001:0006a338       ?CallVoidMethod@JNIEnv_@@QAAXPAV_jobject@@PAU_jmethodID@@ZZ 1006b338 f i awt_Clipboard.obj
 0001:0006a353       ?GetOwnership@AwtClipboard@@SAXXZ 1006b353 f i awt_Clipboard.obj
 0001:0006a36b       ?LostOwnership@AwtClipboard@@SAXPAUJNIEnv_@@@Z 1006b36b f   awt_Clipboard.obj
 0001:0006a388       ?WmChangeCbChain@AwtClipboard@@SAXIJ@Z 1006b388 f   awt_Clipboard.obj
 0001:0006a3c0       ?WmDrawClipboard@AwtClipboard@@SAXPAUJNIEnv_@@IJ@Z 1006b3c0 f   awt_Clipboard.obj
 0001:0006a40f       ?RegisterClipboardViewer@AwtClipboard@@SAXPAUJNIEnv_@@PAV_jobject@@@Z 1006b40f f   awt_Clipboard.obj
 0001:0006a474       ?UnregisterClipboardViewer@AwtClipboard@@SAXPAUJNIEnv_@@@Z 1006b474 f   awt_Clipboard.obj
 0001:0006a4d9       _awt_clipboard_uninitialize 1006b4d9 f   awt_Clipboard.obj
 0001:0006a4fa       _Java_sun_awt_windows_WClipboard_init@8 1006b4fa f   awt_Clipboard.obj
 0001:0006a54d       _Java_sun_awt_windows_WClipboard_openClipboard@12 1006b54d f   awt_Clipboard.obj
 0001:0006a5d2       _Java_sun_awt_windows_WClipboard_closeClipboard@8 1006b5d2 f   awt_Clipboard.obj
 0001:0006a61d       _Java_sun_awt_windows_WClipboard_registerClipboardViewer@8 1006b61d f   awt_Clipboard.obj
 0001:0006a65f       _Java_sun_awt_windows_WClipboard_publishClipboardData@20 1006b65f f   awt_Clipboard.obj
 0001:0006a891       _Java_sun_awt_windows_WClipboard_getClipboardFormats@8 1006b891 f   awt_Clipboard.obj
 0001:0006a946       _Java_sun_awt_windows_WClipboard_getClipboardData@16 1006b946 f   awt_Clipboard.obj
 0001:0006ac51       _Java_java_awt_Color_initIDs@8 1006bc51 f   awt_Color.obj
 0001:0006aca4       _Java_sun_awt_windows_WColor_getDefaultColor@12 1006bca4 f   awt_Color.obj
 0001:0006ad64       ?NewObject@JNIEnv_@@QAAPAV_jobject@@PAV_jclass@@PAU_jmethodID@@ZZ 1006bd64 f i awt_Component.obj
 0001:0006ad7c       ?CallIntMethod@JNIEnv_@@QAAJPAV_jobject@@PAU_jmethodID@@ZZ 1006bd7c f i awt_Component.obj
 0001:0006ad97       ?CallStaticIntMethod@JNIEnv_@@QAAJPAV_jclass@@PAU_jmethodID@@ZZ 1006bd97 f i awt_Component.obj
 0001:0006adb2       ??1JNILocalFrame@@QAE@XZ   1006bdb2 f i awt_Component.obj
 0001:0006adbd       ?SendMessageW@AwtToolkit@@QAEJIIJ@Z 1006bdbd f i awt_Component.obj
 0001:0006ade0       ?IsMainThread@AwtToolkit@@SAHXZ 1006bde0 f i awt_Component.obj
 0001:0006adf4       ?GetTargetAsGlobalRef@AwtObject@@QAEPAV_jobject@@PAUJNIEnv_@@@Z 1006bdf4 f i awt_Component.obj
 0001:0006ae1f       ?SynthesizeWmSetFocus@AwtComponent@@SAJPAUHWND__@@0@Z 1006be1f f i awt_Component.obj
 0001:0006ae43       ?SynthesizeWmKillFocus@AwtComponent@@SAJPAUHWND__@@0@Z 1006be43 f i awt_Component.obj
 0001:0006ae67       ??1ChildListItem@AwtComponent@@QAE@XZ 1006be67 f i awt_Component.obj
 0001:0006ae7f       ??1CounterHelper@@QAE@XZ   1006be7f f i awt_Component.obj
 0001:0006ae87       ?SetComponentInHWND@AwtComponent@@AAEXXZ 1006be87 f   awt_Component.obj
 0001:0006ae94       ?GetComponentImpl@AwtComponent@@KAPAV1@PAUHWND__@@@Z 1006be94 f   awt_Component.obj
 0001:0006aea1       ?FillClassInfo@AwtComponent@@UAEXPAUtagWNDCLASSEXW@@@Z 1006bea1 f   awt_Component.obj
 0001:0006aeff       ?RegisterClassW@AwtComponent@@UAEXXZ 1006beff f   awt_Component.obj
 0001:0006af3d       ?UnregisterClassW@AwtComponent@@UAEXXZ 1006bf3d f   awt_Component.obj
 0001:0006af50       ?InitPeerGraphicsConfig@AwtComponent@@QAEXPAUJNIEnv_@@PAV_jobject@@@Z 1006bf50 f   awt_Component.obj
 0001:0006afa3       ?DestroyHWnd@AwtComponent@@UAEXXZ 1006bfa3 f   awt_Component.obj
 0001:0006afba       ?GetHWnd@AwtComponent@@SAPAUHWND__@@PAUJNIEnv_@@PAV_jobject@@@Z 1006bfba f   awt_Component.obj
 0001:0006b003       ?UpdateBackground@AwtComponent@@QAEXPAUJNIEnv_@@PAV_jobject@@@Z 1006c003 f   awt_Component.obj
 0001:0006b07a       ?SetColor@AwtComponent@@UAEXK@Z 1006c07a f   awt_Component.obj
 0001:0006b11b       ?SetBackgroundColor@AwtComponent@@UAEXK@Z 1006c11b f   awt_Component.obj
 0001:0006b1c3       ?SetFont@AwtComponent@@UAEXPAVAwtFont@@@Z 1006c1c3 f   awt_Component.obj
 0001:0006b1fc       ?Show@AwtComponent@@UAEXXZ 1006c1fc f   awt_Component.obj
 0001:0006b20f       ?Hide@AwtComponent@@UAEXXZ 1006c20f f   awt_Component.obj
 0001:0006b21f       ?SetWindowPos@AwtComponent@@SAHPAUHWND__@@0HHHHI@Z 1006c21f f   awt_Component.obj
 0001:0006b2d5       ?SetInputMethod@AwtComponent@@QAEXPAV_jobject@@H@Z 1006c2d5 f   awt_Component.obj
 0001:0006b326       ?WmDestroy@AwtComponent@@UAE?AW4MsgRouting@@XZ 1006c326 f   awt_Component.obj
 0001:0006b34e       ?WmSetFocus@AwtComponent@@UAE?AW4MsgRouting@@PAUHWND__@@@Z 1006c34e f   awt_Component.obj
 0001:0006b34e       ?WmKillFocus@AwtComponent@@UAE?AW4MsgRouting@@PAUHWND__@@@Z 1006c34e f   awt_Component.obj
 0001:0006b35b       ?windowsToUTC@TimeHelper@@YA_JK@Z 1006c35b f   awt_Component.obj
 0001:0006b379       ?WmPaint@AwtComponent@@UAE?AW4MsgRouting@@PAUHDC__@@@Z 1006c379 f   awt_Component.obj
 0001:0006b3ed       ?PaintUpdateRgn@AwtComponent@@QAEXPBUtagRECT@@@Z 1006c3ed f   awt_Component.obj
 0001:0006b557       ?GetDrawState@AwtComponent@@SAJPAUHWND__@@@Z 1006c557 f   awt_Component.obj
 0001:0006b568       ?SetDrawState@AwtComponent@@SAXPAUHWND__@@J@Z 1006c568 f   awt_Component.obj
 0001:0006b57d       ?InitMessage@AwtComponent@@SAXPAUtagMSG@@IIJHH@Z 1006c57d f   awt_Component.obj
 0001:0006b5b8       ?WmNcMouseDown@AwtComponent@@UAE?AW4MsgRouting@@IHHH@Z 1006c5b8 f   awt_Component.obj
 0001:0006b5b8       ?WmNcMouseUp@AwtComponent@@UAE?AW4MsgRouting@@IHHH@Z 1006c5b8 f   awt_Component.obj
 0001:0006b5be       ?GetClickCount@AwtComponent@@KAHXZ 1006c5be f   awt_Component.obj
 0001:0006b5c4       ?GetShiftKeyLocation@AwtComponent@@CAJII@Z 1006c5c4 f   awt_Component.obj
 0001:0006b5fd       ?GetJavaModifiers@AwtComponent@@SAJXZ 1006c5fd f   awt_Component.obj
 0001:0006b694       ?GetButton@AwtComponent@@SAJH@Z 1006c694 f   awt_Component.obj
 0001:0006b6c3       ?GetButtonMK@AwtComponent@@SAIH@Z 1006c6c3 f   awt_Component.obj
 0001:0006b6f2       ?BuildDynamicKeyMapTable@AwtComponent@@SAXXZ 1006c6f2 f   awt_Component.obj
 0001:0006b83e       ?JavaKeyToWindowsKey@AwtComponent@@SAXIPAI0I@Z 1006c83e f   awt_Component.obj
 0001:0006b984       ?WindowsKeyToJavaKey@AwtComponent@@SAIII@Z 1006c984 f   awt_Component.obj
 0001:0006ba24       ?IsNavigationKey@AwtComponent@@CAHI@Z 1006ca24 f   awt_Component.obj
 0001:0006ba39       ?IsNumPadKey@AwtComponent@@CAHIH@Z 1006ca39 f   awt_Component.obj
 0001:0006baf8       ?BuildPrimaryDynamicTable@AwtComponent@@CAXXZ 1006caf8 f   awt_Component.obj
 0001:0006bc93       ?UpdateDynPrimaryKeymap@AwtComponent@@SAXIIJI@Z 1006cc93 f   awt_Component.obj
 0001:0006bcc9       ?LangToCodePage@AwtMenuItem@@SAIG@Z 1006ccc9 f   awt_MenuItem.obj
 0001:0006bcc9       ?LangToCodePage@AwtComponent@@SAIG@Z 1006ccc9 f   awt_Component.obj
 0001:0006bd12       ?WmForwardChar@AwtComponent@@UAE?AW4MsgRouting@@GJH@Z 1006cd12 f   awt_Component.obj
 0001:0006bd2f       ?WmImeStartComposition@AwtComponent@@UAE?AW4MsgRouting@@XZ 1006cd2f f   awt_Component.obj
 0001:0006bd78       ?InquireCandidatePosition@AwtComponent@@QAEXXZ 1006cd78 f   awt_Component.obj
 0001:0006bdf4       ?WmDrawItem@AwtComponent@@UAE?AW4MsgRouting@@IAAUtagDRAWITEMSTRUCT@@@Z 1006cdf4 f   awt_Component.obj
 0001:0006be35       ?WmMeasureItem@AwtComponent@@UAE?AW4MsgRouting@@IAAUtagMEASUREITEMSTRUCT@@@Z 1006ce35 f   awt_Component.obj
 0001:0006be97       ?DrawWindowText@AwtComponent@@SAXPAUHDC__@@PAV_jobject@@PAV_jstring@@HH@Z 1006ce97 f   awt_Component.obj
 0001:0006bed4       ?DrawGrayText@AwtComponent@@SAXPAUHDC__@@PAV_jobject@@PAV_jstring@@HH@Z 1006ced4 f   awt_Component.obj
 0001:0006bf2c       ?GetItemString@AwtComponent@@QAEPAV_jstring@@PAUJNIEnv_@@PAV_jobject@@J@Z 1006cf2c f   awt_Component.obj
 0001:0006bf55       ?MeasureListItem@AwtComponent@@QAEXPAUJNIEnv_@@AAUtagMEASUREITEMSTRUCT@@@Z 1006cf55 f   awt_Component.obj
 0001:0006bfab       ?GetFontHeight@AwtComponent@@QAEJPAUJNIEnv_@@@Z 1006cfab f   awt_Component.obj
 0001:0006c04a       ?WmPrint@AwtComponent@@UAE?AW4MsgRouting@@PAUHDC__@@J@Z 1006d04a f   awt_Component.obj
 0001:0006c191       ?WmPrintClient@AwtComponent@@UAE?AW4MsgRouting@@PAUHDC__@@J@Z 1006d191 f   awt_Component.obj
 0001:0006c1a3       ?WmPaletteIsChanging@AwtComponent@@UAE?AW4MsgRouting@@PAUHWND__@@@Z 1006d1a3 f   awt_Component.obj
 0001:0006c1c5       ?WmShowWindow@AwtComponent@@UAE?AW4MsgRouting@@HI@Z 1006d1c5 f   awt_Component.obj
 0001:0006c1c5       ?WmGetIcon@AwtWindow@@UAE?AW4MsgRouting@@IAAJ@Z 1006d1c5 f   awt_Window.obj
 0001:0006c1c5       ?WmEraseBkgnd@AwtComponent@@UAE?AW4MsgRouting@@PAUHDC__@@AAH@Z 1006d1c5 f   awt_Button.obj
 0001:0006c1c5       ?WmSettingChange@AwtComponent@@UAE?AW4MsgRouting@@IPBG@Z 1006d1c5 f   awt_Component.obj
 0001:0006c1c5       ?WmStyleChanged@AwtComponent@@UAE?AW4MsgRouting@@HPAUtagSTYLESTRUCT@@@Z 1006d1c5 f   awt_Component.obj
 0001:0006c1cb       ?GetDCFromComponent@AwtComponent@@QAEPAUHDC__@@XZ 1006d1cb f   awt_Component.obj
 0001:0006c233       ?FillAlpha@AwtComponent@@MAEXPAXAAUtagSIZE@@E@Z 1006d233 f   awt_Component.obj
 0001:0006c26c       ?CreatePrintedPixels@AwtComponent@@QAEPAV_jintArray@@AAUtagSIZE@@0H@Z 1006d26c f   awt_Component.obj
 0001:0006c418       ?SetNativeFocusOwner@AwtComponent@@SAPAXPAX@Z 1006d418 f   awt_Component.obj
 0001:0006c47e       ?SearchChild@AwtComponent@@AAEPAV1@I@Z 1006d47e f   awt_Component.obj
 0001:0006c49d       ?RemoveChild@AwtComponent@@AAEXI@Z 1006d49d f   awt_Component.obj
 0001:0006c4e6       ?SendKeyEvent@AwtComponent@@QAEXJ_JJJJJ0PAUtagMSG@@@Z 1006d4e6 f   awt_Component.obj
 0001:0006c6c3       ?SendMouseEvent@AwtComponent@@QAEXJ_JJJJJEJPAUtagMSG@@@Z 1006d6c3 f   awt_Component.obj
 0001:0006c862       ?SendMouseWheelEvent@AwtComponent@@QAEXJ_JJJJJEJJJNPAUtagMSG@@@Z 1006d862 f   awt_Component.obj
 0001:0006ca14       ?HandleEvent@AwtComponent@@UAE?AW4MsgRouting@@PAUtagMSG@@H@Z 1006da14 f   awt_Component.obj
 0001:0006ca38       ?Invalidate@AwtComponent@@UAEXPAUtagRECT@@@Z 1006da38 f   awt_Component.obj
 0001:0006ca4a       ?BeginValidate@AwtComponent@@UAEXXZ 1006da4a f   awt_Component.obj
 0001:0006ca63       ?EndValidate@AwtComponent@@UAEXXZ 1006da63 f   awt_Component.obj
 0001:0006ca7a       ?LinkObjects@AwtComponent@@QAEXPAUJNIEnv_@@PAV_jobject@@@Z 1006da7a f   awt_Component.obj
 0001:0006cace       ?UnlinkObjects@AwtComponent@@QAEXXZ 1006dace f   awt_Component.obj
 0001:0006cb38       ?Enable@AwtComponent@@UAEXH@Z 1006db38 f   awt_Component.obj
 0001:0006cb8e       ?CreateDropTarget@AwtComponent@@UAEPAVAwtDropTarget@@PAUJNIEnv_@@@Z 1006db8e f   awt_Component.obj
 0001:0006cbd8       ?DestroyDropTarget@AwtComponent@@UAEXXZ 1006dbd8 f   awt_Component.obj
 0001:0006cc02       ?IsFocusingKeyMessage@AwtComponent@@UAEHPAUtagMSG@@@Z 1006dc02 f   awt_Component.obj
 0001:0006cc1f       ?_Show@AwtComponent@@SAXPAX@Z 1006dc1f f   awt_Component.obj
 0001:0006ccaa       ?_Hide@AwtComponent@@SAXPAX@Z 1006dcaa f   awt_Component.obj
 0001:0006cd35       ?_Enable@AwtComponent@@SAXPAX@Z 1006dd35 f   awt_Component.obj
 0001:0006cdb7       ?_Disable@AwtComponent@@SAXPAX@Z 1006ddb7 f   awt_Component.obj
 0001:0006ce39       ?_GetLocationOnScreen@AwtComponent@@SAPAV_jobject@@PAX@Z 1006de39 f   awt_Component.obj
 0001:0006cf13       ?_Reshape@AwtComponent@@SAXPAX@Z 1006df13 f   awt_Component.obj
 0001:0006cff0       ?_ReshapeNoCheck@AwtComponent@@SAXPAX@Z 1006dff0 f   awt_Component.obj
 0001:0006d0ca       ?_SetForeground@AwtComponent@@SAXPAX@Z 1006e0ca f   awt_Component.obj
 0001:0006d17d       ?_SetBackground@AwtComponent@@SAXPAX@Z 1006e17d f   awt_Component.obj
 0001:0006d230       ?_SetFont@AwtComponent@@SAXPAX@Z 1006e230 f   awt_Component.obj
 0001:0006d314       ?_SetFocus@AwtComponent@@SAXPAX@Z 1006e314 f   awt_Component.obj
 0001:0006d399       ?_Start@AwtComponent@@SAXPAX@Z 1006e399 f   awt_Component.obj
 0001:0006d46a       ?_BeginValidate@AwtComponent@@SAXPAX@Z 1006e46a f   awt_Component.obj
 0001:0006d4f8       ?_EndValidate@AwtComponent@@SAXPAX@Z 1006e4f8 f   awt_Component.obj
 0001:0006d586       ?_UpdateWindow@AwtComponent@@SAXPAX@Z 1006e586 f   awt_Component.obj
 0001:0006d636       ?_AddNativeDropTarget@AwtComponent@@SA_JPAX@Z 1006e636 f   awt_Component.obj
 0001:0006d6d3       ?_RemoveNativeDropTarget@AwtComponent@@SAXPAX@Z 1006e6d3 f   awt_Component.obj
 0001:0006d756       ?_CreatePrintedPixels@AwtComponent@@SAPAV_jintArray@@PAX@Z 1006e756 f   awt_Component.obj
 0001:0006d7fc       ?_IsObscured@AwtComponent@@SAEPAX@Z 1006e7fc f   awt_Component.obj
 0001:0006d8fa       ?_NativeHandlesWheelScrolling@AwtComponent@@SAEPAX@Z 1006e8fa f   awt_Component.obj
 0001:0006d985       ?SetParent@AwtComponent@@SAXPAX@Z 1006e985 f   awt_Component.obj
 0001:0006d9f0       ?_SetRectangularShape@AwtComponent@@SAXPAX@Z 1006e9f0 f   awt_Component.obj
 0001:0006dba9       ?_SetZOrder@AwtComponent@@SAXPAX@Z 1006eba9 f   awt_Component.obj
 0001:0006dc5f       ?PostUngrabEvent@AwtComponent@@QAEXXZ 1006ec5f f   awt_Component.obj
 0001:0006dccc       ?SetFocusedWindow@AwtComponent@@SAXPAUHWND__@@@Z 1006eccc f   awt_Component.obj
 0001:0006dce5       _AwtComponent_GetHWnd      1006ece5 f   awt_Component.obj
 0001:0006dd84       _AwtComponent_GetInsets    1006ed84 f   awt_Component.obj
 0001:0006ddf5       _Java_java_awt_Component_initIDs@8 1006edf5 f   awt_Component.obj
 0001:0006e0df       _Java_sun_awt_windows_WComponentPeer_pShow@8 1006f0df f   awt_Component.obj
 0001:0006e130       _Java_sun_awt_windows_WComponentPeer_hide@8 1006f130 f   awt_Component.obj
 0001:0006e181       _Java_sun_awt_windows_WComponentPeer_enable@8 1006f181 f   awt_Component.obj
 0001:0006e1d2       _Java_sun_awt_windows_WComponentPeer_disable@8 1006f1d2 f   awt_Component.obj
 0001:0006e223       _Java_sun_awt_windows_WComponentPeer_getLocationOnScreen@8 1006f223 f   awt_Component.obj
 0001:0006e28e       _Java_sun_awt_windows_WComponentPeer_reshape@24 1006f28e f   awt_Component.obj
 0001:0006e303       _Java_sun_awt_windows_WComponentPeer_reshapeNoCheck@24 1006f303 f   awt_Component.obj
 0001:0006e378       _Java_sun_awt_windows_WComponentPeer__1setForeground@12 1006f378 f   awt_Component.obj
 0001:0006e3db       _Java_sun_awt_windows_WComponentPeer__1setBackground@12 1006f3db f   awt_Component.obj
 0001:0006e43e       _Java_sun_awt_windows_WComponentPeer__1setFont@12 1006f43e f   awt_Component.obj
 0001:0006e4a9       _Java_sun_awt_windows_WComponentPeer_setFocus@12 1006f4a9 f   awt_Component.obj
 0001:0006e50c       _Java_sun_awt_windows_WComponentPeer_start@8 1006f50c f   awt_Component.obj
 0001:0006e55d       _Java_sun_awt_windows_WComponentPeer_beginValidate@8 1006f55d f   awt_Component.obj
 0001:0006e5ae       _Java_sun_awt_windows_WComponentPeer_endValidate@8 1006f5ae f   awt_Component.obj
 0001:0006e5ff       _Java_sun_awt_windows_WComponentPeer_updateWindow@8 1006f5ff f   awt_Component.obj
 0001:0006e650       _Java_sun_awt_windows_WComponentPeer_addNativeDropTarget@8 1006f650 f   awt_Component.obj
 0001:0006e6a6       _Java_sun_awt_windows_WComponentPeer_removeNativeDropTarget@8 1006f6a6 f   awt_Component.obj
 0001:0006e6f7       _Java_sun_awt_windows_WComponentPeer_getTargetGC@8 1006f6f7 f   awt_Component.obj
 0001:0006e753       _Java_sun_awt_windows_WComponentPeer_createPrintedPixels@28 1006f753 f   awt_Component.obj
 0001:0006e7e8       _Java_sun_awt_windows_WComponentPeer_nativeHandlesWheelScrolling@8 1006f7e8 f   awt_Component.obj
 0001:0006e83b       _Java_sun_awt_windows_WComponentPeer_isObscured@8 1006f83b f   awt_Component.obj
 0001:0006e88e       _Java_sun_awt_windows_WComponentPeer_pSetParent@12 1006f88e f   awt_Component.obj
 0001:0006e911       _Java_sun_awt_windows_WComponentPeer_setRectangularShape@28 1006f911 f   awt_Component.obj
 0001:0006e99d       _Java_sun_awt_windows_WComponentPeer_setZOrder@16 1006f99d f   awt_Component.obj
 0001:0006ea06       ?AddDCItem@DCList@@QAEXPAVDCItem@@@Z 1006fa06 f   awt_Component.obj
 0001:0006ea2b       ?RemoveDC@DCList@@QAEPAVDCItem@@PAUHDC__@@@Z 1006fa2b f   awt_Component.obj
 0001:0006ea68       ?RemoveAllDCs@DCList@@QAEPAVDCItem@@PAUHWND__@@@Z 1006fa68 f   awt_Component.obj
 0001:0006eab6       ?RealizePalettes@DCList@@QAEXH@Z 1006fab6 f   awt_Component.obj
 0001:0006eae7       ?MoveDCToPassiveList@@YAXPAUHDC__@@@Z 1006fae7 f   awt_Component.obj
 0001:0006eb05       ?ReleaseDCList@@YAXPAUHWND__@@AAVDCList@@@Z 1006fb05 f   awt_Component.obj
 0001:0006eb41       ??0AwtComponent@@QAE@XZ    1006fb41 f   awt_Component.obj
 0001:0006ebe0       ??1AwtComponent@@UAE@XZ    1006fbe0 f   awt_Component.obj
 0001:0006ec27       ?GetComponent@AwtComponent@@SAPAV1@PAUHWND__@@@Z 1006fc27 f   awt_Component.obj
 0001:0006ec89       ?WndProc@AwtComponent@@SGJPAUHWND__@@IIJ@Z 1006fc89 f   awt_Component.obj
 0001:0006ed0a       ?CreateHWnd@AwtComponent@@UAEXPAUJNIEnv_@@PBGKKHHHHPAUHWND__@@PAUHMENU__@@KKPAV_jobject@@@Z 1006fd0a f   awt_Component.obj
 0001:0006ef13       ?SubclassHWND@AwtComponent@@UAEXXZ 1006ff13 f   awt_Component.obj
 0001:0006ef3d       ?UnsubclassHWND@AwtComponent@@UAEXXZ 1006ff3d f   awt_Component.obj
 0001:0006ef64       ?FindHeavyweightUnderCursor@AwtComponent@@SAPAV_jobject@@H@Z 1006ff64 f   awt_Component.obj
 0001:0006f08c       ?GetParent@AwtComponent@@QAEPAV1@XZ 1007008c f   awt_Component.obj
 0001:0006f0a2       ?GetContainer@AwtComponent@@QAEPAVAwtWindow@@XZ 100700a2 f   awt_Component.obj
 0001:0006f0c7       ?Reshape@AwtComponent@@UAEXHHHH@Z 100700c7 f   awt_Component.obj
 0001:0006f1b3       ?DefWindowProcW@AwtComponent@@UAEJIIJ@Z 100701b3 f   awt_Component.obj
 0001:0006f1d5       ?WmMove@AwtComponent@@UAE?AW4MsgRouting@@HH@Z 100701d5 f   awt_Component.obj
 0001:0006f1f6       ?WmSize@AwtComponent@@UAE?AW4MsgRouting@@IHH@Z 100701f6 f   awt_Component.obj
 0001:0006f217       ?WmHScroll@AwtComponent@@UAE?AW4MsgRouting@@IIPAUHWND__@@@Z 10070217 f   awt_Component.obj
 0001:0006f24a       ?WmVScroll@AwtComponent@@UAE?AW4MsgRouting@@IIPAUHWND__@@@Z 1007024a f   awt_Component.obj
 0001:0006f27d       ?getMessageTimeUTC@TimeHelper@@YA_JXZ 1007027d f   awt_Component.obj
 0001:0006f295       ?WmMouseEnter@AwtComponent@@UAE?AW4MsgRouting@@IHH@Z 10070295 f   awt_Component.obj
 0001:0006f2dc       ?CreateMessage@AwtComponent@@SAPAUtagMSG@@IIJHH@Z 100702dc f   awt_Component.obj
 0001:0006f306       ?WmMouseUp@AwtComponent@@UAE?AW4MsgRouting@@IHHH@Z 10070306 f   awt_Component.obj
 0001:0006f3dc       ?WmMouseMove@AwtComponent@@UAE?AW4MsgRouting@@IHH@Z 100703dc f   awt_Component.obj
 0001:0006f4d0       ?WmMouseExit@AwtComponent@@UAE?AW4MsgRouting@@IHH@Z 100704d0 f   awt_Component.obj
 0001:0006f509       ?WmMouseWheel@AwtComponent@@UAE?AW4MsgRouting@@IHHH@Z 10070509 f   awt_Component.obj
 0001:0006f60a       ?GetKeyLocation@AwtComponent@@CAJII@Z 1007060a f   awt_Component.obj
 0001:0006f665       ?InitDynamicKeyMapTable@AwtComponent@@SAXXZ 10070665 f   awt_Component.obj
 0001:0006f67e       ?WindowsKeyToJavaChar@AwtComponent@@QAEIIIW4TransOps@1@@Z 1007067e f   awt_Component.obj
 0001:0006f869       ?WmInputLangChange@AwtComponent@@UAE?AW4MsgRouting@@IPAUHKL__@@@Z 10070869 f   awt_Component.obj
 0001:0006f894       ?WmImeNotify@AwtComponent@@UAE?AW4MsgRouting@@IJ@Z 10070894 f   awt_Component.obj
 0001:0006f8b8       ?SendInputMethodEvent@AwtComponent@@QAEXJPAV_jstring@@HPAHPAPAV2@H1PAEHHH@Z 100708b8 f   awt_Component.obj
 0001:0006fa33       ?GetProxyFocusOwner@AwtComponent@@QAEPAUHWND__@@XZ 10070a33 f   awt_Component.obj
 0001:0006fa65       ?CallProxyDefWindowProc@AwtComponent@@QAEXIIJAAJAAW4MsgRouting@@@Z 10070a65 f   awt_Component.obj
 0001:0006faa2       ?WmCommand@AwtComponent@@UAE?AW4MsgRouting@@IPAUHWND__@@I@Z 10070aa2 f   awt_Component.obj
 0001:0006faeb       ?WmCompareItem@AwtComponent@@UAE?AW4MsgRouting@@IAAUtagCOMPAREITEMSTRUCT@@AAJ@Z 10070aeb f   awt_Component.obj
 0001:0006fb21       ?WmDeleteItem@AwtComponent@@UAE?AW4MsgRouting@@IAAUtagDELETEITEMSTRUCT@@@Z 10070b21 f   awt_Component.obj
 0001:0006fb64       ?OwnerDrawItem@AwtComponent@@UAE?AW4MsgRouting@@IAAUtagDRAWITEMSTRUCT@@@Z 10070b64 f   awt_Component.obj
 0001:0006fb96       ?OwnerMeasureItem@AwtComponent@@UAE?AW4MsgRouting@@IAAUtagMEASUREITEMSTRUCT@@@Z 10070b96 f   awt_Component.obj
 0001:0006fbe2       ?WmQueryNewPalette@AwtComponent@@UAE?AW4MsgRouting@@AAJ@Z 10070be2 f   awt_Component.obj
 0001:0006fc3c       ?WmPaletteChanged@AwtComponent@@UAE?AW4MsgRouting@@PAUHWND__@@@Z 10070c3c f   awt_Component.obj
 0001:0006fcab       ?GetNativeFocusedWindow@AwtComponent@@SAPAXXZ 10070cab f   awt_Component.obj
 0001:0006fcdc       ?GetNativeFocusOwner@AwtComponent@@SAPAXXZ 10070cdc f   awt_Component.obj
 0001:0006fd0d       ?SendKeyEventToFocusOwner@AwtComponent@@QAEXJ_JJJJJ0PAUtagMSG@@@Z 10070d0d f   awt_Component.obj
 0001:0006fd61       ?SynthesizeMouseMessage@AwtComponent@@QAEXPAUJNIEnv_@@PAV_jobject@@@Z 10070d61 f   awt_Component.obj
 0001:0006feed       ?AddDC@DCList@@QAEXPAUHDC__@@PAUHWND__@@@Z 10070eed f   awt_Component.obj
 0001:0006ff11       ?isRecursivelyEnabled@AwtComponent@@QAEHXZ 10070f11 f i awt_Component.obj
 0001:0006ff43       ?IsTopLevelHWnd@AwtComponent@@SAHPAUHWND__@@@Z 10070f43 f i awt_Component.obj
 0001:0006ff66       ?Dispose@AwtComponent@@UAEXXZ 10070f66 f   awt_Component.obj
 0001:0007000d       ?IsFocusable@AwtComponent@@QAEHXZ 1007100d f   awt_Component.obj
 0001:0007006f       ?GetTopLevelParentForWindow@AwtComponent@@SAPAUHWND__@@PAU2@@Z 1007106f f   awt_Component.obj
 0001:000700b3       ?GetBackgroundColor@AwtComponent@@QAEKXZ 100710b3 f   awt_Component.obj
 0001:000700d6       ?GetBackgroundBrush@AwtComponent@@QAEPAUHBRUSH__@@XZ 100710d6 f   awt_Component.obj
 0001:0007012e       ?WmCtlColor@AwtComponent@@UAE?AW4MsgRouting@@PAUHDC__@@PAUHWND__@@IAAPAUHBRUSH__@@@Z 1007112e f   awt_Component.obj
 0001:00070177       ?WmMouseDown@AwtComponent@@UAE?AW4MsgRouting@@IHHH@Z 10071177 f   awt_Component.obj
 0001:00070328       ?WmKeyDown@AwtComponent@@UAE?AW4MsgRouting@@IIIH@Z 10071328 f   awt_Component.obj
 0001:0007040b       ?WmKeyUp@AwtComponent@@UAE?AW4MsgRouting@@IIIH@Z 1007140b f   awt_Component.obj
 0001:000704c6       ?WmIMEChar@AwtComponent@@UAE?AW4MsgRouting@@IIIH@Z 100714c6 f   awt_Component.obj
 0001:00070529       ?WmChar@AwtComponent@@UAE?AW4MsgRouting@@IIIH@Z 10071529 f   awt_Component.obj
 0001:0007061e       ?OpenCandidateWindow@AwtComponent@@UAEXHH@Z 1007161e f   awt_Component.obj
 0001:000706a1       ?WmImeEndComposition@AwtComponent@@UAE?AW4MsgRouting@@XZ 100716a1 f   awt_Component.obj
 0001:000706c2       ?ImmGetContext@AwtComponent@@QAEPAUHIMC__@@XZ 100716c2 f   awt_Component.obj
 0001:000706dd       ?ImmAssociateContext@AwtComponent@@QAEPAUHIMC__@@PAU2@@Z 100716dd f   awt_Component.obj
 0001:000706fe       ?DrawListItem@AwtComponent@@QAEXPAUJNIEnv_@@AAUtagDRAWITEMSTRUCT@@@Z 100716fe f   awt_Component.obj
 0001:000708e2       ?FillBackground@AwtComponent@@MAEXPAUHDC__@@AAUtagSIZE@@@Z 100718e2 f   awt_Component.obj
 0001:0007092c       ?PostHandleEventMessage@AwtComponent@@UAEHPAUtagMSG@@H@Z 1007192c f   awt_Component.obj
 0001:00070996       ?SynthesizeKeyMessage@AwtComponent@@QAEXPAUJNIEnv_@@PAV_jobject@@@Z 10071996 f   awt_Component.obj
 0001:00070a5f       ?_NativeHandleEvent@AwtComponent@@SAXPAX@Z 10071a5f f   awt_Component.obj
 0001:00070d6d       _Java_sun_awt_windows_WComponentPeer_nativeHandleEvent@12 10071d6d f   awt_Component.obj
 0001:00070dd8       ?WindowProc@AwtComponent@@UAEJIIJ@Z 10071dd8 f   awt_Component.obj
 0001:00071d14       ?SetCompositionWindow@AwtComponent@@UAEXAAUtagRECT@@@Z 10072d14 f   awt_Component.obj
 0001:00071d5c       ?SetCandidateWindow@AwtComponent@@UAEXHHH@Z 10072d5c f   awt_Component.obj
 0001:00071da2       ?WmImeSetContext@AwtComponent@@UAE?AW4MsgRouting@@HPAJ@Z 10072da2 f   awt_Component.obj
 0001:00071dd5       ?WmImeComposition@AwtComponent@@UAE?AW4MsgRouting@@GJ@Z 10072dd5 f   awt_Component.obj
 0001:00071f51       _Java_java_awt_Container_initIDs@8 10072f51 f   awt_Container.obj
 0001:00071fbf       ?CallStaticVoidMethod@JNIEnv_@@QAAXPAV_jclass@@PAU_jmethodID@@ZZ 10072fbf f i awt_Cursor.obj
 0001:00071fda       ?setPData@AwtCursor@@SAXPAV_jobject@@_J@Z 10072fda f i awt_Cursor.obj
 0001:00072006       ??0AwtCursor@@QAE@PAUJNIEnv_@@PAUHICON__@@PAV_jobject@@@Z 10073006 f   awt_Cursor.obj
 0001:00072064       ??0AwtCursor@@QAE@PAUJNIEnv_@@PAUHICON__@@PAV_jobject@@HHHHHPAHPAE@Z 10073064 f   awt_Cursor.obj
 0001:000720db       ?Dispose@AwtCursor@@UAEXXZ 100730db f   awt_Cursor.obj
 0001:0007214d       ?CreateSystemCursor@AwtCursor@@SAPAV1@PAV_jobject@@@Z 1007314d f   awt_Cursor.obj
 0001:0007226d       ?Rebuild@AwtCursor@@AAEXXZ 1007326d f   awt_Cursor.obj
 0001:0007230d       _Java_java_awt_Cursor_initIDs@8 1007330d f   awt_Cursor.obj
 0001:000723d5       _Java_java_awt_Cursor_finalizeImpl@16 100733d5 f   awt_Cursor.obj
 0001:0007240e       _Java_sun_awt_windows_WCustomCursor_createCursorIndirect@36 1007340e f   awt_Cursor.obj
 0001:00072609       _Java_sun_awt_windows_WCustomCursor_getCursorWidth@8 10073609 f   awt_Cursor.obj
 0001:00072648       _Java_sun_awt_windows_WCustomCursor_getCursorHeight@8 10073648 f   awt_Cursor.obj
 0001:00072687       _Java_sun_awt_windows_WGlobalCursorManager_getCursorPos@12 10073687 f   awt_Cursor.obj
 0001:000726f3       _Java_sun_awt_windows_WGlobalCursorManager_findHeavyweightUnderCursor@12 100736f3 f   awt_Cursor.obj
 0001:00072771       _Java_sun_awt_windows_WGlobalCursorManager_findComponentAt@20 10073771 f   awt_Cursor.obj
 0001:000727d8       _Java_sun_awt_windows_WGlobalCursorManager_getLocationOnScreen@12 100737d8 f   awt_Cursor.obj
 0001:00072838       ??_GAwtCursor@@UAEPAXI@Z   10073838 f i awt_Cursor.obj
 0001:00072838       ??_EAwtCursor@@UAEPAXI@Z   10073838 f i awt_Cursor.obj
 0001:0007285a       ?GetCursor@AwtCursor@@SAPAUHICON__@@PAUJNIEnv_@@PAVAwtComponent@@@Z 1007385a f   awt_Cursor.obj
 0001:000728ee       ?UpdateCursor@AwtCursor@@SAXPAVAwtComponent@@@Z 100738ee f   awt_Cursor.obj
 0001:00072af4       _Java_sun_awt_windows_WGlobalCursorManager_setCursor@20 10073af4 f   awt_Cursor.obj
 0001:00072bd5       ?GetDataTransferer@AwtDataTransferer@@SAPAV_jobject@@PAUJNIEnv_@@@Z 10073bd5 f   awt_DataTransferer.obj
 0001:00072c3f       ?ConvertData@AwtDataTransferer@@SAPAV_jbyteArray@@PAUJNIEnv_@@PAV_jobject@@1_J1@Z 10073c3f f   awt_DataTransferer.obj
 0001:00072cf7       ?ConcatData@AwtDataTransferer@@SAPAV_jobject@@PAUJNIEnv_@@PAV2@1@Z 10073cf7 f   awt_DataTransferer.obj
 0001:00072d9b       ?GetPaletteBytes@AwtDataTransferer@@SAPAV_jbyteArray@@PAXKH@Z 10073d9b f   awt_DataTransferer.obj
 0001:00072ea6       ?LCIDToTextEncoding@AwtDataTransferer@@SAPAV_jbyteArray@@PAUJNIEnv_@@K@Z 10073ea6 f   awt_DataTransferer.obj
 0001:00072f60       ?SecondaryMessageLoop@AwtDataTransferer@@SAXXZ 10073f60 f   awt_DataTransferer.obj
 0001:00072f77       _Java_sun_awt_windows_WDataTransferer_dragQueryFile@12 10073f77 f   awt_DataTransferer.obj
 0001:0007312c       _Java_sun_awt_windows_WDataTransferer_platformImageBytesToImageData@20 1007412c f   awt_DataTransferer.obj
 0001:00073635       _Java_sun_awt_windows_WDataTransferer_imageDataToPlatformImageBytes@28 10074635 f   awt_DataTransferer.obj
 0001:00073b5f       _Java_sun_awt_windows_WDataTransferer_registerClipboardFormat@12 10074b5f f   awt_DataTransferer.obj
 0001:00073bca       _Java_sun_awt_windows_WDataTransferer_getClipboardFormatName@16 10074bca f   awt_DataTransferer.obj
 0001:00073c5c       _Java_sun_awt_windows_WToolkitThreadBlockedHandler_startSecondaryEventLoop@8 10074c5c f   awt_DataTransferer.obj
 0001:00073c96       _Java_java_awt_Dimension_initIDs@8 10074c96 f   awt_Dimension.obj
 0001:00073d01       _Java_sun_awt_windows_WDesktopPeer_ShellExecute@16 10074d01 f   awt_Desktop.obj
 0001:00073dd0       ??0AwtDesktopProperties@@QAE@PAV_jobject@@@Z 10074dd0 f   awt_DesktopProperties.obj
 0001:00073fd3       ?IsXPStyle@AwtDesktopProperties@@SAHXZ 10074fd3 f   awt_DesktopProperties.obj
 0001:00073ffc       ?GetLCDSubPixelOrder@@YAHXZ 10074ffc f   awt_DesktopProperties.obj
 0001:00074065       ?CheckFontSmoothingSettings@@YAXPAUHWND__@@@Z 10075065 f   awt_DesktopProperties.obj
 0001:00074221       ?GetBooleanParameter@AwtDesktopProperties@@CAHI@Z 10075221 f   awt_DesktopProperties.obj
 0001:00074221       ?GetIntegerParameter@AwtDesktopProperties@@CAII@Z 10075221 f   awt_DesktopProperties.obj
 0001:0007423b       ?SetStringProperty@AwtDesktopProperties@@AAEXPBGPAG@Z 1007523b f   awt_DesktopProperties.obj
 0001:000742d7       ?SetIntegerProperty@AwtDesktopProperties@@AAEXPBGH@Z 100752d7 f   awt_DesktopProperties.obj
 0001:00074345       ?SetBooleanProperty@AwtDesktopProperties@@AAEXPBGH@Z 10075345 f   awt_DesktopProperties.obj
 0001:000743b9       ?SetColorProperty@AwtDesktopProperties@@AAEXPBGK@Z 100753b9 f   awt_DesktopProperties.obj
 0001:0007443e       ?SetFontProperty@AwtDesktopProperties@@AAEXPAUHDC__@@HPBG@Z 1007543e f   awt_DesktopProperties.obj
 0001:00074615       ?SetFontProperty@AwtDesktopProperties@@AAEXPBGABUtagLOGFONTW@@@Z 10075615 f   awt_DesktopProperties.obj
 0001:000746f2       ?SetSoundProperty@AwtDesktopProperties@@AAEXPBG0@Z 100756f2 f   awt_DesktopProperties.obj
 0001:000747a1       ?PlayWindowsSound@AwtDesktopProperties@@QAEXPBG@Z 100757a1 f   awt_DesktopProperties.obj
 0001:000747c1       _Java_sun_awt_windows_WDesktopProperties_initIDs@8 100757c1 f   awt_DesktopProperties.obj
 0001:000748a8       _Java_sun_awt_windows_WDesktopProperties_init@8 100758a8 f   awt_DesktopProperties.obj
 0001:000748fa       _Java_sun_awt_windows_WDesktopProperties_playWindowsSound@12 100758fa f   awt_DesktopProperties.obj
 0001:00074970       ?GetSystemProperties@AwtDesktopProperties@@AAEXXZ 10075970 f   awt_DesktopProperties.obj
 0001:000749fe       ?GetXPStyleProperties@AwtDesktopProperties@@AAEXXZ 100759fe f   awt_DesktopProperties.obj
 0001:00074aa6       ?GetNonClientParameters@AwtDesktopProperties@@AAEXXZ 10075aa6 f   awt_DesktopProperties.obj
 0001:00074c27       ?GetIconParameters@AwtDesktopProperties@@AAEXXZ 10075c27 f   awt_DesktopProperties.obj
 0001:00074c9f       ?GetColorParameters@AwtDesktopProperties@@AAEXXZ 10075c9f f   awt_DesktopProperties.obj
 0001:00074ebc       ?GetOtherParameters@AwtDesktopProperties@@AAEXXZ 10075ebc f   awt_DesktopProperties.obj
 0001:000751bd       ?GetSoundEvents@AwtDesktopProperties@@AAEXXZ 100761bd f   awt_DesktopProperties.obj
 0001:000752bf       ?GetWindowsParameters@AwtDesktopProperties@@QAEXXZ 100762bf f   awt_DesktopProperties.obj
 0001:0007533e       _Java_sun_awt_windows_WDesktopProperties_getWindowsParameters@8 1007633e f   awt_DesktopProperties.obj
 0001:00075392       ?IsAutoRequestFocus@AwtWindow@@QAEHXZ 10076392 f i awt_Dialog.obj
 0001:000753c9       ?ModalCanBeActivated@AwtDialog@@CAHPAUHWND__@@@Z 100763c9 f i awt_Dialog.obj
 0001:0007540e       ??0AwtDialog@@QAE@XZ       1007640e f   awt_Dialog.obj
 0001:00075427       ?GetInsets@AwtWindow@@UAEXPAUtagRECT@@@Z 10076427 f i awt_Dialog.obj
 0001:0007543b       ?IsEmbeddedFrame@AwtFrame@@UAEHXZ 1007643b f i awt_Dialog.obj
 0001:00075442       ?IsUndecorated@AwtFrame@@UAEHXZ 10076442 f i awt_Dialog.obj
 0001:00075449       ?IsFocusedWindowModalBlocker@AwtDialog@@UAEHXZ 10076449 f i awt_Dialog.obj
 0001:00075470       ?Dispose@AwtDialog@@UAEXXZ 10076470 f   awt_Dialog.obj
 0001:0007548c       ?GetClassNameW@AwtDialog@@UAEPBGXZ 1007648c f   awt_Dialog.obj
 0001:00075492       ?FillClassInfo@AwtDialog@@UAEXPAUtagWNDCLASSEXW@@@Z 10076492 f   awt_Dialog.obj
 0001:000754a9       ?WmNcMouseDown@AwtDialog@@UAE?AW4MsgRouting@@IHHH@Z 100764a9 f   awt_Dialog.obj
 0001:000754f8       ?AnimateModalBlocker@AwtDialog@@SAXPAUHWND__@@@Z 100764f8 f   awt_Dialog.obj
 0001:00075513       ?Show@AwtDialog@@UAEXXZ    10076513 f   awt_Dialog.obj
 0001:00075595       ?DoUpdateIcon@AwtDialog@@UAEXXZ 10076595 f   awt_Dialog.obj
 0001:00075627       ?GetEffectiveIcon@AwtDialog@@UAEPAUHICON__@@H@Z 10076627 f   awt_Dialog.obj
 0001:0007569f       ?CheckUninstallModalHook@AwtDialog@@SAXXZ 1007669f f   awt_Dialog.obj
 0001:000756c7       ?ModalPerformActivation@AwtDialog@@CAXPAUHWND__@@@Z 100766c7 f   awt_Dialog.obj
 0001:00075730       ?ModalActivateNextWindow@AwtDialog@@SAXPAUHWND__@@PAV_jobject@@1@Z 10076730 f   awt_Dialog.obj
 0001:000757e1       ?WmEndModal@AwtDialog@@UAE?AW4MsgRouting@@XZ 100767e1 f   awt_Dialog.obj
 0001:00075864       ?SetResizable@AwtDialog@@UAEXH@Z 10076864 f   awt_Dialog.obj
 0001:000758c7       ?UpdateSystemMenu@AwtDialog@@AAEXXZ 100768c7 f   awt_Dialog.obj
 0001:000759f4       ?WmStyleChanged@AwtDialog@@UAE?AW4MsgRouting@@HPAUtagSTYLESTRUCT@@@Z 100769f4 f   awt_Dialog.obj
 0001:00075a0d       ?WmSize@AwtDialog@@UAE?AW4MsgRouting@@IHH@Z 10076a0d f   awt_Dialog.obj
 0001:00075a45       ?WindowProc@AwtDialog@@UAEJIIJ@Z 10076a45 f   awt_Dialog.obj
 0001:00075a8c       ?_ShowModal@AwtDialog@@SAXPAX@Z 10076a8c f   awt_Dialog.obj
 0001:00075b17       ?_EndModal@AwtDialog@@SAXPAX@Z 10076b17 f   awt_Dialog.obj
 0001:00075ba2       ?_SetIMMOption@AwtDialog@@SAXPAX@Z 10076ba2 f   awt_Dialog.obj
 0001:00075cb9       _Java_java_awt_Dialog_initIDs@8 10076cb9 f   awt_Dialog.obj
 0001:00075d27       _Java_sun_awt_windows_WDialogPeer_showModal@8 10076d27 f   awt_Dialog.obj
 0001:00075d78       _Java_sun_awt_windows_WDialogPeer_endModal@8 10076d78 f   awt_Dialog.obj
 0001:00075dc9       _Java_sun_awt_windows_WDialogPeer_pSetIMMOption@12 10076dc9 f   awt_Dialog.obj
 0001:00075e32       ??_EAwtDialog@@UAEPAXI@Z   10076e32 f i awt_Dialog.obj
 0001:00075e32       ??_GAwtDialog@@UAEPAXI@Z   10076e32 f i awt_Dialog.obj
 0001:00075e54       ?Create@AwtDialog@@SAPAV1@PAV_jobject@@0@Z 10076e54 f   awt_Dialog.obj
 0001:000760ee       ?PopupBlocker@AwtDialog@@CAXPAUHWND__@@0H0H@Z 100770ee f   awt_Dialog.obj
 0001:000761a9       _Java_sun_awt_windows_WDialogPeer_createAwtDialog@12 100771a9 f   awt_Dialog.obj
 0001:00076211       ?PopupBlockers@AwtDialog@@CAXPAUHWND__@@H0H@Z 10077211 f   awt_Dialog.obj
 0001:0007625b       ?ModalFilterProc@AwtDialog@@SGJHIJ@Z 1007725b f   awt_Dialog.obj
 0001:000762cb       ?MouseHookProc@AwtDialog@@SGJHIJ@Z 100772cb f   awt_Dialog.obj
 0001:00076384       ?MouseHookProc_NonTT@AwtDialog@@SGJHIJ@Z 10077384 f   awt_Dialog.obj
 0001:00076449       ?CheckInstallModalHook@AwtDialog@@SAXXZ 10077449 f   awt_Dialog.obj
 0001:0007648d       ?WmShowModal@AwtDialog@@UAE?AW4MsgRouting@@XZ 1007748d f   awt_Dialog.obj
 0001:000764c5       ?Init@JAWTDrawingSurfaceInfo@@QAEJPAVJAWTDrawingSurface@@@Z 100774c5 f   awt_DrawingSurface.obj
 0001:000765dc       ??1JAWTDrawingSurface@@UAE@XZ 100775dc f   awt_DrawingSurface.obj
 0001:0007661f       ?GetDSI@JAWTDrawingSurface@@SGPAUjawt_DrawingSurfaceInfo@@PAUjawt_DrawingSurface@@@Z 1007761f f   awt_DrawingSurface.obj
 0001:00076667       ?FreeDSI@JAWTDrawingSurface@@SGXPAUjawt_DrawingSurfaceInfo@@@Z 10077667 f   awt_DrawingSurface.obj
 0001:000766b0       ?LockSurface@JAWTDrawingSurface@@SGJPAUjawt_DrawingSurface@@@Z 100776b0 f   awt_DrawingSurface.obj
 0001:0007671c       ?UnlockSurface@JAWTDrawingSurface@@SGXPAUjawt_DrawingSurface@@@Z 1007771c f   awt_DrawingSurface.obj
 0001:0007674c       _DSFreeDrawingSurface@4    1007774c f   awt_DrawingSurface.obj
 0001:00076794       _DSLockAWT@4               10077794 f   awt_DrawingSurface.obj
 0001:00076794       _DSUnlockAWT@4             10077794 f   awt_DrawingSurface.obj
 0001:00076797       ??_GJAWTDrawingSurface@@UAEPAXI@Z 10077797 f i awt_DrawingSurface.obj
 0001:00076797       ??_EJAWTDrawingSurface@@UAEPAXI@Z 10077797 f i awt_DrawingSurface.obj
 0001:000767b3       ??0JAWTDrawingSurface@@QAE@PAUJNIEnv_@@PAV_jobject@@@Z 100777b3 f   awt_DrawingSurface.obj
 0001:0007682b       _DSGetDrawingSurface@8     1007782b f   awt_DrawingSurface.obj
 0001:000768a4       ?Initialize@AwtFileDialog@@SAXPAUJNIEnv_@@PAV_jstring@@@Z 100778a4 f   awt_FileDialog.obj
 0001:0007690d       ?GetOpenFileNameW@AwtFileDialog@@SAHPAUtagOFNW@@@Z 1007790d f   awt_FileDialog.obj
 0001:00076927       ?GetSaveFileNameW@AwtFileDialog@@SAHPAUtagOFNW@@@Z 10077927 f   awt_FileDialog.obj
 0001:00076941       ?_DisposeOrHide@AwtFileDialog@@SAXPAX@Z 10077941 f   awt_FileDialog.obj
 0001:00076991       ?_ToBack@AwtPrintDialog@@SAXPAX@Z 10077991 f   awt_PrintDialog.obj
 0001:00076991       ?_ToBack@AwtFileDialog@@SAXPAX@Z 10077991 f   awt_FileDialog.obj
 0001:000769e3       ?GetBufferLength@AwtFileDialog@@CAIPAGI@Z 100779e3 f   awt_FileDialog.obj
 0001:00076a06       _Java_sun_awt_windows_WFileDialogPeer_initIDs@8 10077a06 f   awt_FileDialog.obj
 0001:00076b62       _Java_sun_awt_windows_WFileDialogPeer_setFilterString@12 10077b62 f   awt_FileDialog.obj
 0001:00076ba4       _Java_sun_awt_windows_WFileDialogPeer__1dispose@8 10077ba4 f   awt_FileDialog.obj
 0001:00076bf0       _Java_sun_awt_windows_WFileDialogPeer__1hide@8 10077bf0 f   awt_FileDialog.obj
 0001:00076c41       _Java_sun_awt_windows_WFileDialogPeer_toFront@8 10077c41 f   awt_FileDialog.obj
 0001:00076c41       _Java_sun_awt_windows_WPrintDialogPeer_toFront@8 10077c41 f   awt_PrintDialog.obj
 0001:00076c92       _Java_sun_awt_windows_WFileDialogPeer_toBack@8 10077c92 f   awt_FileDialog.obj
 0001:00076c92       _Java_sun_awt_windows_WPrintDialogPeer_toBack@8 10077c92 f   awt_PrintDialog.obj
 0001:00076ce3       ?FileDialogWndProc@@YGJPAUHWND__@@IIJ@Z 10077ce3 f   awt_FileDialog.obj
 0001:00077030       ?Show@AwtFileDialog@@SAXPAX@Z 10078030 f   awt_FileDialog.obj
 0001:00077458       _Java_sun_awt_windows_WFileDialogPeer__1show@8 10078458 f   awt_FileDialog.obj
 0001:000774c2       _Java_java_awt_Event_initIDs@8 100784c2 f   awt_Event.obj
 0001:00077548       _fabsf                     10078548 f i awt_Font.obj
 0001:00077562       ?GetComponentFonts@AwtFont@@SAPAV_jobjectArray@@PAUJNIEnv_@@PAV_jobject@@@Z 10078562 f i awt_Font.obj
 0001:0007759d       ?IsMultiFont@@YAEPAUJNIEnv_@@PAV_jobject@@@Z 1007859d f   awt_Font.obj
 0001:00077604       ?GetTextComponentFontName@@YAPAV_jstring@@PAUJNIEnv_@@PAV_jobject@@@Z 10078604 f   awt_Font.obj
 0001:0007764f       ??0AwtFont@@QAE@HPAUJNIEnv_@@PAV_jobject@@@Z 1007864f f   awt_Font.obj
 0001:00077a99       ?SetupAscent@AwtFont@@SAXPAV1@@Z 10078a99 f   awt_Font.obj
 0001:00077af9       ?getFontDescriptorNumber@AwtFont@@SAHPAUJNIEnv_@@PAV_jobject@@1@Z 10078af9 f   awt_Font.obj
 0001:00077b8f       _Java_sun_awt_windows_WFontMetrics_bytesWidth@20 10078b8f f   awt_Font.obj
 0001:00077cca       _Java_sun_awt_windows_WFontMetrics_initIDs@8 10078cca f   awt_Font.obj
 0001:00077dcb       _Java_java_awt_Font_initIDs@8 10078dcb f   awt_Font.obj
 0001:00077e99       _Java_java_awt_FontMetrics_initIDs@8 10078e99 f   awt_Font.obj
 0001:00077f07       _Java_sun_awt_FontDescriptor_initIDs@8 10078f07 f   awt_Font.obj
 0001:00077f75       _Java_sun_awt_PlatformFont_initIDs@8 10078f75 f   awt_Font.obj
 0001:00077ffe       _Java_sun_awt_windows_WFontPeer_initIDs@8 10078ffe f   awt_Font.obj
 0001:00078051       ?Lookup@AwtFontCache@@QAEPAUHFONT__@@PAG@Z 10079051 f   awt_Font.obj
 0001:0007807e       ?Search@AwtFontCache@@QAEHPAUHFONT__@@@Z 1007907e f   awt_Font.obj
 0001:0007809d       ?IncRefCount@AwtFontCache@@QAEJPAVItem@1@@Z 1007909d f   awt_Font.obj
 0001:000780bb       ?DecRefCount@AwtFontCache@@QAEJPAVItem@1@@Z 100790bb f   awt_Font.obj
 0001:000780d9       ??0Item@AwtFontCache@@QAE@PBGPAUHFONT__@@PAV01@@Z 100790d9 f   awt_Font.obj
 0001:00078104       ??1Item@AwtFontCache@@QAE@XZ 10079104 f   awt_Font.obj
 0001:0007811b       ?In@CSegTableComponent@@UAEHG@Z 1007911b f i awt_Font.obj
 0001:0007811b       ?Revert@ADSIStreamProxy@AwtDragSource@@UAGJXZ 1007911b f i awt_DnDDS.obj
 0001:0007811b       ?WinThreadExecProc@AwtObject@@UAEJPAVExecuteArgs@1@@Z 1007911b f i awt_Object.obj
 0001:0007811b       ?PreProcessMsg@AwtComponent@@UAE?AW4MsgRouting@@AAUtagMSG@@@Z 1007911b f i awt_Component.obj
 0001:0007811b       ?PreferredItemSize@AwtComponent@@UAEPAV_jobject@@PAUJNIEnv_@@@Z 1007911b f i awt_Button.obj
 0001:00078120       ??1CSegTableComponent@@UAE@XZ 10079120 f   awt_Font.obj
 0001:0007813e       ?Create@CSegTableComponent@@UAEXPBG@Z 1007913e f   awt_Font.obj
 0001:00078166       ??0CSegTable@@QAE@XZ       10079166 f   awt_Font.obj
 0001:00078184       ?IsEUDC@CSegTable@@UAEHXZ  10079184 f i awt_Font.obj
 0001:00078184       ?IsFocusedWindowModalBlocker@AwtWindow@@UAEHXZ 10079184 f i awt_Frame.obj
 0001:00078184       ?NeedDblClick@AwtComponent@@UAEHXZ 10079184 f i awt_Button.obj
 0001:00078184       ?IsEUDC@CStdSegTable@@UAEHXZ 10079184 f i awt_Font.obj
 0001:00078184       ?IsEmbeddedFrame@AwtWindow@@UAEHXZ 10079184 f i awt_Window.obj
 0001:00078184       ?IsScrollbar@AwtComponent@@UAEHXZ 10079184 f i awt_Button.obj
 0001:00078184       ?IsTopMenu@AwtMenuItem@@UAEHXZ 10079184 f i awt_MenuItem.obj
 0001:00078184       ?InheritsNativeMouseWheelBehavior@AwtComponent@@UAEHXZ 10079184 f i awt_Component.obj
 0001:00078184       ?GetDBCSEditHandle@AwtComponent@@UAEPAUHWND__@@XZ 10079184 f i awt_Button.obj
 0001:00078184       ?IsSeparator@AwtMenu@@UAEHXZ 10079184 f i awt_Menu.obj
 0001:00078184       _awt_setMlibStartTimer     10079184 f i awt_Mlib.obj
 0001:00078184       ?IsSimpleWindow@AwtFrame@@UAEHXZ 10079184 f i awt_Dialog.obj
 0001:00078184       ?IsTopLevel@AwtComponent@@UAEHXZ 10079184 f i awt_Button.obj
 0001:00078184       ?GetMenuBar@AwtPopupMenu@@UAEPAVAwtMenuBar@@XZ 10079184 f i awt_PopupMenu.obj
 0001:00078184       ?IsDisabledAndPopup@AwtMenuItem@@UAEHXZ 10079184 f i awt_Menu.obj
 0001:00078184       ?IsContainer@AwtComponent@@UAEHXZ 10079184 f i awt_Button.obj
 0001:00078184       ?IsEmbeddedFrame@AwtComponent@@UAEHXZ 10079184 f i awt_Button.obj
 0001:00078184       _awt_setMlibStopTimer      10079184 f i awt_Mlib.obj
 0001:00078187       ??1CSegTable@@UAE@XZ       10079187 f   awt_Font.obj
 0001:000781cb       ?SwapULong@CSegTable@@KAXAAK@Z 100791cb f i awt_Font.obj
 0001:000781fc       ??0CStdSegTable@@QAE@XZ    100791fc f   awt_Font.obj
 0001:00078212       ?GetData@CStdSegTable@@MAEXKPAXK@Z 10079212 f i awt_Font.obj
 0001:0007822f       ??0CEUDCSegTable@@QAE@XZ   1007922f f   awt_Font.obj
 0001:00078249       ?GetData@CEUDCSegTable@@MAEXKPAXK@Z 10079249 f i awt_Font.obj
 0001:0007827d       ??0CSegTableManagerComponent@@QAE@XZ 1007927d f   awt_Font.obj
 0001:000782a5       ??1CSegTableManagerComponent@@QAE@XZ 100792a5 f   awt_Font.obj
 0001:000782d3       ?MakeBiggerTable@CSegTableManagerComponent@@IAEXXZ 100792d3 f   awt_Font.obj
 0001:0007831a       ?GetTable@CSegTableManager@@QAEPAVCSegTable@@PBGH@Z 1007931a f   awt_Font.obj
 0001:000783c7       ?GetCodePageSubkey@CCombinedSegTable@@AAEPADXZ 100793c7 f   awt_Font.obj
 0001:00078454       ?GetEUDCFileName@CCombinedSegTable@@AAEXPAGH@Z 10079454 f   awt_Font.obj
 0001:000785ee       ?Create@CCombinedSegTable@@UAEXPBG@Z 100795ee f   awt_Font.obj
 0001:0007868d       ?In@CCombinedSegTable@@UAEHG@Z 1007968d f   awt_Font.obj
 0001:000786ba       ?GetTable@CCombinedSegTableManager@@QAEPAVCCombinedSegTable@@PBG@Z 100796ba f   awt_Font.obj
 0001:00078746       _Java_sun_awt_windows_WDefaultFontCharset_initIDs@8 10079746 f   awt_Font.obj
 0001:00078799       ??_EAwtFont@@UAEPAXI@Z     10079799 f i awt_Font.obj
 0001:00078799       ??_GAwtFont@@UAEPAXI@Z     10079799 f i awt_Font.obj
 0001:000787bb       ?Add@AwtFontCache@@QAEXPAGPAUHFONT__@@@Z 100797bb f   awt_Font.obj
 0001:000787e8       ?Clear@AwtFontCache@@QAEXXZ 100797e8 f   awt_Font.obj
 0001:00078811       ?IncRefCount@AwtFontCache@@QAEXPAUHFONT__@@@Z 10079811 f   awt_Font.obj
 0001:00078833       ??_ECSegTable@@UAEPAXI@Z   10079833 f i awt_Font.obj
 0001:00078833       ??_GCSegTable@@UAEPAXI@Z   10079833 f i awt_Font.obj
 0001:0007884f       ?MakeTable@CSegTable@@IAEXXZ 1007984f f   awt_Font.obj
 0001:00078a5c       ?In@CSegTable@@UAEHG@Z     10079a5c f   awt_Font.obj
 0001:00078ae5       ??_GCStdSegTable@@UAEPAXI@Z 10079ae5 f i awt_Font.obj
 0001:00078ae5       ??_ECStdSegTable@@UAEPAXI@Z 10079ae5 f i awt_Font.obj
 0001:00078b07       ?Create@CStdSegTable@@UAEXPBG@Z 10079b07 f   awt_Font.obj
 0001:00078b7f       ??_ECEUDCSegTable@@UAEPAXI@Z 10079b7f f i awt_Font.obj
 0001:00078b7f       ??_GCEUDCSegTable@@UAEPAXI@Z 10079b7f f i awt_Font.obj
 0001:00078ba1       ?Create@CEUDCSegTable@@UAEXPBG@Z 10079ba1 f   awt_Font.obj
 0001:00078c7b       ??_GCSegTableComponent@@UAEPAXI@Z 10079c7b f i awt_Font.obj
 0001:00078c7b       ??_ECSegTableComponent@@UAEPAXI@Z 10079c7b f i awt_Font.obj
 0001:00078c7b       ??_ECCombinedSegTable@@UAEPAXI@Z 10079c7b f i awt_Font.obj
 0001:00078c7b       ??_GCCombinedSegTable@@UAEPAXI@Z 10079c7b f i awt_Font.obj
 0001:00078c97       ?CreateHFont@AwtFont@@SAPAUHFONT__@@PAGHHHM@Z 10079c97 f   awt_Font.obj
 0001:00078d56       ?Cleanup@AwtFont@@SAXXZ    10079d56 f   awt_Font.obj
 0001:00078d60       ?Remove@AwtFontCache@@QAEXPAUHFONT__@@@Z 10079d60 f   awt_Font.obj
 0001:00078dae       _Java_sun_awt_windows_WDefaultFontCharset_canConvert@12 10079dae f   awt_Font.obj
 0001:00078e63       ?Dispose@AwtFont@@UAEXXZ   10079e63 f   awt_Font.obj
 0001:00078eb3       ?Create@AwtFont@@SAPAV1@PAUJNIEnv_@@PAV_jobject@@JM@Z 10079eb3 f   awt_Font.obj
 0001:000791e9       ?GetFont@AwtFont@@SAPAV1@PAUJNIEnv_@@PAV_jobject@@JM@Z 1007a1e9 f   awt_Font.obj
 0001:00079238       ?LoadMetrics@AwtFont@@SAXPAUJNIEnv_@@PAV_jobject@@@Z 1007a238 f   awt_Font.obj
 0001:00079511       ?DrawStringSize_sub@AwtFont@@SA?AUtagSIZE@@PAV_jstring@@PAUHDC__@@PAV_jobject@@JJHI@Z 1007a511 f   awt_Font.obj
 0001:00079884       _Java_sun_awt_windows_WFontMetrics_init@8 1007a884 f   awt_Font.obj
 0001:000798fa       _Java_sun_awt_windows_WFontMetrics_stringWidth@12 1007a8fa f   awt_Font.obj
 0001:00079981       _Java_sun_awt_windows_WFontMetrics_charsWidth@20 1007a981 f   awt_Font.obj
 0001:00079a50       ?SynthesizeWmActivate@AwtWindow@@SAJHPAUHWND__@@0@Z 1007aa50 f i awt_Frame.obj
 0001:00079a9a       ??0AwtFrame@@QAE@XZ        1007aa9a f   awt_Frame.obj
 0001:00079b08       ??1AwtFrame@@UAE@XZ        1007ab08 f   awt_Frame.obj
 0001:00079b13       ?Dispose@AwtFrame@@UAEXXZ  1007ab13 f   awt_Frame.obj
 0001:00079b18       ?GetClassNameW@AwtFrame@@UAEPBGXZ 1007ab18 f   awt_Frame.obj
 0001:00079b1e       ?Create@AwtFrame@@SAPAV1@PAV_jobject@@0@Z 1007ab1e f   awt_Frame.obj
 0001:00079f62       ?ProxyWindowProc@AwtFrame@@AAEJIIJAAW4MsgRouting@@@Z 1007af62 f   awt_Frame.obj
 0001:0007a0de       ?WindowProc@AwtFrame@@UAEJIIJ@Z 1007b0de f   awt_Frame.obj
 0001:0007a119       ?WmShowWindow@AwtFrame@@UAE?AW4MsgRouting@@HI@Z 1007b119 f   awt_Frame.obj
 0001:0007a1b4       ?WmMouseUp@AwtFrame@@UAE?AW4MsgRouting@@IHHH@Z 1007b1b4 f   awt_Frame.obj
 0001:0007a1d3       ?WmMouseMove@AwtFrame@@UAE?AW4MsgRouting@@IHH@Z 1007b1d3 f   awt_Frame.obj
 0001:0007a2f6       ?WmNcMouseUp@AwtFrame@@UAE?AW4MsgRouting@@IHHH@Z 1007b2f6 f   awt_Frame.obj
 0001:0007a370       ?WmNcMouseDown@AwtFrame@@UAE?AW4MsgRouting@@IHHH@Z 1007b370 f   awt_Frame.obj
 0001:0007a415       ?Reshape@AwtFrame@@UAEXHHHH@Z 1007b415 f   awt_Frame.obj
 0001:0007a512       ?SendWindowStateEvent@AwtFrame@@QAEXHH@Z 1007b512 f   awt_Frame.obj
 0001:0007a529       ?AdjustCandidateWindowPos@AwtFrame@@QAEXXZ 1007b529 f   awt_Frame.obj
 0001:0007a5dd       ?SetMaximizedBounds@AwtFrame@@QAEXHHHH@Z 1007b5dd f   awt_Frame.obj
 0001:0007a612       ?WmGetMinMaxInfo@AwtFrame@@UAE?AW4MsgRouting@@PAUtagMINMAXINFO@@@Z 1007b612 f   awt_Frame.obj
 0001:0007a66a       ?WmSize@AwtFrame@@UAE?AW4MsgRouting@@IHH@Z 1007b66a f   awt_Frame.obj
 0001:0007a778       ?CheckActivateActualFocusedWindow@AwtFrame@@QAEHPAUHWND__@@@Z 1007b778 f   awt_Frame.obj
 0001:0007a7ba       ?CheckRetainActualFocusedWindow@AwtFrame@@QAEXPAUHWND__@@@Z 1007b7ba f   awt_Frame.obj
 0001:0007a809       ?AwtSetActiveWindow@AwtFrame@@UAEHHI@Z 1007b809 f   awt_Frame.obj
 0001:0007a825       ?WmEnterMenuLoop@AwtFrame@@UAE?AW4MsgRouting@@H@Z 1007b825 f   awt_Frame.obj
 0001:0007a838       ?WmExitMenuLoop@AwtFrame@@UAE?AW4MsgRouting@@H@Z 1007b838 f   awt_Frame.obj
 0001:0007a84c       ?GetMenuBar@AwtFrame@@QAEPAVAwtMenuBar@@XZ 1007b84c f   awt_Frame.obj
 0001:0007a853       ?SetMenuBar@AwtFrame@@QAEXPAVAwtMenuBar@@@Z 1007b853 f   awt_Frame.obj
 0001:0007a878       ?WmDrawItem@AwtFrame@@UAE?AW4MsgRouting@@IAAUtagDRAWITEMSTRUCT@@@Z 1007b878 f   awt_Frame.obj
 0001:0007a8cd       ?WmMeasureItem@AwtFrame@@UAE?AW4MsgRouting@@IAAUtagMEASUREITEMSTRUCT@@@Z 1007b8cd f   awt_Frame.obj
 0001:0007a933       ?WmGetIcon@AwtFrame@@UAE?AW4MsgRouting@@IAAJ@Z 1007b933 f   awt_Frame.obj
 0001:0007a957       ?DoUpdateIcon@AwtFrame@@UAEXXZ 1007b957 f   awt_Frame.obj
 0001:0007a999       ?GetEffectiveIcon@AwtFrame@@UAEPAUHICON__@@H@Z 1007b999 f   awt_Frame.obj
 0001:0007aa1f       ?WmSysCommand@AwtFrame@@UAE?AW4MsgRouting@@IHH@Z 1007ba1f f   awt_Frame.obj
 0001:0007aaa7       ?WinThreadExecProc@AwtFrame@@UAEJPAVExecuteArgs@AwtObject@@@Z 1007baa7 f   awt_Frame.obj
 0001:0007ab25       ?_SynthesizeWmActivate@AwtFrame@@SAXPAX@Z 1007bb25 f   awt_Frame.obj
 0001:0007aba9       ?_GetBoundsPrivate@AwtFrame@@SAPAV_jobject@@PAX@Z 1007bba9 f   awt_Frame.obj
 0001:0007acda       ?_SetState@AwtFrame@@SAXPAX@Z 1007bcda f   awt_Frame.obj
 0001:0007ae66       ?_GetState@AwtFrame@@SAJPAX@Z 1007be66 f   awt_Frame.obj
 0001:0007aefc       ?_SetMaximizedBounds@AwtFrame@@SAXPAX@Z 1007befc f   awt_Frame.obj
 0001:0007afab       ?_ClearMaximizedBounds@AwtFrame@@SAXPAX@Z 1007bfab f   awt_Frame.obj
 0001:0007b02b       ?_SetMenuBar@AwtFrame@@SAXPAX@Z 1007c02b f   awt_Frame.obj
 0001:0007b0f2       ?_SetIMMOption@AwtFrame@@SAXPAX@Z 1007c0f2 f   awt_Frame.obj
 0001:0007b209       _Java_java_awt_Frame_initIDs@8 1007c209 f   awt_Frame.obj
 0001:0007b25c       _Java_sun_awt_windows_WFramePeer_initIDs@8 1007c25c f   awt_Frame.obj
 0001:0007b2ca       _Java_sun_awt_windows_WFramePeer_setState@12 1007c2ca f   awt_Frame.obj
 0001:0007b32d       _Java_sun_awt_windows_WFramePeer_getState@8 1007c32d f   awt_Frame.obj
 0001:0007b380       _Java_sun_awt_windows_WFramePeer_setMaximizedBounds@24 1007c380 f   awt_Frame.obj
 0001:0007b3f5       _Java_sun_awt_windows_WFramePeer_clearMaximizedBounds@8 1007c3f5 f   awt_Frame.obj
 0001:0007b446       _Java_sun_awt_windows_WFramePeer_setMenuBar0@12 1007c446 f   awt_Frame.obj
 0001:0007b4af       _Java_sun_awt_windows_WFramePeer_createAwtFrame@12 1007c4af f   awt_Frame.obj
 0001:0007b517       _Java_sun_awt_windows_WFramePeer_getSysMenuHeight@8 1007c517 f   awt_Frame.obj
 0001:0007b556       _Java_sun_awt_windows_WFramePeer_pSetIMMOption@12 1007c556 f   awt_Frame.obj
 0001:0007b5bf       _Java_sun_awt_EmbeddedFrame_setPeer@12 1007c5bf f   awt_Frame.obj
 0001:0007b624       _Java_sun_awt_windows_WEmbeddedFrame_initIDs@8 1007c624 f   awt_Frame.obj
 0001:0007b692       _Java_sun_awt_windows_WEmbeddedFramePeer_create@12 1007c692 f   awt_Frame.obj
 0001:0007b709       _Java_sun_awt_windows_WEmbeddedFramePeer_getBoundsPrivate@8 1007c709 f   awt_Frame.obj
 0001:0007b774       _Java_sun_awt_windows_WEmbeddedFramePeer_synthesizeWmActivate@12 1007c774 f   awt_Frame.obj
 0001:0007b7e7       ??_EAwtFrame@@UAEPAXI@Z    1007c7e7 f i awt_Frame.obj
 0001:0007b7e7       ??_GAwtFrame@@UAEPAXI@Z    1007c7e7 f i awt_Frame.obj
 0001:0007b809       ?Show@AwtFrame@@UAEXXZ     1007c809 f   awt_Frame.obj
 0001:0007b96d       ?WmActivate@AwtFrame@@UAE?AW4MsgRouting@@IHPAUHWND__@@@Z 1007c96d f   awt_Frame.obj
 0001:0007ba3a       ?_NotifyModalBlocked@AwtFrame@@SAXPAX@Z 1007ca3a f   awt_Frame.obj
 0001:0007bbb4       _Java_sun_awt_windows_WEmbeddedFrame_notifyModalBlockedImpl@20 1007cbb4 f   awt_Frame.obj
 0001:0007bc2f       ?GetMaxGDILimit@AwtGDIObject@@CAHXZ 1007cc2f f   awt_GDIObject.obj
 0001:0007bcab       ??$SafeCreate@VCriticalSection@@@@YAPAVCriticalSection@@AAPAV0@@Z 1007ccab f i awt_GDIObject.obj
 0001:0007bcff       ?IncrementIfAvailable@AwtGDIObject@@SAHXZ 1007ccff f   awt_GDIObject.obj
 0001:0007bd51       ?Decrement@AwtGDIObject@@SAXXZ 1007cd51 f   awt_GDIObject.obj
 0001:0007bd73       ?EnsureGDIObjectAvailability@AwtGDIObject@@SAHXZ 1007cd73 f   awt_GDIObject.obj
 0001:0007bdba       ?create_BMP@@YAPAUHBITMAP__@@PAUHWND__@@PAHHHH@Z 1007cdba f   awt_IconCursor.obj
 0001:0007beee       ?destroy_BMP@@YAXPAUHBITMAP__@@@Z 1007ceee f   awt_IconCursor.obj
 0001:0007bf00       _Java_java_awt_event_InputEvent_initIDs@8 1007cf00 f   awt_InputEvent.obj
 0001:0007bf23       _Java_sun_awt_windows_WInputMethod_createNativeContext@8 1007cf23 f   awt_InputMethod.obj
 0001:0007bf76       _Java_sun_awt_windows_WInputMethod_destroyNativeContext@12 1007cf76 f   awt_InputMethod.obj
 0001:0007bfc4       _Java_sun_awt_windows_WInputMethod_enableNativeIME@20 1007cfc4 f   awt_InputMethod.obj
 0001:0007c047       _Java_sun_awt_windows_WInputMethod_disableNativeIME@12 1007d047 f   awt_InputMethod.obj
 0001:0007c0b5       _Java_sun_awt_windows_WInputMethod_handleNativeIMEEvent@16 1007d0b5 f   awt_InputMethod.obj
 0001:0007c1fa       _Java_sun_awt_windows_WInputMethod_endCompositionNative@16 1007d1fa f   awt_InputMethod.obj
 0001:0007c24a       _Java_sun_awt_windows_WInputMethod_setConversionStatus@16 1007d24a f   awt_InputMethod.obj
 0001:0007c296       _Java_sun_awt_windows_WInputMethod_getConversionStatus@12 1007d296 f   awt_InputMethod.obj
 0001:0007c2eb       _Java_sun_awt_windows_WInputMethod_setOpenStatus@16 1007d2eb f   awt_InputMethod.obj
 0001:0007c337       _Java_sun_awt_windows_WInputMethod_getOpenStatus@12 1007d337 f   awt_InputMethod.obj
 0001:0007c390       _Java_sun_awt_windows_WInputMethod_setStatusWindowVisible@16 1007d390 f   awt_InputMethod.obj
 0001:0007c3f4       _Java_sun_awt_windows_WInputMethod_openCandidateWindow@20 1007d3f4 f   awt_InputMethod.obj
 0001:0007c498       _Java_sun_awt_windows_WInputMethod_getNativeIMMDescription@8 1007d498 f   awt_InputMethod.obj
 0001:0007c523       _CreateLocaleObject        1007d523 f   awt_InputMethod.obj
 0001:0007c592       _getDefaultKeyboardLayout  1007d592 f   awt_InputMethod.obj
 0001:0007c613       _Java_sun_awt_windows_WInputMethod_getNativeLocale@8 1007d613 f   awt_InputMethod.obj
 0001:0007c67c       _Java_sun_awt_windows_WInputMethod_setNativeLocale@16 1007d67c f   awt_InputMethod.obj
 0001:0007c7b7       _Java_sun_awt_windows_WInputMethodDescriptor_getNativeAvailableLocales@8 1007d7b7 f   awt_InputMethod.obj
 0001:0007c8e2       ??0AwtInputTextInfor@@QAE@XZ 1007d8e2 f   awt_InputTextInfor.obj
 0001:0007c910       ??1AwtInputTextInfor@@QAE@XZ 1007d910 f   awt_InputTextInfor.obj
 0001:0007c97e       ?MakeJavaString@AwtInputTextInfor@@CAPAV_jstring@@PAUJNIEnv_@@PAGH@Z 1007d97e f   awt_InputTextInfor.obj
 0001:0007c9a9       ?GetCursorPosition@AwtInputTextInfor@@QBEHXZ 1007d9a9 f   awt_InputTextInfor.obj
 0001:0007c9b5       ?GetCommittedTextLength@AwtInputTextInfor@@QBEHXZ 1007d9b5 f   awt_InputTextInfor.obj
 0001:0007c9d4       ?GetContextData@AwtInputTextInfor@@QAEHPAUHIMC__@@J@Z 1007d9d4 f   awt_InputTextInfor.obj
 0001:0007cbda       ?GetClauseInfor@AwtInputTextInfor@@QAEHAAPAHAAPAPAV_jstring@@@Z 1007dbda f   awt_InputTextInfor.obj
 0001:0007cf64       ?GetAttributeInfor@AwtInputTextInfor@@QAEHAAPAHAAPAE@Z 1007df64 f   awt_InputTextInfor.obj
 0001:0007d106       _Java_java_awt_Insets_initIDs@8 1007e106 f   awt_Insets.obj
 0001:0007d19a       _Java_java_awt_event_KeyEvent_initIDs@8 1007e19a f   awt_KeyEvent.obj
 0001:0007d28f       _Java_sun_awt_windows_WKeyboardFocusManagerPeer_setNativeFocusOwner@12 1007e28f f   awt_KeyboardFocusManager.obj
 0001:0007d2e0       _Java_sun_awt_windows_WKeyboardFocusManagerPeer_getNativeFocusOwner@8 1007e2e0 f   awt_KeyboardFocusManager.obj
 0001:0007d325       _Java_sun_awt_windows_WKeyboardFocusManagerPeer_getNativeFocusedWindow@8 1007e325 f   awt_KeyboardFocusManager.obj
 0001:0007d36a       ??0AwtLabel@@QAE@XZ        1007e36a f   awt_Label.obj
 0001:0007d383       ?GetClassNameW@AwtLabel@@UAEPBGXZ 1007e383 f   awt_Label.obj
 0001:0007d389       ?Create@AwtLabel@@SAPAV1@PAV_jobject@@0@Z 1007e389 f   awt_Label.obj
 0001:0007d539       ?DoPaint@AwtLabel@@AAEXPAUHDC__@@AAUtagRECT@@@Z 1007e539 f   awt_Label.obj
 0001:0007d6d6       ?LazyPaint@AwtLabel@@QAEXXZ 1007e6d6 f   awt_Label.obj
 0001:0007d6fa       ?Enable@AwtLabel@@UAEXH@Z  1007e6fa f   awt_Label.obj
 0001:0007d72c       ?WmEraseBkgnd@AwtLabel@@UAE?AW4MsgRouting@@PAUHDC__@@AAH@Z 1007e72c f   awt_Label.obj
 0001:0007d77f       ?WmPaint@AwtLabel@@UAE?AW4MsgRouting@@PAUHDC__@@@Z 1007e77f f   awt_Label.obj
 0001:0007d7f3       ?WmPrintClient@AwtLabel@@UAE?AW4MsgRouting@@PAUHDC__@@J@Z 1007e7f3 f   awt_Label.obj
 0001:0007d83d       ?_SetText@AwtLabel@@SAXPAX@Z 1007e83d f   awt_Label.obj
 0001:0007d90e       ?_SetAlignment@AwtLabel@@SAXPAX@Z 1007e90e f   awt_Label.obj
 0001:0007d99a       ?_LazyPaint@AwtLabel@@SAXPAX@Z 1007e99a f   awt_Label.obj
 0001:0007da1a       _Java_java_awt_Label_initIDs@8 1007ea1a f   awt_Label.obj
 0001:0007da88       _Java_sun_awt_windows_WLabelPeer_setText@12 1007ea88 f   awt_Label.obj
 0001:0007daf1       _Java_sun_awt_windows_WLabelPeer_setAlignment@12 1007eaf1 f   awt_Label.obj
 0001:0007db54       _Java_sun_awt_windows_WLabelPeer_create@12 1007eb54 f   awt_Label.obj
 0001:0007dc03       _Java_sun_awt_windows_WLabelPeer_lazyPaint@8 1007ec03 f   awt_Label.obj
 0001:0007dc54       ??0AwtList@@QAE@XZ         1007ec54 f   awt_List.obj
 0001:0007dc74       ?GetClassNameW@AwtList@@UAEPBGXZ 1007ec74 f   awt_List.obj
 0001:0007dc7a       ?Create@AwtList@@SAPAV1@PAV_jobject@@0@Z 1007ec7a f   awt_List.obj
 0001:0007de51       ?SetDragCapture@AwtList@@UAEXI@Z 1007ee51 f   awt_List.obj
 0001:0007de51       ?SetDragCapture@AwtComponent@@MAEXI@Z 1007ee51 f   awt_Component.obj
 0001:0007de6b       ?ReleaseDragCapture@AwtList@@UAEXI@Z 1007ee6b f   awt_List.obj
 0001:0007de6b       ?ReleaseDragCapture@AwtComponent@@MAEXI@Z 1007ee6b f   awt_Component.obj
 0001:0007de8a       ?PreferredItemSize@AwtList@@UAEPAV_jobject@@PAUJNIEnv_@@@Z 1007ee8a f   awt_List.obj
 0001:0007dedc       ?OwnerDrawItem@AwtChoice@@UAE?AW4MsgRouting@@IAAUtagDRAWITEMSTRUCT@@@Z 1007eedc f   awt_Choice.obj
 0001:0007dedc       ?OwnerDrawItem@AwtList@@UAE?AW4MsgRouting@@IAAUtagDRAWITEMSTRUCT@@@Z 1007eedc f   awt_List.obj
 0001:0007df02       ?OwnerMeasureItem@AwtList@@UAE?AW4MsgRouting@@IAAUtagMEASUREITEMSTRUCT@@@Z 1007ef02 f   awt_List.obj
 0001:0007df02       ?OwnerMeasureItem@AwtChoice@@UAE?AW4MsgRouting@@IAAUtagMEASUREITEMSTRUCT@@@Z 1007ef02 f   awt_Choice.obj
 0001:0007df28       ?WmNcHitTest@AwtList@@UAE?AW4MsgRouting@@IIAAJ@Z 1007ef28 f   awt_List.obj
 0001:0007df72       ?WmMouseUp@AwtList@@UAE?AW4MsgRouting@@IHHH@Z 1007ef72 f   awt_List.obj
 0001:0007dfdb       ?WmMouseDown@AwtList@@UAE?AW4MsgRouting@@IHHH@Z 1007efdb f   awt_List.obj
 0001:0007e052       ?WmCtlColor@AwtList@@UAE?AW4MsgRouting@@PAUHDC__@@PAUHWND__@@IAAPAUHBRUSH__@@@Z 1007f052 f   awt_List.obj
 0001:0007e086       ?IsFocusingMouseMessage@AwtTextComponent@@UAEHPAUtagMSG@@@Z 1007f086 f   awt_TextComponent.obj
 0001:0007e086       ?IsFocusingMouseMessage@AwtComponent@@UAEHPAUtagMSG@@@Z 1007f086 f   awt_Component.obj
 0001:0007e086       ?IsFocusingMouseMessage@AwtList@@UAEHPAUtagMSG@@@Z 1007f086 f   awt_List.obj
 0001:0007e0a5       ?WmPrint@AwtList@@UAE?AW4MsgRouting@@PAUHDC__@@J@Z 1007f0a5 f   awt_List.obj
 0001:0007e111       ?_GetMaxWidth@AwtList@@SAJPAX@Z 1007f111 f   awt_List.obj
 0001:0007e196       ?_SetMultipleSelections@AwtList@@SAXPAX@Z 1007f196 f   awt_List.obj
 0001:0007e22a       _Java_sun_awt_windows_WListPeer_getMaxWidth@8 1007f22a f   awt_List.obj
 0001:0007e27d       _Java_sun_awt_windows_WListPeer_setMultipleSelections@12 1007f27d f   awt_List.obj
 0001:0007e2e0       _Java_sun_awt_windows_WListPeer_create@12 1007f2e0 f   awt_List.obj
 0001:0007e38f       ?GetStyle@AwtList@@UAEJXZ  1007f38f f i awt_List.obj
 0001:0007e38f       ?GetStyle@AwtComponent@@UAEJXZ 1007f38f f i awt_Button.obj
 0001:0007e39c       ?SetStyle@AwtList@@UAEXJ@Z 1007f39c f i awt_List.obj
 0001:0007e39c       ?SetStyle@AwtComponent@@UAEXJ@Z 1007f39c f i awt_Button.obj
 0001:0007e3ba       ?GetStyleEx@AwtList@@UAEJXZ 1007f3ba f i awt_List.obj
 0001:0007e3ba       ?GetStyleEx@AwtComponent@@UAEJXZ 1007f3ba f i awt_Button.obj
 0001:0007e3c7       ?SetStyleEx@AwtComponent@@UAEXJ@Z 1007f3c7 f i awt_Button.obj
 0001:0007e3c7       ?SetStyleEx@AwtList@@UAEXJ@Z 1007f3c7 f i awt_List.obj
 0001:0007e3e5       ?GetDBCSEditHandle@AwtChoice@@UAEPAUHWND__@@XZ 1007f3e5 f i awt_Choice.obj
 0001:0007e3e5       ?GetDBCSEditHandle@AwtTextComponent@@UAEPAUHWND__@@XZ 1007f3e5 f i awt_TextArea.obj
 0001:0007e3e5       ?GetDBCSEditHandle@AwtList@@UAEPAUHWND__@@XZ 1007f3e5 f i awt_List.obj
 0001:0007e3e9       ??_GAwtList@@UAEPAXI@Z     1007f3e9 f i awt_List.obj
 0001:0007e3e9       ??_EAwtList@@UAEPAXI@Z     1007f3e9 f i awt_List.obj
 0001:0007e40b       ?SetFont@AwtList@@UAEXPAVAwtFont@@@Z 1007f40b f   awt_List.obj
 0001:0007e4aa       ?AdjustHorizontalScrollbar@AwtList@@QAEXXZ 1007f4aa f   awt_List.obj
 0001:0007e51c       ?WmSize@AwtList@@UAE?AW4MsgRouting@@IHH@Z 1007f51c f   awt_List.obj
 0001:0007e53b       ?_MakeVisible@AwtList@@SAXPAX@Z 1007f53b f   awt_List.obj
 0001:0007e5dc       _Java_sun_awt_windows_WListPeer_makeVisible@12 1007f5dc f   awt_List.obj
 0001:0007e63f       ?Select@AwtList@@QAEXH@Z   1007f63f f i awt_List.obj
 0001:0007e66c       ?Deselect@AwtList@@QAEXH@Z 1007f66c f i awt_List.obj
 0001:0007e696       ?GetCount@AwtList@@QAEIXZ  1007f696 f i awt_List.obj
 0001:0007e6aa       ?IsItemSelected@AwtList@@QAEHI@Z 1007f6aa f i awt_List.obj
 0001:0007e6cb       ?CheckMaxWidth@AwtList@@QAEXJ@Z 1007f6cb f i awt_List.obj
 0001:0007e6e5       ?SetMultiSelect@AwtList@@QAEXH@Z 1007f6e5 f   awt_List.obj
 0001:0007e95c       ?UpdateMaxItemWidth@AwtList@@QAEXXZ 1007f95c f   awt_List.obj
 0001:0007ea43       ?HandleEvent@AwtList@@UAE?AW4MsgRouting@@PAUtagMSG@@H@Z 1007fa43 f   awt_List.obj
 0001:0007eacf       ?WmNotify@AwtList@@UAE?AW4MsgRouting@@I@Z 1007facf f   awt_List.obj
 0001:0007eb51       ?_UpdateMaxItemWidth@AwtList@@SAXPAX@Z 1007fb51 f   awt_List.obj
 0001:0007ebd1       ?_AddItems@AwtList@@SAXPAX@Z 1007fbd1 f   awt_List.obj
 0001:0007ed7c       ?_DelItems@AwtList@@SAXPAX@Z 1007fd7c f   awt_List.obj
 0001:0007ee69       ?_Select@AwtList@@SAXPAX@Z 1007fe69 f   awt_List.obj
 0001:0007eefb       ?_Deselect@AwtList@@SAXPAX@Z 1007fefb f   awt_List.obj
 0001:0007ef8f       ?_IsSelected@AwtList@@SAEPAX@Z 1007ff8f f   awt_List.obj
 0001:0007f02c       _Java_sun_awt_windows_WListPeer_updateMaxItemWidth@8 1008002c f   awt_List.obj
 0001:0007f07d       _Java_sun_awt_windows_WListPeer_addItems@20 1008007d f   awt_List.obj
 0001:0007f0f2       _Java_sun_awt_windows_WListPeer_delItems@16 100800f2 f   awt_List.obj
 0001:0007f15b       _Java_sun_awt_windows_WListPeer_select@12 1008015b f   awt_List.obj
 0001:0007f1be       _Java_sun_awt_windows_WListPeer_deselect@12 100801be f   awt_List.obj
 0001:0007f268       _Java_sun_awt_windows_WListPeer_isSelected@12 10080268 f   awt_List.obj
 0001:0007f2cd       ??0AwtMenu@@QAE@XZ         100802cd f   awt_Menu.obj
 0001:0007f2e3       ??1AwtMenu@@UAE@XZ         100802e3 f   awt_Menu.obj
 0001:0007f2ee       ?Dispose@AwtMenu@@UAEXXZ   100802ee f   awt_Menu.obj
 0001:0007f30b       ?GetClassNameW@AwtMenu@@UAEPBGXZ 1008030b f   awt_Menu.obj
 0001:0007f311       ?Create@AwtMenu@@SAPAV1@PAV_jobject@@PAV1@@Z 10080311 f   awt_Menu.obj
 0001:0007f41b       ?GetMenuBar@AwtMenu@@UAEPAVAwtMenuBar@@XZ 1008041b f   awt_Menu.obj
 0001:0007f42a       ?GetOwnerHWnd@AwtMenu@@UAEPAUHWND__@@XZ 1008042a f   awt_Menu.obj
 0001:0007f439       ?AddSeparator@AwtMenu@@QAEXXZ 10080439 f   awt_Menu.obj
 0001:0007f44c       ?AddItem@AwtMenu@@UAEXPAVAwtMenuItem@@@Z 1008044c f   awt_Menu.obj
 0001:0007f555       ?DeleteItem@AwtMenu@@UAEXI@Z 10080555 f   awt_Menu.obj
 0001:0007f56a       ?SendDrawItem@AwtMenu@@UAEXPAVAwtMenuItem@@AAUtagDRAWITEMSTRUCT@@@Z 1008056a f   awt_Menu.obj
 0001:0007f56a       ?SendDrawItem@AwtMenuBar@@UAEXPAVAwtMenuItem@@AAUtagDRAWITEMSTRUCT@@@Z 1008056a f   awt_MenuBar.obj
 0001:0007f57a       ?CountItem@AwtMenu@@UAEHPAV_jobject@@@Z 1008057a f   awt_Menu.obj
 0001:0007f5a0       ?GetItem@AwtMenu@@UAEPAVAwtMenuItem@@PAV_jobject@@J@Z 100805a0 f   awt_Menu.obj
 0001:0007f647       ?DrawItems@AwtMenu@@QAEXAAUtagDRAWITEMSTRUCT@@@Z 10080647 f   awt_Menu.obj
 0001:0007f6bf       ?DrawItem@AwtMenu@@UAEXAAUtagDRAWITEMSTRUCT@@@Z 100806bf f   awt_Menu.obj
 0001:0007f6db       ?MeasureItems@AwtMenu@@QAEXPAUHDC__@@AAUtagMEASUREITEMSTRUCT@@@Z 100806db f   awt_Menu.obj
 0001:0007f756       ?MeasureItem@AwtMenu@@UAEXPAUHDC__@@AAUtagMEASUREITEMSTRUCT@@@Z 10080756 f   awt_Menu.obj
 0001:0007f776       ?IsTopMenu@AwtMenu@@UAEHXZ 10080776 f   awt_Menu.obj
 0001:0007f788       ?WinThreadExecProc@AwtMenu@@UAEJPAVExecuteArgs@AwtObject@@@Z 10080788 f   awt_Menu.obj
 0001:0007f7b2       _Java_java_awt_Menu_initIDs@8 100807b2 f   awt_Menu.obj
 0001:0007f820       _Java_sun_awt_windows_WMenuPeer_addSeparator@8 10080820 f   awt_Menu.obj
 0001:0007f8b1       _Java_sun_awt_windows_WMenuPeer_delItem@12 100808b1 f   awt_Menu.obj
 0001:0007f944       _Java_sun_awt_windows_WMenuPeer_createSubMenu@12 10080944 f   awt_Menu.obj
 0001:0007f944       _Java_sun_awt_windows_WMenuPeer_createMenu@12 10080944 f   awt_Menu.obj
 0001:0007f9f4       ??_EAwtMenu@@UAEPAXI@Z     100809f4 f i awt_Menu.obj
 0001:0007f9f4       ??_GAwtMenu@@UAEPAXI@Z     100809f4 f i awt_Menu.obj
 0001:0007fa16       ??0AwtMenuBar@@QAE@XZ      10080a16 f   awt_MenuBar.obj
 0001:0007fa2c       ?GetMenuBar@AwtMenuBar@@UAEPAV1@XZ 10080a2c f i awt_MenuBar.obj
 0001:0007fa2f       ?Dispose@AwtMenuBar@@UAEXXZ 10080a2f f   awt_MenuBar.obj
 0001:0007fa2f       ?Dispose@AwtPopupMenu@@UAEXXZ 10080a2f f   awt_PopupMenu.obj
 0001:0007fa38       ?GetClassNameW@AwtMenuBar@@UAEPBGXZ 10080a38 f   awt_MenuBar.obj
 0001:0007fa3e       ?Create@AwtMenuBar@@SAPAV1@PAV_jobject@@0@Z 10080a3e f   awt_MenuBar.obj
 0001:0007fb83       ?SendMeasureItem@AwtMenu@@UAEXPAVAwtMenuItem@@PAUHDC__@@AAUtagMEASUREITEMSTRUCT@@@Z 10080b83 f   awt_Menu.obj
 0001:0007fb83       ?SendMeasureItem@AwtMenuBar@@UAEXPAVAwtMenuItem@@PAUHDC__@@AAUtagMEASUREITEMSTRUCT@@@Z 10080b83 f   awt_MenuBar.obj
 0001:0007fb97       ?CountItem@AwtMenuBar@@UAEHPAV_jobject@@@Z 10080b97 f   awt_MenuBar.obj
 0001:0007fbbd       ?GetItem@AwtMenuBar@@UAEPAVAwtMenuItem@@PAV_jobject@@J@Z 10080bbd f   awt_MenuBar.obj
 0001:0007fc6c       ?DrawItem@AwtMenuBar@@UAEXAAUtagDRAWITEMSTRUCT@@@Z 10080c6c f   awt_MenuBar.obj
 0001:0007fc71       ?MeasureItem@AwtMenuBar@@UAEXPAUHDC__@@AAUtagMEASUREITEMSTRUCT@@@Z 10080c71 f   awt_MenuBar.obj
 0001:0007fc76       ?AddItem@AwtMenuBar@@UAEXPAVAwtMenuItem@@@Z 10080c76 f   awt_MenuBar.obj
 0001:0007fc9c       ?DeleteItem@AwtMenuBar@@UAEXI@Z 10080c9c f   awt_MenuBar.obj
 0001:0007fcd0       ?WinThreadExecProc@AwtMenuBar@@UAEJPAVExecuteArgs@AwtObject@@@Z 10080cd0 f   awt_MenuBar.obj
 0001:0007fcee       ?_AddMenu@AwtMenuBar@@SAXPAX@Z 10080cee f   awt_MenuBar.obj
 0001:0007fdab       _Java_java_awt_MenuBar_initIDs@8 10080dab f   awt_MenuBar.obj
 0001:0007fe19       _Java_sun_awt_windows_WMenuBarPeer_addMenu@12 10080e19 f   awt_MenuBar.obj
 0001:0007fe82       _Java_sun_awt_windows_WMenuBarPeer_delMenu@12 10080e82 f   awt_MenuBar.obj
 0001:0007ff15       _Java_sun_awt_windows_WMenuBarPeer_create@12 10080f15 f   awt_MenuBar.obj
 0001:0007ff7d       ??_EAwtMenuBar@@UAEPAXI@Z  10080f7d f i awt_MenuBar.obj
 0001:0007ff7d       ??_GAwtMenuBar@@UAEPAXI@Z  10080f7d f i awt_MenuBar.obj
 0001:0007ff9f       ?SetNewID@AwtMenuItem@@QAEXXZ 10080f9f f i awt_MenuItem.obj
 0001:0007ffb9       ?GetJavaString@AwtMenuItem@@QAEPAV_jstring@@PAUJNIEnv_@@@Z 10080fb9 f i awt_MenuItem.obj
 0001:0007fffd       ??0AwtMenuItem@@QAE@XZ     10080ffd f   awt_MenuItem.obj
 0001:00080021       ??1AwtMenuItem@@UAE@XZ     10081021 f   awt_MenuItem.obj
 0001:0008002c       ?RemoveCmdID@AwtMenuItem@@MAEXXZ 1008102c f   awt_MenuItem.obj
 0001:00080040       ?Dispose@AwtMenuItem@@UAEXXZ 10081040 f   awt_MenuItem.obj
 0001:0008008c       ?GetClassNameW@AwtMenuItem@@UAEPBGXZ 1008108c f   awt_MenuItem.obj
 0001:00080092       ?CheckMenuCreation@AwtMenuItem@@KAHPAUJNIEnv_@@PAV_jobject@@PAUHMENU__@@@Z 10081092 f   awt_MenuItem.obj
 0001:00080167       ?LinkObjects@AwtMenuItem@@QAEXPAUJNIEnv_@@PAV_jobject@@@Z 10081167 f   awt_MenuItem.obj
 0001:00080197       ?Create@AwtMenuItem@@SAPAV1@PAV_jobject@@0@Z 10081197 f   awt_MenuItem.obj
 0001:000802bc       ?GetDefaultFont@AwtMenuItem@@QAEPAV_jobject@@PAUJNIEnv_@@@Z 100812bc f   awt_MenuItem.obj
 0001:000802fa       ?AdjustCheckWidth@AwtMenuItem@@SAXAAH@Z 100812fa f   awt_MenuItem.obj
 0001:0008030a       ?GetFontMetrics@AwtMenuItem@@QAEPAV_jobject@@PAUJNIEnv_@@PAV2@@Z 1008130a f   awt_MenuItem.obj
 0001:00080374       ?DrawCheck@AwtMenuItem@@QAEXPAUHDC__@@UtagRECT@@@Z 10081374 f   awt_MenuItem.obj
 0001:00080415       ?DoCommand@AwtMenuItem@@UAEXXZ 10081415 f   awt_MenuItem.obj
 0001:00080481       ?SetLabel@AwtMenuItem@@QAEXPBG@Z 10081481 f   awt_MenuItem.obj
 0001:00080567       ?Enable@AwtMenuItem@@UAEXH@Z 10081567 f   awt_MenuItem.obj
 0001:000805bb       ?SetState@AwtMenuItem@@QAEXH@Z 100815bb f   awt_MenuItem.obj
 0001:000805f8       ?WinThreadExecProc@AwtMenuItem@@UAEJPAVExecuteArgs@AwtObject@@@Z 100815f8 f   awt_MenuItem.obj
 0001:00080632       ?_SetLabel@AwtMenuItem@@SAXPAX@Z 10081632 f   awt_MenuItem.obj
 0001:0008077d       ?IsSeparator@AwtMenuItem@@UAEHXZ 1008177d f   awt_MenuItem.obj
 0001:0008081f       _Java_java_awt_MenuComponent_initIDs@8 1008181f f   awt_MenuItem.obj
 0001:0008088d       _Java_java_awt_MenuItem_initIDs@8 1008188d f   awt_MenuItem.obj
 0001:000808fb       _Java_java_awt_CheckboxMenuItem_initIDs@8 100818fb f   awt_MenuItem.obj
 0001:0008094e       _Java_sun_awt_windows_WMenuItemPeer_initIDs@8 1008194e f   awt_MenuItem.obj
 0001:000809d7       _Java_sun_awt_windows_WMenuItemPeer__1setLabel@12 100819d7 f   awt_MenuItem.obj
 0001:00080a4a       _Java_sun_awt_windows_WMenuItemPeer_create@12 10081a4a f   awt_MenuItem.obj
 0001:00080ac6       _Java_sun_awt_windows_WMenuItemPeer_enable@12 10081ac6 f   awt_MenuItem.obj
 0001:00080b5b       _Java_sun_awt_windows_WMenuItemPeer__1dispose@8 10081b5b f   awt_MenuItem.obj
 0001:00080b5b       _Java_sun_awt_windows_WComponentPeer__1dispose@8 10081b5b f   awt_Component.obj
 0001:00080b99       _Java_sun_awt_windows_WCheckboxMenuItemPeer_setState@12 10081b99 f   awt_MenuItem.obj
 0001:00080c2e       ??_GAwtMenuItem@@UAEPAXI@Z 10081c2e f i awt_MenuItem.obj
 0001:00080c2e       ??_EAwtMenuItem@@UAEPAXI@Z 10081c2e f i awt_MenuItem.obj
 0001:00080c50       ?GetFont@AwtMenuItem@@QAEPAV_jobject@@PAUJNIEnv_@@@Z 10081c50 f   awt_MenuItem.obj
 0001:00080cb5       ?DrawSelf@AwtMenuItem@@QAEXAAUtagDRAWITEMSTRUCT@@@Z 10081cb5 f   awt_MenuItem.obj
 0001:000810aa       ?DrawItem@AwtMenuItem@@UAEXAAUtagDRAWITEMSTRUCT@@@Z 100820aa f   awt_MenuItem.obj
 0001:000810bf       ?MeasureSelf@AwtMenuItem@@QAEXPAUHDC__@@AAUtagMEASUREITEMSTRUCT@@@Z 100820bf f   awt_MenuItem.obj
 0001:00081262       ?MeasureItem@AwtMenuItem@@UAEXPAUHDC__@@AAUtagMEASUREITEMSTRUCT@@@Z 10082262 f   awt_MenuItem.obj
 0001:0008127b       _Java_java_awt_event_MouseEvent_initIDs@8 1008227b f   awt_MouseEvent.obj
 0001:000812fd       ??0AwtObject@@QAE@XZ       100822fd f   awt_Object.obj
 0001:0008133e       ??1AwtObject@@UAE@XZ       1008233e f   awt_Object.obj
 0001:00081356       ?Dispose@AwtObject@@UAEXXZ 10082356 f   awt_Object.obj
 0001:0008136b       ?_Dispose@AwtObject@@SAXPAV_jobject@@@Z 1008236b f   awt_Object.obj
 0001:000813f0       ?_Dispose@AwtObject@@SAXPAV1@@Z 100823f0 f   awt_Object.obj
 0001:00081454       ?GetPeerForTarget@AwtObject@@SAPAV_jobject@@PAUJNIEnv_@@PAV2@@Z 10082454 f   awt_Object.obj
 0001:00081471       ?DoCallback@AwtObject@@QAAXPBD0ZZ 10082471 f   awt_Object.obj
 0001:000814cb       ?SendEvent@AwtObject@@QAEXPAV_jobject@@@Z 100824cb f   awt_Object.obj
 0001:00081519       ?WinThreadExec@AwtObject@@SAJPAV_jobject@@IJJJJ@Z 10082519 f   awt_Object.obj
 0001:00081592       _Java_sun_awt_windows_WObjectPeer_initIDs@8 10082592 f   awt_Object.obj
 0001:00081656       ??_GAwtObject@@UAEPAXI@Z   10082656 f i awt_Object.obj
 0001:00081656       ??_EAwtObject@@UAEPAXI@Z   10082656 f i awt_Object.obj
 0001:00081672       ?Select@AwtPalette@@QAEPAUHPALETTE__@@PAUHDC__@@@Z 10082672 f   awt_Palette.obj
 0001:00081698       ?Realize@AwtPalette@@QAEXPAUHDC__@@@Z 10082698 f   awt_Palette.obj
 0001:000816c3       ?DisableCustomPalette@AwtPalette@@SAXXZ 100826c3 f   awt_Palette.obj
 0001:000816cb       ?UseCustomPalette@AwtPalette@@SAHXZ 100826cb f   awt_Palette.obj
 0001:000816d1       ?FetchPaletteEntries@AwtPalette@@SAHPAUHDC__@@PAUtagPALETTEENTRY@@@Z 100826d1 f   awt_Palette.obj
 0001:000817c6       ?GetGSType@AwtPalette@@QAEHPAUtagPALETTEENTRY@@@Z 100827c6 f   awt_Palette.obj
 0001:00081858       ?Update@AwtPalette@@QAEHXZ 10082858 f   awt_Palette.obj
 0001:00081a40       ?UpdateLogical@AwtPalette@@QAEXXZ 10082a40 f   awt_Palette.obj
 0001:00081b39       ??0AwtPalette@@QAE@PAVAwtWin32GraphicsDevice@@@Z 10082b39 f   awt_Palette.obj
 0001:00081b58       _Java_sun_awt_windows_WPanelPeer_initIDs@8 10082b58 f   awt_Panel.obj
 0001:00081bab       ??0AwtPopupMenu@@QAE@XZ    10082bab f   awt_PopupMenu.obj
 0001:00081bc1       ?GetOwnerHWnd@AwtPopupMenu@@UAEPAUHWND__@@XZ 10082bc1 f i awt_PopupMenu.obj
 0001:00081bc1       ?GetOwnerHWnd@AwtMenuBar@@UAEPAUHWND__@@XZ 10082bc1 f i awt_MenuBar.obj
 0001:00081bcd       ?GetClassNameW@AwtPopupMenu@@UAEPBGXZ 10082bcd f   awt_PopupMenu.obj
 0001:00081bd3       ?Create@AwtPopupMenu@@SAPAV1@PAV_jobject@@PAVAwtComponent@@@Z 10082bd3 f   awt_PopupMenu.obj
 0001:00081ccd       ?Show@AwtPopupMenu@@QAEXPAUJNIEnv_@@PAV_jobject@@H@Z 10082ccd f   awt_PopupMenu.obj
 0001:00081e2a       ?_Show@AwtPopupMenu@@SAXPAX@Z 10082e2a f   awt_PopupMenu.obj
 0001:00081f19       ?AddItem@AwtPopupMenu@@UAEXPAVAwtMenuItem@@@Z 10082f19 f   awt_PopupMenu.obj
 0001:00081f80       ?Enable@AwtPopupMenu@@UAEXH@Z 10082f80 f   awt_PopupMenu.obj
 0001:000820a6       ?IsDisabledAndPopup@AwtPopupMenu@@UAEHXZ 100830a6 f   awt_PopupMenu.obj
 0001:00082106       _Java_sun_awt_windows_WPopupMenuPeer_createMenu@12 10083106 f   awt_PopupMenu.obj
 0001:000821b6       _Java_sun_awt_windows_WPopupMenuPeer__1show@12 100831b6 f   awt_PopupMenu.obj
 0001:0008222f       ??_EAwtPopupMenu@@UAEPAXI@Z 1008322f f i awt_PopupMenu.obj
 0001:0008222f       ??_GAwtPopupMenu@@UAEPAXI@Z 1008322f f i awt_PopupMenu.obj
 0001:00082251       ??0AwtPen@@AAE@K@Z         10083251 f   awt_Pen.obj
 0001:000822b9       ??_GAwtPen@@EAEPAXI@Z      100832b9 f i awt_Pen.obj
 0001:000822b9       ??_EAwtPen@@EAEPAXI@Z      100832b9 f i awt_Pen.obj
 0001:000822db       ?Get@AwtPen@@SAPAV1@K@Z    100832db f   awt_Pen.obj
 0001:0008235c       ?ReleaseInCache@AwtPen@@MAEXXZ 1008335c f   awt_Pen.obj
 0001:000823a5       ?DeleteAwtPen@AwtPen@@SAXPAX@Z 100833a5 f   awt_Pen.obj
 0001:000823a5       ?DeleteAwtBrush@AwtBrush@@SAXPAX@Z 100833a5 f   awt_Brush.obj
 0001:000823b5       ?CallLongMethod@JNIEnv_@@QAA_JPAV_jobject@@PAU_jmethodID@@ZZ 100833b5 f i awt_PrintControl.obj
 0001:000823d0       ?getPrintDC@AwtPrintControl@@SAPAUHDC__@@PAUJNIEnv_@@PAV_jobject@@@Z 100833d0 f i awt_PrintControl.obj
 0001:000823e7       ?setPrintDC@AwtPrintControl@@SAXPAUJNIEnv_@@PAV_jobject@@PAUHDC__@@@Z 100833e7 f i awt_PrintControl.obj
 0001:00082405       ?getPrintHDMode@AwtPrintControl@@SAPAXPAUJNIEnv_@@PAV_jobject@@@Z 10083405 f i awt_PrintControl.obj
 0001:0008241c       ?setPrintHDMode@AwtPrintControl@@SAXPAUJNIEnv_@@PAV_jobject@@PAX@Z 1008341c f i awt_PrintControl.obj
 0001:0008243a       ?getPrintHDName@AwtPrintControl@@SAPAXPAUJNIEnv_@@PAV_jobject@@@Z 1008343a f i awt_PrintControl.obj
 0001:00082451       ?setPrintHDName@AwtPrintControl@@SAXPAUJNIEnv_@@PAV_jobject@@PAX@Z 10083451 f i awt_PrintControl.obj
 0001:0008246f       ?IsSupportedLevel@AwtPrintControl@@SAHPAXK@Z 1008346f f   awt_PrintControl.obj
 0001:000824c8       ?FindPrinter@AwtPrintControl@@SAHPAV_jstring@@PAEPAKPAPAG3@Z 100834c8 f   awt_PrintControl.obj
 0001:00082713       ?initIDs@AwtPrintControl@@SAXPAUJNIEnv_@@PAV_jclass@@@Z 10083713 f   awt_PrintControl.obj
 0001:00082a2c       ?PrintDlgHook@@YGHPAUHWND__@@IIJ@Z 10083a2c f   awt_PrintControl.obj
 0001:00082a78       ?CreateDevModeAndDevNames@AwtPrintControl@@SAHPAUtagPDW@@PAG1@Z 10083a78 f   awt_PrintControl.obj
 0001:00082ccf       ?getNearestMatchingPaper@AwtPrintControl@@SAGPAG0NNPAN1@Z 10083ccf f   awt_PrintControl.obj
 0001:00082f03       ?InitPrintDialog@AwtPrintControl@@SAHPAUJNIEnv_@@PAV_jobject@@AAUtagPDW@@@Z 10083f03 f   awt_PrintControl.obj
 0001:000832ff       ?UpdateAttributes@AwtPrintControl@@SAHPAUJNIEnv_@@PAV_jobject@@AAUtagPDW@@@Z 100842ff f   awt_PrintControl.obj
 0001:00083636       ?getDevmode@AwtPrintControl@@SAHPAXPAGPAPAU_devicemodeW@@@Z 10084636 f   awt_PrintControl.obj
 0001:000836ea       ?PrintDlgW@AwtPrintDialog@@SAHPAUtagPDW@@@Z 100846ea f   awt_PrintDialog.obj
 0001:00083704       ?_ToFront@AwtFileDialog@@SAXPAX@Z 10084704 f   awt_FileDialog.obj
 0001:00083704       ?_ToFront@AwtPrintDialog@@SAXPAX@Z 10084704 f   awt_PrintDialog.obj
 0001:00083755       _Java_sun_awt_windows_WPrintDialog_initIDs@8 10084755 f   awt_PrintDialog.obj
 0001:000837b3       _Java_sun_awt_windows_WPrintDialog_setPeer@12 100847b3 f   awt_PrintDialog.obj
 0001:00083800       _Java_sun_awt_windows_WPrintDialogPeer_initIDs@8 10084800 f   awt_PrintDialog.obj
 0001:0008386e       ?PrintDialogWndProc@@YGJPAUHWND__@@IIJ@Z 1008486e f   awt_PrintDialog.obj
 0001:00083a30       _Java_sun_awt_windows_WPrintDialogPeer__1show@8 10084a30 f   awt_PrintDialog.obj
 0001:00083ba4       ?CallDoubleMethod@JNIEnv_@@QAANPAV_jobject@@PAU_jmethodID@@ZZ 10084ba4 f i awt_PrintJob.obj
 0001:00083bbf       _Java_sun_awt_windows_WPageDialog_initIDs@8 10084bbf f   awt_PrintJob.obj
 0001:00083c12       _Java_sun_awt_windows_WPrinterJob_setNativeCopies@12 10084c12 f   awt_PrintJob.obj
 0001:00083cde       _VerifyDestination         10084cde f   awt_PrintJob.obj
 0001:00083ddf       _Java_sun_awt_windows_WPrinterJob_endDoc@8 10084ddf f   awt_PrintJob.obj
 0001:00083e51       _Java_sun_awt_windows_WPrinterJob_abortDoc@8 10084e51 f   awt_PrintJob.obj
 0001:00083eef       _Java_sun_awt_windows_WPrinterJob_deleteDC@32 10084eef f   awt_PrintJob.obj
 0001:00083f44       _Java_sun_awt_windows_WPrinterJob_deviceEndPage@20 10084f44 f   awt_PrintJob.obj
 0001:00083fb6       _Java_sun_awt_windows_WEmbeddedFrame_isPrinterDC@16 10084fb6 f   awt_PrintJob.obj
 0001:00083ff2       _Java_sun_awt_windows_WEmbeddedFrame_printBand@56 10084ff2 f   awt_PrintJob.obj
 0001:000840ff       _Java_sun_awt_windows_WPrinterJob_beginPath@16 100850ff f   awt_PrintJob.obj
 0001:0008413d       _Java_sun_awt_windows_WPrinterJob_endPath@16 1008513d f   awt_PrintJob.obj
 0001:0008417b       _Java_sun_awt_windows_WPrinterJob_fillPath@16 1008517b f   awt_PrintJob.obj
 0001:000841b9       _Java_sun_awt_windows_WPrinterJob_closeFigure@16 100851b9 f   awt_PrintJob.obj
 0001:000841f7       _Java_sun_awt_windows_WPrinterJob_lineTo@24 100851f7 f   awt_PrintJob.obj
 0001:0008426d       _Java_sun_awt_windows_WPrinterJob_moveTo@24 1008526d f   awt_PrintJob.obj
 0001:000842e5       _Java_sun_awt_windows_WPrinterJob_polyBezierTo@40 100852e5 f   awt_PrintJob.obj
 0001:000843d0       _Java_sun_awt_windows_WPrinterJob_setPolyFillMode@20 100853d0 f   awt_PrintJob.obj
 0001:00084411       _Java_sun_awt_windows_WPrinterJob_selectSolidBrush@28 10085411 f   awt_PrintJob.obj
 0001:00084474       _Java_sun_awt_windows_WPrinterJob_getPenX@16 10085474 f   awt_PrintJob.obj
 0001:000844bb       _Java_sun_awt_windows_WPrinterJob_getPenY@16 100854bb f   awt_PrintJob.obj
 0001:00084502       _Java_sun_awt_windows_WPrinterJob_selectClipPath@16 10085502 f   awt_PrintJob.obj
 0001:00084542       _Java_sun_awt_windows_WPrinterJob_frameRect@32 10085542 f   awt_PrintJob.obj
 0001:0008468f       _Java_sun_awt_windows_WPrinterJob_fillRect@44 1008568f f   awt_PrintJob.obj
 0001:00084775       _Java_sun_awt_windows_WPrinterJob_selectPen@32 10085775 f   awt_PrintJob.obj
 0001:000847fe       _Java_sun_awt_windows_WPrinterJob_selectStylePen@48 100857fe f   awt_PrintJob.obj
 0001:000848df       _Java_sun_awt_windows_WPrinterJob_setTextColor@28 100858df f   awt_PrintJob.obj
 0001:00084906       _Java_sun_awt_windows_WPrinterJob_getGDIAdvance@20 10085906 f   awt_PrintJob.obj
 0001:00084955       _Java_sun_awt_windows_WPrinterJob_textOut@40 10085955 f   awt_PrintJob.obj
 0001:00084c61       _Java_sun_awt_windows_WPrinterJob_drawDIBImage@60 10085c61 f   awt_PrintJob.obj
 0001:00085a71       _Java_sun_awt_windows_WPrinterJob_getNativePrintService@8 10086a71 f   awt_PrintJob.obj
 0001:00085bab       _Java_sun_awt_windows_WPrinterJob_initIDs@8 10086bab f   awt_PrintJob.obj
 0001:00085fa5       _PageDialogWndProc@16      10086fa5 f   awt_PrintJob.obj
 0001:00086727       _Java_sun_awt_windows_WPrinterJob_printBand@28 10087727 f   awt_PrintJob.obj
 0001:00086756       _Java_sun_awt_windows_WPrinterJob_setFont@40 10087756 f   awt_PrintJob.obj
 0001:00086785       _setCapabilities           10087785 f   awt_PrintJob.obj
 0001:000868ee       _Java_sun_awt_windows_WPrinterJob_setNativePrintService@12 100878ee f   awt_PrintJob.obj
 0001:00086a86       _Java_sun_awt_windows_WPrinterJob_validatePaper@16 10087a86 f   awt_PrintJob.obj
 0001:00086ed1       _Java_sun_awt_windows_WPrinterJob_initPrinter@8 10087ed1 f   awt_PrintJob.obj
 0001:00086fe0       _Java_sun_awt_windows_WPrinterJob__1startDoc@16 10087fe0 f   awt_PrintJob.obj
 0001:0008723b       _Java_sun_awt_windows_WPrinterJob_deviceStartPage@24 1008823b f   awt_PrintJob.obj
 0001:0008768f       _Java_sun_awt_windows_WPageDialogPeer__1show@8 1008868f f   awt_PrintJob.obj
 0001:00087a7e       _Java_sun_awt_windows_WPrinterJob_getDefaultPage@12 10088a7e f   awt_PrintJob.obj
 0001:00087ce1       _Java_java_awt_Rectangle_initIDs@8 10088ce1 f   awt_Rectangle.obj
 0001:00087d75       ??0AwtRobot@@QAE@PAV_jobject@@@Z 10088d75 f   awt_Robot.obj
 0001:00087dd5       ?MouseMove@AwtRobot@@QAEXJJ@Z 10088dd5 f   awt_Robot.obj
 0001:00087e67       ?MousePress@AwtRobot@@QAEXJ@Z 10088e67 f   awt_Robot.obj
 0001:00087f0c       ?MouseRelease@AwtRobot@@QAEXJ@Z 10088f0c f   awt_Robot.obj
 0001:00087fb2       ?MouseWheel@AwtRobot@@QAEXJ@Z 10088fb2 f   awt_Robot.obj
 0001:00087fcd       ?GetRGBPixel@AwtRobot@@QAEJJJ@Z 10088fcd f   awt_Robot.obj
 0001:0008801e       ?GetRGBPixels@AwtRobot@@QAEXJJJJPAV_jintArray@@@Z 1008901e f   awt_Robot.obj
 0001:000881d6       ?DoKeyEvent@AwtRobot@@AAEXJK@Z 100891d6 f   awt_Robot.obj
 0001:00088235       ?GetRobot@AwtRobot@@SAPAV1@PAV_jobject@@@Z 10089235 f   awt_Robot.obj
 0001:00088259       _Java_sun_awt_windows_WRobotPeer_create@8 10089259 f   awt_Robot.obj
 0001:000882ab       _Java_sun_awt_windows_WRobotPeer__1dispose@8 100892ab f   awt_Robot.obj
 0001:000882e4       _Java_sun_awt_windows_WRobotPeer_mouseMoveImpl@16 100892e4 f   awt_Robot.obj
 0001:0008832f       _Java_sun_awt_windows_WRobotPeer_mousePress@12 1008932f f   awt_Robot.obj
 0001:00088377       _Java_sun_awt_windows_WRobotPeer_mouseRelease@12 10089377 f   awt_Robot.obj
 0001:000883bf       _Java_sun_awt_windows_WRobotPeer_mouseWheel@12 100893bf f   awt_Robot.obj
 0001:00088407       _Java_sun_awt_windows_WRobotPeer_getRGBPixelImpl@16 10089407 f   awt_Robot.obj
 0001:00088454       _Java_sun_awt_windows_WRobotPeer_getRGBPixels@28 10089454 f   awt_Robot.obj
 0001:000884a8       ??_EAwtRobot@@UAEPAXI@Z    100894a8 f i awt_Robot.obj
 0001:000884a8       ??_GAwtRobot@@UAEPAXI@Z    100894a8 f i awt_Robot.obj
 0001:000884ca       _Java_sun_awt_windows_WRobotPeer_keyPress@12 100894ca f   awt_Robot.obj
 0001:00088514       _Java_sun_awt_windows_WRobotPeer_keyRelease@12 10089514 f   awt_Robot.obj
 0001:0008855e       ?Dispose@AwtScrollbar@@UAEXXZ 1008955e f   awt_Scrollbar.obj
 0001:0008857d       ?GetClassNameW@AwtScrollbar@@UAEPBGXZ 1008957d f   awt_Scrollbar.obj
 0001:00088583       ?MouseFilter@AwtScrollbar@@CGJHIJ@Z 10089583 f   awt_Scrollbar.obj
 0001:0008861e       ?WmNcHitTest@AwtScrollbar@@UAE?AW4MsgRouting@@IIAAJ@Z 1008961e f   awt_Scrollbar.obj
 0001:00088668       ?WmMouseDown@AwtScrollbar@@UAE?AW4MsgRouting@@IHHH@Z 10089668 f   awt_Scrollbar.obj
 0001:000886b8       ?HandleEvent@AwtCanvas@@UAE?AW4MsgRouting@@PAUtagMSG@@H@Z 100896b8 f   awt_Canvas.obj
 0001:000886b8       ?HandleEvent@AwtScrollbar@@UAE?AW4MsgRouting@@PAUtagMSG@@H@Z 100896b8 f   awt_Scrollbar.obj
 0001:000886ea       ?UpdateFocusIndicator@AwtScrollbar@@AAEXXZ 100896ea f   awt_Scrollbar.obj
 0001:00088715       ?DoScrollCallbackCoalesce@AwtScrollbar@@AAEXPBDH@Z 10089715 f i awt_Scrollbar.obj
 0001:00088754       ?WmVScroll@AwtScrollbar@@UAE?AW4MsgRouting@@IIPAUHWND__@@@Z 10089754 f   awt_Scrollbar.obj
 0001:00088938       ?WmHScroll@AwtScrollbar@@UAE?AW4MsgRouting@@IIPAUHWND__@@@Z 10089938 f   awt_Scrollbar.obj
 0001:00088940       ?_SetValues@AwtScrollbar@@SAXPAX@Z 10089940 f   awt_Scrollbar.obj
 0001:00088a23       _Java_java_awt_Scrollbar_initIDs@8 10089a23 f   awt_Scrollbar.obj
 0001:00088aa5       _Java_sun_awt_windows_WScrollbarPeer_setValues@24 10089aa5 f   awt_Scrollbar.obj
 0001:00088b1a       _Java_sun_awt_windows_WScrollbarPeer_setLineIncrement@12 10089b1a f   awt_Scrollbar.obj
 0001:00088ba7       _Java_sun_awt_windows_WScrollbarPeer_setPageIncrement@12 10089ba7 f   awt_Scrollbar.obj
 0001:00088c34       _Java_sun_awt_windows_WScrollbarPeer_getScrollbarSize@12 10089c34 f   awt_Scrollbar.obj
 0001:00088c4a       ??0AwtScrollbar@@QAE@XZ    10089c4a f   awt_Scrollbar.obj
 0001:00088ca4       ??_GAwtScrollbar@@UAEPAXI@Z 10089ca4 f i awt_Scrollbar.obj
 0001:00088ca4       ??_EAwtScrollbar@@UAEPAXI@Z 10089ca4 f i awt_Scrollbar.obj
 0001:00088cc6       ?Create@AwtScrollbar@@SAPAV1@PAV_jobject@@0@Z 10089cc6 f   awt_Scrollbar.obj
 0001:00088ed3       ?WindowProc@AwtScrollbar@@UAEJIIJ@Z 10089ed3 f   awt_Scrollbar.obj
 0001:00088f1c       _Java_sun_awt_windows_WScrollbarPeer_create@12 10089f1c f   awt_Scrollbar.obj
 0001:00088fcb       ??0AwtScrollPane@@QAE@XZ   10089fcb f   awt_ScrollPane.obj
 0001:00088fdd       ?DoUpdateIcon@AwtWindow@@UAEXXZ 10089fdd f i awt_Window.obj
 0001:00088fdd       ?DoCommand@AwtObject@@UAEXXZ 10089fdd f i awt_Button.obj
 0001:00088fdd       ?RemoveCmdID@AwtMenu@@MAEXXZ 10089fdd f i awt_Menu.obj
 0001:00088fdd       ?BeginValidate@AwtScrollPane@@UAEXXZ 10089fdd f i awt_ScrollPane.obj
 0001:00088fdd       ?EndValidate@AwtScrollPane@@UAEXXZ 10089fdd f i awt_ScrollPane.obj
 0001:00088fdd       ??1ComCtl32Util@@AAE@XZ    10089fdd f i ComCtl32Util.obj
 0001:00088fde       ?GetClassNameW@AwtScrollPane@@UAEPBGXZ 10089fde f   awt_ScrollPane.obj
 0001:00088fe4       ?Create@AwtScrollPane@@SAPAV1@PAV_jobject@@0@Z 10089fe4 f   awt_ScrollPane.obj
 0001:000891d5       ?SetInsets@AwtScrollPane@@QAEXPAUJNIEnv_@@@Z 1008a1d5 f   awt_ScrollPane.obj
 0001:000892b1       ?Reshape@AwtScrollPane@@UAEXHHHH@Z 1008a2b1 f   awt_ScrollPane.obj
 0001:000892b1       ?Reshape@AwtList@@UAEXHHHH@Z 1008a2b1 f   awt_List.obj
 0001:000892b6       ?Show@AwtScrollPane@@UAEXPAUJNIEnv_@@@Z 1008a2b6 f   awt_ScrollPane.obj
 0001:000892d8       ?PostScrollEvent@AwtScrollPane@@AAEXHHH@Z 1008a2d8 f   awt_ScrollPane.obj
 0001:0008940c       ?WmNcHitTest@AwtScrollPane@@UAE?AW4MsgRouting@@IIAAJ@Z 1008a40c f   awt_ScrollPane.obj
 0001:00089456       ?GetScrollPos@AwtScrollPane@@QAEHH@Z 1008a456 f   awt_ScrollPane.obj
 0001:000894a9       ?_GetOffset@AwtScrollPane@@SAJPAX@Z 1008a4a9 f   awt_ScrollPane.obj
 0001:0008954c       ?_SetInsets@AwtScrollPane@@SAXPAX@Z 1008a54c f   awt_ScrollPane.obj
 0001:000895cd       ?_SetScrollPos@AwtScrollPane@@SAXPAX@Z 1008a5cd f   awt_ScrollPane.obj
 0001:000896cd       _Java_java_awt_ScrollPane_initIDs@8 1008a6cd f   awt_ScrollPane.obj
 0001:00089753       _Java_java_awt_ScrollPaneAdjustable_initIDs@8 1008a753 f   awt_ScrollPane.obj
 0001:000897be       _Java_sun_awt_windows_WScrollPanePeer_initIDs@8 1008a7be f   awt_ScrollPane.obj
 0001:00089811       _Java_sun_awt_windows_WScrollPanePeer_create@12 1008a811 f   awt_ScrollPane.obj
 0001:000898c0       _Java_sun_awt_windows_WScrollPanePeer_getOffset@12 1008a8c0 f   awt_ScrollPane.obj
 0001:00089925       _Java_sun_awt_windows_WScrollPanePeer_setInsets@8 1008a925 f   awt_ScrollPane.obj
 0001:00089976       _Java_sun_awt_windows_WScrollPanePeer_setScrollPosition@16 1008a976 f   awt_ScrollPane.obj
 0001:000899df       _Java_sun_awt_windows_WScrollPanePeer__1getHScrollbarHeight@8 1008a9df f   awt_ScrollPane.obj
 0001:00089a1e       _Java_sun_awt_windows_WScrollPanePeer__1getVScrollbarWidth@8 1008aa1e f   awt_ScrollPane.obj
 0001:00089a5d       _Java_sun_awt_windows_WScrollPanePeer_setTypedValue@20 1008aa5d f   awt_ScrollPane.obj
 0001:00089adc       ??_GAwtScrollPane@@UAEPAXI@Z 1008aadc f i awt_ScrollPane.obj
 0001:00089adc       ??_EAwtScrollPane@@UAEPAXI@Z 1008aadc f i awt_ScrollPane.obj
 0001:00089af8       ?SetScrollInfo@AwtScrollPane@@AAEXHHHH@Z 1008aaf8 f   awt_ScrollPane.obj
 0001:00089b90       ?RecalcSizes@AwtScrollPane@@QAEXHHHH@Z 1008ab90 f   awt_ScrollPane.obj
 0001:00089d24       ?WmVScroll@AwtScrollPane@@UAE?AW4MsgRouting@@IIPAUHWND__@@@Z 1008ad24 f   awt_ScrollPane.obj
 0001:00089da4       ?WmHScroll@AwtScrollPane@@UAE?AW4MsgRouting@@IIPAUHWND__@@@Z 1008ada4 f   awt_ScrollPane.obj
 0001:00089e24       ?_SetSpans@AwtScrollPane@@SAXPAX@Z 1008ae24 f   awt_ScrollPane.obj
 0001:00089ed3       _Java_sun_awt_windows_WScrollPanePeer_setSpans@24 1008aed3 f   awt_ScrollPane.obj
 0001:00089f48       ?GetText@AwtTextComponent@@UAEHPAGH@Z 1008af48 f i awt_TextArea.obj
 0001:00089f5d       ?Dispose@AwtTextArea@@UAEXXZ 1008af5d f   awt_TextArea.obj
 0001:00089f82       ?GetClassNameW@AwtTextArea@@UAEPBGXZ 1008af82 f   awt_TextArea.obj
 0001:00089fa6       ?EditSetSel@AwtTextArea@@IAEXAAU_charrange@@@Z 1008afa6 f   awt_TextArea.obj
 0001:0008a002       ?EditGetSel@AwtTextArea@@IAEXAAU_charrange@@@Z 1008b002 f   awt_TextArea.obj
 0001:0008a019       ?EditGetCharFromPos@AwtTextArea@@MAEJAAUtagPOINT@@@Z 1008b019 f   awt_TextArea.obj
 0001:0008a031       ?PreProcessMsg@AwtTextArea@@UAE?AW4MsgRouting@@AAUtagMSG@@@Z 1008b031 f   awt_TextArea.obj
 0001:0008a083       ?WindowProc@AwtTextArea@@UAEJIIJ@Z 1008b083 f   awt_TextArea.obj
 0001:0008a1ab       ?EditProc@AwtTextArea@@SGJPAUHWND__@@IIJ@Z 1008b1ab f   awt_TextArea.obj
 0001:0008a229       ?WmContextMenu@AwtTextArea@@UAE?AW4MsgRouting@@PAUHWND__@@II@Z 1008b229 f   awt_TextArea.obj
 0001:0008a3fb       ?WmNcHitTest@AwtTextArea@@UAE?AW4MsgRouting@@IIAAJ@Z 1008b3fb f   awt_TextArea.obj
 0001:0008a445       ?WmNotify@AwtTextArea@@UAE?AW4MsgRouting@@I@Z 1008b445 f   awt_TextArea.obj
 0001:0008a484       ?HandleEvent@AwtTextArea@@UAE?AW4MsgRouting@@PAUtagMSG@@H@Z 1008b484 f   awt_TextArea.obj
 0001:0008a974       ?SetColor@AwtTextArea@@UAEXK@Z 1008b974 f   awt_TextArea.obj
 0001:0008a9fe       ?SetBackgroundColor@AwtTextArea@@UAEXK@Z 1008b9fe f   awt_TextArea.obj
 0001:0008aa26       ?Enable@AwtTextArea@@UAEXH@Z 1008ba26 f   awt_TextArea.obj
 0001:0008aa40       ?Reshape@AwtTextArea@@UAEXHHHH@Z 1008ba40 f   awt_TextArea.obj
 0001:0008aa54       ?getJavaSelPos@AwtTextArea@@UAEJJ@Z 1008ba54 f   awt_TextArea.obj
 0001:0008aaec       ?getWin32SelPos@AwtTextArea@@UAEJJ@Z 1008baec f   awt_TextArea.obj
 0001:0008ab00       ?SetSelRange@AwtTextArea@@UAEXJJ@Z 1008bb00 f   awt_TextArea.obj
 0001:0008ab36       ?_ReplaceText@AwtTextArea@@SAXPAX@Z 1008bb36 f   awt_TextArea.obj
 0001:0008ac9c       _Java_java_awt_TextArea_initIDs@8 1008bc9c f   awt_TextArea.obj
 0001:0008acef       _Java_sun_awt_windows_WTextAreaPeer_replaceText@20 1008bcef f   awt_TextArea.obj
 0001:0008ad66       _Java_sun_awt_windows_WTextAreaPeer_insertText@16 1008bd66 f   awt_TextArea.obj
 0001:0008ad81       ?QueryInterface@OleCallback@AwtTextArea@@UAGJABU_GUID@@PAPAX@Z 1008bd81 f   awt_TextArea.obj
 0001:0008ae04       ?AddRef@OleCallback@AwtTextArea@@UAGKXZ 1008be04 f   awt_TextArea.obj
 0001:0008ae12       ?Release@OleCallback@AwtTextArea@@UAGKXZ 1008be12 f   awt_TextArea.obj
 0001:0008ae2c       ?GetInPlaceContext@OleCallback@AwtTextArea@@UAGJPAPAUIOleInPlaceFrame@@PAPAUIOleInPlaceUIWindow@@PAUtagOIFI@@@Z 1008be2c f   awt_TextArea.obj
 0001:0008ae2c       ?GetClipboardData@OleCallback@AwtTextArea@@UAGJPAU_charrange@@KPAPAUIDataObject@@@Z 1008be2c f   awt_TextArea.obj
 0001:0008ae2c       ?GetDragDropEffect@OleCallback@AwtTextArea@@UAGJHKPAK@Z 1008be2c f   awt_TextArea.obj
 0001:0008ae34       ?ShowContainerUI@OleCallback@AwtTextArea@@UAGJH@Z 1008be34 f   awt_TextArea.obj
 0001:0008ae34       ?GetNewStorage@OleCallback@AwtTextArea@@UAGJPAPAUIStorage@@@Z 1008be34 f   awt_TextArea.obj
 0001:0008ae3c       ?QueryInsertObject@OleCallback@AwtTextArea@@UAGJPAU_GUID@@PAUIStorage@@J@Z 1008be3c f   awt_TextArea.obj
 0001:0008ae41       ?QueryAcceptData@OleCallback@AwtTextArea@@UAGJPAUIDataObject@@PAGKHPAX@Z 1008be41 f   awt_TextArea.obj
 0001:0008ae82       ?DeleteObject@OleCallback@AwtTextArea@@UAGJPAUIOleObject@@@Z 1008be82 f   awt_TextArea.obj
 0001:0008ae82       ?Commit@ADSIStreamProxy@AwtDragSource@@UAGJK@Z 1008be82 f   awt_DnDDS.obj
 0001:0008ae82       ?ContextSensitiveHelp@OleCallback@AwtTextArea@@UAGJH@Z 1008be82 f   awt_TextArea.obj
 0001:0008ae87       ?DAdvise@AwtDragSource@@UAGJPAUtagFORMATETC@@KPAUIAdviseSink@@PAK@Z 1008be87 f   awt_DnDDS.obj
 0001:0008ae87       ?GetContextMenu@OleCallback@AwtTextArea@@UAGJGPAUIOleObject@@PAU_charrange@@PAPAUHMENU__@@@Z 1008be87 f   awt_TextArea.obj
 0001:0008ae8f       ??0AwtTextArea@@QAE@XZ     1008be8f f   awt_TextArea.obj
 0001:0008aec1       ??_EAwtTextArea@@UAEPAXI@Z 1008bec1 f i awt_TextArea.obj
 0001:0008aec1       ??_GAwtTextArea@@UAEPAXI@Z 1008bec1 f i awt_TextArea.obj
 0001:0008aee3       ?Create@AwtTextArea@@SAPAV1@PAV_jobject@@0@Z 1008bee3 f   awt_TextArea.obj
 0001:0008b161       _Java_sun_awt_windows_WTextAreaPeer_create@12 1008c161 f   awt_TextArea.obj
 0001:0008b210       ??0AwtTextComponent@@QAE@XZ 1008c210 f   awt_TextComponent.obj
 0001:0008b24b       ?GetClassNameW@AwtTextComponent@@UAEPBGXZ 1008c24b f   awt_TextComponent.obj
 0001:0008b251       ?SetFont@AwtTextComponent@@UAEXPAVAwtFont@@@Z 1008c251 f   awt_TextComponent.obj
 0001:0008b2b8       ?RemoveCR@AwtTextComponent@@QAEHPAG@Z 1008c2b8 f   awt_TextComponent.obj
 0001:0008b325       ?WmNotify@AwtTextComponent@@UAE?AW4MsgRouting@@I@Z 1008c325 f   awt_TextComponent.obj
 0001:0008b348       ?HandleEvent@AwtTextComponent@@UAE?AW4MsgRouting@@PAUtagMSG@@H@Z 1008c348 f   awt_TextComponent.obj
 0001:0008b366       ?WmPaste@AwtTextComponent@@UAE?AW4MsgRouting@@XZ 1008c366 f   awt_TextComponent.obj
 0001:0008b3cb       ?SetCompositionWindow@AwtTextComponent@@UAEXAAUtagRECT@@@Z 1008c3cb f   awt_TextComponent.obj
 0001:0008b45b       ?getJavaSelPos@AwtTextComponent@@UAEJJ@Z 1008c45b f   awt_TextComponent.obj
 0001:0008b4fc       ?getWin32SelPos@AwtTextComponent@@UAEJJ@Z 1008c4fc f   awt_TextComponent.obj
 0001:0008b598       ?CheckLineSeparator@AwtTextComponent@@QAEXPAG@Z 1008c598 f   awt_TextComponent.obj
 0001:0008b612       ?SetSelRange@AwtTextComponent@@UAEXJJ@Z 1008c612 f   awt_TextComponent.obj
 0001:0008b647       ?_GetText@AwtTextComponent@@SAPAV_jstring@@PAX@Z 1008c647 f   awt_TextComponent.obj
 0001:0008b769       ?_SetText@AwtTextComponent@@SAXPAX@Z 1008c769 f   awt_TextComponent.obj
 0001:0008b86a       ?_GetSelectionStart@AwtTextComponent@@SAJPAX@Z 1008c86a f   awt_TextComponent.obj
 0001:0008b912       ?_GetSelectionEnd@AwtTextComponent@@SAJPAX@Z 1008c912 f   awt_TextComponent.obj
 0001:0008b9ba       ?_Select@AwtTextComponent@@SAXPAX@Z 1008c9ba f   awt_TextComponent.obj
 0001:0008ba76       ?_EnableEditing@AwtTextComponent@@SAXPAX@Z 1008ca76 f   awt_TextComponent.obj
 0001:0008bb1d       _Java_sun_awt_windows_WTextComponentPeer_getText@8 1008cb1d f   awt_TextComponent.obj
 0001:0008bb88       _Java_sun_awt_windows_WTextComponentPeer_setText@12 1008cb88 f   awt_TextComponent.obj
 0001:0008bbf1       _Java_sun_awt_windows_WTextComponentPeer_getSelectionStart@8 1008cbf1 f   awt_TextComponent.obj
 0001:0008bc44       _Java_sun_awt_windows_WTextComponentPeer_getSelectionEnd@8 1008cc44 f   awt_TextComponent.obj
 0001:0008bc97       _Java_sun_awt_windows_WTextComponentPeer_select@16 1008cc97 f   awt_TextComponent.obj
 0001:0008bd00       _Java_sun_awt_windows_WTextComponentPeer_enableEditing@12 1008cd00 f   awt_TextComponent.obj
 0001:0008bd63       _Java_sun_awt_windows_WTextComponentPeer_initIDs@8 1008cd63 f   awt_TextComponent.obj
 0001:0008bdc3       ?EditSetSel@AwtTextField@@AAEXAAU_charrange@@@Z 1008cdc3 f   awt_TextField.obj
 0001:0008bddd       ?EditGetCharFromPos@AwtTextField@@MAEJAAUtagPOINT@@@Z 1008cddd f   awt_TextField.obj
 0001:0008be02       ?WindowProc@AwtTextField@@UAEJIIJ@Z 1008ce02 f   awt_TextField.obj
 0001:0008be4e       ?HandleEvent@AwtTextField@@UAE?AW4MsgRouting@@PAUtagMSG@@H@Z 1008ce4e f   awt_TextField.obj
 0001:0008c093       ?_SetEchoChar@AwtTextField@@SAXPAX@Z 1008d093 f   awt_TextField.obj
 0001:0008c144       ?initialRescroll@AwtTextField@@AAEXXZ 1008d144 f   awt_TextField.obj
 0001:0008c1c5       _Java_sun_awt_windows_WTextFieldPeer_setEchoCharacter@12 1008d1c5 f   awt_TextField.obj
 0001:0008c22a       ??0AwtTextField@@QAE@XZ    1008d22a f   awt_TextField.obj
 0001:0008c243       ?Create@AwtTextField@@SAPAV1@PAV_jobject@@0@Z 1008d243 f   awt_TextField.obj
 0001:0008c439       ?Reshape@AwtTextField@@MAEXHHHH@Z 1008d439 f   awt_TextField.obj
 0001:0008c45c       _Java_sun_awt_windows_WTextFieldPeer_create@12 1008d45c f   awt_TextField.obj
 0001:0008c50b       ?CallStaticBooleanMethod@JNIEnv_@@QAAEPAV_jclass@@PAU_jmethodID@@ZZ 1008d50b f i awt_Toolkit.obj
 0001:0008c530       _AWTIsHeadless@0           1008d530 f   awt_Toolkit.obj
 0001:0008c5b0       ?GetMouseKeyState@AwtToolkit@@SAIXZ 1008d5b0 f   awt_Toolkit.obj
 0001:0008c640       ?GetKeyboardState@AwtToolkit@@SAXPAE@Z 1008d640 f   awt_Toolkit.obj
 0001:0008c680       ?SetBusy@AwtToolkit@@SAXH@Z 1008d680 f   awt_Toolkit.obj
 0001:0008c7c0       ?activateKeyboardLayout@AwtToolkit@@SAHPAUHKL__@@@Z 1008d7c0 f   awt_Toolkit.obj
 0001:0008c860       ?ToolkitThreadProc@@YAXPAX@Z 1008d860 f   awt_Toolkit.obj
 0001:0008c990       ?IsDynamicLayoutActive@AwtToolkit@@QAEHXZ 1008d990 f   awt_Toolkit.obj
 0001:0008c9d0       ?CreateComponent@AwtToolkit@@SAXPAX0P6AX00@ZH@Z 1008d9d0 f   awt_Toolkit.obj
 0001:0008ca80       ?DestroyComponentHWND@AwtToolkit@@SAXPAUHWND__@@@Z 1008da80 f   awt_Toolkit.obj
 0001:0008cae0       ?UninstallMouseLowLevelHook@AwtToolkit@@QAEXXZ 1008dae0 f   awt_Toolkit.obj
 0001:0008cb20       ?PrimaryIdleFunc@AwtToolkit@@SGXXZ 1008db20 f   awt_Toolkit.obj
 0001:0008cb40       ?SecondaryIdleFunc@AwtToolkit@@SGXXZ 1008db40 f   awt_Toolkit.obj
 0001:0008cb50       ?CommonPeekMessageFunc@AwtToolkit@@SGHAAUtagMSG@@@Z 1008db50 f   awt_Toolkit.obj
 0001:0008cb70       ?PreProcessMouseMsg@AwtToolkit@@QAEHPAVAwtComponent@@AAUtagMSG@@@Z 1008db70 f   awt_Toolkit.obj
 0001:0008cd70       ?SyncCall@AwtToolkit@@QAEPAXP6APAXPAX@Z0@Z 1008dd70 f   awt_Toolkit.obj
 0001:0008ce30       ?SyncCall@AwtToolkit@@QAEXP6AXPAX@Z0@Z 1008de30 f   awt_Toolkit.obj
 0001:0008cee0       ?SyncCall@AwtToolkit@@QAEPAXP6APAXXZ@Z 1008dee0 f   awt_Toolkit.obj
 0001:0008cf90       ?CreateCmdID@AwtToolkit@@QAEIPAVAwtObject@@@Z 1008df90 f   awt_Toolkit.obj
 0001:0008cfa0       ?RemoveCmdID@AwtToolkit@@QAEXI@Z 1008dfa0 f   awt_Toolkit.obj
 0001:0008cfb0       ?LookupCmdID@AwtToolkit@@QAEPAVAwtObject@@I@Z 1008dfb0 f   awt_Toolkit.obj
 0001:0008cfc0       ?GetAwtIcon@AwtToolkit@@QAEPAUHICON__@@XZ 1008dfc0 f   awt_Toolkit.obj
 0001:0008cfe0       ?GetAwtIconSm@AwtToolkit@@QAEPAUHICON__@@XZ 1008dfe0 f   awt_Toolkit.obj
 0001:0008d040       ?GetSecurityWarningIcon@AwtToolkit@@QAEPAUHICON__@@III@Z 1008e040 f   awt_Toolkit.obj
 0001:0008d130       ?throw_if_shutdown@@YAXXZ  1008e130 f   awt_Toolkit.obj
 0001:0008d160       ?hang_if_shutdown@@YAXXZ   1008e160 f   awt_Toolkit.obj
 0001:0008d1f0       ?RegisterEmbedderProcessId@AwtToolkit@@QAEXPAUHWND__@@@Z 1008e1f0 f   awt_Toolkit.obj
 0001:0008d220       ?GetEnv@AwtToolkit@@SAPAUJNIEnv_@@XZ 1008e220 f   awt_Toolkit.obj
 0001:0008d250       ?GetScreenInsets@AwtToolkit@@SAHHPAUtagRECT@@@Z 1008e250 f   awt_Toolkit.obj
 0001:0008d320       ?GetWindowRect@AwtToolkit@@SAXPAUHWND__@@PAUtagRECT@@@Z 1008e320 f   awt_Toolkit.obj
 0001:0008d390       ??1PreloadThread@AwtToolkit@@QAE@XZ 1008e390 f   awt_Toolkit.obj
 0001:0008d3c0       ?Terminate@PreloadThread@AwtToolkit@@QAE_N_N@Z 1008e3c0 f   awt_Toolkit.obj
 0001:0008d460       ?InvokeAndTerminate@PreloadThread@AwtToolkit@@QAE_NP6AXPAX@Z0@Z 1008e460 f   awt_Toolkit.obj
 0001:0008d500       ?OnPreloadThread@PreloadThread@AwtToolkit@@QAE_NXZ 1008e500 f   awt_Toolkit.obj
 0001:0008d530       _preloadStop               1008e530 f   awt_Toolkit.obj
 0001:0008d540       _Java_java_awt_Toolkit_initIDs@8 1008e540 f   awt_Toolkit.obj
 0001:0008d620       _Java_sun_awt_windows_WToolkit_initIDs@8 1008e620 f   awt_Toolkit.obj
 0001:0008d780       _Java_sun_awt_windows_WToolkit_disableCustomPalette@8 1008e780 f   awt_Toolkit.obj
 0001:0008d790       _Java_sun_awt_windows_WToolkit_embeddedEventLoopIdleProcessing@8 1008e790 f   awt_Toolkit.obj
 0001:0008d7c0       _Java_sun_awt_windows_WToolkit_makeColorModel@8 1008e7c0 f   awt_Toolkit.obj
 0001:0008d850       _Java_sun_awt_windows_WToolkit_getMaximumCursorColors@8 1008e850 f   awt_Toolkit.obj
 0001:0008d9b0       _Java_sun_awt_windows_WToolkit_getScreenWidth@8 1008e9b0 f   awt_Toolkit.obj
 0001:0008da30       _Java_sun_awt_windows_WToolkit_getScreenHeight@8 1008ea30 f   awt_Toolkit.obj
 0001:0008dab0       _Java_sun_awt_windows_WToolkit_getScreenInsets@12 1008eab0 f   awt_Toolkit.obj
 0001:0008db80       _Java_sun_awt_windows_WToolkit_nativeSync@8 1008eb80 f   awt_Toolkit.obj
 0001:0008dc00       _Java_sun_awt_windows_WToolkit_beep@8 1008ec00 f   awt_Toolkit.obj
 0001:0008dc80       _Java_sun_awt_windows_WToolkit_getLockingKeyStateNative@12 1008ec80 f   awt_Toolkit.obj
 0001:0008dd80       _Java_sun_awt_windows_WToolkit_setLockingKeyStateNative@16 1008ed80 f   awt_Toolkit.obj
 0001:0008dea0       _DSGetComponent@8          1008eea0 f   awt_Toolkit.obj
 0001:0008df50       _Java_sun_awt_windows_WToolkit_postDispose@8 1008ef50 f   awt_Toolkit.obj
 0001:0008df60       _Java_sun_awt_windows_WToolkit_setDynamicLayoutNative@12 1008ef60 f   awt_Toolkit.obj
 0001:0008dfe0       _Java_sun_awt_windows_WToolkit_isDynamicLayoutSupportedNative@8 1008efe0 f   awt_Toolkit.obj
 0001:0008e090       _Java_sun_awt_windows_WToolkit_getWindowsVersion@8 1008f090 f   awt_Toolkit.obj
 0001:0008e1d0       _Java_sun_awt_windows_WToolkit_syncNativeQueue@16 1008f1d0 f   awt_Toolkit.obj
 0001:0008e210       _Java_sun_awt_SunToolkit_closeSplashScreen@8 1008f210 f   awt_Toolkit.obj
 0001:0008e240       ?Get3DDevice@D3DContext@@QAEPAUIDirect3DDevice9@@XZ 1008f240 f   Devices.obj
 0001:0008e240       ?areExtraMouseButtonsEnabled@AwtToolkit@@QAEHXZ 1008f240 f   awt_Toolkit.obj
 0001:0008e250       ?GetNumberOfButtons@AwtToolkit@@SAIXZ 1008f250 f   awt_Toolkit.obj
 0001:0008e260       _JNI_OnLoad@8              1008f260 f   awt_Toolkit.obj
 0001:0008e2f0       _DllMain@12                1008f2f0 f   awt_Toolkit.obj
 0001:0008e380       ??0AwtToolkit@@QAE@XZ      1008f380 f   awt_Toolkit.obj
 0001:0008e500       ??1AwtToolkit@@QAE@XZ      1008f500 f   awt_Toolkit.obj
 0001:0008e560       _Java_sun_awt_windows_WToolkit_startToolkitThread@12 1008f560 f   awt_Toolkit.obj
 0001:0008e5f0       ?MouseLowLevelHook@AwtToolkit@@SGJHIJ@Z 1008f5f0 f   awt_Toolkit.obj
 0001:0008e720       ?MessageLoop@AwtToolkit@@QAEIP6GXXZP6GHAAUtagMSG@@@Z@Z 1008f720 f   awt_Toolkit.obj
 0001:0008e880       ?QuitMessageLoop@AwtToolkit@@QAEXH@Z 1008f880 f   awt_Toolkit.obj
 0001:0008e8f0       ?PreProcessMsg@AwtToolkit@@QAEHAAUtagMSG@@@Z 1008f8f0 f   awt_Toolkit.obj
 0001:0008e990       ?Clean@PreloadAction@AwtToolkit@@QAE_NXZ 1008f990 f   awt_Toolkit.obj
 0001:0008ea40       ?InitWrapper@PreloadAction@AwtToolkit@@CAXPAX@Z 1008fa40 f   awt_Toolkit.obj
 0001:0008eac0       ?ThreadProc@PreloadThread@AwtToolkit@@AAEIXZ 1008fac0 f   awt_Toolkit.obj
 0001:0008ecd0       _Java_sun_awt_windows_WToolkit_shutdown@8 1008fcd0 f   awt_Toolkit.obj
 0001:0008edd0       _Java_sun_awt_windows_WToolkit_startSecondaryEventLoop@8 1008fdd0 f   awt_Toolkit.obj
 0001:0008ee60       _Java_sun_awt_windows_WToolkit_quitSecondaryEventLoop@8 1008fe60 f   awt_Toolkit.obj
 0001:0008ef60       _Java_sun_awt_windows_WToolkit_loadSystemColors@12 1008ff60 f   awt_Toolkit.obj
 0001:0008f060       _Java_sun_awt_windows_WToolkit_setExtraMouseButtonsEnabledNative@12 10090060 f   awt_Toolkit.obj
 0001:0008f0e0       _Java_sun_awt_windows_WToolkit_getNumberOfButtonsImpl@8 100900e0 f   awt_Toolkit.obj
 0001:0008f0f0       ?Dispose@AwtToolkit@@QAEHXZ 100900f0 f   awt_Toolkit.obj
 0001:0008f240       ?WndProc@AwtToolkit@@SGJPAUHWND__@@IIJ@Z 10090240 f   awt_Toolkit.obj
 0001:0008fc60       ?GetMessageFilter@AwtToolkit@@SGJHIJ@Z 10090c60 f   awt_Toolkit.obj
 0001:0008fd10       ?InstallMouseLowLevelHook@AwtToolkit@@QAEXXZ 10090d10 f   awt_Toolkit.obj
 0001:0008fd40       ?EnsureInited@PreloadAction@AwtToolkit@@QAE_NXZ 10090d40 f   awt_Toolkit.obj
 0001:0008fdf0       ?StaticThreadProc@PreloadThread@AwtToolkit@@CGIPAX@Z 10090df0 f   awt_Toolkit.obj
 0001:0008fe00       _Java_sun_awt_windows_WToolkit_embeddedDispose@8 10090e00 f   awt_Toolkit.obj
 0001:0008fea0       _Java_sun_awt_windows_WToolkit_eventLoop@8 10090ea0 f   awt_Toolkit.obj
 0001:0008ff50       ?RegisterClassW@AwtToolkit@@SAGXZ 10090f50 f   awt_Toolkit.obj
 0001:0008ffb0       ?AddAction@PreloadThread@AwtToolkit@@QAE_NPAVPreloadAction@2@@Z 10090fb0 f   awt_Toolkit.obj
 0001:000900e0       ?Initialize@AwtToolkit@@QAEHH@Z 100910e0 f   awt_Toolkit.obj
 0001:00090270       _Java_sun_awt_windows_WToolkit_embeddedInit@8 10091270 f   awt_Toolkit.obj
 0001:00090310       _Java_sun_awt_windows_WToolkit_init@8 10091310 f   awt_Toolkit.obj
 0001:000903de       ?Dispose@AwtWindow@@UAEXXZ 100913de f   awt_Window.obj
 0001:00090452       ?Ungrab@AwtWindow@@UAEXH@Z 10091452 f   awt_Window.obj
 0001:00090484       ?Ungrab@AwtWindow@@UAEXXZ  10091484 f   awt_Window.obj
 0001:0009048f       ?_Grab@AwtWindow@@SAXPAX@Z 1009148f f   awt_Window.obj
 0001:00090513       ?_Ungrab@AwtWindow@@SAXPAX@Z 10091513 f   awt_Window.obj
 0001:00090599       ?GetClassNameW@AwtWindow@@UAEPBGXZ 10091599 f   awt_Window.obj
 0001:0009059f       ?FillClassInfo@AwtWindow@@UAEXPAUtagWNDCLASSEXW@@@Z 1009159f f   awt_Window.obj
 0001:000905b5       ?InitSecurityWarningSize@AwtWindow@@AAEXPAUJNIEnv_@@@Z 100915b5 f   awt_Window.obj
 0001:0009061b       ?UnregisterWarningWindowClass@AwtWindow@@AAEXXZ 1009161b f   awt_Window.obj
 0001:0009062d       ?GetSecurityWarningIcon@AwtWindow@@AAEPAUHICON__@@XZ 1009162d f   awt_Window.obj
 0001:00090658       ?CalculateWarningWindowBounds@AwtWindow@@AAEXPAUJNIEnv_@@PAUtagRECT@@@Z 10091658 f   awt_Window.obj
 0001:000907be       ?PaintWarningWindow@AwtWindow@@CAXPAUHWND__@@PAUHDC__@@@Z 100917be f   awt_Window.obj
 0001:000907fc       ?RepaintWarningWindow@AwtWindow@@AAEXXZ 100917fc f   awt_Window.obj
 0001:00090824       ?SetLayered@AwtWindow@@CAXPAUHWND__@@_N@Z 10091824 f   awt_Window.obj
 0001:00090851       ?IsLayered@AwtWindow@@CA_NPAUHWND__@@@Z 10091851 f   awt_Window.obj
 0001:00090863       ?StartSecurityAnimation@AwtWindow@@AAEXW4AnimationKind@1@@Z 10091863 f   awt_Window.obj
 0001:0009092a       ?StopSecurityAnimation@AwtWindow@@AAEXXZ 1009192a f   awt_Window.obj
 0001:00090990       ?WmTimer@AwtWindow@@UAE?AW4MsgRouting@@I@Z 10091990 f   awt_Window.obj
 0001:00090a13       ?UpdateSecurityWarningVisibility@AwtWindow@@QAEXXZ 10091a13 f   awt_Window.obj
 0001:00090a9d       ?FocusedWindowChanged@AwtWindow@@SAXPAUHWND__@@0@Z 10091a9d f   awt_Window.obj
 0001:00090ad9       ?InitType@AwtWindow@@AAEXPAUJNIEnv_@@PAV_jobject@@@Z 10091ad9 f   awt_Window.obj
 0001:00090b8d       ?TweakStyle@AwtWindow@@AAEXAAK0@Z 10091b8d f   awt_Window.obj
 0001:00090bb2       ?IsOneOfOwnersOf@AwtWindow@@QAEHPAV1@@Z 10091bb2 f   awt_Window.obj
 0001:00090be7       ?InitOwner@AwtWindow@@AAEXPAV1@@Z 10091be7 f   awt_Window.obj
 0001:00090c2b       ?moveToDefaultLocation@AwtWindow@@QAEXXZ 10091c2b f   awt_Window.obj
 0001:00090ca2       ?UpdateInsets@AwtWindow@@QAEHPAV_jobject@@@Z 10091ca2 f   awt_Window.obj
 0001:00090f5f       ?GetTopLevelHWnd@AwtWindow@@QAEPAUHWND__@@XZ 10091f5f f   awt_Window.obj
 0001:00090f71       ?SendComponentEvent@AwtWindow@@QAEXJ@Z 10091f71 f   awt_Window.obj
 0001:00091043       ?SendWindowEvent@AwtWindow@@QAEXJPAUHWND__@@JJ@Z 10092043 f   awt_Window.obj
 0001:000911ec       ?AwtSetActiveWindow@AwtWindow@@UAEHHI@Z 100921ec f   awt_Window.obj
 0001:000912f3       ?WmActivate@AwtWindow@@UAE?AW4MsgRouting@@IHPAUHWND__@@@Z 100922f3 f   awt_Window.obj
 0001:0009136d       ?WmClose@AwtWindow@@UAE?AW4MsgRouting@@XZ 1009236d f   awt_Window.obj
 0001:00091380       ?WmDestroy@AwtWindow@@UAE?AW4MsgRouting@@XZ 10092380 f   awt_Window.obj
 0001:0009139a       ?WmShowWindow@AwtWindow@@UAE?AW4MsgRouting@@HI@Z 1009239a f   awt_Window.obj
 0001:00091417       ?WmMove@AwtWindow@@UAE?AW4MsgRouting@@HH@Z 10092417 f   awt_Window.obj
 0001:0009152b       ?WmGetMinMaxInfo@AwtWindow@@UAE?AW4MsgRouting@@PAUtagMINMAXINFO@@@Z 1009252b f   awt_Window.obj
 0001:0009155f       ?WmSizing@AwtWindow@@UAE?AW4MsgRouting@@XZ 1009255f f   awt_Window.obj
 0001:000915ac       ?WmSize@AwtWindow@@UAE?AW4MsgRouting@@IHH@Z 100925ac f   awt_Window.obj
 0001:000916b3       ?WmPaint@AwtWindow@@UAE?AW4MsgRouting@@PAUHDC__@@@Z 100926b3 f   awt_Window.obj
 0001:000916c5       ?WmSettingChange@AwtWindow@@UAE?AW4MsgRouting@@IPBG@Z 100926c5 f   awt_Window.obj
 0001:000916f8       ?WmNcHitTest@AwtWindow@@UAE?AW4MsgRouting@@IIAAJ@Z 100926f8 f   awt_Window.obj
 0001:00091750       ?WindowProc@AwtWindow@@UAEJIIJ@Z 10092750 f   awt_Window.obj
 0001:00091803       ?HandleEvent@AwtWindow@@UAE?AW4MsgRouting@@PAUtagMSG@@H@Z 10092803 f   awt_Window.obj
 0001:00091803       ?HandleEvent@AwtScrollPane@@UAE?AW4MsgRouting@@PAUtagMSG@@H@Z 10092803 f   awt_ScrollPane.obj
 0001:00091808       ?WindowResized@AwtWindow@@UAEXXZ 10092808 f   awt_Window.obj
 0001:00091836       ?InvalidateChildRect@@YGHPAUHWND__@@J@Z 10092836 f   awt_Window.obj
 0001:0009187d       ?Invalidate@AwtWindow@@UAEXPAUtagRECT@@@Z 1009287d f   awt_Window.obj
 0001:000918a1       ?IsResizable@AwtWindow@@QAEHXZ 100928a1 f   awt_Window.obj
 0001:000918a8       ?SetResizable@AwtWindow@@UAEXH@Z 100928a8 f   awt_Window.obj
 0001:0009190a       ?RecalcNonClient@AwtWindow@@UAEXXZ 1009290a f   awt_Window.obj
 0001:00091920       ?RedrawNonClient@AwtWindow@@UAEXXZ 10092920 f   awt_Window.obj
 0001:00091936       ?GetScreenImOn@AwtWindow@@UAEHXZ 10092936 f   awt_Window.obj
 0001:0009194a       ?CheckIfOnNewScreen@AwtWindow@@UAEXXZ 1009294a f   awt_Window.obj
 0001:000919b3       ?IsFocusableWindow@AwtWindow@@QAEHXZ 100929b3 f   awt_Window.obj
 0001:000919fe       ?SetModalBlocker@AwtWindow@@SAXPAUHWND__@@0@Z 100929fe f   awt_Window.obj
 0001:00091a56       ?SetAndActivateModalBlocker@AwtWindow@@SAXPAUHWND__@@0@Z 10092a56 f   awt_Window.obj
 0001:00091a9b       ?GetTopmostModalBlocker@AwtWindow@@SAPAUHWND__@@PAU2@@Z 10092a9b f   awt_Window.obj
 0001:00091ac7       ?FlashWindowEx@AwtWindow@@SAXPAUHWND__@@IKK@Z 10092ac7 f   awt_Window.obj
 0001:00091af8       ?_RequestWindowFocus@AwtWindow@@SAEPAX@Z 10092af8 f   awt_Window.obj
 0001:00091b89       ?_ToFront@AwtWindow@@SAXPAX@Z 10092b89 f   awt_Window.obj
 0001:00091c60       ?_ToBack@AwtWindow@@SAXPAX@Z 10092c60 f   awt_Window.obj
 0001:00091dc7       ?_SetAlwaysOnTop@AwtWindow@@SAXPAX@Z 10092dc7 f   awt_Window.obj
 0001:00091e76       ?_SetTitle@AwtWindow@@SAXPAX@Z 10092e76 f   awt_Window.obj
 0001:00091f70       ?_SetResizable@AwtWindow@@SAXPAX@Z 10092f70 f   awt_Window.obj
 0001:00092011       ?_UpdateInsets@AwtWindow@@SAXPAX@Z 10093011 f   awt_Window.obj
 0001:000920b9       ?_ReshapeFrame@AwtWindow@@SAXPAX@Z 100930b9 f   awt_Window.obj
 0001:00092293       ?CreateIconFromRaster@@YAPAUHICON__@@PAUJNIEnv_@@PAV_jintArray@@JJ@Z 10093293 f   awt_Window.obj
 0001:00092388       ?DeleteContentBitmap@AwtWindow@@AAEXXZ 10093388 f   awt_Window.obj
 0001:00092453       ?UpdateWindowImpl@AwtWindow@@AAEXHHPAUHBITMAP__@@@Z 10093453 f   awt_Window.obj
 0001:0009252a       ?UpdateWindow@AwtWindow@@QAEXPAUJNIEnv_@@PAV_jintArray@@HHPAUHBITMAP__@@@Z 1009352a f   awt_Window.obj
 0001:000925a5       ?HasValidRect@AwtWindow@@QAEHXZ 100935a5 f   awt_Window.obj
 0001:00092642       ?_SetIconImagesData@AwtWindow@@SAXPAX@Z 10093642 f   awt_Window.obj
 0001:0009270b       ?_SetMinSize@AwtWindow@@SAXPAX@Z 1009370b f   awt_Window.obj
 0001:0009279a       ?_GetScreenImOn@AwtWindow@@SAJPAX@Z 1009379a f   awt_Window.obj
 0001:0009281f       ?_SetFocusableWindow@AwtWindow@@SAXPAX@Z 1009381f f   awt_Window.obj
 0001:00092915       ?_ModalDisable@AwtWindow@@SAXPAX@Z 10093915 f   awt_Window.obj
 0001:0009298f       ?_ModalEnable@AwtWindow@@SAXPAX@Z 1009398f f   awt_Window.obj
 0001:000929f0       ?_UpdateWindow@AwtWindow@@SAXPAX@Z 100939f0 f   awt_Window.obj
 0001:00092a89       _Java_java_awt_Window_initIDs@8 10093a89 f   awt_Window.obj
 0001:00092b9a       _Java_sun_awt_windows_WWindowPeer_initIDs@8 10093b9a f   awt_Window.obj
 0001:00092c47       _Java_sun_awt_windows_WWindowPeer__1toFront@8 10093c47 f   awt_Window.obj
 0001:00092c98       _Java_sun_awt_windows_WWindowPeer_toBack@8 10093c98 f   awt_Window.obj
 0001:00092ce9       _Java_sun_awt_windows_WWindowPeer_setAlwaysOnTopNative@12 10093ce9 f   awt_Window.obj
 0001:00092d4c       _Java_sun_awt_windows_WWindowPeer__1setTitle@12 10093d4c f   awt_Window.obj
 0001:00092db5       _Java_sun_awt_windows_WWindowPeer__1setResizable@12 10093db5 f   awt_Window.obj
 0001:00092e18       _Java_sun_awt_windows_WWindowPeer_updateInsets@12 10093e18 f   awt_Window.obj
 0001:00092e81       _Java_sun_awt_windows_WWindowPeer_reshapeFrame@24 10093e81 f   awt_Window.obj
 0001:00092ef6       _Java_sun_awt_windows_WWindowPeer_getSysMinWidth@8 10093ef6 f   awt_Window.obj
 0001:00092f35       _Java_sun_awt_windows_WWindowPeer_getSysMinHeight@8 10093f35 f   awt_Window.obj
 0001:00092f74       _Java_sun_awt_windows_WWindowPeer_getSysIconHeight@8 10093f74 f   awt_Window.obj
 0001:00092fb3       _Java_sun_awt_windows_WWindowPeer_getSysIconWidth@8 10093fb3 f   awt_Window.obj
 0001:00092ff2       _Java_sun_awt_windows_WWindowPeer_getSysSmIconHeight@8 10093ff2 f   awt_Window.obj
 0001:00093031       _Java_sun_awt_windows_WWindowPeer_getSysSmIconWidth@8 10094031 f   awt_Window.obj
 0001:00093070       _Java_sun_awt_windows_WWindowPeer_setIconImagesData@32 10094070 f   awt_Window.obj
 0001:000930fd       _Java_sun_awt_windows_WWindowPeer_setMinSize@16 100940fd f   awt_Window.obj
 0001:00093166       _Java_sun_awt_windows_WWindowPeer_getScreenImOn@8 10094166 f   awt_Window.obj
 0001:000931be       _Java_sun_awt_windows_WWindowPeer_modalDisable@20 100941be f   awt_Window.obj
 0001:00093227       _Java_sun_awt_windows_WWindowPeer_modalEnable@12 10094227 f   awt_Window.obj
 0001:00093278       _Java_sun_awt_windows_WWindowPeer_setFocusableWindow@12 10094278 f   awt_Window.obj
 0001:000932db       _Java_sun_awt_windows_WWindowPeer_nativeGrab@8 100942db f   awt_Window.obj
 0001:0009332c       _Java_sun_awt_windows_WWindowPeer_nativeUngrab@8 1009432c f   awt_Window.obj
 0001:0009337d       _Java_sun_awt_windows_WWindowPeer_updateWindowImpl@20 1009437d f   awt_Window.obj
 0001:00093405       _AwtWindow_UpdateWindow    10094405 f   awt_Window.obj
 0001:00093485       _Java_sun_awt_windows_WWindowPeer_requestWindowFocus@12 10094485 f   awt_Window.obj
 0001:000934ea       ??1AwtWindow@@UAE@XZ       100944ea f   awt_Window.obj
 0001:0009353b       ?Grab@AwtWindow@@UAEXXZ    1009453b f   awt_Window.obj
 0001:000935b1       ?WmNcMouseDown@AwtWindow@@UAE?AW4MsgRouting@@IHHH@Z 100945b1 f   awt_Window.obj
 0001:000935f1       ?RepositionSecurityWarning@AwtWindow@@AAEXPAUJNIEnv_@@@Z 100945f1 f   awt_Window.obj
 0001:00093642       ?IsWarningWindow@AwtWindow@@SA_NPAUHWND__@@@Z 10094642 f   awt_Window.obj
 0001:00093695       ?CBTFilter@AwtWindow@@CGJHIJ@Z 10094695 f   awt_Window.obj
 0001:00093702       ?DestroyWarningWindow@AwtWindow@@AAEXXZ 10094702 f   awt_Window.obj
 0001:0009374c       ?DestroyHWnd@AwtWindow@@UAEXXZ 1009474c f   awt_Window.obj
 0001:0009375c       ?PaintWarningWindow@AwtWindow@@CAXPAUHWND__@@@Z 1009475c f   awt_Window.obj
 0001:000937b1       ?_RepositionSecurityWarning@AwtWindow@@SAXPAX@Z 100947b1 f   awt_Window.obj
 0001:00093826       ?WmNcCalcSize@AwtWindow@@UAE?AW4MsgRouting@@HPAUtagNCCALCSIZE_PARAMS@@AAJ@Z 10094826 f   awt_Window.obj
 0001:00093889       ?UpdateOwnedIconCallback@AwtWindow@@SGHPAUHWND__@@J@Z 10094889 f   awt_Window.obj
 0001:00093903       ?RedrawWindow@AwtWindow@@AAEXXZ 10094903 f   awt_Window.obj
 0001:00093959       ?SetTranslucency@AwtWindow@@AAEXEHHH@Z 10094959 f   awt_Window.obj
 0001:00093a5a       ?_SetOpacity@AwtWindow@@SAXPAX@Z 10094a5a f   awt_Window.obj
 0001:00093ae4       ?_SetOpaque@AwtWindow@@SAXPAX@Z 10094ae4 f   awt_Window.obj
 0001:00093b6b       ?_SetFullScreenExclusiveModeState@AwtWindow@@SAXPAX@Z 10094b6b f   awt_Window.obj
 0001:00093bf6       _Java_sun_awt_windows_WWindowPeer_setFullScreenExclusiveModeState@12 10094bf6 f   awt_Window.obj
 0001:00093c59       _Java_sun_awt_windows_WWindowPeer_setOpacity@12 10094c59 f   awt_Window.obj
 0001:00093cbc       _Java_sun_awt_windows_WWindowPeer_setOpaqueImpl@12 10094cbc f   awt_Window.obj
 0001:00093d1f       _Java_sun_awt_windows_WWindowPeer_repositionSecurityWarning@8 10094d1f f   awt_Window.obj
 0001:00093d8c       ??0AwtWindow@@QAE@XZ       10094d8c f   awt_Window.obj
 0001:00093e94       ??_EAwtWindow@@UAEPAXI@Z   10094e94 f i awt_Window.obj
 0001:00093e94       ??_GAwtWindow@@UAEPAXI@Z   10094e94 f i awt_Window.obj
 0001:00093eb0       ?WarningWindowProc@AwtWindow@@CGJPAUHWND__@@IIJ@Z 10094eb0 f   awt_Window.obj
 0001:00093f5a       ?Create@AwtWindow@@SAPAV1@PAV_jobject@@0@Z 10094f5a f   awt_Window.obj
 0001:0009418d       ?SetIconData@AwtWindow@@UAEXPAUJNIEnv_@@PAV_jintArray@@JJ1JJ@Z 1009518d f   awt_Window.obj
 0001:00094289       ?EnableTranslucency@AwtWindow@@IAEXH@Z 10095289 f   awt_Window.obj
 0001:000942b5       _Java_sun_awt_windows_WWindowPeer_createAwtWindow@12 100952b5 f   awt_Window.obj
 0001:0009431d       ?WmWindowPosChanged@AwtWindow@@UAE?AW4MsgRouting@@J@Z 1009531d f   awt_Window.obj
 0001:0009437e       ?FillWarningWindowClassInfo@AwtWindow@@AAEXPAUtagWNDCLASSW@@@Z 1009537e f   awt_Window.obj
 0001:000943cb       ?RegisterWarningWindowClass@AwtWindow@@AAEXXZ 100953cb f   awt_Window.obj
 0001:00094415       ?Show@AwtWindow@@UAEXXZ    10095415 f   awt_Window.obj
 0001:0009474b       ?CreateWarningWindow@AwtWindow@@AAEXPAUJNIEnv_@@@Z 1009574b f   awt_Window.obj
 0001:000948de       ?CreateHWnd@AwtWindow@@UAEXPAUJNIEnv_@@PBGKKHHHHPAUHWND__@@PAUHMENU__@@KKPAV_jobject@@@Z 100958de f   awt_Window.obj
 0001:000949df       ?initScreens@@YAXPAUJNIEnv_@@@Z 100959df f   awt_Win32GraphicsEnv.obj
 0001:000949fc       ?DWMIsCompositionEnabled@@YAHXZ 100959fc f   awt_Win32GraphicsEnv.obj
 0001:00094a87       _Java_sun_awt_Win32GraphicsEnvironment_initDisplay@8 10095a87 f   awt_Win32GraphicsEnv.obj
 0001:00094ae1       _Java_sun_awt_Win32GraphicsEnvironment_getNumScreens@8 10095ae1 f   awt_Win32GraphicsEnv.obj
 0001:00094af7       _Java_sun_awt_Win32GraphicsEnvironment_getDefaultScreen@8 10095af7 f   awt_Win32GraphicsEnv.obj
 0001:00094aff       _Java_sun_awt_Win32FontManager_registerFontWithPlatform@12 10095aff f   awt_Win32GraphicsEnv.obj
 0001:00094b38       _Java_sun_awt_Win32FontManager_deRegisterFontWithPlatform@12 10095b38 f   awt_Win32GraphicsEnv.obj
 0001:00094b71       _Java_sun_awt_Win32FontManager_getEUDCFontFile@8 10095b71 f   awt_Win32GraphicsEnv.obj
 0001:00094d4d       _Java_sun_awt_Win32GraphicsEnvironment_getXResolution@8 10095d4d f   awt_Win32GraphicsEnv.obj
 0001:00094daa       _Java_sun_awt_Win32GraphicsEnvironment_getYResolution@8 10095daa f   awt_Win32GraphicsEnv.obj
 0001:00094e07       _Java_sun_awt_Win32GraphicsEnvironment_isVistaOS@8 10095e07 f   awt_Win32GraphicsEnv.obj
 0001:00094e16       ?DWMResetCompositionEnabled@@YAXXZ 10095e16 f   awt_Win32GraphicsEnv.obj
 0001:00094e25       ??1AwtWin32GraphicsDevice@@QAE@XZ 10095e25 f   awt_Win32GraphicsDevice.obj
 0001:00094e8d       ?MakeDCFromMonitor@AwtWin32GraphicsDevice@@CAPAUHDC__@@PAUHMONITOR__@@@Z 10095e8d f   awt_Win32GraphicsDevice.obj
 0001:00094ef6       ?GetDC@AwtWin32GraphicsDevice@@QAEPAUHDC__@@XZ 10095ef6 f   awt_Win32GraphicsDevice.obj
 0001:00094f00       ?ReleaseDC@AwtWin32GraphicsDevice@@QAEXPAUHDC__@@@Z 10095f00 f   awt_Win32GraphicsDevice.obj
 0001:00094f10       ?Initialize@AwtWin32GraphicsDevice@@QAEXXZ 10095f10 f   awt_Win32GraphicsDevice.obj
 0001:000951d5       ?GetColorModel@AwtWin32GraphicsDevice@@QAEPAV_jobject@@PAUJNIEnv_@@E@Z 100961d5 f   awt_Win32GraphicsDevice.obj
 0001:00095479       ?SetGrayness@AwtWin32GraphicsDevice@@QAEXH@Z 10096479 f   awt_Win32GraphicsDevice.obj
 0001:00095484       ?UpdateDynamicColorModel@AwtWin32GraphicsDevice@@QAEXXZ 10096484 f   awt_Win32GraphicsDevice.obj
 0001:000955de       ?GetSystemPaletteEntries@AwtWin32GraphicsDevice@@QAEPAIXZ 100965de f   awt_Win32GraphicsDevice.obj
 0001:000955e7       ?GetSystemInverseLUT@AwtWin32GraphicsDevice@@QAEPAEXZ 100965e7 f   awt_Win32GraphicsDevice.obj
 0001:000955f1       ?UpdateSystemPalette@AwtWin32GraphicsDevice@@QAEHXZ 100965f1 f   awt_Win32GraphicsDevice.obj
 0001:00095604       ?SelectPalette@AwtWin32GraphicsDevice@@QAEPAUHPALETTE__@@PAUHDC__@@@Z 10096604 f   awt_Win32GraphicsDevice.obj
 0001:00095615       ?RealizePalette@AwtWin32GraphicsDevice@@QAEXPAUHDC__@@@Z 10096615 f   awt_Win32GraphicsDevice.obj
 0001:00095624       ?GetPalette@AwtWin32GraphicsDevice@@QAEPAUHPALETTE__@@XZ 10096624 f   awt_Win32GraphicsDevice.obj
 0001:00095635       ?Release@AwtWin32GraphicsDevice@@QAEXXZ 10096635 f   awt_Win32GraphicsDevice.obj
 0001:0009563d       ?Invalidate@AwtWin32GraphicsDevice@@QAEXPAUJNIEnv_@@@Z 1009663d f   awt_Win32GraphicsDevice.obj
 0001:00095666       ?GetColorModel@AwtWin32GraphicsDevice@@SAPAV_jobject@@PAUJNIEnv_@@EH@Z 10096666 f   awt_Win32GraphicsDevice.obj
 0001:000956ad       ?GetMonitorInfoW@AwtWin32GraphicsDevice@@SAPAUtagMONITORINFO@@H@Z 100966ad f   awt_Win32GraphicsDevice.obj
 0001:000956e8       ?ResetAllMonitorInfo@AwtWin32GraphicsDevice@@SAXXZ 100966e8 f   awt_Win32GraphicsDevice.obj
 0001:0009574e       ?GetMonitor@AwtWin32GraphicsDevice@@SAPAUHMONITOR__@@H@Z 1009674e f   awt_Win32GraphicsDevice.obj
 0001:00095789       ?GetPalette@AwtWin32GraphicsDevice@@SAPAUHPALETTE__@@H@Z 10096789 f   awt_Win32GraphicsDevice.obj
 0001:000957ca       ?UpdateDynamicColorModel@AwtWin32GraphicsDevice@@SAXH@Z 100967ca f   awt_Win32GraphicsDevice.obj
 0001:00095807       ?UpdateSystemPalette@AwtWin32GraphicsDevice@@SAHH@Z 10096807 f   awt_Win32GraphicsDevice.obj
 0001:00095848       ?SelectPalette@AwtWin32GraphicsDevice@@SAPAUHPALETTE__@@PAUHDC__@@H@Z 10096848 f   awt_Win32GraphicsDevice.obj
 0001:0009588c       ?RealizePalette@AwtWin32GraphicsDevice@@SAXPAUHDC__@@H@Z 1009688c f   awt_Win32GraphicsDevice.obj
 0001:000958d1       ?GetGrayness@AwtWin32GraphicsDevice@@SAHH@Z 100968d1 f   awt_Win32GraphicsDevice.obj
 0001:0009590d       ?GetDCFromScreen@AwtWin32GraphicsDevice@@SAPAUHDC__@@H@Z 1009690d f   awt_Win32GraphicsDevice.obj
 0001:00095950       ?AreSameMonitors@AwtWin32GraphicsDevice@@CAHPAUHMONITOR__@@0@Z 10096950 f   awt_Win32GraphicsDevice.obj
 0001:000959e9       ?GetScreenFromHMONITOR@AwtWin32GraphicsDevice@@SAHPAUHMONITOR__@@@Z 100969e9 f   awt_Win32GraphicsDevice.obj
 0001:00095a43       _Java_sun_awt_Win32GraphicsDevice_initIDs@8 10096a43 f   awt_Win32GraphicsDevice.obj
 0001:00095b2c       _Java_sun_awt_Win32GraphicsDevice_getMaxConfigsImpl@12 10096b2c f   awt_Win32GraphicsDevice.obj
 0001:00095b92       _Java_sun_awt_Win32GraphicsDevice_isPixFmtSupported@16 10096b92 f   awt_Win32GraphicsDevice.obj
 0001:00095c21       _Java_sun_awt_Win32GraphicsDevice_getDefaultPixIDImpl@12 10096c21 f   awt_Win32GraphicsDevice.obj
 0001:00095ce3       _Java_sun_awt_Win32GraphicsDevice_enterFullScreenExclusive@16 10096ce3 f   awt_Win32GraphicsDevice.obj
 0001:00095d7b       _Java_sun_awt_Win32GraphicsDevice_exitFullScreenExclusive@16 10096d7b f   awt_Win32GraphicsDevice.obj
 0001:00095e5c       ?CreateDisplayMode@@YAPAV_jobject@@PAUJNIEnv_@@JJJJ@Z 10096e5c f   awt_Win32GraphicsDevice.obj
 0001:00095f74       _Java_sun_awt_Win32GraphicsDevice_getCurrentDisplayMode@12 10096f74 f   awt_Win32GraphicsDevice.obj
 0001:00096015       _Java_sun_awt_Win32GraphicsDevice_configDisplayMode@32 10097015 f   awt_Win32GraphicsDevice.obj
 0001:000960dc       ?addDisplayMode@@YAXPAUJNIEnv_@@PAV_jobject@@JJJJ@Z 100970dc f   awt_Win32GraphicsDevice.obj
 0001:0009617b       _Java_sun_awt_Win32GraphicsDevice_enumDisplayModes@16 1009717b f   awt_Win32GraphicsDevice.obj
 0001:00096235       _Java_sun_awt_Win32GraphicsDevice_makeColorModel@16 10097235 f   awt_Win32GraphicsDevice.obj
 0001:0009626a       _Java_sun_awt_Win32GraphicsDevice_initDevice@12 1009726a f   awt_Win32GraphicsDevice.obj
 0001:000962a2       ??0AwtWin32GraphicsDevice@@QAE@HPAUHMONITOR__@@PAVDevices@@@Z 100972a2 f   awt_Win32GraphicsDevice.obj
 0001:00096340       ?DeviceIndexForWindow@AwtWin32GraphicsDevice@@SAHPAUHWND__@@@Z 10097340 f   awt_Win32GraphicsDevice.obj
 0001:00096354       _Java_sun_awt_Win32GraphicsConfig_initIDs@8 10097354 f   awt_Win32GraphicsConfig.obj
 0001:000963a7       _Java_sun_awt_Win32GraphicsConfig_getBounds@12 100973a7 f   awt_Win32GraphicsConfig.obj
 0001:0009646c       ?InvokeFunctionLater@AwtToolkit@@QAEXP6AXPAX@Z0@Z 1009746c f i awt_DnDDT.obj
 0001:000964a5       ??0Data_t@_bstr_t@@QAE@PBD@Z 100974a5 f i awt_DnDDT.obj
 0001:000964c4       ??0Data_t@_bstr_t@@QAE@PBG@Z 100974c4 f i awt_DnDDT.obj
 0001:000964f8       ?_Free@Data_t@_bstr_t@@AAEXXZ 100974f8 f i awt_DnDDT.obj
 0001:00096518       ?HRESULTToWCode@_com_error@@SAGJ@Z 10097518 f i awt_DnDDT.obj
 0001:00096536       ?WaitUntilSignalled@AwtDropTarget@@IAEXH@Z 10097536 f i awt_DnDDT.obj
 0001:0009655d       ?WaitUntilSignalled@WDTCPIStreamWrapper@@IAEXH@Z 1009755d f i awt_DnDDT.obj
 0001:00096584       ??1AwtInterfaceLocker@@QAE@XZ 10097584 f i awt_DnDDT.obj
 0001:0009658d       ?QueryInterface@AwtDropTarget@@UAGJABU_GUID@@PAPAX@Z 1009758d f   awt_DnDDT.obj
 0001:000965f8       ?AddRef@AwtDropTarget@@UAGKXZ 100975f8 f   awt_DnDDT.obj
 0001:00096606       ?Release@AwtDropTarget@@UAGKXZ 10097606 f   awt_DnDDT.obj
 0001:00096626       ?_DropDone@AwtDropTarget@@CAXPAX@Z 10097626 f   awt_DnDDT.obj
 0001:0009663a       ?DropDone@AwtDropTarget@@MAEXEJ@Z 1009763a f   awt_DnDDT.obj
 0001:0009665b       ?_RegisterTarget@AwtDropTarget@@CAXPAX@Z 1009765b f   awt_DnDDT.obj
 0001:0009666c       ?_GetData@AwtDropTarget@@CAXPAX@Z 1009766c f   awt_DnDDT.obj
 0001:00096690       ?CheckRetValue@@YAJPAUJNIEnv_@@PAV_jobject@@@Z 10097690 f   awt_DnDDT.obj
 0001:000966b7       ?_compar@AwtDropTarget@@CAHPBX0@Z 100976b7 f   awt_DnDDT.obj
 0001:000966db       ?DragCleanup@AwtDropTarget@@MAEXXZ 100976db f   awt_DnDDT.obj
 0001:000966e0       ?IsLocalDataObject@AwtDropTarget@@SAHPAUIDataObject@@@Z 100976e0 f   awt_DnDDT.obj
 0001:000967ee       ?call_dTCcreate@AwtDropTarget@@CAPAV_jobject@@PAUJNIEnv_@@@Z 100977ee f   awt_DnDDT.obj
 0001:00096858       ?call_dTCenter@AwtDropTarget@@CAJPAUJNIEnv_@@PAV_jobject@@1JJJJPAV_jlongArray@@_J@Z 10097858 f   awt_DnDDT.obj
 0001:000968db       ?call_dTCexit@AwtDropTarget@@CAXPAUJNIEnv_@@PAV_jobject@@1_J@Z 100978db f   awt_DnDDT.obj
 0001:0009694b       ?call_dTCmotion@AwtDropTarget@@CAJPAUJNIEnv_@@PAV_jobject@@1JJJJPAV_jlongArray@@_J@Z 1009794b f   awt_DnDDT.obj
 0001:000969ce       ?call_dTCdrop@AwtDropTarget@@CAXPAUJNIEnv_@@PAV_jobject@@1JJJJPAV_jlongArray@@_J@Z 100979ce f   awt_DnDDT.obj
 0001:00096a4d       ?call_dTCgetfs@AwtDropTarget@@CAPAV_jobject@@PAUJNIEnv_@@PAV_jstring@@_J@Z 10097a4d f   awt_DnDDT.obj
 0001:00096ac3       ?call_dTCgetis@AwtDropTarget@@CAPAV_jobject@@PAUJNIEnv_@@_J@Z 10097ac3 f   awt_DnDDT.obj
 0001:00096b35       ??0WDTCPIStreamWrapper@@QAE@PAUtagSTGMEDIUM@@@Z 10097b35 f   awt_DnDDT.obj
 0001:00096bb8       ??1WDTCPIStreamWrapper@@UAE@XZ 10097bb8 f   awt_DnDDT.obj
 0001:00096bdf       ?_Available@WDTCPIStreamWrapper@@KAXPAX@Z 10097bdf f   awt_DnDDT.obj
 0001:00096bfb       ?Available@WDTCPIStreamWrapper@@UAEJXZ 10097bfb f   awt_DnDDT.obj
 0001:00096c55       ?_Read@WDTCPIStreamWrapper@@KAXPAX@Z 10097c55 f   awt_DnDDT.obj
 0001:00096c71       ?Read@WDTCPIStreamWrapper@@UAEJXZ 10097c71 f   awt_DnDDT.obj
 0001:00096cd2       ?_ReadBytes@WDTCPIStreamWrapper@@KAXPAX@Z 10097cd2 f   awt_DnDDT.obj
 0001:00096cf7       ?ReadBytes@WDTCPIStreamWrapper@@UAEJPAV_jbyteArray@@JJ@Z 10097cf7 f   awt_DnDDT.obj
 0001:00096d9d       ?_Close@WDTCPIStreamWrapper@@KAXPAX@Z 10097d9d f   awt_DnDDT.obj
 0001:00096da6       ?Close@WDTCPIStreamWrapper@@UAEXXZ 10097da6 f   awt_DnDDT.obj
 0001:00096db1       _awt_dnd_initialize        10097db1 f   awt_DnDDT.obj
 0001:00096dba       _awt_dnd_uninitialize      10097dba f   awt_DnDDT.obj
 0001:00096dc0       _convertActionsToDROPEFFECT 10097dc0 f   awt_DnDDT.obj
 0001:00096de2       _convertDROPEFFECTToActions 10097de2 f   awt_DnDDT.obj
 0001:00096e03       _mapModsToDROPEFFECT       10097e03 f   awt_DnDDT.obj
 0001:00096e40       _Java_sun_awt_windows_WDropTargetContextPeer_getData@24 10097e40 f   awt_DnDDT.obj
 0001:00096e85       _Java_sun_awt_windows_WDropTargetContextPeer_dropDone@24 10097e85 f   awt_DnDDT.obj
 0001:00096ec8       _Java_sun_awt_windows_WDropTargetContextPeerFileStream_freeStgMedium@16 10097ec8 f   awt_DnDDT.obj
 0001:00096f10       ??1?$JLocalRef@PAV_jstring@@@@QAE@XZ 10097f10 f i awt_DnDDT.obj
 0001:00096f10       ??1?$JLocalRef@PAV_jclass@@@@QAE@XZ 10097f10 f i awt_DnDDT.obj
 0001:00096f21       ??0_bstr_t@@QAE@PBD@Z      10097f21 f i awt_DnDDT.obj
 0001:00096f6e       ??0_bstr_t@@QAE@PBG@Z      10097f6e f i awt_DnDDT.obj
 0001:00096fbb       ?length@_bstr_t@@QBEIXZ    10097fbb f i awt_DnDDT.obj
 0001:00096fd2       ??0Data_t@_bstr_t@@QAE@ABV1@0@Z 10097fd2 f i awt_DnDDT.obj
 0001:00097098       ?ErrorMessage@_com_error@@QBEPBGXZ 10098098 f i awt_DnDDT.obj
 0001:0009713c       ?DragEnter@AwtDropTarget@@UAGJPAUIDataObject@@KU_POINTL@@PAK@Z 1009813c f   awt_DnDDT.obj
 0001:0009732b       ?DragOver@AwtDropTarget@@UAGJKU_POINTL@@PAK@Z 1009832b f   awt_DnDDT.obj
 0001:000974c0       ?DragLeave@AwtDropTarget@@UAGJXZ 100984c0 f   awt_DnDDT.obj
 0001:000975dd       ?Drop@AwtDropTarget@@UAGJPAUIDataObject@@KU_POINTL@@PAK@Z 100985dd f   awt_DnDDT.obj
 0001:000977d0       ?DoDropDone@AwtDropTarget@@UAEXEJ@Z 100987d0 f   awt_DnDDT.obj
 0001:0009780c       ?RegisterTarget@AwtDropTarget@@UAEXG@Z 1009880c f   awt_DnDDT.obj
 0001:0009792f       ?DoGetData@AwtDropTarget@@UAEPAV_jobject@@_J@Z 1009892f f   awt_DnDDT.obj
 0001:00097994       ?ExtractNativeData@AwtDropTarget@@MAEJ_JJPAUtagSTGMEDIUM@@@Z 10098994 f   awt_DnDDT.obj
 0001:00097a34       ?ConvertNativeData@AwtDropTarget@@MAEPAV_jobject@@PAUJNIEnv_@@_JPAUtagSTGMEDIUM@@@Z 10098a34 f   awt_DnDDT.obj
 0001:00097f3e       ?GetData@AwtDropTarget@@MAEPAV_jobject@@_J@Z 10098f3e f   awt_DnDDT.obj
 0001:00098096       ?LoadCache@AwtDropTarget@@MAEXPAUIDataObject@@@Z 10099096 f   awt_DnDDT.obj
 0001:00098271       ?UnloadCache@AwtDropTarget@@MAEXXZ 10099271 f   awt_DnDDT.obj
 0001:000982d5       ??_EWDTCPIStreamWrapper@@UAEPAXI@Z 100992d5 f i awt_DnDDT.obj
 0001:000982d5       ??_GWDTCPIStreamWrapper@@UAEPAXI@Z 100992d5 f i awt_DnDDT.obj
 0001:000982f1       ?DoAvailable@WDTCPIStreamWrapper@@SAJPAV1@@Z 100992f1 f   awt_DnDDT.obj
 0001:00098342       ?DoRead@WDTCPIStreamWrapper@@SAJPAV1@@Z 10099342 f   awt_DnDDT.obj
 0001:00098393       ?DoReadBytes@WDTCPIStreamWrapper@@SAJPAV1@PAV_jbyteArray@@JJ@Z 10099393 f   awt_DnDDT.obj
 0001:000983f7       ?DoClose@WDTCPIStreamWrapper@@SAXPAV1@@Z 100993f7 f   awt_DnDDT.obj
 0001:0009840b       _Java_sun_awt_windows_WDropTargetContextPeerIStream_Available@16 1009940b f   awt_DnDDT.obj
 0001:0009844b       _Java_sun_awt_windows_WDropTargetContextPeerIStream_Read@16 1009944b f   awt_DnDDT.obj
 0001:0009848b       _Java_sun_awt_windows_WDropTargetContextPeerIStream_ReadBytes@28 1009948b f   awt_DnDDT.obj
 0001:000984d6       _Java_sun_awt_windows_WDropTargetContextPeerIStream_Close@16 100994d6 f   awt_DnDDT.obj
 0001:0009850f       ??$?4UIStream@@@?$_com_ptr_t@V?$_com_IIID@UIStream@@$1?_GUID_0000000c_0000_0000_c000_000000000046@@3U__s_GUID@@B@@@@QAEAAV0@PAUIStream@@@Z 1009950f f i awt_DnDDT.obj
 0001:0009853a       ??1?$_com_ptr_t@V?$_com_IIID@UIStream@@$1?_GUID_0000000c_0000_0000_c000_000000000046@@3U__s_GUID@@B@@@@QAE@XZ 1009953a f i awt_DnDDT.obj
 0001:00098547       ??0AwtDropTarget@@QAE@PAUJNIEnv_@@PAVAwtComponent@@@Z 10099547 f   awt_DnDDT.obj
 0001:000985cf       ?AddRef@AwtDropTarget@@$4PPPPPPPM@A@AGKXZ 100995cf f i awt_DnDDT.obj
 0001:000985df       ?QueryInterface@AwtDropTarget@@$4PPPPPPPM@A@AGJABU_GUID@@PAPAX@Z 100995df f i awt_DnDDT.obj
 0001:000985ef       ?Release@AwtDropTarget@@$4PPPPPPPM@A@AGKXZ 100995ef f i awt_DnDDT.obj
 0001:000985ff       ?DragEnter@AwtDropTarget@@$4PPPPPPPM@A@AGJPAUIDataObject@@KU_POINTL@@PAK@Z 100995ff f i awt_DnDDT.obj
 0001:0009860f       ?DragOver@AwtDropTarget@@$4PPPPPPPM@A@AGJKU_POINTL@@PAK@Z 1009960f f i awt_DnDDT.obj
 0001:0009861f       ?DragLeave@AwtDropTarget@@$4PPPPPPPM@A@AGJXZ 1009961f f i awt_DnDDT.obj
 0001:0009862f       ?Drop@AwtDropTarget@@$4PPPPPPPM@A@AGJPAUIDataObject@@KU_POINTL@@PAK@Z 1009962f f i awt_DnDDT.obj
 0001:0009863f       ??1AwtDropTarget@@UAE@XZ   1009963f f   awt_DnDDT.obj
 0001:0009869d       ?SaveIndexToFile@AwtDropTarget@@MAEJPBGI@Z 1009969d f   awt_DnDDT.obj
 0001:00098846       ?Release@Data_t@_bstr_t@@QAEKXZ 10099846 f i awt_DnDDT.obj
 0001:00098871       ??_GAwtDropTarget@@UAEPAXI@Z 10099871 f i awt_DnDDT.obj
 0001:00098871       ??_EAwtDropTarget@@UAEPAXI@Z 10099871 f i awt_DnDDT.obj
 0001:0009888d       ??1_bstr_t@@QAE@XZ         1009988d f i awt_DnDDT.obj
 0001:000988a0       ??4_bstr_t@@QAEAAV0@ABV0@@Z 100998a0 f i awt_DnDDT.obj
 0001:000988d3       ??4_bstr_t@@QAEAAV0@PBG@Z  100998d3 f i awt_DnDDT.obj
 0001:00098945       ??Y_bstr_t@@QAEAAV0@ABV0@@Z 10099945 f i awt_DnDDT.obj
 0001:000989a3       ?GetTempPathWithSlash@@YAJPAUJNIEnv_@@AAV_bstr_t@@@Z 100999a3 f   awt_DnDDT.obj
 0001:00098c1f       ?ConvertMemoryMappedData@AwtDropTarget@@MAEPAV_jobject@@PAUJNIEnv_@@_JPAUtagSTGMEDIUM@@@Z 10099c1f f   awt_DnDDT.obj
 0001:00098fcd       ??1zbad_alloc@std@@UAE@XZ  10099fcd f i awt_DnDDS.obj
 0001:00098fd8       ??_Ezbad_alloc@std@@UAEPAXI@Z 10099fd8 f i awt_DnDDS.obj
 0001:00098fd8       ??_Gzbad_alloc@std@@UAEPAXI@Z 10099fd8 f i awt_DnDDS.obj
 0001:00098ffa       ?WaitUntilSignalled@AwtDragSource@@IAEXH@Z 10099ffa f i awt_DnDDS.obj
 0001:00099021       ??BDCHolder@@QAEPAUHBITMAP__@@XZ 1009a021 f i awt_DnDDS.obj
 0001:00099040       ??M@YA_NABUtagFORMATETC@@0@Z 1009a040 f   awt_DnDDS.obj
 0001:0009905a       ?_compar@AwtDragSource@@CAHPBX0@Z 1009a05a f   awt_DnDDS.obj
 0001:00099075       ?UnloadCache@AwtDragSource@@AAEXXZ 1009a075 f   awt_DnDDS.obj
 0001:00099092       ?ChangeCursor@AwtDragSource@@QAEJXZ 1009a092 f   awt_DnDDS.obj
 0001:000990bb       ?SetCursor@AwtDragSource@@QAEXPAV_jobject@@@Z 1009a0bb f   awt_DnDDS.obj
 0001:00099102       ?QueryInterface@AwtDragSource@@UAGJABU_GUID@@PAPAX@Z 1009a102 f   awt_DnDDS.obj
 0001:000991cc       ?AddRef@AwtDragSource@@UAGKXZ 1009a1cc f   awt_DnDDS.obj
 0001:000991da       ?Release@AwtDragSource@@UAGKXZ 1009a1da f   awt_DnDDS.obj
 0001:000991fa       ?EnumDAdvise@AwtDragSource@@UAGJPAPAUIEnumSTATDATA@@@Z 1009a1fa f   awt_DnDDS.obj
 0001:000991fa       ?DUnadvise@AwtDragSource@@UAGJK@Z 1009a1fa f   awt_DnDDS.obj
 0001:00099202       ?GetProcessId@AwtDragSource@@UAGJPAUtagFORMATETC@@PAUtagSTGMEDIUM@@@Z 1009a202 f   awt_DnDDS.obj
 0001:00099311       ?call_dSCenter@AwtDragSource@@CAXPAUJNIEnv_@@PAV_jobject@@JJJJ@Z 1009a311 f   awt_DnDDS.obj
 0001:0009939a       ?call_dSCmotion@AwtDragSource@@CAXPAUJNIEnv_@@PAV_jobject@@JJJJ@Z 1009a39a f   awt_DnDDS.obj
 0001:00099423       ?call_dSCchanged@AwtDragSource@@CAXPAUJNIEnv_@@PAV_jobject@@JJJJ@Z 1009a423 f   awt_DnDDS.obj
 0001:000994ac       ?call_dSCexit@AwtDragSource@@CAXPAUJNIEnv_@@PAV_jobject@@JJ@Z 1009a4ac f   awt_DnDDS.obj
 0001:0009952f       ?call_dSCddfinished@AwtDragSource@@CAXPAUJNIEnv_@@PAV_jobject@@EJJJ@Z 1009a52f f   awt_DnDDS.obj
 0001:000995ba       ?call_dSCmouseMoved@AwtDragSource@@CAXPAUJNIEnv_@@PAV_jobject@@JJJJ@Z 1009a5ba f   awt_DnDDS.obj
 0001:00099643       ??1ADSIEnumFormatEtc@AwtDragSource@@UAE@XZ 1009a643 f   awt_DnDDS.obj
 0001:00099677       ?QueryInterface@ADSIEnumFormatEtc@AwtDragSource@@UAGJABU_GUID@@PAPAX@Z 1009a677 f   awt_DnDDS.obj
 0001:00099715       ?AddRef@ADSIEnumFormatEtc@AwtDragSource@@UAGKXZ 1009a715 f   awt_DnDDS.obj
 0001:00099723       ?Release@ADSIEnumFormatEtc@AwtDragSource@@UAGKXZ 1009a723 f   awt_DnDDS.obj
 0001:00099743       ?Next@ADSIEnumFormatEtc@AwtDragSource@@UAGJKPAUtagFORMATETC@@PAK@Z 1009a743 f   awt_DnDDS.obj
 0001:000997d0       ?Skip@ADSIEnumFormatEtc@AwtDragSource@@UAGJK@Z 1009a7d0 f   awt_DnDDS.obj
 0001:0009982a       ?Reset@ADSIEnumFormatEtc@AwtDragSource@@UAGJXZ 1009a82a f   awt_DnDDS.obj
 0001:00099837       ??1ADSIStreamProxy@AwtDragSource@@UAE@XZ 1009a837 f   awt_DnDDS.obj
 0001:00099893       ?QueryInterface@ADSIStreamProxy@AwtDragSource@@UAGJABU_GUID@@PAPAX@Z 1009a893 f   awt_DnDDS.obj
 0001:00099931       ?AddRef@ADSIStreamProxy@AwtDragSource@@UAGKXZ 1009a931 f   awt_DnDDS.obj
 0001:0009993f       ?Release@ADSIStreamProxy@AwtDragSource@@UAGKXZ 1009a93f f   awt_DnDDS.obj
 0001:0009995f       ?Read@ADSIStreamProxy@AwtDragSource@@UAGJPAXKPAK@Z 1009a95f f   awt_DnDDS.obj
 0001:000999e8       ?Write@ADSIStreamProxy@AwtDragSource@@UAGJPBXKPAK@Z 1009a9e8 f   awt_DnDDS.obj
 0001:00099a4e       ?Seek@ADSIStreamProxy@AwtDragSource@@UAGJT_LARGE_INTEGER@@KPAT_ULARGE_INTEGER@@@Z 1009aa4e f   awt_DnDDS.obj
 0001:00099afd       ?SetSize@ADSIStreamProxy@AwtDragSource@@UAGJT_ULARGE_INTEGER@@@Z 1009aafd f   awt_DnDDS.obj
 0001:00099b05       ?CopyTo@ADSIStreamProxy@AwtDragSource@@UAGJPAUIStream@@T_ULARGE_INTEGER@@PAT4@2@Z 1009ab05 f   awt_DnDDS.obj
 0001:00099bad       ?UnlockRegion@ADSIStreamProxy@AwtDragSource@@UAGJT_ULARGE_INTEGER@@0K@Z 1009abad f   awt_DnDDS.obj
 0001:00099bad       ?LockRegion@ADSIStreamProxy@AwtDragSource@@UAGJT_ULARGE_INTEGER@@0K@Z 1009abad f   awt_DnDDS.obj
 0001:00099bb5       ?Stat@ADSIStreamProxy@AwtDragSource@@UAGJPAUtagSTATSTG@@K@Z 1009abb5 f   awt_DnDDS.obj
 0001:00099c15       _Java_sun_awt_windows_WDragSourceContextPeer_setNativeCursor@24 1009ac15 f   awt_DnDDS.obj
 0001:00099c59       ??E?$_Tree_unchecked_const_iterator@V?$_Tree_val@V?$_Tmap_traits@UtagFORMATETC@@UtagSTGMEDIUM@@U?$less@UtagFORMATETC@@@std@@V?$allocator@U?$pair@$$CBUtagFORMATETC@@UtagSTGMEDIUM@@@std@@@4@$0A@@std@@@std@@U_Iterator_base0@2@@std@@QAEAAV01@XZ 1009ac59 f i awt_DnDDS.obj
 0001:00099c91       ??0zbad_alloc@std@@QAE@ABV01@@Z 1009ac91 f i awt_DnDDS.obj
 0001:00099ca9       ??F?$_Tree_unchecked_const_iterator@V?$_Tree_val@V?$_Tmap_traits@UtagFORMATETC@@UtagSTGMEDIUM@@U?$less@UtagFORMATETC@@@std@@V?$allocator@U?$pair@$$CBUtagFORMATETC@@UtagSTGMEDIUM@@@std@@@4@$0A@@std@@@std@@U_Iterator_base0@2@@std@@QAEAAV01@XZ 1009aca9 f i awt_DnDDS.obj
 0001:00099cef       ?UnlockRegion@ADSIStreamProxy@AwtDragSource@@$4PPPPPPPM@A@AGJT_ULARGE_INTEGER@@0K@Z 1009acef f i awt_DnDDS.obj
 0001:00099cef       ?LockRegion@ADSIStreamProxy@AwtDragSource@@$4PPPPPPPM@A@AGJT_ULARGE_INTEGER@@0K@Z 1009acef f i awt_DnDDS.obj
 0001:00099cff       ?Release@ADSIEnumFormatEtc@AwtDragSource@@$4PPPPPPPM@A@AGKXZ 1009acff f i awt_DnDDS.obj
 0001:00099d0f       ?Release@ADSIStreamProxy@AwtDragSource@@$4PPPPPPPM@A@AGKXZ 1009ad0f f i awt_DnDDS.obj
 0001:00099d1f       ?Seek@ADSIStreamProxy@AwtDragSource@@$4PPPPPPPM@A@AGJT_LARGE_INTEGER@@KPAT_ULARGE_INTEGER@@@Z 1009ad1f f i awt_DnDDS.obj
 0001:00099d2f       ?AddRef@ADSIEnumFormatEtc@AwtDragSource@@$4PPPPPPPM@A@AGKXZ 1009ad2f f i awt_DnDDS.obj
 0001:00099d3f       ?Revert@ADSIStreamProxy@AwtDragSource@@$4PPPPPPPM@A@AGJXZ 1009ad3f f i awt_DnDDS.obj
 0001:00099d4f       ?Read@ADSIStreamProxy@AwtDragSource@@$4PPPPPPPM@A@AGJPAXKPAK@Z 1009ad4f f i awt_DnDDS.obj
 0001:00099d5f       ?SetSize@ADSIStreamProxy@AwtDragSource@@$4PPPPPPPM@A@AGJT_ULARGE_INTEGER@@@Z 1009ad5f f i awt_DnDDS.obj
 0001:00099d6f       ?Next@ADSIEnumFormatEtc@AwtDragSource@@$4PPPPPPPM@A@AGJKPAUtagFORMATETC@@PAK@Z 1009ad6f f i awt_DnDDS.obj
 0001:00099d7f       ?Reset@ADSIEnumFormatEtc@AwtDragSource@@$4PPPPPPPM@A@AGJXZ 1009ad7f f i awt_DnDDS.obj
 0001:00099d8f       ?AddRef@ADSIStreamProxy@AwtDragSource@@$4PPPPPPPM@A@AGKXZ 1009ad8f f i awt_DnDDS.obj
 0001:00099d9f       ?Skip@ADSIEnumFormatEtc@AwtDragSource@@$4PPPPPPPM@A@AGJK@Z 1009ad9f f i awt_DnDDS.obj
 0001:00099daf       ?QueryInterface@ADSIEnumFormatEtc@AwtDragSource@@$4PPPPPPPM@A@AGJABU_GUID@@PAPAX@Z 1009adaf f i awt_DnDDS.obj
 0001:00099dbf       ?CopyTo@ADSIStreamProxy@AwtDragSource@@$4PPPPPPPM@A@AGJPAUIStream@@T_ULARGE_INTEGER@@PAT4@2@Z 1009adbf f i awt_DnDDS.obj
 0001:00099dcf       ?QueryInterface@ADSIStreamProxy@AwtDragSource@@$4PPPPPPPM@A@AGJABU_GUID@@PAPAX@Z 1009adcf f i awt_DnDDS.obj
 0001:00099ddf       ?Stat@ADSIStreamProxy@AwtDragSource@@$4PPPPPPPM@A@AGJPAUtagSTATSTG@@K@Z 1009addf f i awt_DnDDS.obj
 0001:00099def       ?Write@ADSIStreamProxy@AwtDragSource@@$4PPPPPPPM@A@AGJPBXKPAK@Z 1009adef f i awt_DnDDS.obj
 0001:00099dff       ?Commit@ADSIStreamProxy@AwtDragSource@@$4PPPPPPPM@A@AGJK@Z 1009adff f i awt_DnDDS.obj
 0001:00099e0f       ?Create@PictureDragHelper@@SAJPAUJNIEnv_@@PAV_jintArray@@HHHHPAUIDataObject@@@Z 1009ae0f f i awt_DnDDS.obj
 0001:00099f20       ??1AwtDragSource@@UAE@XZ   1009af20 f   awt_DnDDS.obj
 0001:00099faa       ?Release@AwtDragSource@@$4PPPPPPPM@7AGKXZ 1009afaa f i awt_DnDDS.obj
 0001:00099fbd       ?AddRef@AwtDragSource@@$4PPPPPPPM@A@AGKXZ 1009afbd f i awt_DnDDS.obj
 0001:00099fcd       ?DAdvise@AwtDragSource@@$4PPPPPPPM@A@AGJPAUtagFORMATETC@@KPAUIAdviseSink@@PAK@Z 1009afcd f i awt_DnDDS.obj
 0001:00099fdd       ?QueryInterface@AwtDragSource@@$4PPPPPPPM@A@AGJABU_GUID@@PAPAX@Z 1009afdd f i awt_DnDDS.obj
 0001:00099fed       ?AddRef@AwtDragSource@@$4PPPPPPPM@7AGKXZ 1009afed f i awt_DnDDS.obj
 0001:0009a000       ?QueryInterface@AwtDragSource@@$4PPPPPPPM@7AGJABU_GUID@@PAPAX@Z 1009b000 f i awt_DnDDS.obj
 0001:0009a013       ?EnumDAdvise@AwtDragSource@@$4PPPPPPPM@A@AGJPAPAUIEnumSTATDATA@@@Z 1009b013 f i awt_DnDDS.obj
 0001:0009a013       ?DUnadvise@AwtDragSource@@$4PPPPPPPM@A@AGJK@Z 1009b013 f i awt_DnDDS.obj
 0001:0009a023       ?Release@AwtDragSource@@$4PPPPPPPM@A@AGKXZ 1009b023 f i awt_DnDDS.obj
 0001:0009a033       ?LoadCache@AwtDragSource@@AAEXPAV_jlongArray@@@Z 1009b033 f   awt_DnDDS.obj
 0001:0009a1a0       ?QueryContinueDrag@AwtDragSource@@UAGJHK@Z 1009b1a0 f   awt_DnDDS.obj
 0001:0009a2c5       ?GiveFeedback@AwtDragSource@@UAGJK@Z 1009b2c5 f   awt_DnDDS.obj
 0001:0009a44c       ??0ADSIEnumFormatEtc@AwtDragSource@@QAE@PAV1@@Z 1009b44c f   awt_DnDDS.obj
 0001:0009a4a4       ??_EADSIEnumFormatEtc@AwtDragSource@@UAEPAXI@Z 1009b4a4 f i awt_DnDDS.obj
 0001:0009a4a4       ??_GADSIEnumFormatEtc@AwtDragSource@@UAEPAXI@Z 1009b4a4 f i awt_DnDDS.obj
 0001:0009a4c0       ?Clone@ADSIEnumFormatEtc@AwtDragSource@@UAGJPAPAUIEnumFORMATETC@@@Z 1009b4c0 f   awt_DnDDS.obj
 0001:0009a545       ??_GADSIStreamProxy@AwtDragSource@@UAEPAXI@Z 1009b545 f i awt_DnDDS.obj
 0001:0009a545       ??_EADSIStreamProxy@AwtDragSource@@UAEPAXI@Z 1009b545 f i awt_DnDDS.obj
 0001:0009a561       ??0ADSIStreamProxy@AwtDragSource@@AAE@PAV01@@Z 1009b561 f   awt_DnDDS.obj
 0001:0009a5f1       ?Clone@ADSIStreamProxy@AwtDragSource@@UAGJPAPAUIStream@@@Z 1009b5f1 f   awt_DnDDS.obj
 0001:0009a667       ?_Rrotate@?$_Tree@V?$_Tmap_traits@UtagFORMATETC@@UtagSTGMEDIUM@@U?$less@UtagFORMATETC@@@std@@V?$allocator@U?$pair@$$CBUtagFORMATETC@@UtagSTGMEDIUM@@@std@@@4@$0A@@std@@@std@@IAEXPAU_Node@?$_Tree_nod@V?$_Tmap_traits@UtagFORMATETC@@UtagSTGMEDIUM@@U?$less@UtagFORMATETC@@@std@@V?$allocator@U?$pair@$$CBUtagFORMATETC@@UtagSTGMEDIUM@@@std@@@4@$0A@@std@@@2@@Z 1009b667 f i awt_DnDDS.obj
 0001:0009a6ab       ??1?$_Tree_val@V?$_Tmap_traits@UtagFORMATETC@@UtagSTGMEDIUM@@U?$less@UtagFORMATETC@@@std@@V?$allocator@U?$pair@$$CBUtagFORMATETC@@UtagSTGMEDIUM@@@std@@@4@$0A@@std@@@std@@QAE@XZ 1009b6ab f i awt_DnDDS.obj
 0001:0009a6b5       ?_Lbound@?$_Tree@V?$_Tmap_traits@UtagFORMATETC@@UtagSTGMEDIUM@@U?$less@UtagFORMATETC@@@std@@V?$allocator@U?$pair@$$CBUtagFORMATETC@@UtagSTGMEDIUM@@@std@@@4@$0A@@std@@@std@@IAEPAU_Node@?$_Tree_nod@V?$_Tmap_traits@UtagFORMATETC@@UtagSTGMEDIUM@@U?$less@UtagFORMATETC@@@std@@V?$allocator@U?$pair@$$CBUtagFORMATETC@@UtagSTGMEDIUM@@@std@@@4@$0A@@std@@@2@ABUtagFORMATETC@@@Z 1009b6b5 f i awt_DnDDS.obj
 0001:0009a6ea       ?_Buynode@?$_Tree_val@V?$_Tmap_traits@UtagFORMATETC@@UtagSTGMEDIUM@@U?$less@UtagFORMATETC@@@std@@V?$allocator@U?$pair@$$CBUtagFORMATETC@@UtagSTGMEDIUM@@@std@@@4@$0A@@std@@@std@@QAEPAU_Node@?$_Tree_nod@V?$_Tmap_traits@UtagFORMATETC@@UtagSTGMEDIUM@@U?$less@UtagFORMATETC@@@std@@V?$allocator@U?$pair@$$CBUtagFORMATETC@@UtagSTGMEDIUM@@@std@@@4@$0A@@std@@@2@XZ 1009b6ea f i awt_DnDDS.obj
 0001:0009a73e       ?GiveFeedback@AwtDragSource@@$4PPPPPPPM@A@AGJK@Z 1009b73e f i awt_DnDDS.obj
 0001:0009a74e       ?Clone@ADSIStreamProxy@AwtDragSource@@$4PPPPPPPM@A@AGJPAPAUIStream@@@Z 1009b74e f i awt_DnDDS.obj
 0001:0009a75e       ?QueryContinueDrag@AwtDragSource@@$4PPPPPPPM@A@AGJHK@Z 1009b75e f i awt_DnDDS.obj
 0001:0009a76e       ?Clone@ADSIEnumFormatEtc@AwtDragSource@@$4PPPPPPPM@A@AGJPAPAUIEnumFORMATETC@@@Z 1009b76e f i awt_DnDDS.obj
 0001:0009a77e       ??0AwtDragSource@@QAE@PAUJNIEnv_@@PAV_jobject@@111JPAV_jlongArray@@1@Z 1009b77e f   awt_DnDDS.obj
 0001:0009a857       ??_EAwtDragSource@@UAEPAXI@Z 1009b857 f i awt_DnDDS.obj
 0001:0009a857       ??_GAwtDragSource@@UAEPAXI@Z 1009b857 f i awt_DnDDS.obj
 0001:0009a873       ?EnumFormatEtc@AwtDragSource@@UAGJKPAPAUIEnumFORMATETC@@@Z 1009b873 f   awt_DnDDS.obj
 0001:0009a8e9       ??0ADSIStreamProxy@AwtDragSource@@QAE@PAV1@PAV_jbyteArray@@J@Z 1009b8e9 f   awt_DnDDS.obj
 0001:0009a9e0       _Java_sun_awt_windows_WDragSourceContextPeer_createDragSource@32 1009b9e0 f   awt_DnDDS.obj
 0001:0009aa6f       ?_Lrotate@?$_Tree@V?$_Tmap_traits@UtagFORMATETC@@UtagSTGMEDIUM@@U?$less@UtagFORMATETC@@@std@@V?$allocator@U?$pair@$$CBUtagFORMATETC@@UtagSTGMEDIUM@@@std@@@4@$0A@@std@@@std@@IAEXPAU_Node@?$_Tree_nod@V?$_Tmap_traits@UtagFORMATETC@@UtagSTGMEDIUM@@U?$less@UtagFORMATETC@@@std@@V?$allocator@U?$pair@$$CBUtagFORMATETC@@UtagSTGMEDIUM@@@std@@@4@$0A@@std@@@2@@Z 1009ba6f f i awt_DnDDS.obj
 0001:0009aab1       ??0?$_Tree_val@V?$_Tmap_traits@UtagFORMATETC@@UtagSTGMEDIUM@@U?$less@UtagFORMATETC@@@std@@V?$allocator@U?$pair@$$CBUtagFORMATETC@@UtagSTGMEDIUM@@@std@@@4@$0A@@std@@@std@@QAE@ABU?$less@UtagFORMATETC@@@1@V?$allocator@U?$pair@$$CBUtagFORMATETC@@UtagSTGMEDIUM@@@std@@@1@@Z 1009bab1 f i awt_DnDDS.obj
 0001:0009ab16       ?_Insert@?$_Tree@V?$_Tmap_traits@UtagFORMATETC@@UtagSTGMEDIUM@@U?$less@UtagFORMATETC@@@std@@V?$allocator@U?$pair@$$CBUtagFORMATETC@@UtagSTGMEDIUM@@@std@@@4@$0A@@std@@@std@@IAE?AV?$_Tree_iterator@V?$_Tree_val@V?$_Tmap_traits@UtagFORMATETC@@UtagSTGMEDIUM@@U?$less@UtagFORMATETC@@@std@@V?$allocator@U?$pair@$$CBUtagFORMATETC@@UtagSTGMEDIUM@@@std@@@4@$0A@@std@@@std@@@2@_NPAU_Node@?$_Tree_nod@V?$_Tmap_traits@UtagFORMATETC@@UtagSTGMEDIUM@@U?$less@UtagFORMATETC@@@std@@V?$allocator@U?$pair@$$CBUtagFORMATETC@@UtagSTGMEDIUM@@@std@@@4@$0A@@std@@@2@1@Z 1009bb16 f i awt_DnDDS.obj
 0001:0009ac3e       ?EnumFormatEtc@AwtDragSource@@$4PPPPPPPM@A@AGJKPAPAUIEnumFORMATETC@@@Z 1009bc3e f i awt_DnDDS.obj
 0001:0009ac4e       ?erase@?$_Tree@V?$_Tmap_traits@UtagFORMATETC@@UtagSTGMEDIUM@@U?$less@UtagFORMATETC@@@std@@V?$allocator@U?$pair@$$CBUtagFORMATETC@@UtagSTGMEDIUM@@@std@@@4@$0A@@std@@@std@@QAE?AV?$_Tree_iterator@V?$_Tree_val@V?$_Tmap_traits@UtagFORMATETC@@UtagSTGMEDIUM@@U?$less@UtagFORMATETC@@@std@@V?$allocator@U?$pair@$$CBUtagFORMATETC@@UtagSTGMEDIUM@@@std@@@4@$0A@@std@@@std@@@2@V?$_Tree_const_iterator@V?$_Tree_val@V?$_Tmap_traits@UtagFORMATETC@@UtagSTGMEDIUM@@U?$less@UtagFORMATETC@@@std@@V?$allocator@U?$pair@$$CBUtagFORMATETC@@UtagSTGMEDIUM@@@std@@@4@$0A@@std@@@std@@@2@@Z 1009bc4e f i awt_DnDDS.obj
 0001:0009ae98       ?_Erase@?$_Tree@V?$_Tmap_traits@UtagFORMATETC@@UtagSTGMEDIUM@@U?$less@UtagFORMATETC@@@std@@V?$allocator@U?$pair@$$CBUtagFORMATETC@@UtagSTGMEDIUM@@@std@@@4@$0A@@std@@@std@@IAEXPAU_Node@?$_Tree_nod@V?$_Tmap_traits@UtagFORMATETC@@UtagSTGMEDIUM@@U?$less@UtagFORMATETC@@@std@@V?$allocator@U?$pair@$$CBUtagFORMATETC@@UtagSTGMEDIUM@@@std@@@4@$0A@@std@@@2@@Z 1009be98 f i awt_DnDDS.obj
 0001:0009aeca       ?_Linsert@?$_Tree@V?$_Tmap_traits@UtagFORMATETC@@UtagSTGMEDIUM@@U?$less@UtagFORMATETC@@@std@@V?$allocator@U?$pair@$$CBUtagFORMATETC@@UtagSTGMEDIUM@@@std@@@4@$0A@@std@@@std@@QAE?AU?$pair@V?$_Tree_iterator@V?$_Tree_val@V?$_Tmap_traits@UtagFORMATETC@@UtagSTGMEDIUM@@U?$less@UtagFORMATETC@@@std@@V?$allocator@U?$pair@$$CBUtagFORMATETC@@UtagSTGMEDIUM@@@std@@@4@$0A@@std@@@std@@@std@@_N@2@PAU_Node@?$_Tree_nod@V?$_Tmap_traits@UtagFORMATETC@@UtagSTGMEDIUM@@U?$less@UtagFORMATETC@@@std@@V?$allocator@U?$pair@$$CBUtagFORMATETC@@UtagSTGMEDIUM@@@std@@@4@$0A@@std@@@2@_N@Z 1009beca f i awt_DnDDS.obj
 0001:0009af96       ?construct@?$allocator@U?$pair@$$CBUtagFORMATETC@@UtagSTGMEDIUM@@@std@@@std@@QAEXPAU?$pair@$$CBUtagFORMATETC@@UtagSTGMEDIUM@@@2@$$QAU32@@Z 1009bf96 f i awt_DnDDS.obj
 0001:0009afbb       ?CleanFormatMap@PictureDragHelper@@SAXXZ 1009bfbb f i awt_DnDDS.obj
 0001:0009afef       ?find@?$_Tree@V?$_Tmap_traits@UtagFORMATETC@@UtagSTGMEDIUM@@U?$less@UtagFORMATETC@@@std@@V?$allocator@U?$pair@$$CBUtagFORMATETC@@UtagSTGMEDIUM@@@std@@@4@$0A@@std@@@std@@QAE?AV?$_Tree_iterator@V?$_Tree_val@V?$_Tmap_traits@UtagFORMATETC@@UtagSTGMEDIUM@@U?$less@UtagFORMATETC@@@std@@V?$allocator@U?$pair@$$CBUtagFORMATETC@@UtagSTGMEDIUM@@@std@@@4@$0A@@std@@@std@@@2@ABUtagFORMATETC@@@Z 1009bfef f i awt_DnDDS.obj
 0001:0009b032       ?clear@?$_Tree@V?$_Tmap_traits@UtagFORMATETC@@UtagSTGMEDIUM@@U?$less@UtagFORMATETC@@@std@@V?$allocator@U?$pair@$$CBUtagFORMATETC@@UtagSTGMEDIUM@@@std@@@4@$0A@@std@@@std@@QAEXXZ 1009c032 f i awt_DnDDS.obj
 0001:0009b059       ?_Insert@?$_Tree@V?$_Tmap_traits@UtagFORMATETC@@UtagSTGMEDIUM@@U?$less@UtagFORMATETC@@@std@@V?$allocator@U?$pair@$$CBUtagFORMATETC@@UtagSTGMEDIUM@@@std@@@4@$0A@@std@@@std@@QAE?AV?$_Tree_iterator@V?$_Tree_val@V?$_Tmap_traits@UtagFORMATETC@@UtagSTGMEDIUM@@U?$less@UtagFORMATETC@@@std@@V?$allocator@U?$pair@$$CBUtagFORMATETC@@UtagSTGMEDIUM@@@std@@@4@$0A@@std@@@std@@@2@V?$_Tree_const_iterator@V?$_Tree_val@V?$_Tmap_traits@UtagFORMATETC@@UtagSTGMEDIUM@@U?$less@UtagFORMATETC@@@std@@V?$allocator@U?$pair@$$CBUtagFORMATETC@@UtagSTGMEDIUM@@@std@@@4@$0A@@std@@@std@@@2@PAU_Node@?$_Tree_nod@V?$_Tmap_traits@UtagFORMATETC@@UtagSTGMEDIUM@@U?$less@UtagFORMATETC@@@std@@V?$allocator@U?$pair@$$CBUtagFORMATETC@@UtagSTGMEDIUM@@@std@@@4@$0A@@std@@@2@@Z 1009c059 f i awt_DnDDS.obj
 0001:0009b193       ??$_Cons_val@V?$allocator@U?$pair@$$CBUtagFORMATETC@@UtagSTGMEDIUM@@@std@@@std@@U?$pair@$$CBUtagFORMATETC@@UtagSTGMEDIUM@@@2@U32@@std@@YAXAAV?$allocator@U?$pair@$$CBUtagFORMATETC@@UtagSTGMEDIUM@@@std@@@0@PAU?$pair@$$CBUtagFORMATETC@@UtagSTGMEDIUM@@@0@$$QAU20@@Z 1009c193 f i awt_DnDDS.obj
 0001:0009b1a5       ?Destroy@PictureDragHelper@@SAXXZ 1009c1a5 f i awt_DnDDS.obj
 0001:0009b1c6       ?FindFormat@PictureDragHelper@@SAPBUtagFORMATETC@@ABU2@@Z 1009c1c6 f i awt_DnDDS.obj
 0001:0009b217       ?FindData@PictureDragHelper@@SAPAUtagSTGMEDIUM@@ABUtagFORMATETC@@@Z 1009c217 f i awt_DnDDS.obj
 0001:0009b27b       ?_DoDragDrop@AwtDragSource@@KAXPAX@Z 1009c27b f   awt_DnDDS.obj
 0001:0009b3b9       ?MatchFormatEtc@AwtDragSource@@IAGJPAUtagFORMATETC@@0@Z 1009c3b9 f   awt_DnDDS.obj
 0001:0009b486       ?GetData@AwtDragSource@@UAGJPAUtagFORMATETC@@PAUtagSTGMEDIUM@@@Z 1009c486 f   awt_DnDDS.obj
 0001:0009b844       ?GetDataHere@AwtDragSource@@UAGJPAUtagFORMATETC@@PAUtagSTGMEDIUM@@@Z 1009c844 f   awt_DnDDS.obj
 0001:0009ba2a       ?QueryGetData@AwtDragSource@@UAGJPAUtagFORMATETC@@@Z 1009ca2a f   awt_DnDDS.obj
 0001:0009ba79       ?GetCanonicalFormatEtc@AwtDragSource@@UAGJPAUtagFORMATETC@@0@Z 1009ca79 f   awt_DnDDS.obj
 0001:0009badf       ?erase@?$_Tree@V?$_Tmap_traits@UtagFORMATETC@@UtagSTGMEDIUM@@U?$less@UtagFORMATETC@@@std@@V?$allocator@U?$pair@$$CBUtagFORMATETC@@UtagSTGMEDIUM@@@std@@@4@$0A@@std@@@std@@QAE?AV?$_Tree_iterator@V?$_Tree_val@V?$_Tmap_traits@UtagFORMATETC@@UtagSTGMEDIUM@@U?$less@UtagFORMATETC@@@std@@V?$allocator@U?$pair@$$CBUtagFORMATETC@@UtagSTGMEDIUM@@@std@@@4@$0A@@std@@@std@@@2@V?$_Tree_const_iterator@V?$_Tree_val@V?$_Tmap_traits@UtagFORMATETC@@UtagSTGMEDIUM@@U?$less@UtagFORMATETC@@@std@@V?$allocator@U?$pair@$$CBUtagFORMATETC@@UtagSTGMEDIUM@@@std@@@4@$0A@@std@@@std@@@2@0@Z 1009cadf f i awt_DnDDS.obj
 0001:0009bb32       ??$_Buynode@U?$pair@$$CBUtagFORMATETC@@UtagSTGMEDIUM@@@std@@@?$_Tree_val@V?$_Tmap_traits@UtagFORMATETC@@UtagSTGMEDIUM@@U?$less@UtagFORMATETC@@@std@@V?$allocator@U?$pair@$$CBUtagFORMATETC@@UtagSTGMEDIUM@@@std@@@4@$0A@@std@@@std@@QAEPAU_Node@?$_Tree_nod@V?$_Tmap_traits@UtagFORMATETC@@UtagSTGMEDIUM@@U?$less@UtagFORMATETC@@@std@@V?$allocator@U?$pair@$$CBUtagFORMATETC@@UtagSTGMEDIUM@@@std@@@4@$0A@@std@@@1@$$QAU?$pair@$$CBUtagFORMATETC@@UtagSTGMEDIUM@@@1@@Z 1009cb32 f i awt_DnDDS.obj
 0001:0009bb58       ?GetData@AwtDragSource@@$4PPPPPPPM@A@AGJPAUtagFORMATETC@@PAUtagSTGMEDIUM@@@Z 1009cb58 f i awt_DnDDS.obj
 0001:0009bb68       ?GetDataHere@AwtDragSource@@$4PPPPPPPM@A@AGJPAUtagFORMATETC@@PAUtagSTGMEDIUM@@@Z 1009cb68 f i awt_DnDDS.obj
 0001:0009bb78       ?QueryGetData@AwtDragSource@@$4PPPPPPPM@A@AGJPAUtagFORMATETC@@@Z 1009cb78 f i awt_DnDDS.obj
 0001:0009bb88       ?GetCanonicalFormatEtc@AwtDragSource@@$4PPPPPPPM@A@AGJPAUtagFORMATETC@@0@Z 1009cb88 f i awt_DnDDS.obj
 0001:0009bb98       ?StartDrag@AwtDragSource@@SAXPAV1@PAV_jobject@@PAV_jintArray@@JJJJ@Z 1009cb98 f   awt_DnDDS.obj
 0001:0009bc0c       _Java_sun_awt_windows_WDragSourceContextPeer_doDragDrop@40 1009cc0c f   awt_DnDDS.obj
 0001:0009bc76       ??A?$map@UtagFORMATETC@@UtagSTGMEDIUM@@U?$less@UtagFORMATETC@@@std@@V?$allocator@U?$pair@$$CBUtagFORMATETC@@UtagSTGMEDIUM@@@std@@@4@@std@@QAEAAUtagSTGMEDIUM@@ABUtagFORMATETC@@@Z 1009cc76 f i awt_DnDDS.obj
 0001:0009bce8       ??1?$_Tree@V?$_Tmap_traits@UtagFORMATETC@@UtagSTGMEDIUM@@U?$less@UtagFORMATETC@@@std@@V?$allocator@U?$pair@$$CBUtagFORMATETC@@UtagSTGMEDIUM@@@std@@@4@$0A@@std@@@std@@QAE@XZ 1009cce8 f i awt_DnDDS.obj
 0001:0009bd1e       ?SetData@PictureDragHelper@@SAXABUtagFORMATETC@@ABUtagSTGMEDIUM@@@Z 1009cd1e f i awt_DnDDS.obj
 0001:0009bd74       ?SetData@AwtDragSource@@UAGJPAUtagFORMATETC@@PAUtagSTGMEDIUM@@H@Z 1009cd74 f   awt_DnDDS.obj
 0001:0009bdd5       ?SetData@AwtDragSource@@$4PPPPPPPM@A@AGJPAUtagFORMATETC@@PAUtagSTGMEDIUM@@H@Z 1009cdd5 f i awt_DnDDS.obj
 0001:0009bde5       _awt_getImagingLib         1009cde5 f   awt_Mlib.obj
 0001:0009be94       _awt_getBIColorOrder       1009ce94 f   awt_Mlib.obj
 0001:0009bf48       ?handler@NewHandler@@CAHI@Z 1009cf48 f   awt_new.obj
 0001:0009bf62       ?safe_Malloc@@YAPAXI@Z     1009cf62 f   awt_new.obj
 0001:0009bf8e       ?safe_Calloc@@YAPAXII@Z    1009cf8e f   awt_new.obj
 0001:0009bfbe       ?safe_Realloc@@YAPAXPAXI@Z 1009cfbe f   awt_new.obj
 0001:0009bff9       ??2@YAPAXI@Z               1009cff9 f   awt_new.obj
 0001:0009bfff       ?entry_point@@YAXXZ        1009cfff f   awt_new.obj
 0001:0009c01e       ?handle_bad_alloc@@YAXXZ   1009d01e f   awt_new.obj
 0001:0009c042       ?safe_ExceptionOccurred@@YAPAV_jthrowable@@PAUJNIEnv_@@@Z 1009d042 f   awt_new.obj
 0001:0009c0b4       ?init@NewHandler@@SAXXZ    1009d0b4 f   awt_new.obj
 0001:0009c0db       ?UnregisterClassW@AwtTrayIcon@@SAXXZ 1009d0db f   awt_TrayIcon.obj
 0001:0009c0ed       ?DestroyMessageWindow@AwtTrayIcon@@SAXXZ 1009d0ed f   awt_TrayIcon.obj
 0001:0009c105       ?InitNID@AwtTrayIcon@@QAEXI@Z 1009d105 f   awt_TrayIcon.obj
 0001:0009c1c6       ?SendTrayMessage@AwtTrayIcon@@QAEHK@Z 1009d1c6 f   awt_TrayIcon.obj
 0001:0009c1d7       ?WmAwtTrayNotify@AwtTrayIcon@@UAE?AW4MsgRouting@@IJ@Z 1009d1d7 f   awt_TrayIcon.obj
 0001:0009c2e3       ?WmContextMenu@AwtTrayIcon@@UAE?AW4MsgRouting@@IHH@Z 1009d2e3 f   awt_TrayIcon.obj
 0001:0009c322       ?WmTaskbarCreated@AwtTrayIcon@@SA?AW4MsgRouting@@XZ 1009d322 f   awt_TrayIcon.obj
 0001:0009c35b       ?SendMouseEvent@AwtTrayIcon@@QAEXJ_JJJJJEJPAUtagMSG@@@Z 1009d35b f   awt_TrayIcon.obj
 0001:0009c477       ?SendActionEvent@AwtTrayIcon@@QAEXJ_JJPAUtagMSG@@@Z 1009d477 f   awt_TrayIcon.obj
 0001:0009c59a       ?SearchTrayIconItem@AwtTrayIcon@@SAPAV1@I@Z 1009d59a f   awt_TrayIcon.obj
 0001:0009c5b5       ?LinkObjects@AwtTrayIcon@@QAEXPAUJNIEnv_@@PAV_jobject@@@Z 1009d5b5 f   awt_TrayIcon.obj
 0001:0009c5eb       ?UnlinkObjects@AwtTrayIcon@@QAEXXZ 1009d5eb f   awt_TrayIcon.obj
 0001:0009c62c       ?CreateBMP@AwtTrayIcon@@SAPAUHBITMAP__@@PAUHWND__@@PAHHHH@Z 1009d62c f   awt_TrayIcon.obj
 0001:0009c777       ?SetToolTip@AwtTrayIcon@@QAEXPBG@Z 1009d777 f   awt_TrayIcon.obj
 0001:0009c7d0       ?_SetToolTip@AwtTrayIcon@@SAXPAX@Z 1009d7d0 f   awt_TrayIcon.obj
 0001:0009c883       ?SetIcon@AwtTrayIcon@@QAEXPAUHICON__@@@Z 1009d883 f   awt_TrayIcon.obj
 0001:0009c89a       ?_SetIcon@AwtTrayIcon@@SAXPAX@Z 1009d89a f   awt_TrayIcon.obj
 0001:0009c914       ?_UpdateIcon@AwtTrayIcon@@SAXPAX@Z 1009d914 f   awt_TrayIcon.obj
 0001:0009c9b8       ?DisplayMessage@AwtTrayIcon@@QAEXPBG00@Z 1009d9b8 f   awt_TrayIcon.obj
 0001:0009cadf       ?_DisplayMessage@AwtTrayIcon@@SAXPAX@Z 1009dadf f   awt_TrayIcon.obj
 0001:0009cbed       _Java_java_awt_TrayIcon_initIDs@8 1009dbed f   awt_TrayIcon.obj
 0001:0009cc5b       _Java_sun_awt_windows_WTrayIconPeer__1dispose@8 1009dc5b f   awt_TrayIcon.obj
 0001:0009cc99       _Java_sun_awt_windows_WTrayIconPeer_setToolTip@12 1009dc99 f   awt_TrayIcon.obj
 0001:0009cd0d       _Java_sun_awt_windows_WTrayIconPeer_setNativeIcon@28 1009dd0d f   awt_TrayIcon.obj
 0001:0009ce4f       _Java_sun_awt_windows_WTrayIconPeer_updateNativeIcon@12 1009de4f f   awt_TrayIcon.obj
 0001:0009ceb2       _Java_sun_awt_windows_WTrayIconPeer__1displayMessage@20 1009deb2 f   awt_TrayIcon.obj
 0001:0009cf33       ?AddTrayIconItem@AwtTrayIcon@@QAEXI@Z 1009df33 f i awt_TrayIcon.obj
 0001:0009cf65       ??_GAwtTrayIcon@@UAEPAXI@Z 1009df65 f i awt_TrayIcon.obj
 0001:0009cf65       ??_EAwtTrayIcon@@UAEPAXI@Z 1009df65 f i awt_TrayIcon.obj
 0001:0009cf87       ?Dispose@AwtTrayIcon@@UAEXXZ 1009df87 f   awt_TrayIcon.obj
 0001:0009cfb2       ?TrayWindowProc@AwtTrayIcon@@SGJPAUHWND__@@IIJ@Z 1009dfb2 f   awt_TrayIcon.obj
 0001:0009d03f       ?WmMouseDown@AwtTrayIcon@@UAE?AW4MsgRouting@@IHHH@Z 1009e03f f   awt_TrayIcon.obj
 0001:0009d171       ?WmMouseUp@AwtTrayIcon@@UAE?AW4MsgRouting@@IHHH@Z 1009e171 f   awt_TrayIcon.obj
 0001:0009d251       ?WmMouseMove@AwtTrayIcon@@UAE?AW4MsgRouting@@IHH@Z 1009e251 f   awt_TrayIcon.obj
 0001:0009d2f4       ?WmBalloonUserClick@AwtTrayIcon@@UAE?AW4MsgRouting@@IHH@Z 1009e2f4 f   awt_TrayIcon.obj
 0001:0009d35f       ?WmKeySelect@AwtTrayIcon@@UAE?AW4MsgRouting@@IHH@Z 1009e35f f   awt_TrayIcon.obj
 0001:0009d3f0       ?WmSelect@AwtTrayIcon@@UAE?AW4MsgRouting@@IHH@Z 1009e3f0 f   awt_TrayIcon.obj
 0001:0009d458       ?FillClassInfo@AwtTrayIcon@@SAXPAUtagWNDCLASSW@@@Z 1009e458 f   awt_TrayIcon.obj
 0001:0009d497       ?RegisterClassW@AwtTrayIcon@@SAXXZ 1009e497 f   awt_TrayIcon.obj
 0001:0009d4dc       ?CreateMessageWindow@AwtTrayIcon@@SAPAUHWND__@@XZ 1009e4dc f   awt_TrayIcon.obj
 0001:0009d503       ??0AwtTrayIcon@@QAE@XZ     1009e503 f   awt_TrayIcon.obj
 0001:0009d566       ?Create@AwtTrayIcon@@SAPAV1@PAV_jobject@@0@Z 1009e566 f   awt_TrayIcon.obj
 0001:0009d5f8       _Java_sun_awt_windows_WTrayIconPeer_create@8 1009e5f8 f   awt_TrayIcon.obj
 0001:0009d65e       ??0DCHolder@@QAE@XZ        1009e65e f   awt_DCHolder.obj
 0001:0009d677       ??1DCHolder@@QAE@XZ        1009e677 f   awt_DCHolder.obj
 0001:0009d6a7       ?CreateJavaContextBitmap@DCHolder@@SAPAUHBITMAP__@@PAUHDC__@@HHPAPAX@Z 1009e6a7 f   awt_DCHolder.obj
 0001:0009d70e       ?Create@DCHolder@@QAEXPAUHDC__@@HHH@Z 1009e70e f   awt_DCHolder.obj
 0001:0009d7d5       ?CreateTimeStamp@SUN_dbg_glb@@YAPBGPAGI@Z 1009e7d5 f   awt_ole.obj
 0001:0009d855       ?snvTrace@SUN_dbg_glb@@YAXPBGPAD@Z 1009e855 f   awt_ole.obj
 0001:0009d988       ?snTrace@SUN_dbg_glb@@YAXPBGZZ 1009e988 f   awt_ole.obj
 0001:0009d999       _ShaderList_AddProgram     1009e999 f   ShaderList.obj
 0001:0009da09       _ShaderList_FindProgram    1009ea09 f   ShaderList.obj
 0001:0009da57       _ShaderList_Dispose        1009ea57 f   ShaderList.obj
 0001:0009da90       ?D3DBL_CopySurfaceToIntArgbImage@@YAJPAUIDirect3DSurface9@@PAUSurfaceDataRasInfo@@JJJJJJ@Z 1009ea90 f   D3DBlitLoops.obj
 0001:0009dca0       ?D3DBL_CopyImageToIntXrgbSurface@@YAJPAUSurfaceDataRasInfo@@HPAVD3DResource@@JJJJJJ@Z 1009eca0 f   D3DBlitLoops.obj
 0001:0009df00       ?D3DBlitSurfaceToSurface@@YAJPAVD3DContext@@PAU_D3DSDOps@@1W4_D3DTEXTUREFILTERTYPE@@JJJJJJJJ@Z 1009ef00 f   D3DBlitLoops.obj
 0001:0009e550       ?D3DBlitToSurfaceViaTexture@@YAJPAVD3DContext@@PAUSurfaceDataRasInfo@@HPAU_D3DSDOps@@EJJJJJNNNN@Z 1009f550 f   D3DBlitLoops.obj
 0001:0009ea20       ?D3DBlitLoops_IsoBlit@@YAJPAUJNIEnv_@@PAVD3DContext@@_J2EJEEJJJJNNNN@Z 1009fa20 f   D3DBlitLoops.obj
 0001:0009ed80       ?D3DBlitLoops_Blit@@YAJPAUJNIEnv_@@PAVD3DContext@@_J2EJJEJJJJNNNN@Z 1009fd80 f   D3DBlitLoops.obj
 0001:0009f0c0       ?D3DBlitLoops_SurfaceToSwBlit@@YAJPAUJNIEnv_@@PAVD3DContext@@_J2JJJJJJJ@Z 100a00c0 f   D3DBlitLoops.obj
 0001:0009f4c0       ?D3DBlitLoops_CopyArea@@YAJPAUJNIEnv_@@PAVD3DContext@@PAU_D3DSDOps@@JJJJJJ@Z 100a04c0 f   D3DBlitLoops.obj
 0001:0009f890       ?D3DBufImgOps_EnableConvolveOp@@YAJPAVD3DContext@@_JEJJPAE@Z 100a0890 f   D3DBufImgOps.obj
 0001:0009fb90       ?D3DBufImgOps_EnableRescaleOp@@YAJPAVD3DContext@@EPAE1@Z 100a0b90 f   D3DBufImgOps.obj
 0001:0009fc00       ?D3DBufImgOps_DisableConvolveOp@@YAJPAVD3DContext@@@Z 100a0c00 f   D3DBufImgOps.obj
 0001:0009fc00       ?D3DBufImgOps_DisableRescaleOp@@YAJPAVD3DContext@@@Z 100a0c00 f   D3DBufImgOps.obj
 0001:0009fc30       ?D3DBufImgOps_EnableLookupOp@@YAJPAVD3DContext@@EEJJJPAX@Z 100a0c30 f   D3DBufImgOps.obj
 0001:0009fe70       ?D3DBufImgOps_DisableLookupOp@@YAJPAVD3DContext@@@Z 100a0e70 f   D3DBufImgOps.obj
 0001:0009feb0       ?D3DUtils_SetOrthoMatrixOffCenterLH@@YAXPAU_D3DMATRIX@@MM@Z 100a0eb0 f   D3DContext.obj
 0001:0009ff00       ?D3DUtils_2DConcatenateM@@YAXPAU_D3DMATRIX@@0@Z 100a0f00 f   D3DContext.obj
 0001:000a0000       ??0D3DContext@@AAE@PAUIDirect3D9@@I@Z 100a1000 f   D3DContext.obj
 0001:000a00d0       ?InitDevice@D3DContext@@AAEJPAUIDirect3DDevice9@@@Z 100a10d0 f   D3DContext.obj
 0001:000a0450       ?Sync@D3DContext@@QAEJXZ   100a1450 f   D3DContext.obj
 0001:000a04c0       ?IsStretchRectFilteringSupported@D3DContext@@QAEHW4_D3DTEXTUREFILTERTYPE@@@Z 100a14c0 f   D3DContext.obj
 0001:000a0500       ?IsTextureFilteringSupported@D3DContext@@QAEHW4_D3DTEXTUREFILTERTYPE@@@Z 100a1500 f   D3DContext.obj
 0001:000a0540       ?IsTextureFormatSupported@D3DContext@@QAEHW4_D3DFORMAT@@K@Z 100a1540 f   D3DContext.obj
 0001:000a0580       ?IsDepthStencilBufferOk@D3DContext@@AAEHPAU_D3DSURFACE_DESC@@@Z 100a1580 f   D3DContext.obj
 0001:000a0650       ?InitDepthStencilBuffer@D3DContext@@AAEJPAU_D3DSURFACE_DESC@@@Z 100a1650 f   D3DContext.obj
 0001:000a0700       ?GetClipType@D3DContext@@QAE?AW4ClipType@@XZ 100a1700 f   D3DContext.obj
 0001:000a0770       ?UploadTileToTexture@D3DContext@@QAEJPAVD3DResource@@PAXJJJJJJJW4TileFormat@@PAJ3@Z 100a1770 f   D3DContext.obj
 0001:000a0bb0       ?InitLCDGlyphCache@D3DContext@@QAEJXZ 100a1bb0 f   D3DContext.obj
 0001:000a0bd0       ?InitGrayscaleGlyphCache@D3DContext@@QAEJXZ 100a1bd0 f   D3DContext.obj
 0001:000a0bf0       ?UpdateTextureColorState@D3DContext@@QAEJKK@Z 100a1bf0 f   D3DContext.obj
 0001:000a0c40       ?FlushVertexQueue@D3DContext@@QAEJXZ 100a1c40 f   D3DContext.obj
 0001:000a0c60       ?EndScene@D3DContext@@QAEJXZ 100a1c60 f   D3DContext.obj
 0001:000a0ca0       ?CreateFragmentProgram@D3DContext@@AAEPAUIDirect3DPixelShader9@@PAPAKPAUShaderList@@J@Z 100a1ca0 f   D3DContext.obj
 0001:000a0d00       ?EnableFragmentProgram@D3DContext@@AAEJPAPAKPAUShaderList@@J@Z 100a1d00 f   D3DContext.obj
 0001:000a0dc0       ?EnableBasicGradientProgram@D3DContext@@QAEJJ@Z 100a1dc0 f   D3DContext.obj
 0001:000a0de0       ?EnableLinearGradientProgram@D3DContext@@QAEJJ@Z 100a1de0 f   D3DContext.obj
 0001:000a0e00       ?EnableRadialGradientProgram@D3DContext@@QAEJJ@Z 100a1e00 f   D3DContext.obj
 0001:000a0e20       ?EnableConvolveProgram@D3DContext@@QAEJJ@Z 100a1e20 f   D3DContext.obj
 0001:000a0e40       ?EnableRescaleProgram@D3DContext@@QAEJJ@Z 100a1e40 f   D3DContext.obj
 0001:000a0e60       ?EnableLookupProgram@D3DContext@@QAEJJ@Z 100a1e60 f   D3DContext.obj
 0001:000a0e80       ?EnableLCDTextProgram@D3DContext@@QAEJXZ 100a1e80 f   D3DContext.obj
 0001:000a0ee0       ?EnableAAParallelogramProgram@D3DContext@@QAEJXZ 100a1ee0 f   D3DContext.obj
 0001:000a0f30       ?DisableAAParallelogramProgram@D3DContext@@QAEJXZ 100a1f30 f   D3DContext.obj
 0001:000a0f50       ?IsAlphaRTSurfaceSupported@D3DContext@@QAEHXZ 100a1f50 f   D3DContext.obj
 0001:000a0f90       ?IsAlphaRTTSupported@D3DContext@@QAEHXZ 100a1f90 f   D3DContext.obj
 0001:000a0fd0       ?IsOpaqueRTTSupported@D3DContext@@QAEHXZ 100a1fd0 f   D3DContext.obj
 0001:000a1010       ?InitContextCaps@D3DContext@@AAEJXZ 100a2010 f   D3DContext.obj
 0001:000a1200       ?ReleaseDefPoolResources@D3DContext@@QAEXXZ 100a2200 f   D3DContext.obj
 0001:000a12f0       ?ReleaseContextResources@D3DContext@@QAEXXZ 100a22f0 f   D3DContext.obj
 0001:000a13f0       ??1D3DContext@@UAE@XZ      100a23f0 f   D3DContext.obj
 0001:000a1420       ?ConfigureContext@D3DContext@@QAEJPAU_D3DPRESENT_PARAMETERS_@@@Z 100a2420 f   D3DContext.obj
 0001:000a16c0       ?InitContext@D3DContext@@QAEJXZ 100a26c0 f   D3DContext.obj
 0001:000a1730       ?SetRenderTarget@D3DContext@@QAEJPAUIDirect3DSurface9@@@Z 100a2730 f   D3DContext.obj
 0001:000a1890       ?ResetTransform@D3DContext@@QAEJXZ 100a2890 f   D3DContext.obj
 0001:000a1940       ?SetTransform@D3DContext@@QAEJNNNNNN@Z 100a2940 f   D3DContext.obj
 0001:000a1a80       ?SetRectClip@D3DContext@@QAEJHHHH@Z 100a2a80 f   D3DContext.obj
 0001:000a1c20       ?ResetClip@D3DContext@@QAEJXZ 100a2c20 f   D3DContext.obj
 0001:000a1c60       ?EndShapeClip@D3DContext@@QAEJXZ 100a2c60 f   D3DContext.obj
 0001:000a1d10       ?SetTexture@D3DContext@@QAEJPAUIDirect3DTexture9@@K@Z 100a2d10 f   D3DContext.obj
 0001:000a1d80       ?UpdateState@D3DContext@@QAEJC@Z 100a2d80 f   D3DContext.obj
 0001:000a1ed0       ?BeginScene@D3DContext@@QAEJC@Z 100a2ed0 f   D3DContext.obj
 0001:000a1f20       ?CreateInstance@D3DContext@@SAJPAUIDirect3D9@@IPAPAV1@@Z 100a2f20 f   D3DContext.obj
 0001:000a1f80       ?ResetContext@D3DContext@@QAEJXZ 100a2f80 f   D3DContext.obj
 0001:000a1ff0       ?SaveState@D3DContext@@QAEJXZ 100a2ff0 f   D3DContext.obj
 0001:000a2060       ?RestoreState@D3DContext@@QAEJXZ 100a3060 f   D3DContext.obj
 0001:000a20d0       ?BeginShapeClip@D3DContext@@QAEJXZ 100a30d0 f   D3DContext.obj
 0001:000a2250       ?ResetComposite@D3DContext@@QAEJXZ 100a3250 f   D3DContext.obj
 0001:000a2290       ?SetAlphaComposite@D3DContext@@QAEJJMJ@Z 100a3290 f   D3DContext.obj
 0001:000a2350       ?CheckAndResetDevice@D3DContext@@QAEJXZ 100a3350 f   D3DContext.obj
 0001:000a2390       ?ReleaseDefPoolResources@D3DGlyphCache@@QAEXXZ 100a3390 f   D3DGlyphCache.obj
 0001:000a23c0       ?AddGlyph@D3DGlyphCache@@QAEJPAUGlyphInfo@@@Z 100a33c0 f   D3DGlyphCache.obj
 0001:000a24a0       ?CheckGlyphCacheByteOrder@D3DGlyphCache@@QAEJE@Z 100a34a0 f   D3DGlyphCache.obj
 0001:000a2500       ??1D3DGlyphCache@@QAE@XZ   100a3500 f   D3DGlyphCache.obj
 0001:000a2550       ?Init@D3DGlyphCache@@QAEJPAVD3DContext@@@Z 100a3550 f   D3DGlyphCache.obj
 0001:000a2610       ?CreateInstance@D3DGlyphCache@@SAJPAVD3DContext@@W4GlyphCacheType@@PAPAV1@@Z 100a3610 f   D3DGlyphCache.obj
 0001:000a26b0       _Java_sun_java2d_d3d_D3DGraphicsDevice_initD3D@8 100a36b0 f   D3DGraphicsDevice.obj
 0001:000a26d0       _Java_sun_java2d_d3d_D3DGraphicsDevice_getDeviceIdNative@12 100a36d0 f   D3DGraphicsDevice.obj
 0001:000a27f0       _Java_sun_java2d_d3d_D3DGraphicsDevice_getDeviceCapsNative@12 100a37f0 f   D3DGraphicsDevice.obj
 0001:000a2860       _Java_sun_java2d_d3d_D3DGraphicsDevice_enterFullScreenExclusiveNative@20 100a3860 f   D3DGraphicsDevice.obj
 0001:000a29b0       _Java_sun_java2d_d3d_D3DGraphicsDevice_exitFullScreenExclusiveNative@12 100a39b0 f   D3DGraphicsDevice.obj
 0001:000a2a90       _Java_sun_java2d_d3d_D3DGraphicsDevice_configDisplayModeNative@36 100a3a90 f   D3DGraphicsDevice.obj
 0001:000a2c90       _Java_sun_java2d_d3d_D3DGraphicsDevice_getCurrentDisplayModeNative@12 100a3c90 f   D3DGraphicsDevice.obj
 0001:000a2d50       _Java_sun_java2d_d3d_D3DGraphicsDevice_enumDisplayModesNative@16 100a3d50 f   D3DGraphicsDevice.obj
 0001:000a2e50       _Java_sun_java2d_d3d_D3DGraphicsDevice_getAvailableAcceleratedMemoryNative@12 100a3e50 f   D3DGraphicsDevice.obj
 0001:000a2eb0       _Java_sun_java2d_d3d_D3DGraphicsDevice_isD3DAvailableOnDeviceNative@12 100a3eb0 f   D3DGraphicsDevice.obj
 0001:000a2f00       ?D3DMaskBlit_MaskBlit@@YAJPAUJNIEnv_@@PAVD3DContext@@JJJJPAX@Z 100a3f00 f   D3DMaskBlit.obj
 0001:000a3090       ??1D3DMaskCache@@QAE@XZ    100a4090 f   D3DMaskCache.obj
 0001:000a30a0       ?Init@D3DMaskCache@@QAEJPAVD3DContext@@@Z 100a40a0 f   D3DMaskCache.obj
 0001:000a30c0       ?Enable@D3DMaskCache@@QAEJXZ 100a40c0 f   D3DMaskCache.obj
 0001:000a3130       ?Disable@D3DMaskCache@@QAEJXZ 100a4130 f   D3DMaskCache.obj
 0001:000a3150       ?AddMaskQuad@D3DMaskCache@@QAEJHHHHHHHPAX@Z 100a4150 f   D3DMaskCache.obj
 0001:000a32f0       ?CreateInstance@D3DMaskCache@@SAJPAVD3DContext@@PAPAV1@@Z 100a42f0 f   D3DMaskCache.obj
 0001:000a3340       ?D3DMaskFill_MaskFill@@YAJPAVD3DContext@@JJJJJJJPAE@Z 100a4340 f   D3DMaskFill.obj
 0001:000a3450       _Java_sun_java2d_d3d_D3DMaskFill_maskFill@40 100a4450 f   D3DMaskFill.obj
 0001:000a34d0       ??_GPreloadAction@AwtToolkit@@UAEPAXI@Z 100a44d0 f i D3DPipelineManager.obj
 0001:000a34d0       ??_EPreloadAction@AwtToolkit@@UAEPAXI@Z 100a44d0 f i D3DPipelineManager.obj
 0001:000a3500       ?GetInstance@D3DPipelineManager@@SAPAV1@XZ 100a4500 f   D3DPipelineManager.obj
 0001:000a3510       ?ReleaseAdapters@D3DPipelineManager@@AAEJXZ 100a4510 f   D3DPipelineManager.obj
 0001:000a3590       ?NotifyAdapterEventListeners@D3DPipelineManager@@SAXIJ@Z 100a4590 f   D3DPipelineManager.obj
 0001:000a3600       ?D3DPPLM_OsVersionMatches@@YAHG@Z 100a4600 f   D3DPipelineManager.obj
 0001:000a3850       ?CheckForBadHardware@D3DPipelineManager@@CAJKK_J@Z 100a4850 f   D3DPipelineManager.obj
 0001:000a3990       ?SelectDeviceType@D3DPipelineManager@@AAE?AW4_D3DDEVTYPE@@XZ 100a4990 f   D3DPipelineManager.obj
 0001:000a3a80       ?CheckDeviceCaps@D3DPipelineManager@@AAEJI@Z 100a4a80 f   D3DPipelineManager.obj
 0001:000a3ca0       ?D3DEnabledOnAdapter@D3DPipelineManager@@AAEJI@Z 100a4ca0 f   D3DPipelineManager.obj
 0001:000a3d10       ?GetAdapterOrdinalByHmon@D3DPipelineManager@@AAEIPAUHMONITOR__@@@Z 100a4d10 f   D3DPipelineManager.obj
 0001:000a3d70       ?GetMatchingDepthStencilFormat@D3DPipelineManager@@QAE?AW4_D3DFORMAT@@IW42@0@Z 100a4d70 f   D3DPipelineManager.obj
 0001:000a3de0       ?CreateDefaultFocusWindow@D3DPipelineManager@@AAEPAUHWND__@@XZ 100a4de0 f   D3DPipelineManager.obj
 0001:000a3f50       ?GetCurrentFocusWindow@D3DPipelineManager@@QAEPAUHWND__@@XZ 100a4f50 f   D3DPipelineManager.obj
 0001:000a3f70       ?SetFSFocusWindow@D3DPipelineManager@@QAEPAUHWND__@@IPAU2@@Z 100a4f70 f   D3DPipelineManager.obj
 0001:000a4020       ?GetD3DContext@D3DPipelineManager@@QAEJIPAPAVD3DContext@@@Z 100a5020 f   D3DPipelineManager.obj
 0001:000a4100       ??0D3DAdapterInitializer@D3DInitializer@@QAE@XZ 100a5100 f i D3DPipelineManager.obj
 0001:000a4140       ??1D3DAdapterInitializer@D3DInitializer@@UAE@XZ 100a5140 f i D3DPipelineManager.obj
 0001:000a4140       ??1PreloadAction@AwtToolkit@@UAE@XZ 100a5140 f i D3DPipelineManager.obj
 0001:000a4160       ?InitImpl@D3DAdapterInitializer@D3DInitializer@@MAEXXZ 100a5160 f   D3DPipelineManager.obj
 0001:000a41b0       ?CleanImpl@D3DAdapterInitializer@D3DInitializer@@MAEX_N@Z 100a51b0 f   D3DPipelineManager.obj
 0001:000a41c0       _preloadD3D                100a51c0 f   D3DPipelineManager.obj
 0001:000a41f0       ??0D3DPipelineManager@@AAE@XZ 100a51f0 f   D3DPipelineManager.obj
 0001:000a4220       ?ReleaseD3D@D3DPipelineManager@@AAEJXZ 100a5220 f   D3DPipelineManager.obj
 0001:000a4260       ?GetAdapterOrdinalForScreen@D3DPipelineManager@@QAEIJ@Z 100a5260 f   D3DPipelineManager.obj
 0001:000a4290       ?HandleLostDevices@D3DPipelineManager@@QAEJXZ 100a5290 f   D3DPipelineManager.obj
 0001:000a4380       ?CheckOSVersion@D3DPipelineManager@@CAJXZ 100a5380 f   D3DPipelineManager.obj
 0001:000a43e0       ?GDICheckForBadHardware@D3DPipelineManager@@CAJXZ 100a53e0 f   D3DPipelineManager.obj
 0001:000a4560       ?CheckAdaptersInfo@D3DPipelineManager@@AAEJXZ 100a5560 f   D3DPipelineManager.obj
 0001:000a4820       ??_GD3DInitializer@@EAEPAXI@Z 100a5820 f i D3DPipelineManager.obj
 0001:000a4820       ??_ED3DInitializer@@EAEPAXI@Z 100a5820 f i D3DPipelineManager.obj
 0001:000a48c0       ??_ED3DAdapterInitializer@D3DInitializer@@UAEPAXI@Z 100a58c0 f i D3DPipelineManager.obj
 0001:000a4930       ??1D3DPipelineManager@@AAE@XZ 100a5930 f   D3DPipelineManager.obj
 0001:000a4970       ?InitAdapters@D3DPipelineManager@@AAEJXZ 100a5970 f   D3DPipelineManager.obj
 0001:000a4a10       ?DeleteInstance@D3DPipelineManager@@CAXXZ 100a5a10 f   D3DPipelineManager.obj
 0001:000a4a70       ?InitD3D@D3DPipelineManager@@AAEJXZ 100a5a70 f   D3DPipelineManager.obj
 0001:000a4b30       ?HandleAdaptersChange@D3DPipelineManager@@SAJPAPAUHMONITOR__@@I@Z 100a5b30 f   D3DPipelineManager.obj
 0001:000a4bf0       ?CleanImpl@D3DInitializer@@MAEX_N@Z 100a5bf0 f   D3DPipelineManager.obj
 0001:000a4c30       ?CreateInstance@D3DPipelineManager@@CAPAV1@XZ 100a5c30 f   D3DPipelineManager.obj
 0001:000a4d00       ?InitImpl@D3DInitializer@@MAEXXZ 100a5d00 f   D3DPipelineManager.obj
 0001:000a4e10       ?D3DPaints_ResetPaint@@YAJPAVD3DContext@@@Z 100a5e10 f   D3DPaints.obj
 0001:000a4f10       ?D3DPaints_SetColor@@YAJPAVD3DContext@@J@Z 100a5f10 f   D3DPaints.obj
 0001:000a4f50       ?D3DPaints_SetGradientPaint@@YAJPAVD3DContext@@EENNNJJ@Z 100a5f50 f   D3DPaints.obj
 0001:000a5190       ?D3DPaints_SetTexturePaint@@YAJPAVD3DContext@@E_JENNNNNN@Z 100a6190 f   D3DPaints.obj
 0001:000a5710       ?D3DPaints_SetLinearGradientPaint@@YAJPAVD3DContext@@PAU_D3DSDOps@@EEJJMMMPAX2@Z 100a6710 f   D3DPaints.obj
 0001:000a5800       ?D3DPaints_SetRadialGradientPaint@@YAJPAVD3DContext@@PAU_D3DSDOps@@EEJJMMMMMMMPAX2@Z 100a6800 f   D3DPaints.obj
 0001:000a5960       ?D3DRenderer_DrawLine@@YAJPAVD3DContext@@JJJJ@Z 100a6960 f   D3DRenderer.obj
 0001:000a5990       ?D3DRenderer_DrawRect@@YAJPAVD3DContext@@JJJJ@Z 100a6990 f   D3DRenderer.obj
 0001:000a59d0       ?D3DRenderer_FillRect@@YAJPAVD3DContext@@JJJJ@Z 100a69d0 f   D3DRenderer.obj
 0001:000a5a10       ?D3DRenderer_DrawPoly@@YAJPAVD3DContext@@JEJJPAJ1@Z 100a6a10 f   D3DRenderer.obj
 0001:000a5a70       ?D3DRenderer_DrawScanlines@@YAJPAVD3DContext@@JPAJ@Z 100a6a70 f   D3DRenderer.obj
 0001:000a5ab0       ?D3DRenderer_FillSpans@@YAJPAVD3DContext@@JPAJ@Z 100a6ab0 f   D3DRenderer.obj
 0001:000a5ae0       ?D3DRenderer_FillParallelogram@@YAJPAVD3DContext@@MMMMMM@Z 100a6ae0 f   D3DRenderer.obj
 0001:000a5b30       ?D3DRenderer_DrawParallelogram@@YAJPAVD3DContext@@MMMMMMMM@Z 100a6b30 f   D3DRenderer.obj
 0001:000a5d80       ?D3DRenderer_FillAAParallelogram@@YAJPAVD3DContext@@MMMMMM@Z 100a6d80 f   D3DRenderer.obj
 0001:000a5de0       ?D3DRenderer_DrawAAParallelogram@@YAJPAVD3DContext@@MMMMMMMM@Z 100a6de0 f   D3DRenderer.obj
 0001:000a5fd0       _Java_sun_java2d_d3d_D3DRenderer_drawPoly@32 100a6fd0 f   D3DRenderer.obj
 0001:000a6080       ?D3DRQ_MarkLostIfNeeded@@YAJJPAU_D3DSDOps@@@Z 100a7080 f   D3DRenderQueue.obj
 0001:000a6100       ?D3DRQ_GetCurrentContext@@YAPAVD3DContext@@XZ 100a7100 f   D3DRenderQueue.obj
 0001:000a6110       ?D3DRQ_GetCurrentDestination@@YAPAU_D3DSDOps@@XZ 100a7110 f   D3DRenderQueue.obj
 0001:000a6120       ?D3DRQ_ResetCurrentContextAndDestination@@YAXXZ 100a7120 f   D3DRenderQueue.obj
 0001:000a6130       ?D3DRQ_SwapBuffers@@YAJPAVD3DPipelineManager@@PAU_D3DSDOps@@HHHH@Z 100a7130 f   D3DRenderQueue.obj
 0001:000a6310       ?D3DRQ_FlushBuffer@@YAXPAX@Z 100a7310 f   D3DRenderQueue.obj
 0001:000a7200       _Java_sun_java2d_d3d_D3DRenderQueue_flushBuffer@24 100a8200 f   D3DRenderQueue.obj
 0001:000a72a0       ??1IManagedResource@@MAE@XZ 100a82a0 f i D3DResourceManager.obj
 0001:000a72b0       ??_EIManagedResource@@MAEPAXI@Z 100a82b0 f i D3DResourceManager.obj
 0001:000a72b0       ??_GIManagedResource@@MAEPAXI@Z 100a82b0 f i D3DResourceManager.obj
 0001:000a72e0       ?Init@D3DResource@@IAEXPAUIDirect3DResource9@@PAUIDirect3DSwapChain9@@@Z 100a82e0 f   D3DResourceManager.obj
 0001:000a73b0       ?SetSDOps@D3DResource@@QAEXPAU_D3DSDOps@@@Z 100a83b0 f   D3DResourceManager.obj
 0001:000a73c0       ?IsDefaultPool@D3DResource@@UAEHXZ 100a83c0 f   D3DResourceManager.obj
 0001:000a73e0       ?Release@D3DResource@@MAEXXZ 100a83e0 f   D3DResourceManager.obj
 0001:000a7450       ?ReleaseAll@D3DResourceManager@@QAEXXZ 100a8450 f   D3DResourceManager.obj
 0001:000a74a0       ?ReleaseDefPoolResources@D3DResourceManager@@QAEXXZ 100a84a0 f   D3DResourceManager.obj
 0001:000a74b0       ?ReleaseResource@D3DResourceManager@@QAEJPAVIManagedResource@@@Z 100a84b0 f   D3DResourceManager.obj
 0001:000a7500       ?AddResource@D3DResourceManager@@QAEJPAVIManagedResource@@@Z 100a8500 f   D3DResourceManager.obj
 0001:000a7530       ??0D3DResource@@QAE@PAUIDirect3DResource9@@@Z 100a8530 f i D3DResourceManager.obj
 0001:000a7590       ??0D3DResource@@QAE@PAUIDirect3DSwapChain9@@@Z 100a8590 f i D3DResourceManager.obj
 0001:000a7630       ?Init@D3DResourceManager@@QAEJPAVD3DContext@@@Z 100a8630 f   D3DResourceManager.obj
 0001:000a7660       ??1D3DResourceManager@@QAE@XZ 100a8660 f   D3DResourceManager.obj
 0001:000a7680       ?CreateTexture@D3DResourceManager@@QAEJIIHHPAW4_D3DFORMAT@@KPAPAVD3DResource@@@Z 100a8680 f   D3DResourceManager.obj
 0001:000a7860       ?CreateRTSurface@D3DResourceManager@@QAEJIIHHPAW4_D3DFORMAT@@PAPAVD3DResource@@@Z 100a8860 f   D3DResourceManager.obj
 0001:000a7990       ?CreateOSPSurface@D3DResourceManager@@AAEJIIW4_D3DFORMAT@@PAPAVD3DResource@@@Z 100a8990 f   D3DResourceManager.obj
 0001:000a7ab0       ?CreateSwapChain@D3DResourceManager@@QAEJPAUHWND__@@IIIW4_D3DSWAPEFFECT@@IPAPAVD3DResource@@@Z 100a8ab0 f   D3DResourceManager.obj
 0001:000a7c70       ?GetBlitOSPSurface@D3DResourceManager@@QAEJIIW4_D3DFORMAT@@PAPAVD3DResource@@@Z 100a8c70 f   D3DResourceManager.obj
 0001:000a7cf0       ?GetLockableRTSurface@D3DResourceManager@@QAEJIIW4_D3DFORMAT@@PAPAVD3DResource@@@Z 100a8cf0 f   D3DResourceManager.obj
 0001:000a7d90       ??_ED3DResource@@MAEPAXI@Z 100a8d90 f i D3DResourceManager.obj
 0001:000a7d90       ??_GD3DResource@@MAEPAXI@Z 100a8d90 f i D3DResourceManager.obj
 0001:000a7e10       ?GetMaskTexture@D3DResourceManager@@QAEJPAPAVD3DResource@@@Z 100a8e10 f   D3DResourceManager.obj
 0001:000a7f10       ?GetBlitTexture@D3DResourceManager@@QAEJPAPAVD3DResource@@@Z 100a8f10 f   D3DResourceManager.obj
 0001:000a7f90       ?GetMultiGradientTexture@D3DResourceManager@@QAEJPAPAVD3DResource@@@Z 100a8f90 f   D3DResourceManager.obj
 0001:000a8000       ?GetLookupOpLutTexture@D3DResourceManager@@QAEJPAPAVD3DResource@@@Z 100a9000 f   D3DResourceManager.obj
 0001:000a8080       ?GetBlitRTTexture@D3DResourceManager@@QAEJIIW4_D3DFORMAT@@PAPAVD3DResource@@@Z 100a9080 f   D3DResourceManager.obj
 0001:000a8190       ?GetCachedDestTexture@D3DResourceManager@@QAEJW4_D3DFORMAT@@PAPAVD3DResource@@@Z 100a9190 f   D3DResourceManager.obj
 0001:000a8260       ?CreateInstance@D3DResourceManager@@SAJPAVD3DContext@@PAPAV1@@Z 100a9260 f   D3DResourceManager.obj
 0001:000a82b0       ?D3DSD_SetNativeDimensions@@YAXPAUJNIEnv_@@PAU_D3DSDOps@@@Z 100a92b0 f   D3DSurfaceData.obj
 0001:000a8320       ?D3DSD_Flush@@YAXPAX@Z     100a9320 f   D3DSurfaceData.obj
 0001:000a8380       ?D3DSD_MarkLost@@YAXPAX@Z  100a9380 f   D3DSurfaceData.obj
 0001:000a83e0       ?D3DSD_Dispose@@YAXPAUJNIEnv_@@PAU_SurfaceDataOps@@@Z 100a93e0 f   D3DSurfaceData.obj
 0001:000a8410       ?D3DSD_Lock@@YAJPAUJNIEnv_@@PAU_SurfaceDataOps@@PAUSurfaceDataRasInfo@@J@Z 100a9410 f   D3DSurfaceData.obj
 0001:000a8430       ?D3DSD_GetRasInfo@@YAXPAUJNIEnv_@@PAU_SurfaceDataOps@@PAUSurfaceDataRasInfo@@@Z 100a9430 f   D3DSurfaceData.obj
 0001:000a8440       ?D3DSD_Unlock@@YAXPAUJNIEnv_@@PAU_SurfaceDataOps@@PAUSurfaceDataRasInfo@@@Z 100a9440 f   D3DSurfaceData.obj
 0001:000a8450       _Java_sun_java2d_d3d_D3DSurfaceData_initOps@20 100a9450 f   D3DSurfaceData.obj
 0001:000a84e0       _Java_sun_java2d_d3d_D3DSurfaceData_initTexture@24 100a94e0 f   D3DSurfaceData.obj
 0001:000a85c0       _Java_sun_java2d_d3d_D3DSurfaceData_initRTSurface@20 100a95c0 f   D3DSurfaceData.obj
 0001:000a8680       _Java_sun_java2d_d3d_D3DSurfaceData_initFlipBackbuffer@36 100a9680 f   D3DSurfaceData.obj
 0001:000a8820       _Java_sun_java2d_d3d_D3DSurfaceData_dbGetPixelNative@24 100a9820 f   D3DSurfaceData.obj
 0001:000a8990       _Java_sun_java2d_d3d_D3DSurfaceData_dbSetPixelNative@28 100a9990 f   D3DSurfaceData.obj
 0001:000a8b00       _Java_sun_java2d_d3d_D3DSurfaceData_getNativeResourceNative@20 100a9b00 f   D3DSurfaceData.obj
 0001:000a8b80       _Java_sun_java2d_d3d_D3DSurfaceData_updateWindowAccelImpl@32 100a9b80 f   D3DSurfaceData.obj
 0001:000a8fa0       ?D3DTR_EnableGlyphVertexCache@@YAJPAVD3DContext@@@Z 100a9fa0 f   D3DTextRenderer.obj
 0001:000a8ff0       ?D3DTR_DisableGlyphVertexCache@@YAJPAVD3DContext@@@Z 100a9ff0 f   D3DTextRenderer.obj
 0001:000a9ba0       ?D3DTR_DrawGlyphList@@YAJPAVD3DContext@@PAU_D3DSDOps@@JEEEJMMPAE2@Z 100aaba0 f   D3DTextRenderer.obj
 0001:000a9ee0       _Java_sun_java2d_d3d_D3DTextRenderer_drawGlyphList@44 100aaee0 f   D3DTextRenderer.obj
 0001:000a9fe0       ??0D3DVertexCacher@@AAE@XZ 100aafe0 f   D3DVertexCacher.obj
 0001:000aa000       ?ReleaseDefPoolResources@D3DVertexCacher@@QAEXXZ 100ab000 f   D3DVertexCacher.obj
 0001:000aa030       ?Render@D3DVertexCacher@@QAEJH@Z 100ab030 f   D3DVertexCacher.obj
 0001:000aa160       ?EnsureCapacity@D3DVertexCacher@@AAEJW4_D3DPRIMITIVETYPE@@I@Z 100ab160 f   D3DVertexCacher.obj
 0001:000aa1e0       ?Init@D3DVertexCacher@@QAEJPAVD3DContext@@@Z 100ab1e0 f   D3DVertexCacher.obj
 0001:000aa340       ?DrawLine@D3DVertexCacher@@QAEJHHHH@Z 100ab340 f   D3DVertexCacher.obj
 0001:000aa600       ?DrawPoly@D3DVertexCacher@@QAEJJEJJPAJ0@Z 100ab600 f   D3DVertexCacher.obj
 0001:000aa900       ?DrawScanlines@D3DVertexCacher@@QAEJJPAJ@Z 100ab900 f   D3DVertexCacher.obj
 0001:000aaa70       ?FillSpans@D3DVertexCacher@@QAEJJPAJ@Z 100aba70 f   D3DVertexCacher.obj
 0001:000aac90       ?FillRect@D3DVertexCacher@@QAEJHHHH@Z 100abc90 f   D3DVertexCacher.obj
 0001:000aaee0       ?FillParallelogram@D3DVertexCacher@@QAEJMMMMMM@Z 100abee0 f   D3DVertexCacher.obj
 0001:000ab190       ?FillParallelogramAA@D3DVertexCacher@@QAEJMMMMMM@Z 100ac190 f   D3DVertexCacher.obj
 0001:000ab770       ?DrawParallelogramAA@D3DVertexCacher@@QAEJMMMMMMMMMMMM@Z 100ac770 f   D3DVertexCacher.obj
 0001:000abe90       ?DrawTexture@D3DVertexCacher@@QAEJMMMMMMMM@Z 100ace90 f   D3DVertexCacher.obj
 0001:000ac110       ?DrawTexture@D3DVertexCacher@@QAEJMMMMMMMMMMMM@Z 100ad110 f   D3DVertexCacher.obj
 0001:000ac430       ?CreateInstance@D3DVertexCacher@@SAJPAVD3DContext@@PAPAV1@@Z 100ad430 f   D3DVertexCacher.obj
 0001:000ac4b0       ?DrawRect@D3DVertexCacher@@QAEJHHHH@Z 100ad4b0 f   D3DVertexCacher.obj
 0001:000ac8f7       _Java_sun_awt_shell_Win32ShellFolder2_initIDs@8 100ad8f7 f   ShellFolder2.obj
 0001:000ac99b       _Java_sun_awt_shell_Win32ShellFolderManager2_initializeCom@8 100ad99b f   ShellFolder2.obj
 0001:000ac9e7       _Java_sun_awt_shell_Win32ShellFolderManager2_uninitializeCom@8 100ad9e7 f   ShellFolder2.obj
 0001:000ac9f0       _Java_sun_awt_shell_Win32ShellFolder2_getIShellIcon@16 100ad9f0 f   ShellFolder2.obj
 0001:000aca18       _Java_sun_awt_shell_Win32ShellFolder2_initDesktop@8 100ada18 f   ShellFolder2.obj
 0001:000aca8d       _Java_sun_awt_shell_Win32ShellFolder2_initSpecial@20 100ada8d f   ShellFolder2.obj
 0001:000acb21       _Java_sun_awt_shell_Win32ShellFolder2_getNextPIDLEntry@16 100adb21 f   ShellFolder2.obj
 0001:000acb47       _Java_sun_awt_shell_Win32ShellFolder2_copyFirstPIDLEntry@16 100adb47 f   ShellFolder2.obj
 0001:000acb90       _Java_sun_awt_shell_Win32ShellFolder2_combinePIDLs@24 100adb90 f   ShellFolder2.obj
 0001:000acc00       _Java_sun_awt_shell_Win32ShellFolder2_releasePIDL@16 100adc00 f   ShellFolder2.obj
 0001:000acc1c       _Java_sun_awt_shell_Win32ShellFolder2_releaseIShellFolder@16 100adc1c f   ShellFolder2.obj
 0001:000acc31       _Java_sun_awt_shell_Win32ShellFolder2_compareIDs@32 100adc31 f   ShellFolder2.obj
 0001:000acc4c       _Java_sun_awt_shell_Win32ShellFolder2_getAttributes0@28 100adc4c f   ShellFolder2.obj
 0001:000acc81       _Java_sun_awt_shell_Win32ShellFolder2_getFileSystemPath0@12 100adc81 f   ShellFolder2.obj
 0001:000acd02       _Java_sun_awt_shell_Win32ShellFolder2_getEnumObjects@24 100add02 f   ShellFolder2.obj
 0001:000acd3b       _Java_sun_awt_shell_Win32ShellFolder2_getNextChild@16 100add3b f   ShellFolder2.obj
 0001:000acd65       _Java_sun_awt_shell_Win32ShellFolder2_releaseEnumObjects@16 100add65 f   ShellFolder2.obj
 0001:000acd76       _Java_sun_awt_shell_Win32ShellFolder2_bindToObject@24 100add76 f   ShellFolder2.obj
 0001:000acdac       _Java_sun_awt_shell_Win32ShellFolder2_getLinkLocation@28 100addac f   ShellFolder2.obj
 0001:000acf3c       _Java_sun_awt_shell_Win32ShellFolder2_parseDisplayName0@20 100adf3c f   ShellFolder2.obj
 0001:000acff4       _Java_sun_awt_shell_Win32ShellFolder2_getDisplayNameOf@28 100adff4 f   ShellFolder2.obj
 0001:000ad058       _Java_sun_awt_shell_Win32ShellFolder2_getFolderType@16 100ae058 f   ShellFolder2.obj
 0001:000ad0c7       _Java_sun_awt_shell_Win32ShellFolder2_getExecutableType@12 100ae0c7 f   ShellFolder2.obj
 0001:000ad152       _Java_sun_awt_shell_Win32ShellFolder2_getIcon@16 100ae152 f   ShellFolder2.obj
 0001:000ad1e1       _Java_sun_awt_shell_Win32ShellFolder2_getIconIndex@24 100ae1e1 f   ShellFolder2.obj
 0001:000ad20e       _Java_sun_awt_shell_Win32ShellFolder2_extractIcon@28 100ae20e f   ShellFolder2.obj
 0001:000ad309       _Java_sun_awt_shell_Win32ShellFolder2_disposeIcon@16 100ae309 f   ShellFolder2.obj
 0001:000ad316       _Java_sun_awt_shell_Win32ShellFolder2_getIconBits@20 100ae316 f   ShellFolder2.obj
 0001:000ad48c       _Java_sun_awt_shell_Win32ShellFolder2_getStandardViewButton0@12 100ae48c f   ShellFolder2.obj
 0001:000ad520       _Java_sun_awt_shell_Win32ShellFolder2_getSystemIcon@12 100ae520 f   ShellFolder2.obj
 0001:000ad532       _Java_sun_awt_shell_Win32ShellFolder2_getIconResource@28 100ae532 f   ShellFolder2.obj
 0001:000ad5d6       _Java_sun_awt_shell_Win32ShellFolder2_doGetColumnInfo@16 100ae5d6 f   ShellFolder2.obj
 0001:000ad784       _Java_sun_awt_shell_Win32ShellFolder2_doGetColumnValue@28 100ae784 f   ShellFolder2.obj
 0001:000ad834       _Java_sun_awt_shell_Win32ShellFolder2_compareIDsByColumn@36 100ae834 f   ShellFolder2.obj
 0001:000ad85a       ?InitThemes@@YAHXZ         100ae85a f   ThemeReader.obj
 0001:000ada6a       _Java_sun_awt_windows_ThemeReader_isThemed@8 100aea6a f   ThemeReader.obj
 0001:000ada8f       _Java_sun_awt_windows_ThemeReader_openTheme@12 100aea8f f   ThemeReader.obj
 0001:000adacd       _Java_sun_awt_windows_ThemeReader_setWindowTheme@12 100aeacd f   ThemeReader.obj
 0001:000adb0f       _Java_sun_awt_windows_ThemeReader_closeTheme@16 100aeb0f f   ThemeReader.obj
 0001:000adcbd       _Java_sun_awt_windows_ThemeReader_paintBackground@48 100aecbd f   ThemeReader.obj
 0001:000ade30       ?newInsets@@YAPAV_jobject@@PAUJNIEnv_@@JJJJ@Z 100aee30 f   ThemeReader.obj
 0001:000adeb0       _Java_sun_awt_windows_ThemeReader_getThemeMargins@28 100aeeb0 f   ThemeReader.obj
 0001:000adf15       _Java_sun_awt_windows_ThemeReader_isThemePartDefined@24 100aef15 f   ThemeReader.obj
 0001:000adf2a       _Java_sun_awt_windows_ThemeReader_getColor@28 100aef2a f   ThemeReader.obj
 0001:000ae00c       _Java_sun_awt_windows_ThemeReader_getInt@28 100af00c f   ThemeReader.obj
 0001:000ae037       _Java_sun_awt_windows_ThemeReader_getEnum@28 100af037 f   ThemeReader.obj
 0001:000ae062       _Java_sun_awt_windows_ThemeReader_getBoolean@28 100af062 f   ThemeReader.obj
 0001:000ae08d       _Java_sun_awt_windows_ThemeReader_getSysBoolean@20 100af08d f   ThemeReader.obj
 0001:000ae0a9       _Java_sun_awt_windows_ThemeReader_getPoint@28 100af0a9 f   ThemeReader.obj
 0001:000ae173       _Java_sun_awt_windows_ThemeReader_getPosition@28 100af173 f   ThemeReader.obj
 0001:000ae23d       _Java_sun_awt_windows_ThemeReader_getPartSize@24 100af23d f   ThemeReader.obj
 0001:000ae30c       _Java_sun_awt_windows_ThemeReader_getThemeBackgroundContentMargins@32 100af30c f   ThemeReader.obj
 0001:000ae388       _Java_sun_awt_windows_ThemeReader_getThemeTransitionDuration@32 100af388 f   ThemeReader.obj
 0001:000ae3c8       _Java_sun_awt_windows_ThemeReader_isGetThemeTransitionDurationDefined@8 100af3c8 f   ThemeReader.obj
 0001:000ae3d6       ??0ComCtl32Util@@AAE@XZ    100af3d6 f   ComCtl32Util.obj
 0001:000ae3dc       ?InitLibraries@ComCtl32Util@@QAEXXZ 100af3dc f   ComCtl32Util.obj
 0001:000ae40d       ?DefWindowProcW@ComCtl32Util@@QAEJP6GJPAUHWND__@@IIJ@Z0IIJ@Z 100af40d f   ComCtl32Util.obj
 0001:000ae464       ?SharedWindowProc@ComCtl32Util@@CGJPAUHWND__@@IIJIK@Z 100af464 f   ComCtl32Util.obj
 0001:000ae4b0       ?SubclassHWND@ComCtl32Util@@QAEP6GJPAUHWND__@@IIJ@Z0P6GJ0IIJ@Z@Z 100af4b0 f   ComCtl32Util.obj
 0001:000ae4f8       ?UnsubclassHWND@ComCtl32Util@@QAEXPAUHWND__@@P6GJ0IIJ@Z1@Z 100af4f8 f   ComCtl32Util.obj
 0001:000ae53c       ??1DllUtil@@MAE@XZ         100af53c f   DllUtil.obj
 0001:000ae559       ?GetModule@DllUtil@@IAEPAUHINSTANCE__@@XZ 100af559 f   DllUtil.obj
 0001:000ae573       ?GetProcAddress@DllUtil@@QAEP6GHXZPBD@Z 100af573 f   DllUtil.obj
 0001:000ae5ad       ??R?$Function@P6GJPAH@Z@DllUtil@@QAEP6GJPAH@ZXZ 100af5ad f i DllUtil.obj
 0001:000ae5ad       ??R?$Function@P6GJPAUHWND__@@KPAXK@Z@DllUtil@@QAEP6GJPAUHWND__@@KPAXK@ZXZ 100af5ad f i DllUtil.obj
 0001:000ae5c8       ??0DwmAPI@@AAE@XZ          100af5c8 f   DllUtil.obj
 0001:000ae5f7       ??_EDllUtil@@MAEPAXI@Z     100af5f7 f i DllUtil.obj
 0001:000ae5f7       ??_GDllUtil@@MAEPAXI@Z     100af5f7 f i DllUtil.obj
 0001:000ae5f7       ??_EDwmAPI@@UAEPAXI@Z      100af5f7 f i DllUtil.obj
 0001:000ae5f7       ??_GDwmAPI@@UAEPAXI@Z      100af5f7 f i DllUtil.obj
 0001:000ae613       ?GetInstance@DwmAPI@@CAAAV1@XZ 100af613 f   DllUtil.obj
 0001:000ae63f       ?DwmIsCompositionEnabled@DwmAPI@@SAJPAH@Z 100af63f f   DllUtil.obj
 0001:000ae67d       ?DwmGetWindowAttribute@DwmAPI@@SAJPAUHWND__@@KPAXK@Z 100af67d f   DllUtil.obj
 0001:000ae6c4       _Java_java_awt_FileDialog_initIDs@8 100af6c4 f   initIDs.obj
 0001:000ae6c4       _Java_java_awt_TextField_initIDs@8 100af6c4 f   initIDs.obj
 0001:000ae6c4       _Java_java_awt_Button_initIDs@8 100af6c4 f   initIDs.obj
 0001:000ae6c4       _Java_java_awt_KeyboardFocusManager_initIDs@8 100af6c4 f   awt_KeyboardFocusManager.obj
 0001:000ae6c7       _Java_sun_awt_DefaultMouseInfoPeer_isWindowUnderMouse@12 100af6c7 f   MouseInfo.obj
 0001:000ae76f       _Java_sun_awt_DefaultMouseInfoPeer_fillPointWithCoords@12 100af76f f   MouseInfo.obj
 0001:000ae81c       _JNU_ThrowInternalError@8  100af81c f   java:java.dll
 0001:000ae822       _JNU_ThrowOutOfMemoryError@8 100af822 f   java:java.dll
 0001:000ae828       _JNU_ThrowNullPointerException@8 100af828 f   java:java.dll
 0001:000ae82e       _JNU_ThrowArrayIndexOutOfBoundsException@8 100af82e f   java:java.dll
 0001:000ae834       _JNU_CallMethodByName      100af834 f   java:java.dll
 0001:000ae83a       _JNU_ThrowNoSuchMethodError@8 100af83a f   java:java.dll
 0001:000ae840       _JNU_GetStaticFieldByName@20 100af840 f   java:java.dll
 0001:000ae846       _JNU_NewStringPlatform@8   100af846 f   java:java.dll
 0001:000ae84c       _jio_snprintf              100af84c f   java:java.dll
 0001:000ae852       _JDK_LoadSystemLibrary     100af852 f   java:java.dll
 0001:000ae858       _JNU_SetFieldByName        100af858 f   java:java.dll
 0001:000ae85e       _JNU_CallStaticMethodByName 100af85e f   java:java.dll
 0001:000ae864       _JNU_GetEnv@8              100af864 f   java:java.dll
 0001:000ae86a       _JNU_ThrowByName@12        100af86a f   java:java.dll
 0001:000ae870       _JNU_ThrowIOException@8    100af870 f   java:java.dll
 0001:000ae876       _JNU_NewObjectByName       100af876 f   java:java.dll
 0001:000ae87c       _JNU_ClassString@4         100af87c f   java:java.dll
 0001:000ae882       _getEncodingFromLangID     100af882 f   java:java.dll
 0001:000ae888       _getJavaIDFromLangID       100af888 f   java:java.dll
 0001:000ae88e       _JNU_CallMethodByNameV@24  100af88e f   java:java.dll
 0001:000ae894       _JNU_ThrowIllegalArgumentException@8 100af894 f   java:java.dll
 0001:000ae89a       _JNU_IsInstanceOfByName@12 100af89a f   java:java.dll
 0001:000ae8a0       _JNU_GetFieldByName@20     100af8a0 f   java:java.dll
 0001:000ae8a6       __imp_load__CreateWindowExW@48 100af8a6     user32:USER32.dll
 0001:000ae8b0       __tailMerge_USER32_dll     100af8b0     user32:USER32.dll
 0001:000ae8c1       __imp_load__RegisterClassW@4 100af8c1     user32:USER32.dll
 0001:000ae8cb       __imp_load__DefWindowProcW@16 100af8cb     user32:USER32.dll
 0001:000ae8d5       __imp_load__ReleaseDC@8    100af8d5     user32:USER32.dll
 0001:000ae8df       __imp_load__DestroyWindow@4 100af8df     user32:USER32.dll
 0001:000ae8e9       __imp_load__GetDC@4        100af8e9     user32:USER32.dll
 0001:000ae8f3       __imp_load__GetWindowRect@8 100af8f3     user32:USER32.dll
 0001:000ae8fd       __imp_load__IsWindow@4     100af8fd     user32:USER32.dll
 0001:000ae907       __imp_load__EnumDisplayMonitors@16 100af907     user32:USER32.dll
 0001:000ae911       __imp_load__GetMonitorInfoW@8 100af911     user32:USER32.dll
 0001:000ae91b       __imp_load__PostMessageW@16 100af91b     user32:USER32.dll
 0001:000ae925       __imp_load__IsWindowVisible@4 100af925     user32:USER32.dll
 0001:000ae92f       __imp_load__InvalidateRgn@12 100af92f     user32:USER32.dll
 0001:000ae939       __imp_load__OffsetRect@12  100af939     user32:USER32.dll
 0001:000ae943       __imp_load__ScrollDC@28    100af943     user32:USER32.dll
 0001:000ae94d       __imp_load__SetRect@20     100af94d     user32:USER32.dll
 0001:000ae957       __imp_load__GetClientRect@8 100af957     user32:USER32.dll
 0001:000ae961       __imp_load__GetDesktopWindow@0 100af961     user32:USER32.dll
 0001:000ae96b       __imp_load__SetWindowTextW@8 100af96b     user32:USER32.dll
 0001:000ae975       __imp_load__SendMessageW@16 100af975     user32:USER32.dll
 0001:000ae97f       __imp_load__GetPropW@8     100af97f     user32:USER32.dll
 0001:000ae989       __imp_load__SetRectEmpty@4 100af989     user32:USER32.dll
 0001:000ae993       __imp_load__GetWindowLongW@8 100af993     user32:USER32.dll
 0001:000ae99d       __imp_load__SetWindowLongW@12 100af99d     user32:USER32.dll
 0001:000ae9a7       __imp_load__GetSysColor@4  100af9a7     user32:USER32.dll
 0001:000ae9b1       __imp_load__DrawFocusRect@8 100af9b1     user32:USER32.dll
 0001:000ae9bb       __imp_load__InflateRect@12 100af9bb     user32:USER32.dll
 0001:000ae9c5       __imp_load__CopyRect@8     100af9c5     user32:USER32.dll
 0001:000ae9cf       __imp_load__DrawEdge@16    100af9cf     user32:USER32.dll
 0001:000ae9d9       __imp_load__FillRect@12    100af9d9     user32:USER32.dll
 0001:000ae9e3       __imp_load__PtInRect@12    100af9e3     user32:USER32.dll
 0001:000ae9ed       __imp_load__DrawFrameControl@16 100af9ed     user32:USER32.dll
 0001:000ae9f7       __imp_load__UpdateWindow@4 100af9f7     user32:USER32.dll
 0001:000aea01       __imp_load__InvalidateRect@12 100afa01     user32:USER32.dll
 0001:000aea0b       __imp_load__ScreenToClient@8 100afa0b     user32:USER32.dll
 0001:000aea15       __imp_load__GetSystemMetrics@4 100afa15     user32:USER32.dll
 0001:000aea1f       __imp_load__SetWindowPos@28 100afa1f     user32:USER32.dll
 0001:000aea29       __imp_load__SetCapture@4   100afa29     user32:USER32.dll
 0001:000aea33       __imp_load__ReleaseCapture@0 100afa33     user32:USER32.dll
 0001:000aea3d       __imp_load__GetCapture@0   100afa3d     user32:USER32.dll
 0001:000aea47       __imp_load__GetMessagePos@0 100afa47     user32:USER32.dll
 0001:000aea51       __imp_load__GetComboBoxInfo@8 100afa51     user32:USER32.dll
 0001:000aea5b       __imp_load__EmptyClipboard@0 100afa5b     user32:USER32.dll
 0001:000aea65       __imp_load__SetClipboardViewer@4 100afa65     user32:USER32.dll
 0001:000aea6f       __imp_load__ChangeClipboardChain@8 100afa6f     user32:USER32.dll
 0001:000aea79       __imp_load__OpenClipboard@4 100afa79     user32:USER32.dll
 0001:000aea83       __imp_load__CloseClipboard@0 100afa83     user32:USER32.dll
 0001:000aea8d       __imp_load__GetOpenClipboardWindow@0 100afa8d     user32:USER32.dll
 0001:000aea97       __imp_load__SetClipboardData@8 100afa97     user32:USER32.dll
 0001:000aeaa1       __imp_load__EnumClipboardFormats@4 100afaa1     user32:USER32.dll
 0001:000aeaab       __imp_load__CountClipboardFormats@0 100afaab     user32:USER32.dll
 0001:000aeab5       __imp_load__GetClipboardData@4 100afab5     user32:USER32.dll
 0001:000aeabf       __imp_load__RegisterClassExW@4 100afabf     user32:USER32.dll
 0001:000aeac9       __imp_load__GetClassInfoExW@12 100afac9     user32:USER32.dll
 0001:000aead3       __imp_load__UnregisterClassW@8 100afad3     user32:USER32.dll
 0001:000aeadd       __imp_load__ShowWindow@8   100afadd     user32:USER32.dll
 0001:000aeae7       __imp_load__SetWindowPlacement@8 100afae7     user32:USER32.dll
 0001:000aeaf1       __imp_load__GetWindowPlacement@8 100afaf1     user32:USER32.dll
 0001:000aeafb       __imp_load__GetMessageTime@0 100afafb     user32:USER32.dll
 0001:000aeb05       __imp_load__GetUpdateRect@12 100afb05     user32:USER32.dll
 0001:000aeb0f       __imp_load__UnionRect@12   100afb0f     user32:USER32.dll
 0001:000aeb19       __imp_load__ValidateRgn@8  100afb19     user32:USER32.dll
 0001:000aeb23       __imp_load__GetUpdateRgn@12 100afb23     user32:USER32.dll
 0001:000aeb2d       __imp_load__SetPropW@12    100afb2d     user32:USER32.dll
 0001:000aeb37       __imp_load__MapVirtualKeyW@8 100afb37     user32:USER32.dll
 0001:000aeb41       __imp_load__GetKeyState@4  100afb41     user32:USER32.dll
 0001:000aeb4b       __imp_load__ToAsciiEx@24   100afb4b     user32:USER32.dll
 0001:000aeb55       __imp_load__MapVirtualKeyExW@12 100afb55     user32:USER32.dll
 0001:000aeb5f       __imp_load__GetKeyboardType@4 100afb5f     user32:USER32.dll
 0001:000aeb69       __imp_load__GetKeyboardLayout@4 100afb69     user32:USER32.dll
 0001:000aeb73       __imp_load__ToUnicodeEx@28 100afb73     user32:USER32.dll
 0001:000aeb7d       __imp_load__BeginDeferWindowPos@4 100afb7d     user32:USER32.dll
 0001:000aeb87       __imp_load__EndDeferWindowPos@4 100afb87     user32:USER32.dll
 0001:000aeb91       __imp_load__EnableWindow@8 100afb91     user32:USER32.dll
 0001:000aeb9b       __imp_load__SetParent@8    100afb9b     user32:USER32.dll
 0001:000aeba5       __imp_load__SetWindowRgn@12 100afba5     user32:USER32.dll
 0001:000aebaf       __imp_load__GetWindowThreadProcessId@8 100afbaf     user32:USER32.dll
 0001:000aebb9       __imp_load__GetParent@4    100afbb9     user32:USER32.dll
 0001:000aebc3       __imp_load__WindowFromPoint@8 100afbc3     user32:USER32.dll
 0001:000aebcd       __imp_load__GetCursorPos@4 100afbcd     user32:USER32.dll
 0001:000aebd7       __imp_load__DeferWindowPos@32 100afbd7     user32:USER32.dll
 0001:000aebe1       __imp_load__SystemParametersInfoW@16 100afbe1     user32:USER32.dll
 0001:000aebeb       __imp_load__VkKeyScanW@4   100afbeb     user32:USER32.dll
 0001:000aebf5       __imp_load__GetDlgItem@8   100afbf5     user32:USER32.dll
 0001:000aebff       __imp_load__RemovePropW@8  100afbff     user32:USER32.dll
 0001:000aec09       __imp_load__GetActiveWindow@0 100afc09     user32:USER32.dll
 0001:000aec13       __imp_load__SetScrollInfo@16 100afc13     user32:USER32.dll
 0001:000aec1d       __imp_load__ShowCursor@4   100afc1d     user32:USER32.dll
 0001:000aec27       __imp_load__GetDCEx@12     100afc27     user32:USER32.dll
 0001:000aec31       __imp_load__RegisterWindowMessageW@4 100afc31     user32:USER32.dll
 0001:000aec3b       __imp_load__GetDoubleClickTime@0 100afc3b     user32:USER32.dll
 0001:000aec45       __imp_load__DestroyIcon@4  100afc45     user32:USER32.dll
 0001:000aec4f       __imp_load__LoadCursorW@8  100afc4f     user32:USER32.dll
 0001:000aec59       __imp_load__CreateIconIndirect@4 100afc59     user32:USER32.dll
 0001:000aec63       __imp_load__SetCursor@4    100afc63     user32:USER32.dll
 0001:000aec6d       __imp_load__GetQueueStatus@4 100afc6d     user32:USER32.dll
 0001:000aec77       __imp_load__WaitMessage@0  100afc77     user32:USER32.dll
 0001:000aec81       __imp_load__PeekMessageW@20 100afc81     user32:USER32.dll
 0001:000aec8b       __imp_load__RegisterClipboardFormatW@4 100afc8b     user32:USER32.dll
 0001:000aec95       __imp_load__GetClipboardFormatNameW@12 100afc95     user32:USER32.dll
 0001:000aec9f       __imp_load__IsWindowEnabled@4 100afc9f     user32:USER32.dll
 0001:000aeca9       __imp_load__MessageBeep@4  100afca9     user32:USER32.dll
 0001:000aecb3       __imp_load__RedrawWindow@16 100afcb3     user32:USER32.dll
 0001:000aecbd       __imp_load__MapWindowPoints@16 100afcbd     user32:USER32.dll
 0001:000aecc7       __imp_load__GetWindow@8    100afcc7     user32:USER32.dll
 0001:000aecd1       __imp_load__UnhookWindowsHookEx@4 100afcd1     user32:USER32.dll
 0001:000aecdb       __imp_load__SetForegroundWindow@4 100afcdb     user32:USER32.dll
 0001:000aece5       __imp_load__BringWindowToTop@4 100afce5     user32:USER32.dll
 0001:000aecef       __imp_load__GetForegroundWindow@0 100afcef     user32:USER32.dll
 0001:000aecf9       __imp_load__AppendMenuW@16 100afcf9     user32:USER32.dll
 0001:000aed03       __imp_load__GetMenuItemCount@4 100afd03     user32:USER32.dll
 0001:000aed0d       __imp_load__DeleteMenu@12  100afd0d     user32:USER32.dll
 0001:000aed17       __imp_load__GetMenuItemInfoW@16 100afd17     user32:USER32.dll
 0001:000aed21       __imp_load__GetSystemMenu@8 100afd21     user32:USER32.dll
 0001:000aed2b       __imp_load__CallNextHookEx@16 100afd2b     user32:USER32.dll
 0001:000aed35       __imp_load__IsIconic@4     100afd35     user32:USER32.dll
 0001:000aed3f       __imp_load__SetWindowsHookExW@16 100afd3f     user32:USER32.dll
 0001:000aed49       __imp_load__SetClassLongW@12 100afd49     user32:USER32.dll
 0001:000aed53       __imp_load__GetClassLongW@8 100afd53     user32:USER32.dll
 0001:000aed5d       __imp_load__GetWindowDC@4  100afd5d     user32:USER32.dll
 0001:000aed67       __imp_load__wsprintfW      100afd67     user32:USER32.dll
 0001:000aed71       __imp_load__GetAncestor@8  100afd71     user32:USER32.dll
 0001:000aed7b       __imp_load__DrawMenuBar@4  100afd7b     user32:USER32.dll
 0001:000aed85       __imp_load__IsZoomed@4     100afd85     user32:USER32.dll
 0001:000aed8f       __imp_load__SetMenu@8      100afd8f     user32:USER32.dll
 0001:000aed99       __imp_load__GetMenu@4      100afd99     user32:USER32.dll
 0001:000aeda3       __imp_load__ClientToScreen@8 100afda3     user32:USER32.dll
 0001:000aedad       __imp_load__GetKeyboardLayoutList@8 100afdad     user32:USER32.dll
 0001:000aedb7       __imp_load__EndPaint@8     100afdb7     user32:USER32.dll
 0001:000aedc1       __imp_load__BeginPaint@8   100afdc1     user32:USER32.dll
 0001:000aedcb       __imp_load__DestroyMenu@4  100afdcb     user32:USER32.dll
 0001:000aedd5       __imp_load__CreateMenu@0   100afdd5     user32:USER32.dll
 0001:000aeddf       __imp_load__SetMenuItemInfoW@16 100afddf     user32:USER32.dll
 0001:000aede9       __imp_load__RemoveMenu@12  100afde9     user32:USER32.dll
 0001:000aedf3       __imp_load__LoadBitmapW@8  100afdf3     user32:USER32.dll
 0001:000aedfd       __imp_load__GetMenuState@12 100afdfd     user32:USER32.dll
 0001:000aee07       __imp_load__InsertMenuItemW@16 100afe07     user32:USER32.dll
 0001:000aee11       __imp_load__EnableMenuItem@12 100afe11     user32:USER32.dll
 0001:000aee1b       __imp_load__CheckMenuItem@12 100afe1b     user32:USER32.dll
 0001:000aee25       __imp_load__CreatePopupMenu@0 100afe25     user32:USER32.dll
 0001:000aee2f       __imp_load__TrackPopupMenu@28 100afe2f     user32:USER32.dll
 0001:000aee39       __imp_load__SetFocus@4     100afe39     user32:USER32.dll
 0001:000aee43       __imp_load__mouse_event@20 100afe43     user32:USER32.dll
 0001:000aee4d       __imp_load__SendInput@12   100afe4d     user32:USER32.dll
 0001:000aee57       __imp_load__keybd_event@16 100afe57     user32:USER32.dll
 0001:000aee61       __imp_load__GetScrollInfo@12 100afe61     user32:USER32.dll
 0001:000aee6b       __imp_load__GetWindowTextLengthW@4 100afe6b     user32:USER32.dll
 0001:000aee75       __imp_load__GetWindowTextW@12 100afe75     user32:USER32.dll
 0001:000aee7f       __imp_load__CallWindowProcW@20 100afe7f     user32:USER32.dll
 0001:000aee89       __imp_load__IsClipboardFormatAvailable@4 100afe89     user32:USER32.dll
 0001:000aee93       __imp_load__GetCaretPos@4  100afe93     user32:USER32.dll
 0001:000aee9d       __imp_load__LoadKeyboardLayoutW@8 100afe9d     user32:USER32.dll
 0001:000aeea7       __imp_load__ActivateKeyboardLayout@8 100afea7     user32:USER32.dll
 0001:000aeeb1       __imp_load__PostQuitMessage@4 100afeb1     user32:USER32.dll
 0001:000aeebb       __imp_load__DispatchMessageW@4 100afebb     user32:USER32.dll
 0001:000aeec5       __imp_load__TranslateMessage@4 100afec5     user32:USER32.dll
 0001:000aeecf       __imp_load__SetTimer@16    100afecf     user32:USER32.dll
 0001:000aeed9       __imp_load__GetKeyboardState@4 100afed9     user32:USER32.dll
 0001:000aeee3       __imp_load__LoadIconW@8    100afee3     user32:USER32.dll
 0001:000aeeed       __imp_load__LoadImageW@24  100afeed     user32:USER32.dll
 0001:000aeef7       __imp_load__EnumThreadWindows@12 100afef7     user32:USER32.dll
 0001:000aef01       __imp_load__GetMessageW@16 100aff01     user32:USER32.dll
 0001:000aef0b       __imp_load__ToAscii@20     100aff0b     user32:USER32.dll
 0001:000aef15       __imp_load__KillTimer@8    100aff15     user32:USER32.dll
 0001:000aef1f       __imp_load__MessageBoxW@16 100aff1f     user32:USER32.dll
 0001:000aef29       __imp_load__DrawIconEx@36  100aff29     user32:USER32.dll
 0001:000aef33       __imp_load__SetLayeredWindowAttributes@16 100aff33     user32:USER32.dll
 0001:000aef3d       __imp_load__EqualRect@8    100aff3d     user32:USER32.dll
 0001:000aef47       __imp_load__GetFocus@0     100aff47     user32:USER32.dll
 0001:000aef51       __imp_load__EnumChildWindows@12 100aff51     user32:USER32.dll
 0001:000aef5b       __imp_load__MonitorFromWindow@8 100aff5b     user32:USER32.dll
 0001:000aef65       __imp_load__FlashWindowEx@4 100aff65     user32:USER32.dll
 0001:000aef6f       __imp_load__UpdateLayeredWindow@36 100aff6f     user32:USER32.dll
 0001:000aef79       __imp_load__RealGetWindowClassW@12 100aff79     user32:USER32.dll
 0001:000aef83       __imp_load__GetClassInfoW@12 100aff83     user32:USER32.dll
 0001:000aef8d       __imp_load__AnimateWindow@12 100aff8d     user32:USER32.dll
 0001:000aef97       __imp_load__GetIconInfo@8  100aff97     user32:USER32.dll
 0001:000aefa1       __imp_load__EnumDisplayDevicesW@16 100affa1     user32:USER32.dll
 0001:000aefab       __imp_load__EnumDisplaySettingsW@12 100affab     user32:USER32.dll
 0001:000aefb5       __imp_load__ChangeDisplaySettingsExW@20 100affb5     user32:USER32.dll
 0001:000aefbf       __imp_load__ChangeDisplaySettingsW@8 100affbf     user32:USER32.dll
 0001:000aefc9       __imp_load__GetCursor@0    100affc9     user32:USER32.dll
 0001:000aefd3       __imp_load__SetPixelFormat@12 100affd3     gdi32:GDI32.dll
 0001:000aefdd       __tailMerge_GDI32_dll      100affdd     gdi32:GDI32.dll
 0001:000aefee       __imp_load__ChoosePixelFormat@8 100affee     gdi32:GDI32.dll
 0001:000aeff8       __imp_load__SwapBuffers@4  100afff8     gdi32:GDI32.dll
 0001:000af002       __imp_load__SetDIBitsToDevice@48 100b0002     gdi32:GDI32.dll
 0001:000af00c       __imp_load__PatBlt@24      100b000c     gdi32:GDI32.dll
 0001:000af016       __imp_load__LineTo@12      100b0016     gdi32:GDI32.dll
 0001:000af020       __imp_load__MoveToEx@16    100b0020     gdi32:GDI32.dll
 0001:000af02a       __imp_load__RoundRect@28   100b002a     gdi32:GDI32.dll
 0001:000af034       __imp_load__Ellipse@20     100b0034     gdi32:GDI32.dll
 0001:000af03e       __imp_load__Arc@36         100b003e     gdi32:GDI32.dll
 0001:000af048       __imp_load__Polyline@12    100b0048     gdi32:GDI32.dll
 0001:000af052       __imp_load__Pie@36         100b0052     gdi32:GDI32.dll
 0001:000af05c       __imp_load__Polygon@12     100b005c     gdi32:GDI32.dll
 0001:000af066       __imp_load__SetPolyFillMode@8 100b0066     gdi32:GDI32.dll
 0001:000af070       __imp_load__AbortPath@4    100b0070     gdi32:GDI32.dll
 0001:000af07a       __imp_load__StrokePath@4   100b007a     gdi32:GDI32.dll
 0001:000af084       __imp_load__FillPath@4     100b0084     gdi32:GDI32.dll
 0001:000af08e       __imp_load__EndPath@4      100b008e     gdi32:GDI32.dll
 0001:000af098       __imp_load__CloseFigure@4  100b0098     gdi32:GDI32.dll
 0001:000af0a2       __imp_load__PolyBezierTo@12 100b00a2     gdi32:GDI32.dll
 0001:000af0ac       __imp_load__BeginPath@4    100b00ac     gdi32:GDI32.dll
 0001:000af0b6       __imp_load__DeleteObject@4 100b00b6     gdi32:GDI32.dll
 0001:000af0c0       __imp_load__CombineRgn@16  100b00c0     gdi32:GDI32.dll
 0001:000af0ca       __imp_load__CreateRectRgnIndirect@4 100b00ca     gdi32:GDI32.dll
 0001:000af0d4       __imp_load__CreateRectRgn@16 100b00d4     gdi32:GDI32.dll
 0001:000af0de       __imp_load__GetStockObject@4 100b00de     gdi32:GDI32.dll
 0001:000af0e8       __imp_load__GdiFlush@0     100b00e8     gdi32:GDI32.dll
 0001:000af0f2       __imp_load__BitBlt@36      100b00f2     gdi32:GDI32.dll
 0001:000af0fc       __imp_load__CreateCompatibleDC@4 100b00fc     gdi32:GDI32.dll
 0001:000af106       __imp_load__CreateDIBSection@24 100b0106     gdi32:GDI32.dll
 0001:000af110       __imp_load__DeleteDC@4     100b0110     gdi32:GDI32.dll
 0001:000af11a       __imp_load__SelectObject@8 100b011a     gdi32:GDI32.dll
 0001:000af124       __imp_load__SetROP2@8      100b0124     gdi32:GDI32.dll
 0001:000af12e       __imp_load__ExtCreateRegion@12 100b012e     gdi32:GDI32.dll
 0001:000af138       __imp_load__SelectClipRgn@8 100b0138     gdi32:GDI32.dll
 0001:000af142       __imp_load__OffsetViewportOrgEx@16 100b0142     gdi32:GDI32.dll
 0001:000af14c       __imp_load__GdiSetBatchLimit@4 100b014c     gdi32:GDI32.dll
 0001:000af156       __imp_load__GetDeviceCaps@8 100b0156     gdi32:GDI32.dll
 0001:000af160       __imp_load__ResetDCW@8     100b0160     gdi32:GDI32.dll
 0001:000af16a       __imp_load__CreateDCW@16   100b016a     gdi32:GDI32.dll
 0001:000af174       __imp_load__ExtEscape@24   100b0174     gdi32:GDI32.dll
 0001:000af17e       __imp_load__CreateBitmap@20 100b017e     gdi32:GDI32.dll
 0001:000af188       __imp_load__CreateDIBitmap@24 100b0188     gdi32:GDI32.dll
 0001:000af192       __imp_load__GetDIBits@28   100b0192     gdi32:GDI32.dll
 0001:000af19c       __imp_load__CreateSolidBrush@4 100b019c     gdi32:GDI32.dll
 0001:000af1a6       __imp_load__GetClipBox@8   100b01a6     gdi32:GDI32.dll
 0001:000af1b0       __imp_load__GetTextMetricsW@8 100b01b0     gdi32:GDI32.dll
 0001:000af1ba       __imp_load__DeleteMetaFile@4 100b01ba     gdi32:GDI32.dll
 0001:000af1c4       __imp_load__SetMetaFileBitsEx@8 100b01c4     gdi32:GDI32.dll
 0001:000af1ce       __imp_load__SetEnhMetaFileBits@8 100b01ce     gdi32:GDI32.dll
 0001:000af1d8       __imp_load__GetEnhMetaFileBits@12 100b01d8     gdi32:GDI32.dll
 0001:000af1e2       __imp_load__SetWinMetaFileBits@16 100b01e2     gdi32:GDI32.dll
 0001:000af1ec       __imp_load__GetMetaFileBitsEx@12 100b01ec     gdi32:GDI32.dll
 0001:000af1f6       __imp_load__GetRegionData@12 100b01f6     gdi32:GDI32.dll
 0001:000af200       __imp_load__OffsetRgn@12   100b0200     gdi32:GDI32.dll
 0001:000af20a       __imp_load__SetBkMode@8    100b020a     gdi32:GDI32.dll
 0001:000af214       __imp_load__SetTextColor@8 100b0214     gdi32:GDI32.dll
 0001:000af21e       __imp_load__OffsetWindowOrgEx@16 100b021e     gdi32:GDI32.dll
 0001:000af228       __imp_load__RestoreDC@8    100b0228     gdi32:GDI32.dll
 0001:000af232       __imp_load__SaveDC@4       100b0232     gdi32:GDI32.dll
 0001:000af23c       __imp_load__SetWindowOrgEx@16 100b023c     gdi32:GDI32.dll
 0001:000af246       __imp_load__SetBkColor@8   100b0246     gdi32:GDI32.dll
 0001:000af250       __imp_load__GetPaletteEntries@16 100b0250     gdi32:GDI32.dll
 0001:000af25a       __imp_load__GetEnhMetaFilePaletteEntries@12 100b025a     gdi32:GDI32.dll
 0001:000af264       __imp_load__GetObjectType@4 100b0264     gdi32:GDI32.dll
 0001:000af26e       __imp_load__StretchDIBits@52 100b026e     gdi32:GDI32.dll
 0001:000af278       __imp_load__DeleteEnhMetaFile@4 100b0278     gdi32:GDI32.dll
 0001:000af282       __imp_load__PlayEnhMetaFile@12 100b0282     gdi32:GDI32.dll
 0001:000af28c       __imp_load__RealizePalette@4 100b028c     gdi32:GDI32.dll
 0001:000af296       __imp_load__SelectPalette@12 100b0296     gdi32:GDI32.dll
 0001:000af2a0       __imp_load__CreatePalette@4 100b02a0     gdi32:GDI32.dll
 0001:000af2aa       __imp_load__LPtoDP@12      100b02aa     gdi32:GDI32.dll
 0001:000af2b4       __imp_load__SetMapMode@8   100b02b4     gdi32:GDI32.dll
 0001:000af2be       __imp_load__GetEnhMetaFileHeader@12 100b02be     gdi32:GDI32.dll
 0001:000af2c8       __imp_load__CloseMetaFile@4 100b02c8     gdi32:GDI32.dll
 0001:000af2d2       __imp_load__CreateMetaFileW@4 100b02d2     gdi32:GDI32.dll
 0001:000af2dc       __imp_load__CloseEnhMetaFile@4 100b02dc     gdi32:GDI32.dll
 0001:000af2e6       __imp_load__CreateEnhMetaFileW@16 100b02e6     gdi32:GDI32.dll
 0001:000af2f0       __imp_load__DPtoLP@12      100b02f0     gdi32:GDI32.dll
 0001:000af2fa       __imp_load__GetTextFaceW@12 100b02fa     gdi32:GDI32.dll
 0001:000af304       __imp_load__CreateFontIndirectW@4 100b0304     gdi32:GDI32.dll
 0001:000af30e       __imp_load__GetFontData@20 100b030e     gdi32:GDI32.dll
 0001:000af318       __imp_load__GetCharWidthW@16 100b0318     gdi32:GDI32.dll
 0001:000af322       __imp_load__GetTextExtentPoint32A@16 100b0322     gdi32:GDI32.dll
 0001:000af32c       __imp_load__TextOutA@20    100b032c     gdi32:GDI32.dll
 0001:000af336       __imp_load__GetTextExtentPoint32W@16 100b0336     gdi32:GDI32.dll
 0001:000af340       __imp_load__TextOutW@20    100b0340     gdi32:GDI32.dll
 0001:000af34a       __imp_load__ExtTextOutW@32 100b034a     gdi32:GDI32.dll
 0001:000af354       __imp_load__StretchBlt@44  100b0354     gdi32:GDI32.dll
 0001:000af35e       __imp_load__SetTextAlign@8 100b035e     gdi32:GDI32.dll
 0001:000af368       __imp_load__GetNearestColor@8 100b0368     gdi32:GDI32.dll
 0001:000af372       __imp_load__GetSystemPaletteEntries@16 100b0372     gdi32:GDI32.dll
 0001:000af37c       __imp_load__CreatePen@12   100b037c     gdi32:GDI32.dll
 0001:000af386       __imp_load__EndDoc@4       100b0386     gdi32:GDI32.dll
 0001:000af390       __imp_load__AbortDoc@4     100b0390     gdi32:GDI32.dll
 0001:000af39a       __imp_load__EndPage@4      100b039a     gdi32:GDI32.dll
 0001:000af3a4       __imp_load__GetCurrentPositionEx@8 100b03a4     gdi32:GDI32.dll
 0001:000af3ae       __imp_load__SelectClipPath@8 100b03ae     gdi32:GDI32.dll
 0001:000af3b8       __imp_load__ExtCreatePen@20 100b03b8     gdi32:GDI32.dll
 0001:000af3c2       __imp_load__EnumFontFamiliesExW@20 100b03c2     gdi32:GDI32.dll
 0001:000af3cc       __imp_load__StartDocW@8    100b03cc     gdi32:GDI32.dll
 0001:000af3d6       __imp_load__StartPage@4    100b03d6     gdi32:GDI32.dll
 0001:000af3e0       __imp_load__GetPixel@12    100b03e0     gdi32:GDI32.dll
 0001:000af3ea       __imp_load__CreateCompatibleBitmap@12 100b03ea     gdi32:GDI32.dll
 0001:000af3f4       __imp_load__GetObjectW@12  100b03f4     gdi32:GDI32.dll
 0001:000af3fe       __imp_load__CreateICW@16   100b03fe     gdi32:GDI32.dll
 0001:000af408       __imp_load__AddFontResourceExW@12 100b0408     gdi32:GDI32.dll
 0001:000af412       __imp_load__RemoveFontResourceExW@12 100b0412     gdi32:GDI32.dll
 0001:000af41c       __imp_load__DescribePixelFormat@16 100b041c     gdi32:GDI32.dll
 0001:000af426       __imp_load__EnumPrintersW@28 100b0426     winspool:WINSPOOL.DRV
 0001:000af430       __tailMerge_WINSPOOL_DRV   100b0430     winspool:WINSPOOL.DRV
 0001:000af441       _EnumPrintersW@28          100b0441 f   winspool:WINSPOOL.DRV
 0001:000af447       __imp_load__FindFirstPrinterChangeNotification@16 100b0447     winspool:WINSPOOL.DRV
 0001:000af451       _FindFirstPrinterChangeNotification@16 100b0451 f   winspool:WINSPOOL.DRV
 0001:000af457       __imp_load__OpenPrinterW@12 100b0457     winspool:WINSPOOL.DRV
 0001:000af461       _OpenPrinterW@12           100b0461 f   winspool:WINSPOOL.DRV
 0001:000af467       __imp_load__FindClosePrinterChangeNotification@4 100b0467     winspool:WINSPOOL.DRV
 0001:000af471       _FindClosePrinterChangeNotification@4 100b0471 f   winspool:WINSPOOL.DRV
 0001:000af477       __imp_load__FindNextPrinterChangeNotification@16 100b0477     winspool:WINSPOOL.DRV
 0001:000af481       _FindNextPrinterChangeNotification@16 100b0481 f   winspool:WINSPOOL.DRV
 0001:000af487       __imp_load__ClosePrinter@4 100b0487     winspool:WINSPOOL.DRV
 0001:000af491       _ClosePrinter@4            100b0491 f   winspool:WINSPOOL.DRV
 0001:000af497       __imp_load__DeviceCapabilitiesW@20 100b0497     winspool:WINSPOOL.DRV
 0001:000af4a1       __imp_load__GetPrinterW@20 100b04a1     winspool:WINSPOOL.DRV
 0001:000af4ab       _GetPrinterW@20            100b04ab f   winspool:WINSPOOL.DRV
 0001:000af4b1       __imp_load__EndDocPrinter@4 100b04b1     winspool:WINSPOOL.DRV
 0001:000af4bb       _EndDocPrinter@4           100b04bb f   winspool:WINSPOOL.DRV
 0001:000af4c1       __imp_load__StartPagePrinter@4 100b04c1     winspool:WINSPOOL.DRV
 0001:000af4cb       _StartPagePrinter@4        100b04cb f   winspool:WINSPOOL.DRV
 0001:000af4d1       __imp_load__StartDocPrinterW@12 100b04d1     winspool:WINSPOOL.DRV
 0001:000af4db       _StartDocPrinterW@12       100b04db f   winspool:WINSPOOL.DRV
 0001:000af4e1       __imp_load__WritePrinter@16 100b04e1     winspool:WINSPOOL.DRV
 0001:000af4eb       _WritePrinter@16           100b04eb f   winspool:WINSPOOL.DRV
 0001:000af4f1       __imp_load__EndPagePrinter@4 100b04f1     winspool:WINSPOOL.DRV
 0001:000af4fb       _EndPagePrinter@4          100b04fb f   winspool:WINSPOOL.DRV
 0001:000af501       __imp_load__DocumentPropertiesW@24 100b0501     winspool:WINSPOOL.DRV
 0001:000af50b       _DocumentPropertiesW@24    100b050b f   winspool:WINSPOOL.DRV
 0001:000af511       __imp_load__ImmGetContext@4 100b0511     imm32:IMM32.dll
 0001:000af51b       __tailMerge_IMM32_dll      100b051b     imm32:IMM32.dll
 0001:000af52c       _ImmGetContext@4           100b052c f   imm32:IMM32.dll
 0001:000af532       __imp_load__ImmAssociateContext@8 100b0532     imm32:IMM32.dll
 0001:000af53c       _ImmAssociateContext@8     100b053c f   imm32:IMM32.dll
 0001:000af542       __imp_load__ImmSetCompositionWindow@8 100b0542     imm32:IMM32.dll
 0001:000af54c       _ImmSetCompositionWindow@8 100b054c f   imm32:IMM32.dll
 0001:000af552       __imp_load__ImmSetCandidateWindow@8 100b0552     imm32:IMM32.dll
 0001:000af55c       _ImmSetCandidateWindow@8   100b055c f   imm32:IMM32.dll
 0001:000af562       __imp_load__ImmGetDefaultIMEWnd@4 100b0562     imm32:IMM32.dll
 0001:000af56c       _ImmGetDefaultIMEWnd@4     100b056c f   imm32:IMM32.dll
 0001:000af572       __imp_load__ImmGetDescriptionW@12 100b0572     imm32:IMM32.dll
 0001:000af57c       _ImmGetDescriptionW@12     100b057c f   imm32:IMM32.dll
 0001:000af582       __imp_load__ImmGetCompositionStringW@16 100b0582     imm32:IMM32.dll
 0001:000af58c       _ImmGetCompositionStringW@16 100b058c f   imm32:IMM32.dll
 0001:000af592       __imp_load__ImmSetCompositionFontW@8 100b0592     imm32:IMM32.dll
 0001:000af59c       _ImmSetCompositionFontW@8  100b059c f   imm32:IMM32.dll
 0001:000af5a2       __imp_load__ImmGetOpenStatus@4 100b05a2     imm32:IMM32.dll
 0001:000af5ac       _ImmGetOpenStatus@4        100b05ac f   imm32:IMM32.dll
 0001:000af5b2       __imp_load__ImmSetOpenStatus@8 100b05b2     imm32:IMM32.dll
 0001:000af5bc       _ImmSetOpenStatus@8        100b05bc f   imm32:IMM32.dll
 0001:000af5c2       __imp_load__ImmSetConversionStatus@12 100b05c2     imm32:IMM32.dll
 0001:000af5cc       _ImmSetConversionStatus@12 100b05cc f   imm32:IMM32.dll
 0001:000af5d2       __imp_load__ImmGetConversionStatus@12 100b05d2     imm32:IMM32.dll
 0001:000af5dc       _ImmGetConversionStatus@12 100b05dc f   imm32:IMM32.dll
 0001:000af5e2       __imp_load__ImmNotifyIME@16 100b05e2     imm32:IMM32.dll
 0001:000af5ec       _ImmNotifyIME@16           100b05ec f   imm32:IMM32.dll
 0001:000af5f2       __imp_load__ImmDestroyContext@4 100b05f2     imm32:IMM32.dll
 0001:000af5fc       _ImmDestroyContext@4       100b05fc f   imm32:IMM32.dll
 0001:000af602       __imp_load__ImmCreateContext@0 100b0602     imm32:IMM32.dll
 0001:000af60c       _ImmCreateContext@0        100b060c f   imm32:IMM32.dll
 0001:000af612       __imp_load__RevokeDragDrop@4 100b0612     ole32:ole32.dll
 0001:000af61c       __tailMerge_ole32_dll      100b061c     ole32:ole32.dll
 0001:000af62d       __imp_load__ReleaseStgMedium@4 100b062d     ole32:ole32.dll
 0001:000af637       __imp_load__CoGetCurrentProcess@0 100b0637     ole32:ole32.dll
 0001:000af641       __imp_load__OleInitialize@4 100b0641     ole32:ole32.dll
 0001:000af64b       __imp_load__OleUninitialize@0 100b064b     ole32:ole32.dll
 0001:000af655       __imp_load__RegisterDragDrop@8 100b0655     ole32:ole32.dll
 0001:000af65f       __imp_load__CoCreateInstance@20 100b065f     ole32:ole32.dll
 0001:000af669       __imp_load__CreateStreamOnHGlobal@12 100b0669     ole32:ole32.dll
 0001:000af673       __imp_load__GetHGlobalFromStream@8 100b0673     ole32:ole32.dll
 0001:000af67d       __imp_load__CoFileTimeNow@4 100b067d     ole32:ole32.dll
 0001:000af687       __imp_load__DoDragDrop@16  100b0687     ole32:ole32.dll
 0001:000af691       __imp_load__CoUninitialize@0 100b0691     ole32:ole32.dll
 0001:000af69b       __imp_load__CoInitialize@4 100b069b     ole32:ole32.dll
 0001:000af6a5       __imp_load__CoTaskMemFree@4 100b06a5     ole32:ole32.dll
 0001:000af6af       __imp_load__DragQueryFileW@16 100b06af     shell32:SHELL32.dll
 0001:000af6b9       __tailMerge_SHELL32_dll    100b06b9     shell32:SHELL32.dll
 0001:000af6ca       __imp_load__ShellExecuteW@24 100b06ca     shell32:SHELL32.dll
 0001:000af6d4       __imp_load__SHGetSettings@8 100b06d4     shell32:SHELL32.dll
 0001:000af6de       __imp_load__SHGetPathFromIDListW@8 100b06de     shell32:SHELL32.dll
 0001:000af6e8       __imp_load__SHGetFolderPathW@20 100b06e8     shell32:SHELL32.dll
 0001:000af6f2       __imp_load__Shell_NotifyIconW@8 100b06f2     shell32:SHELL32.dll
 0001:000af6fc       __imp_load__GetOpenFileNameW@4 100b06fc     comdlg32:COMDLG32.dll
 0001:000af706       __tailMerge_COMDLG32_dll   100b0706     comdlg32:COMDLG32.dll
 0001:000af717       __imp_load__GetSaveFileNameW@4 100b0717     comdlg32:COMDLG32.dll
 0001:000af721       __imp_load__CommDlgExtendedError@0 100b0721     comdlg32:COMDLG32.dll
 0001:000af72b       __imp_load__PrintDlgW@4    100b072b     comdlg32:COMDLG32.dll
 0001:000af735       __imp_load__PageSetupDlgW@4 100b0735     comdlg32:COMDLG32.dll
 0001:000af73f       __imp_load__PlaySoundW@12  100b073f     winmm:WINMM.dll
 0001:000af749       __tailMerge_WINMM_dll      100b0749     winmm:WINMM.dll
 0001:000af75a       __imp_load__ImageList_Destroy@4 100b075a     comctl32:COMCTL32.dll
 0001:000af764       __tailMerge_COMCTL32_dll   100b0764     comctl32:COMCTL32.dll
 0001:000af775       __imp_load__ImageList_GetIcon@12 100b0775     comctl32:COMCTL32.dll
 0001:000af77f       __imp_load__InitCommonControlsEx@4 100b077f     comctl32:COMCTL32.dll
 0001:000af789       __imp_load__DefSubclassProc@16 100b0789     comctl32:COMCTL32.dll
 0001:000af793       _DefSubclassProc@16        100b0793 f   comctl32:COMCTL32.dll
 0001:000af799       __imp_load__SetWindowSubclass@16 100b0799     comctl32:COMCTL32.dll
 0001:000af7a3       _SetWindowSubclass@16      100b07a3 f   comctl32:COMCTL32.dll
 0001:000af7a9       __imp_load__RemoveWindowSubclass@12 100b07a9     comctl32:COMCTL32.dll
 0001:000af7b3       _RemoveWindowSubclass@12   100b07b3 f   comctl32:COMCTL32.dll
 0001:000af7b9       __imp_load__SHCreateStreamOnFileW@12 100b07b9     shlwapi:SHLWAPI.dll
 0001:000af7c3       __tailMerge_SHLWAPI_dll    100b07c3     shlwapi:SHLWAPI.dll
 0001:000af7d4       ___delayLoadHelper2@8      100b07d4 f   delayimp:delayhlp.obj
 0001:000afa10       _JVM_CurrentTimeMillis@8   100b0a10 f   jvm:jvm.dll
 0001:000afa16       _JVM_RaiseSignal@4         100b0a16 f   jvm:jvm.dll
 0001:000afa20       __ftol2_sse                100b0a20 f   MSVCRT:ftol2.obj
 0001:000afa29       __ftol2_pentium4           100b0a29 f   MSVCRT:ftol2.obj
 0001:000afa3c       __ftol2_sse_excpt          100b0a3c f   MSVCRT:ftol2.obj
 0001:000afa56       __ftol2                    100b0a56 f   MSVCRT:ftol2.obj
 0001:000afacb       @__security_check_cookie@4 100b0acb f   MSVCRT:secchk.obj
 0001:000afae0       __allmul                   100b0ae0 f   MSVCRT:llmul.obj
 0001:000afb14       _sqrt                      100b0b14 f   MSVCRT:MSVCR100.dll
 0001:000afb20       __alldiv                   100b0b20 f   MSVCRT:lldiv.obj
 0001:000afbca       _free                      100b0bca f   MSVCRT:MSVCR100.dll
 0001:000afbd0       _malloc                    100b0bd0 f   MSVCRT:MSVCR100.dll
 0001:000afbd6       _memcpy                    100b0bd6 f   MSVCRT:MSVCR100.dll
 0001:000afbe0       __alloca_probe             100b0be0     MSVCRT:chkstk.obj
 0001:000afbe0       __chkstk                   100b0be0 f   MSVCRT:chkstk.obj
 0001:000afc0c       _memset                    100b0c0c f   MSVCRT:MSVCR100.dll
 0001:000afc12       _fabs                      100b0c12 f   MSVCRT:MSVCR100.dll
 0001:000afc18       _pow                       100b0c18 f   MSVCRT:MSVCR100.dll
 0001:000afc1e       _strlen                    100b0c1e f   MSVCRT:MSVCR100.dll
 0001:000afc24       ??_Etype_info@@UAEPAXI@Z   100b0c24 f i MSVCRT:ti_inst.obj
 0001:000afc70       ___CxxFrameHandler3        100b0c70 f   MSVCRT:MSVCR100.dll
 0001:000afc76       __EH_prolog3               100b0c76 f   MSVCRT:ehprolg3.obj
 0001:000afca9       __EH_prolog3_catch         100b0ca9 f   MSVCRT:ehprolg3.obj
 0001:000afcdf       __EH_prolog3_GS            100b0cdf f   MSVCRT:ehprolg3.obj
 0001:000afd15       __EH_prolog3_catch_GS      100b0d15 f   MSVCRT:ehprolg3.obj
 0001:000afd4e       __EH_epilog3               100b0d4e f   MSVCRT:ehprolg3.obj
 0001:000afd62       __EH_epilog3_GS            100b0d62 f   MSVCRT:ehprolg3.obj
 0001:000afd71       __EH_epilog3_catch_GS      100b0d71 f   MSVCRT:ehprolg3.obj
 0001:000afd80       ??3@YAXPAX@Z               100b0d80 f   MSVCRT:MSVCR100.dll
 0001:000afd86       __onexit                   100b0d86 f   MSVCRT:atonexit.obj
 0001:000afe27       _atexit                    100b0e27 f   MSVCRT:atonexit.obj
 0001:000afe3e       ?__ArrayUnwind@@YGXPAXIHP6EX0@Z@Z 100b0e3e f   MSVCRT:ehvecdtr.obj
 0001:000afe9c       ??_M@YGXPAXIHP6EX0@Z@Z     100b0e9c f   MSVCRT:ehvecdtr.obj
 0001:000aff00       _sin                       100b0f00 f   MSVCRT:MSVCR100.dll
 0001:000aff06       _cos                       100b0f06 f   MSVCRT:MSVCR100.dll
 0001:000aff0c       __CxxThrowException@8      100b0f0c f   MSVCRT:MSVCR100.dll
 0001:000aff12       _strcmp                    100b0f12 f   MSVCRT:MSVCR100.dll
 0001:000aff18       _labs                      100b0f18 f   MSVCRT:MSVCR100.dll
 0001:000aff1e       __purecall                 100b0f1e f   MSVCRT:MSVCR100.dll
 0001:000aff24       _abs                       100b0f24 f   MSVCRT:MSVCR100.dll
 0001:000aff2a       _strcpy                    100b0f2a f   MSVCRT:MSVCR100.dll
 0001:000aff30       _memcmp                    100b0f30 f   MSVCRT:MSVCR100.dll
 0001:000aff36       ??0exception@std@@QAE@ABQBD@Z 100b0f36 f   MSVCRT:MSVCR100.dll
 0001:000aff3c       ?what@exception@std@@UBEPBDXZ 100b0f3c f   MSVCRT:MSVCR100.dll
 0001:000aff42       ??1exception@std@@UAE@XZ   100b0f42 f   MSVCRT:MSVCR100.dll
 0001:000aff48       ??0exception@std@@QAE@ABV01@@Z 100b0f48 f   MSVCRT:MSVCR100.dll
 0001:000aff4e       ??_L@YGXPAXIHP6EX0@Z1@Z    100b0f4e f   MSVCRT:ehvecctr.obj
 0001:000b0001       __CRT_INIT@12              100b1001 f   MSVCRT:crtdll.obj
 0001:000b0321       __DllMainCRTStartup@12     100b1321 f   MSVCRT:crtdll.obj
 0001:000b0344       ___sse2_available_init     100b1344 f   MSVCRT:cpu_disp.obj
 0001:000b0354       ___report_gsfailure        100b1354 f   MSVCRT:gs_report.obj
 0001:000b045a       __unlock                   100b145a f   MSVCRT:MSVCR100.dll
 0001:000b0460       ___dllonexit               100b1460 f   MSVCRT:MSVCR100.dll
 0001:000b0466       __lock                     100b1466 f   MSVCRT:MSVCR100.dll
 0001:000b0470       __SEH_prolog4              100b1470 f   MSVCRT:sehprolg4.obj
 0001:000b04b5       __SEH_epilog4              100b14b5 f   MSVCRT:sehprolg4.obj
 0001:000b04c9       __except_handler4          100b14c9 f   MSVCRT:chandler4gs.obj
 0001:000b04ee       ?terminate@@YAXXZ          100b14ee f   MSVCRT:MSVCR100.dll
 0001:000b04f4       ___clean_type_info_names   100b14f4 f   MSVCRT:tncleanup.obj
 0001:000b0500       __RTC_Initialize           100b1500 f   MSVCRT:_initsect_.obj
 0001:000b0526       __RTC_Terminate            100b1526 f   MSVCRT:_initsect_.obj
 0001:000b0550       __ValidateImageBase        100b1550 f   MSVCRT:pesect.obj
 0001:000b0590       __FindPESection            100b1590 f   MSVCRT:pesect.obj
 0001:000b05e0       __IsNonwritableInCurrentImage 100b15e0 f   MSVCRT:pesect.obj
 0001:000b069c       __initterm                 100b169c f   MSVCRT:MSVCR100.dll
 0001:000b06a2       __initterm_e               100b16a2 f   MSVCRT:MSVCR100.dll
 0001:000b06a8       __amsg_exit                100b16a8 f   MSVCRT:MSVCR100.dll
 0001:000b06ae       ___CppXcptFilter           100b16ae f   MSVCRT:MSVCR100.dll
 0001:000b06b4       ___security_init_cookie    100b16b4 f   MSVCRT:gs_support.obj
 0001:000b0750       __crt_debugger_hook        100b1750 f   MSVCRT:MSVCR100.dll
 0001:000b0756       ?_type_info_dtor_internal_method@type_info@@QAEXXZ 100b1756 f   MSVCRT:MSVCR100.dll
 0001:000b0756       ??1type_info@@UAE@XZ       100b1756 f   MSVCRT:MSVCR100.dll
 0001:000b075c       __except_handler4_common   100b175c f   MSVCRT:MSVCR100.dll
 0001:000b0762       ___clean_type_info_names_internal 100b1762 f   MSVCRT:MSVCR100.dll
 0001:000b0770       ?ConvertStringToBSTR@_com_util@@YGPAGPBD@Z 100b1770 f   comsupp:comutil.obj
 0001:000b08f0       ?_com_issue_error@@YGXJ@Z  100b18f0 f   comsupp:comsupp.obj
 0001:000b0910       ??1_com_error@@UAE@XZ      100b1910 f i comsupp:comraise.obj
 0001:000b0940       ?_com_raise_error@@YGXJPAUIErrorInfo@@@Z 100b1940 f   comsupp:comraise.obj
 0001:000b0980       ??0_com_error@@QAE@ABV0@@Z 100b1980 f i comsupp:comraise.obj
 0001:000b09c0       ??_G_com_error@@UAEPAXI@Z  100b19c0 f i comsupp:comraise.obj
 0001:000b09c0       ??_E_com_error@@UAEPAXI@Z  100b19c0 f i comsupp:comraise.obj
 0001:000b0a01       ??1length_error@std@@UAE@XZ 100b1a01 f i libcpmt:xthrow.obj
 0001:000b0a01       ??1out_of_range@std@@UAE@XZ 100b1a01 f i libcpmt:xthrow.obj
 0001:000b0a06       ??0logic_error@std@@QAE@ABV01@@Z 100b1a06 f i libcpmt:xthrow.obj
 0001:000b0a23       ?_Xlength_error@std@@YAXPBD@Z 100b1a23 f   libcpmt:xthrow.obj
 0001:000b0a53       ??0length_error@std@@QAE@ABV01@@Z 100b1a53 f i libcpmt:xthrow.obj
 0001:000b0a70       ?_Xout_of_range@std@@YAXPBD@Z 100b1a70 f   libcpmt:xthrow.obj
 0001:000b0aa0       ??0out_of_range@std@@QAE@ABV01@@Z 100b1aa0 f i libcpmt:xthrow.obj
 0001:000b0abd       ??_Elength_error@std@@UAEPAXI@Z 100b1abd f i libcpmt:xthrow.obj
 0001:000b0abd       ??_Elogic_error@std@@UAEPAXI@Z 100b1abd f i libcpmt:xthrow.obj
 0001:000b0abd       ??_Gout_of_range@std@@UAEPAXI@Z 100b1abd f i libcpmt:xthrow.obj
 0001:000b0abd       ??_Glength_error@std@@UAEPAXI@Z 100b1abd f i libcpmt:xthrow.obj
 0001:000b0abd       ??_Eout_of_range@std@@UAEPAXI@Z 100b1abd f i libcpmt:xthrow.obj
 0001:000b0abd       ??_Glogic_error@std@@UAEPAXI@Z 100b1abd f i libcpmt:xthrow.obj
 0001:000b0ae0       __alloca_probe_16          100b1ae0 f   MSVCRT:alloca16.obj
 0001:000b0af6       __alloca_probe_8           100b1af6     MSVCRT:alloca16.obj
 0001:000b49d6       ??__FtheInstance@?1??GetInstance@ComCtl32Util@@SAAAV1@XZ@YAXXZ 100b59d6 f i awt_Choice.obj
 0002:00000000       __imp__RegCloseKey@4       100b6000     advapi32:ADVAPI32.dll
 0002:00000004       __imp__RegOpenKeyExW@20    100b6004     advapi32:ADVAPI32.dll
 0002:00000008       __imp__RegQueryValueExA@24 100b6008     advapi32:ADVAPI32.dll
 0002:0000000c       __imp__RegOpenKeyExA@20    100b600c     advapi32:ADVAPI32.dll
 0002:00000010       __imp__RegQueryValueExW@24 100b6010     advapi32:ADVAPI32.dll
 0002:00000014       \177ADVAPI32_NULL_THUNK_DATA 100b6014     advapi32:ADVAPI32.dll
 0002:00000018       __imp__GetCurrentProcess@0 100b6018     kernel32:KERNEL32.dll
 0002:0000001c       __imp__TerminateProcess@8  100b601c     kernel32:KERNEL32.dll
 0002:00000020       __imp__IsProcessorFeaturePresent@4 100b6020     kernel32:KERNEL32.dll
 0002:00000024       __imp__UnhandledExceptionFilter@4 100b6024     kernel32:KERNEL32.dll
 0002:00000028       __imp__EncodePointer@4     100b6028     kernel32:KERNEL32.dll
 0002:0000002c       __imp__RaiseException@16   100b602c     kernel32:KERNEL32.dll
 0002:00000030       __imp__LoadLibraryA@4      100b6030     kernel32:KERNEL32.dll
 0002:00000034       __imp__InterlockedExchange@8 100b6034     kernel32:KERNEL32.dll
 0002:00000038       __imp__SetUnhandledExceptionFilter@4 100b6038     kernel32:KERNEL32.dll
 0002:0000003c       __imp__IsDebuggerPresent@0 100b603c     kernel32:KERNEL32.dll
 0002:00000040       __imp__QueryPerformanceCounter@4 100b6040     kernel32:KERNEL32.dll
 0002:00000044       __imp__GetSystemTimeAsFileTime@4 100b6044     kernel32:KERNEL32.dll
 0002:00000048       __imp__DecodePointer@4     100b6048     kernel32:KERNEL32.dll
 0002:0000004c       __imp__lstrcmpW@8          100b604c     kernel32:KERNEL32.dll
 0002:00000050       __imp__LocalAlloc@8        100b6050     kernel32:KERNEL32.dll
 0002:00000054       __imp__CreateMutexW@12     100b6054     kernel32:KERNEL32.dll
 0002:00000058       __imp__ReleaseMutex@4      100b6058     kernel32:KERNEL32.dll
 0002:0000005c       __imp__FreeLibrary@4       100b605c     kernel32:KERNEL32.dll
 0002:00000060       __imp__GetProcAddress@8    100b6060     kernel32:KERNEL32.dll
 0002:00000064       __imp__GetModuleHandleW@4  100b6064     kernel32:KERNEL32.dll
 0002:00000068       __imp__InitializeCriticalSection@4 100b6068     kernel32:KERNEL32.dll
 0002:0000006c       __imp__DeleteCriticalSection@4 100b606c     kernel32:KERNEL32.dll
 0002:00000070       __imp__EnterCriticalSection@4 100b6070     kernel32:KERNEL32.dll
 0002:00000074       __imp__TryEnterCriticalSection@4 100b6074     kernel32:KERNEL32.dll
 0002:00000078       __imp__LeaveCriticalSection@4 100b6078     kernel32:KERNEL32.dll
 0002:0000007c       __imp__GetCurrentThreadId@0 100b607c     kernel32:KERNEL32.dll
 0002:00000080       __imp__TlsGetValue@4       100b6080     kernel32:KERNEL32.dll
 0002:00000084       __imp__TlsAlloc@0          100b6084     kernel32:KERNEL32.dll
 0002:00000088       __imp__TlsSetValue@8       100b6088     kernel32:KERNEL32.dll
 0002:0000008c       __imp__InterlockedIncrement@4 100b608c     kernel32:KERNEL32.dll
 0002:00000090       __imp__GetVersion@0        100b6090     kernel32:KERNEL32.dll
 0002:00000094       __imp__GlobalFree@4        100b6094     kernel32:KERNEL32.dll
 0002:00000098       __imp__lstrcpynW@12        100b6098     kernel32:KERNEL32.dll
 0002:0000009c       __imp__GlobalAlloc@8       100b609c     kernel32:KERNEL32.dll
 0002:000000a0       __imp__lstrlenW@4          100b60a0     kernel32:KERNEL32.dll
 0002:000000a4       __imp__GetProfileStringW@20 100b60a4     kernel32:KERNEL32.dll
 0002:000000a8       __imp__GetVersionExW@4     100b60a8     kernel32:KERNEL32.dll
 0002:000000ac       __imp__WaitForSingleObject@8 100b60ac     kernel32:KERNEL32.dll
 0002:000000b0       __imp__GetLastError@0      100b60b0     kernel32:KERNEL32.dll
 0002:000000b4       __imp__SetLastError@4      100b60b4     kernel32:KERNEL32.dll
 0002:000000b8       __imp__GlobalUnlock@4      100b60b8     kernel32:KERNEL32.dll
 0002:000000bc       __imp__GlobalLock@4        100b60bc     kernel32:KERNEL32.dll
 0002:000000c0       __imp__GlobalSize@4        100b60c0     kernel32:KERNEL32.dll
 0002:000000c4       __imp__GetTickCount@0      100b60c4     kernel32:KERNEL32.dll
 0002:000000c8       __imp__MultiByteToWideChar@24 100b60c8     kernel32:KERNEL32.dll
 0002:000000cc       __imp__GetACP@0            100b60cc     kernel32:KERNEL32.dll
 0002:000000d0       __imp__GetLocaleInfoW@16   100b60d0     kernel32:KERNEL32.dll
 0002:000000d4       __imp__LocalFree@4         100b60d4     kernel32:KERNEL32.dll
 0002:000000d8       __imp__FormatMessageW@28   100b60d8     kernel32:KERNEL32.dll
 0002:000000dc       __imp__ExpandEnvironmentStringsW@12 100b60dc     kernel32:KERNEL32.dll
 0002:000000e0       __imp__lstrcpyW@8          100b60e0     kernel32:KERNEL32.dll
 0002:000000e4       __imp__SetCurrentDirectoryW@4 100b60e4     kernel32:KERNEL32.dll
 0002:000000e8       __imp__GetCurrentDirectoryW@8 100b60e8     kernel32:KERNEL32.dll
 0002:000000ec       __imp__InterlockedDecrement@4 100b60ec     kernel32:KERNEL32.dll
 0002:000000f0       __imp__ReadFile@20         100b60f0     kernel32:KERNEL32.dll
 0002:000000f4       __imp__SetFilePointer@16   100b60f4     kernel32:KERNEL32.dll
 0002:000000f8       __imp__WideCharToMultiByte@32 100b60f8     kernel32:KERNEL32.dll
 0002:000000fc       __imp__CloseHandle@4       100b60fc     kernel32:KERNEL32.dll
 0002:00000100       __imp__CreateFileW@28      100b6100     kernel32:KERNEL32.dll
 0002:00000104       __imp__GetCurrentProcessId@0 100b6104     kernel32:KERNEL32.dll
 0002:00000108       __imp__InterlockedCompareExchange@12 100b6108     kernel32:KERNEL32.dll
 0002:0000010c       __imp__LCMapStringW@24     100b610c     kernel32:KERNEL32.dll
 0002:00000110       __imp__SetEvent@4          100b6110     kernel32:KERNEL32.dll
 0002:00000114       __imp__CreateEventW@16     100b6114     kernel32:KERNEL32.dll
 0002:00000118       __imp__Sleep@4             100b6118     kernel32:KERNEL32.dll
 0002:0000011c       __imp__ResetEvent@4        100b611c     kernel32:KERNEL32.dll
 0002:00000120       __imp__GetWindowsDirectoryW@8 100b6120     kernel32:KERNEL32.dll
 0002:00000124       __imp__GetSystemDefaultLangID@0 100b6124     kernel32:KERNEL32.dll
 0002:00000128       __imp__lstrlenA@4          100b6128     kernel32:KERNEL32.dll
 0002:0000012c       \177KERNEL32_NULL_THUNK_DATA 100b612c     kernel32:KERNEL32.dll
 0002:00000130       __imp___initterm           100b6130     MSVCRT:MSVCR100.dll
 0002:00000134       __imp___initterm_e         100b6134     MSVCRT:MSVCR100.dll
 0002:00000138       __imp___amsg_exit          100b6138     MSVCRT:MSVCR100.dll
 0002:0000013c       __imp____CppXcptFilter     100b613c     MSVCRT:MSVCR100.dll
 0002:00000140       __imp___malloc_crt         100b6140     MSVCRT:MSVCR100.dll
 0002:00000144       __imp_?terminate@@YAXXZ    100b6144     MSVCRT:MSVCR100.dll
 0002:00000148       __imp___onexit             100b6148     MSVCRT:MSVCR100.dll
 0002:0000014c       __imp___crt_debugger_hook  100b614c     MSVCRT:MSVCR100.dll
 0002:00000150       __imp_?_type_info_dtor_internal_method@type_info@@QAEXXZ 100b6150     MSVCRT:MSVCR100.dll
 0002:00000154       __imp___except_handler4_common 100b6154     MSVCRT:MSVCR100.dll
 0002:00000158       __imp____clean_type_info_names_internal 100b6158     MSVCRT:MSVCR100.dll
 0002:0000015c       __imp___encoded_null       100b615c     MSVCRT:MSVCR100.dll
 0002:00000160       __imp__ceil                100b6160     MSVCRT:MSVCR100.dll
 0002:00000164       __imp__floor               100b6164     MSVCRT:MSVCR100.dll
 0002:00000168       __imp__sqrt                100b6168     MSVCRT:MSVCR100.dll
 0002:0000016c       __imp__free                100b616c     MSVCRT:MSVCR100.dll
 0002:00000170       __imp__malloc              100b6170     MSVCRT:MSVCR100.dll
 0002:00000174       __imp__realloc             100b6174     MSVCRT:MSVCR100.dll
 0002:00000178       __imp__memcpy              100b6178     MSVCRT:MSVCR100.dll
 0002:0000017c       __imp__memset              100b617c     MSVCRT:MSVCR100.dll
 0002:00000180       __imp__fabs                100b6180     MSVCRT:MSVCR100.dll
 0002:00000184       __imp__calloc              100b6184     MSVCRT:MSVCR100.dll
 0002:00000188       __imp__qsort               100b6188     MSVCRT:MSVCR100.dll
 0002:0000018c       __imp____iob_func          100b618c     MSVCRT:MSVCR100.dll
 0002:00000190       __imp__printf              100b6190     MSVCRT:MSVCR100.dll
 0002:00000194       __imp__fopen               100b6194     MSVCRT:MSVCR100.dll
 0002:00000198       __imp__sscanf              100b6198     MSVCRT:MSVCR100.dll
 0002:0000019c       __imp__getenv              100b619c     MSVCRT:MSVCR100.dll
 0002:000001a0       __imp__fflush              100b61a0     MSVCRT:MSVCR100.dll
 0002:000001a4       __imp__vfprintf            100b61a4     MSVCRT:MSVCR100.dll
 0002:000001a8       __imp__fprintf             100b61a8     MSVCRT:MSVCR100.dll
 0002:000001ac       __imp__pow                 100b61ac     MSVCRT:MSVCR100.dll
 0002:000001b0       __imp__sprintf             100b61b0     MSVCRT:MSVCR100.dll
 0002:000001b4       __imp__strncmp             100b61b4     MSVCRT:MSVCR100.dll
 0002:000001b8       __imp__strcspn             100b61b8     MSVCRT:MSVCR100.dll
 0002:000001bc       __imp__strlen              100b61bc     MSVCRT:MSVCR100.dll
 0002:000001c0       __imp____CxxFrameHandler3  100b61c0     MSVCRT:MSVCR100.dll
 0002:000001c4       __imp_??3@YAXPAX@Z         100b61c4     MSVCRT:MSVCR100.dll
 0002:000001c8       __imp__sin                 100b61c8     MSVCRT:MSVCR100.dll
 0002:000001cc       __imp__cos                 100b61cc     MSVCRT:MSVCR100.dll
 0002:000001d0       __imp___CxxThrowException@8 100b61d0     MSVCRT:MSVCR100.dll
 0002:000001d4       __imp__strcmp              100b61d4     MSVCRT:MSVCR100.dll
 0002:000001d8       __imp__strstr              100b61d8     MSVCRT:MSVCR100.dll
 0002:000001dc       __imp__wcslen              100b61dc     MSVCRT:MSVCR100.dll
 0002:000001e0       __imp___control87          100b61e0     MSVCRT:MSVCR100.dll
 0002:000001e4       __imp___strupr_s           100b61e4     MSVCRT:MSVCR100.dll
 0002:000001e8       __imp___wcsdup             100b61e8     MSVCRT:MSVCR100.dll
 0002:000001ec       __imp__labs                100b61ec     MSVCRT:MSVCR100.dll
 0002:000001f0       __imp___purecall           100b61f0     MSVCRT:MSVCR100.dll
 0002:000001f4       __imp__memmove             100b61f4     MSVCRT:MSVCR100.dll
 0002:000001f8       __imp___wtoi               100b61f8     MSVCRT:MSVCR100.dll
 0002:000001fc       __imp__wcscmp              100b61fc     MSVCRT:MSVCR100.dll
 0002:00000200       __imp__abs                 100b6200     MSVCRT:MSVCR100.dll
 0002:00000204       __imp__wcscpy              100b6204     MSVCRT:MSVCR100.dll
 0002:00000208       __imp__wcsncpy             100b6208     MSVCRT:MSVCR100.dll
 0002:0000020c       __imp__strchr              100b620c     MSVCRT:MSVCR100.dll
 0002:00000210       __imp__wcschr              100b6210     MSVCRT:MSVCR100.dll
 0002:00000214       __imp__wcsstr              100b6214     MSVCRT:MSVCR100.dll
 0002:00000218       __imp__iswspace            100b6218     MSVCRT:MSVCR100.dll
 0002:0000021c       __imp__strcpy              100b621c     MSVCRT:MSVCR100.dll
 0002:00000220       __imp__setlocale           100b6220     MSVCRT:MSVCR100.dll
 0002:00000224       __imp__wcstoul             100b6224     MSVCRT:MSVCR100.dll
 0002:00000228       __imp__memcmp              100b6228     MSVCRT:MSVCR100.dll
 0002:0000022c       __imp__wcstok              100b622c     MSVCRT:MSVCR100.dll
 0002:00000230       __imp___wcsicmp            100b6230     MSVCRT:MSVCR100.dll
 0002:00000234       __imp___wfullpath          100b6234     MSVCRT:MSVCR100.dll
 0002:00000238       __imp___vswprintf_c_l      100b6238     MSVCRT:MSVCR100.dll
 0002:0000023c       __imp___i64tow             100b623c     MSVCRT:MSVCR100.dll
 0002:00000240       __imp__wcscat              100b6240     MSVCRT:MSVCR100.dll
 0002:00000244       __imp___beginthreadex      100b6244     MSVCRT:MSVCR100.dll
 0002:00000248       __imp__wcsncmp             100b6248     MSVCRT:MSVCR100.dll
 0002:0000024c       __imp___wgetenv            100b624c     MSVCRT:MSVCR100.dll
 0002:00000250       __imp__memcpy_s            100b6250     MSVCRT:MSVCR100.dll
 0002:00000254       __imp__swprintf_s          100b6254     MSVCRT:MSVCR100.dll
 0002:00000258       __imp__bsearch             100b6258     MSVCRT:MSVCR100.dll
 0002:0000025c       __imp_??0exception@std@@QAE@ABQBD@Z 100b625c     MSVCRT:MSVCR100.dll
 0002:00000260       __imp_?what@exception@std@@UBEPBDXZ 100b6260     MSVCRT:MSVCR100.dll
 0002:00000264       __imp_??1exception@std@@UAE@XZ 100b6264     MSVCRT:MSVCR100.dll
 0002:00000268       __imp_??0exception@std@@QAE@ABV01@@Z 100b6268     MSVCRT:MSVCR100.dll
 0002:0000026c       __imp_?_set_new_handler@@YAP6AHI@ZP6AHI@Z@Z 100b626c     MSVCRT:MSVCR100.dll
 0002:00000270       __imp_?_set_new_mode@@YAHH@Z 100b6270     MSVCRT:MSVCR100.dll
 0002:00000274       __imp___localtime64        100b6274     MSVCRT:MSVCR100.dll
 0002:00000278       __imp___snwprintf          100b6278     MSVCRT:MSVCR100.dll
 0002:0000027c       __imp__wcsftime            100b627c     MSVCRT:MSVCR100.dll
 0002:00000280       __imp___ftime64            100b6280     MSVCRT:MSVCR100.dll
 0002:00000284       __imp___vsnwprintf         100b6284     MSVCRT:MSVCR100.dll
 0002:00000288       __imp__swscanf             100b6288     MSVCRT:MSVCR100.dll
 0002:0000028c       __imp___unlock             100b628c     MSVCRT:MSVCR100.dll
 0002:00000290       __imp____dllonexit         100b6290     MSVCRT:MSVCR100.dll
 0002:00000294       __imp___lock               100b6294     MSVCRT:MSVCR100.dll
 0002:00000298       \177MSVCR100_NULL_THUNK_DATA 100b6298     MSVCRT:MSVCR100.dll
 0002:0000029c       __imp__VariantClear@4      100b629c     oleaut32:OLEAUT32.dll
 0002:000002a0       __imp__SysAllocStringByteLen@8 100b62a0     oleaut32:OLEAUT32.dll
 0002:000002a4       __imp__SysFreeString@4     100b62a4     oleaut32:OLEAUT32.dll
 0002:000002a8       __imp__SysStringLen@4      100b62a8     oleaut32:OLEAUT32.dll
 0002:000002ac       __imp__SysAllocString@4    100b62ac     oleaut32:OLEAUT32.dll
 0002:000002b0       \177OLEAUT32_NULL_THUNK_DATA 100b62b0     oleaut32:OLEAUT32.dll
 0002:000002b4       __imp__JNU_NewObjectByName 100b62b4     java:java.dll
 0002:000002b8       __imp__JNU_ClassString@4   100b62b8     java:java.dll
 0002:000002bc       __imp__getEncodingFromLangID 100b62bc     java:java.dll
 0002:000002c0       __imp__getJavaIDFromLangID 100b62c0     java:java.dll
 0002:000002c4       __imp__JNU_CallMethodByNameV@24 100b62c4     java:java.dll
 0002:000002c8       __imp__JNU_ThrowIllegalArgumentException@8 100b62c8     java:java.dll
 0002:000002cc       __imp__JNU_IsInstanceOfByName@12 100b62cc     java:java.dll
 0002:000002d0       __imp__JNU_GetFieldByName@20 100b62d0     java:java.dll
 0002:000002d4       __imp__JNU_ThrowInternalError@8 100b62d4     java:java.dll
 0002:000002d8       __imp__JNU_ThrowNullPointerException@8 100b62d8     java:java.dll
 0002:000002dc       __imp__JNU_ThrowOutOfMemoryError@8 100b62dc     java:java.dll
 0002:000002e0       __imp__JNU_ThrowIOException@8 100b62e0     java:java.dll
 0002:000002e4       __imp__JNU_ThrowByName@12  100b62e4     java:java.dll
 0002:000002e8       __imp__JNU_GetEnv@8        100b62e8     java:java.dll
 0002:000002ec       __imp__JNU_CallStaticMethodByName 100b62ec     java:java.dll
 0002:000002f0       __imp__JNU_SetFieldByName  100b62f0     java:java.dll
 0002:000002f4       __imp__JDK_LoadSystemLibrary 100b62f4     java:java.dll
 0002:000002f8       __imp__jio_snprintf        100b62f8     java:java.dll
 0002:000002fc       __imp__JNU_NewStringPlatform@8 100b62fc     java:java.dll
 0002:00000300       __imp__JNU_GetStaticFieldByName@20 100b6300     java:java.dll
 0002:00000304       __imp__JNU_ThrowNoSuchMethodError@8 100b6304     java:java.dll
 0002:00000308       __imp__JNU_CallMethodByName 100b6308     java:java.dll
 0002:0000030c       __imp__JNU_ThrowArrayIndexOutOfBoundsException@8 100b630c     java:java.dll
 0002:00000310       \177java_NULL_THUNK_DATA   100b6310     java:java.dll
 0002:00000314       __imp__JVM_RaiseSignal@4   100b6314     jvm:jvm.dll
 0002:00000318       __imp__JVM_CurrentTimeMillis@8 100b6318     jvm:jvm.dll
 0002:0000031c       \177jvm_NULL_THUNK_DATA    100b631c     jvm:jvm.dll
 0002:00000320       ___xc_a                    100b6320     MSVCRT:cinitexe.obj
 0002:000003bc       ___xc_z                    100b63bc     MSVCRT:cinitexe.obj
 0002:000003c0       ___xi_a                    100b63c0     MSVCRT:cinitexe.obj
 0002:000003cc       ___xi_z                    100b63cc     MSVCRT:cinitexe.obj
 0002:000003ec       ??_C@_08KFFFPIAD@AnyAlpha?$AA@ 100b63ec     GraphicsPrimitiveMgr.obj
 0002:000003f8       ??_C@_03IOIAJAMH@Xor?$AA@  100b63f8     GraphicsPrimitiveMgr.obj
 0002:000003fc       ??_C@_07HDABEKCC@SrcOver?$AA@ 100b63fc     GraphicsPrimitiveMgr.obj
 0002:00000404       ??_C@_03BOKGAEPF@Src?$AA@  100b6404     GraphicsPrimitiveMgr.obj
 0002:00000408       ??_C@_0M@CJBAGKNE@SrcOverNoEa?$AA@ 100b6408     GraphicsPrimitiveMgr.obj
 0002:00000414       ??_C@_07DKNCHMPF@SrcNoEa?$AA@ 100b6414     GraphicsPrimitiveMgr.obj
 0002:0000041c       ??_C@_0BA@JHBHCCLB@FourByteAbgrPre?$AA@ 100b641c     GraphicsPrimitiveMgr.obj
 0002:0000042c       ??_C@_0N@GNKEOMCN@FourByteAbgr?$AA@ 100b642c     GraphicsPrimitiveMgr.obj
 0002:0000043c       ??_C@_08IMBDCFIO@Any4Byte?$AA@ 100b643c     GraphicsPrimitiveMgr.obj
 0002:00000448       ??_C@_07KPKCDOJO@IntRgbx?$AA@ 100b6448     GraphicsPrimitiveMgr.obj
 0002:00000450       ??_C@_06OMCAGOGJ@IntBgr?$AA@ 100b6450     GraphicsPrimitiveMgr.obj
 0002:00000458       ??_C@_06PGPLCLKH@IntRgb?$AA@ 100b6458     GraphicsPrimitiveMgr.obj
 0002:00000460       ??_C@_09HPIHHECJ@IntArgbBm?$AA@ 100b6460     GraphicsPrimitiveMgr.obj
 0002:0000046c       ??_C@_0L@LHCNPLKD@IntArgbPre?$AA@ 100b646c     GraphicsPrimitiveMgr.obj
 0002:00000478       ??_C@_07FJMDEMFB@IntArgb?$AA@ 100b6478     GraphicsPrimitiveMgr.obj
 0002:00000480       ??_C@_06KJNFPPLH@AnyInt?$AA@ 100b6480     GraphicsPrimitiveMgr.obj
 0002:00000488       ??_C@_0N@CCDHKPGE@ThreeByteBgr?$AA@ 100b6488     GraphicsPrimitiveMgr.obj
 0002:00000498       ??_C@_08JBBGBFDG@Any3Byte?$AA@ 100b6498     GraphicsPrimitiveMgr.obj
 0002:000004a4       ??_C@_0O@PGLJPIOC@UshortIndexed?$AA@ 100b64a4     GraphicsPrimitiveMgr.obj
 0002:000004b4       ??_C@_0L@BJNGJBHG@UshortGray?$AA@ 100b64b4     GraphicsPrimitiveMgr.obj
 0002:000004c0       ??_C@_0P@FLINMBGI@Ushort4444Argb?$AA@ 100b64c0     GraphicsPrimitiveMgr.obj
 0002:000004d0       ??_C@_0N@LBKAHILI@Ushort565Rgb?$AA@ 100b64d0     GraphicsPrimitiveMgr.obj
 0002:000004e0       ??_C@_0O@BDAFHCKF@Ushort555Rgbx?$AA@ 100b64e0     GraphicsPrimitiveMgr.obj
 0002:000004f0       ??_C@_0N@DHDEAKBG@Ushort555Rgb?$AA@ 100b64f0     GraphicsPrimitiveMgr.obj
 0002:00000500       ??_C@_08DALFHKCI@AnyShort?$AA@ 100b6500     GraphicsPrimitiveMgr.obj
 0002:0000050c       ??_C@_0M@EBKEGEKN@Index12Gray?$AA@ 100b650c     GraphicsPrimitiveMgr.obj
 0002:00000518       ??_C@_0L@MEHELHKH@Index8Gray?$AA@ 100b6518     GraphicsPrimitiveMgr.obj
 0002:00000524       ??_C@_08IGJOKPFM@ByteGray?$AA@ 100b6524     GraphicsPrimitiveMgr.obj
 0002:00000530       ??_C@_0O@GPLGKDCH@ByteIndexedBm?$AA@ 100b6530     GraphicsPrimitiveMgr.obj
 0002:00000540       ??_C@_0M@PKKBOJJE@ByteIndexed?$AA@ 100b6540     GraphicsPrimitiveMgr.obj
 0002:0000054c       ??_C@_0P@NBNBFNNK@ByteBinary4Bit?$AA@ 100b654c     GraphicsPrimitiveMgr.obj
 0002:0000055c       ??_C@_0P@FOJBKIHK@ByteBinary2Bit?$AA@ 100b655c     GraphicsPrimitiveMgr.obj
 0002:0000056c       ??_C@_0P@BJDBNCKK@ByteBinary1Bit?$AA@ 100b656c     GraphicsPrimitiveMgr.obj
 0002:0000057c       ??_C@_07PHDIDCAF@AnyByte?$AA@ 100b657c     GraphicsPrimitiveMgr.obj
 0002:00000584       ??_C@_08NBFCJMOI@AnyColor?$AA@ 100b6584     GraphicsPrimitiveMgr.obj
 0002:00000590       ??_C@_0M@GBOAEAAA@OpaqueColor?$AA@ 100b6590     GraphicsPrimitiveMgr.obj
 0002:0000059c       ??_C@_0CB@MNMNGNJ@sun?1java2d?1loops?1TransformHelper@ 100b659c     GraphicsPrimitiveMgr.obj
 0002:000005c0       ??_C@_0CC@CNAMIPMH@sun?1java2d?1loops?1DrawGlyphListLC@ 100b65c0     GraphicsPrimitiveMgr.obj
 0002:000005e4       ??_C@_0CB@EFDPDOKH@sun?1java2d?1loops?1DrawGlyphListAA@ 100b65e4     GraphicsPrimitiveMgr.obj
 0002:00000608       ??_C@_0BP@LGOAECEN@sun?1java2d?1loops?1DrawGlyphList?$AA@ 100b6608     GraphicsPrimitiveMgr.obj
 0002:00000628       ??_C@_0BK@CNLJHIPK@sun?1java2d?1loops?1MaskFill?$AA@ 100b6628     GraphicsPrimitiveMgr.obj
 0002:00000644       ??_C@_0BK@GLDHHELK@sun?1java2d?1loops?1MaskBlit?$AA@ 100b6644     GraphicsPrimitiveMgr.obj
 0002:00000660       ??_C@_0BK@KMNHFMAM@sun?1java2d?1loops?1FillPath?$AA@ 100b6660     GraphicsPrimitiveMgr.obj
 0002:0000067c       ??_C@_0BK@KLDGMKGP@sun?1java2d?1loops?1DrawPath?$AA@ 100b667c     GraphicsPrimitiveMgr.obj
 0002:00000698       ??_C@_0BO@LAFIIOGE@sun?1java2d?1loops?1DrawPolygons?$AA@ 100b6698     GraphicsPrimitiveMgr.obj
 0002:000006b8       ??_C@_0BK@KBIKOGPA@sun?1java2d?1loops?1DrawRect?$AA@ 100b66b8     GraphicsPrimitiveMgr.obj
 0002:000006d4       ??_C@_0BK@GPINMAOI@sun?1java2d?1loops?1DrawLine?$AA@ 100b66d4     GraphicsPrimitiveMgr.obj
 0002:000006f0       ??_C@_0CD@GLPFCLJC@sun?1java2d?1loops?1DrawParallelogr@ 100b66f0     GraphicsPrimitiveMgr.obj
 0002:00000714       ??_C@_0CD@FPCGLGJO@sun?1java2d?1loops?1FillParallelogr@ 100b6714     GraphicsPrimitiveMgr.obj
 0002:00000738       ??_C@_0BL@LFFGKGMB@sun?1java2d?1loops?1FillSpans?$AA@ 100b6738     GraphicsPrimitiveMgr.obj
 0002:00000754       ??_C@_0BK@KGGLHAJD@sun?1java2d?1loops?1FillRect?$AA@ 100b6754     GraphicsPrimitiveMgr.obj
 0002:00000770       ??_C@_0BM@PAGEGMHJ@sun?1java2d?1loops?1ScaledBlit?$AA@ 100b6770     GraphicsPrimitiveMgr.obj
 0002:0000078c       ??_C@_0BI@CJECPPCF@sun?1java2d?1loops?1BlitBg?$AA@ 100b678c     GraphicsPrimitiveMgr.obj
 0002:000007a4       ??_C@_0BG@MKKNOJBL@sun?1java2d?1loops?1Blit?$AA@ 100b67a4     GraphicsPrimitiveMgr.obj
 0002:000007bc       ??_C@_0CJ@DLGJEIBO@?$CI?$FLLsun?1java2d?1loops?1GraphicsPrim@ 100b67bc     GraphicsPrimitiveMgr.obj
 0002:000007e8       ??_C@_08DHHIDNEP@register?$AA@ 100b67e8     GraphicsPrimitiveMgr.obj
 0002:000007f8       ??_C@_0GB@MKHNBPOF@?$CIJLsun?1java2d?1loops?1SurfaceType?$DL@ 100b67f8     GraphicsPrimitiveMgr.obj
 0002:0000085c       ??_C@_06FALKBLGB@?$DMinit?$DO?$AA@ 100b685c     GraphicsPrimitiveMgr.obj
 0002:00000868       __real@3fe0000000000000    100b6868     GraphicsPrimitiveMgr.obj
 0002:00000870       ??_C@_0BP@HLGJBGFN@Lsun?1java2d?1loops?1SurfaceType?$DL?$AA@ 100b6870     GraphicsPrimitiveMgr.obj
 0002:00000890       ??_C@_0CB@LGAGGGBA@Lsun?1java2d?1loops?1CompositeType?$DL@ 100b6890     GraphicsPrimitiveMgr.obj
 0002:000008b4       ??_C@_0CG@CIBMPDPP@Non?9native?5Primitive?5invoked?5nat@ 100b68b4     GraphicsPrimitiveMgr.obj
 0002:000008dc       ??_C@_0BF@DMNOBAEO@creating?5global?5refs?$AA@ 100b68dc     GraphicsPrimitiveMgr.obj
 0002:000008f4       ??_C@_0BD@HNPIIDM@INTVAL_STROKE_PURE?$AA@ 100b68f4     GraphicsPrimitiveMgr.obj
 0002:00000908       ??_C@_0L@CNLLHBGI@strokeHint?$AA@ 100b6908     GraphicsPrimitiveMgr.obj
 0002:00000914       ??_C@_0M@EHLMLCNO@floatCoords?$AA@ 100b6914     GraphicsPrimitiveMgr.obj
 0002:00000920       ??_C@_02MGHEAPDP@?$FLF?$AA@ 100b6920     GraphicsPrimitiveMgr.obj
 0002:00000924       ??_C@_0M@HHGJMPFE@windingRule?$AA@ 100b6924     GraphicsPrimitiveMgr.obj
 0002:00000930       ??_C@_08MBGKEIIL@numTypes?$AA@ 100b6930     GraphicsPrimitiveMgr.obj
 0002:0000093c       ??_C@_0L@CFNMHJGO@pointTypes?$AA@ 100b693c     GraphicsPrimitiveMgr.obj
 0002:00000948       ??_C@_02KCBIMKDL@?$FLB?$AA@ 100b6948     GraphicsPrimitiveMgr.obj
 0002:0000094c       ??_C@_03NPCONEOL@m12?$AA@  100b694c     GraphicsPrimitiveMgr.obj
 0002:00000950       ??_C@_03PEADIHCI@m11?$AA@  100b6950     GraphicsPrimitiveMgr.obj
 0002:00000954       ??_C@_03ONBILGGJ@m10?$AA@  100b6954     GraphicsPrimitiveMgr.obj
 0002:00000958       ??_C@_03NOOMLONM@m02?$AA@  100b6958     GraphicsPrimitiveMgr.obj
 0002:0000095c       ??_C@_03PFMBONBP@m01?$AA@  100b695c     GraphicsPrimitiveMgr.obj
 0002:00000960       ??_C@_03OMNKNMFO@m00?$AA@  100b6960     GraphicsPrimitiveMgr.obj
 0002:00000964       ??_C@_01CKDDGHAB@D?$AA@    100b6964     GraphicsPrimitiveMgr.obj
 0002:00000968       ??_C@_0L@PHEFNBAH@extraAlpha?$AA@ 100b6968     GraphicsPrimitiveMgr.obj
 0002:00000974       ??_C@_01BIAFAFID@F?$AA@    100b6974     GraphicsPrimitiveMgr.obj
 0002:00000978       ??_C@_04LPGJEGEF@rule?$AA@ 100b6978     GraphicsPrimitiveMgr.obj
 0002:00000980       ??_C@_09LMOBKNGB@alphaMask?$AA@ 100b6980     GraphicsPrimitiveMgr.obj
 0002:0000098c       ??_C@_08JNGNLOAF@xorColor?$AA@ 100b698c     GraphicsPrimitiveMgr.obj
 0002:00000998       ??_C@_0BB@LDMDNMKI@Ljava?1awt?1Color?$DL?$AA@ 100b6998     GraphicsPrimitiveMgr.obj
 0002:000009ac       ??_C@_08JBMCEBFB@xorPixel?$AA@ 100b69ac     GraphicsPrimitiveMgr.obj
 0002:000009b8       ??_C@_06KOHHPLOH@getRGB?$AA@ 100b69b8     GraphicsPrimitiveMgr.obj
 0002:000009c0       ??_C@_03KNBKCOBB@?$CI?$CJI?$AA@ 100b69c0     GraphicsPrimitiveMgr.obj
 0002:000009c4       ??_C@_0BA@DBBGKJGO@lcdTextContrast?$AA@ 100b69c4     GraphicsPrimitiveMgr.obj
 0002:000009d4       ??_C@_09EIHFMDLJ@composite?$AA@ 100b69d4     GraphicsPrimitiveMgr.obj
 0002:000009e0       ??_C@_0BF@OLMABNMK@Ljava?1awt?1Composite?$DL?$AA@ 100b69e0     GraphicsPrimitiveMgr.obj
 0002:000009f8       ??_C@_0L@PDLPEDCM@clipRegion?$AA@ 100b69f8     GraphicsPrimitiveMgr.obj
 0002:00000a04       ??_C@_0BJ@FBHBAFOP@Lsun?1java2d?1pipe?1Region?$DL?$AA@ 100b6a04     GraphicsPrimitiveMgr.obj
 0002:00000a20       ??_C@_05GJDDCCNP@eargb?$AA@ 100b6a20     GraphicsPrimitiveMgr.obj
 0002:00000a28       ??_C@_05PIOCODLC@pixel?$AA@ 100b6a28     GraphicsPrimitiveMgr.obj
 0002:00000a30       ??_C@_01JPJNBJEM@I?$AA@    100b6a30     GraphicsPrimitiveMgr.obj
 0002:00000a34       ??_C@_0M@MBGBPFOL@pNativePrim?$AA@ 100b6a34     GraphicsPrimitiveMgr.obj
 0002:00000a40       ??_C@_01LELAEKIP@J?$AA@    100b6a40     GraphicsPrimitiveMgr.obj
 0002:00000a48       __real@3ff0000000000000    100b6a48     ScaledBlit.obj
 0002:00000a50       ??_C@_0BN@MGPPEDOI@native?5iterator?5not?5supplied?$AA@ 100b6a50     FillSpans.obj
 0002:00000a70       __real@c1f0000000000000    100b6a70     FillParallelogram.obj
 0002:00000a78       __real@41f0000000000000    100b6a78     FillParallelogram.obj
 0002:00000a80       __real@0000000000000000    100b6a80     FillParallelogram.obj
 0002:00000a88       __real@3ff00068db8bac71    100b6a88     DrawParallelogram.obj
 0002:00000a90       __real@41bfffffff000000    100b6a90     DrawLine.obj
 0002:00000a98       __real@c1c0000000000000    100b6a98     DrawLine.obj
 0002:00000aa0       ??_C@_0BB@DHNIEMLH@coordinate?5array?$AA@ 100b6aa0     DrawPolygons.obj
 0002:00000ab4       ??_C@_0BI@NKEHLCCC@coordinate?5array?5length?$AA@ 100b6ab4     DrawPolygons.obj
 0002:00000acc       ??_C@_0BK@NLFFAMIH@polygon?5length?5array?5size?$AA@ 100b6acc     DrawPolygons.obj
 0002:00000ae8       ??_C@_0BF@LLMPIMOL@polygon?5length?5array?$AA@ 100b6ae8     DrawPolygons.obj
 0002:00000b00       ??_C@_0N@PCGNNAGH@coords?5array?$AA@ 100b6b00     DrawPath.obj
 0002:00000b10       ??_C@_0M@BNLCGFBO@types?5array?$AA@ 100b6b10     DrawPath.obj
 0002:00000b1c       ??_C@_0BC@EHMBMMLI@coordinates?5array?$AA@ 100b6b1c     DrawPath.obj
 0002:00000b30       __real@c080000000000000    100b6b30     ProcessPath.obj
 0002:00000b38       __real@4060000000000000    100b6b38     ProcessPath.obj
 0002:00000b40       __real@4000000000000000    100b6b40     ProcessPath.obj
 0002:00000b48       __real@4090000000000000    100b6b48     ProcessPath.obj
 0002:00000b50       __real@c0c0000000000000    100b6b50     ProcessPath.obj
 0002:00000b58       __real@40a0000000000000    100b6b58     ProcessPath.obj
 0002:00000b60       __real@4018000000000000    100b6b60     ProcessPath.obj
 0002:00000b68       __real@4008000000000000    100b6b68     ProcessPath.obj
 0002:00000b70       __real@4070000000000000    100b6b70     ProcessPath.obj
 0002:00000b78       __real@bfe0000000000000    100b6b78     ProcessPath.obj
 0002:00000b80       __real@4010000000000000    100b6b80     ProcessPath.obj
 0002:00000b88       __real@c7cfffffe0000000    100b6b88     ProcessPath.obj
 0002:00000b90       __real@47cfffffe0000000    100b6b90     ProcessPath.obj
 0002:00000b98       __real@3f50000000000000    100b6b98     ProcessPath.obj
 0002:00000ba0       __real@bf000000            100b6ba0     ProcessPath.obj
 0002:00000ba8       __real@406fffff2e48e8a7    100b6ba8     MaskFill.obj
 0002:00000bb0       __real@bff0000000000000    100b6bb0     MaskFill.obj
 0002:00000bb8       __real@bf70000000000000    100b6bb8     MaskFill.obj
 0002:00000bc0       __real@3f70000000000000    100b6bc0     MaskFill.obj
 0002:00000bc8       __real@41d0000000000000    100b6bc8     TransformHelper.obj
 0002:00000bd0       __real@4020000000000000    100b6bd0     TransformHelper.obj
 0002:00000bd8       __real@4014000000000000    100b6bd8     TransformHelper.obj
 0002:00000be0       __real@406fe00000000000    100b6be0     ByteBinary1Bit.obj
 0002:00000be8       __real@40efffe000000000    100b6be8     UshortGray.obj
 0002:00000bf0       ??_C@_0DF@FANCMADM@BufferedMaskBlit_enqueueTile?3?5ca@ 100b6bf0     BufferedMaskBlit.obj
 0002:00000c28       ??_C@_0DF@JKMGOGEM@BufferedMaskBlit_enqueueTile?3?5co@ 100b6c28     BufferedMaskBlit.obj
 0002:00000c60       ??_C@_0DD@EMPNKEMF@BufferedMaskBlit_enqueueTile?3?5ma@ 100b6c60     BufferedMaskBlit.obj
 0002:00000c94       ??_C@_0DB@KMPDGJFP@BufferedMaskBlit_enqueueTile?3?5ma@ 100b6c94     BufferedMaskBlit.obj
 0002:00000cc8       ??_C@_0DP@DOKALGFH@BufferedMaskBlit_enqueueTile?3?5ca@ 100b6cc8     BufferedMaskBlit.obj
 0002:00000d08       ??_C@_0CN@KOODEODJ@BufferedMaskBlit_enqueueTile?3?5sr@ 100b6d08     BufferedMaskBlit.obj
 0002:00000d38       ??_C@_08HDFBFGMG@flushNow?$AA@ 100b6d38     BufferedRenderPipe.obj
 0002:00000d44       ??_C@_04PFANPMCN@?$CII?$CJV?$AA@ 100b6d44     BufferedRenderPipe.obj
 0002:00000d4c       ??_C@_0DP@KDLNHMEG@BufferedRenderPipe_fillSpans?3?5ca@ 100b6d4c     BufferedRenderPipe.obj
 0002:00000d8c       ??_C@_0DL@NIEDOHOI@BufferedRenderPipe_fillSpans?3?5na@ 100b6d8c     BufferedRenderPipe.obj
 0002:00000dc8       ??_C@_0DE@NCJPCIOE@BufferedRenderPipe_fillSpans?3?5sp@ 100b6dc8     BufferedRenderPipe.obj
 0002:00000dfc       ??_C@_0CJ@GOBDNKBJ@BufferedRenderPipe_fillSpans?3?5rq@ 100b6dfc     BufferedRenderPipe.obj
 0002:00000e28       ??_C@_0BL@CDLGNDOF@bad?5path?5delivery?5sequence?$AA@ 100b6e28     ShapeSpanIterator.obj
 0002:00000e44       ??_C@_0N@CPNGDAII@private?5data?$AA@ 100b6e44     ShapeSpanIterator.obj
 0002:00000e54       ??_C@_05EEOIKHBI@pData?$AA@ 100b6e54     ShapeSpanIterator.obj
 0002:00000e60       __real@41dfffffffc00000    100b6e60     ShapeSpanIterator.obj
 0002:00000e68       __real@3f800000            100b6e68     ShapeSpanIterator.obj
 0002:00000e6c       ??_C@_0BG@IGFPGILF@bad?5path?5segment?5type?$AA@ 100b6e6c     ShapeSpanIterator.obj
 0002:00000e84       ??_C@_0BC@IFKGNFB@path?5segment?5data?$AA@ 100b6e84     ShapeSpanIterator.obj
 0002:00000e98       __real@3fd0000000000000    100b6e98     ShapeSpanIterator.obj
 0002:00000ea0       ??_C@_0BE@MKONHPI@polygon?5data?5arrays?$AA@ 100b6ea0     ShapeSpanIterator.obj
 0002:00000eb4       ??_C@_0CB@NPFLCAKM@private?5data?5already?5initialized@ 100b6eb4     ShapeSpanIterator.obj
 0002:00000ed8       ??_C@_0O@HHBOHPIC@NULL?5field?5ID?$AA@ 100b6ed8     SpanClipRenderer.obj
 0002:00000ee8       ??_C@_09EDOAAODP@numXbands?$AA@ 100b6ee8     SpanClipRenderer.obj
 0002:00000ef4       ??_C@_08PALEAACP@curIndex?$AA@ 100b6ef4     SpanClipRenderer.obj
 0002:00000f00       ??_C@_06JEJEKGIK@region?$AA@ 100b6f00     SpanClipRenderer.obj
 0002:00000f08       ??_C@_08KGHBPNCM@endIndex?$AA@ 100b6f08     SpanClipRenderer.obj
 0002:00000f14       ??_C@_05DPGGGHAJ@bands?$AA@ 100b6f14     SpanClipRenderer.obj
 0002:00000f1c       ??_C@_02EBOMBDPA@?$FLI?$AA@ 100b6f1c     SpanClipRenderer.obj
 0002:00000f20       ??_C@_0BB@JGDANAAH@alpha?5tile?5array?$AA@ 100b6f20     SpanClipRenderer.obj
 0002:00000f34       ??_C@_0L@JLDMKHKA@band?5array?$AA@ 100b6f34     SpanClipRenderer.obj
 0002:00000f40       ??_C@_0O@LOGOPOJJ@allgrayopaque?$AA@ 100b6f40     SurfaceData.obj
 0002:00000f50       ??_C@_0BP@JILFKJOC@java?1awt?1image?1IndexColorModel?$AA@ 100b6f50     SurfaceData.obj
 0002:00000f70       ??_C@_05HDPIMK@valid?$AA@  100b6f70     SurfaceData.obj
 0002:00000f78       ??_C@_01POHCFINO@Z?$AA@    100b6f78     SurfaceData.obj
 0002:00000f7c       ??_C@_0BL@OKHDFKAM@sun?1java2d?1NullSurfaceData?$AA@ 100b6f7c     SurfaceData.obj
 0002:00000f98       ??_C@_0CA@ILIOPBKE@sun?1java2d?1InvalidPipeException?$AA@ 100b6f98     SurfaceData.obj
 0002:00000fb8       ??_C@_0BD@MNALONNM@native?5ops?5missing?$AA@ 100b6fb8     SurfaceData.obj
 0002:00000fcc       ??_C@_0N@FNKMFOEC@invalid?5data?$AA@ 100b6fcc     SurfaceData.obj
 0002:00000fdc       ??_C@_0M@HKJPKFJP@surfaceData?$AA@ 100b6fdc     SurfaceData.obj
 0002:00000fe8       ??_C@_0CI@MLEKDENI@Attempting?5to?5set?5SurfaceData?5op@ 100b6fe8     SurfaceData.obj
 0002:00001010       ??_C@_03JJNCMNBP@hiy?$AA@  100b7010     Region.obj
 0002:00001014       ??_C@_03IAMJPMFO@hix?$AA@  100b7014     Region.obj
 0002:00001018       ??_C@_03BCDNCGPK@loy?$AA@  100b7018     Region.obj
 0002:0000101c       ??_C@_03LCGBHLL@lox?$AA@   100b701c     Region.obj
 0002:00001020       ??_C@_0CD@DEPFMLEB@Can?8t?5allocate?5shape?5region?5memo@ 100b7020     Region.obj
 0002:00001044       ??_C@_0BI@EMCBBLPJ@Could?5not?5get?5field?5IDs?$AA@ 100b7044     BufImgSurfaceData.obj
 0002:0000105c       ??_C@_09BINILHDI@colorData?$AA@ 100b705c     BufImgSurfaceData.obj
 0002:00001068       ??_C@_0CP@FCPPNFIN@Lsun?1awt?1image?1BufImgSurfaceData@ 100b7068     BufImgSurfaceData.obj
 0002:00001098       ??_C@_08JLBHHM@map_size?$AA@ 100b7098     BufImgSurfaceData.obj
 0002:000010a4       ??_C@_03FNOJMHE@rgb?$AA@   100b70a4     BufImgSurfaceData.obj
 0002:000010a8       ??_C@_04OHLIFDMD@?$CIJ?$CJV?$AA@ 100b70a8     BufImgSurfaceData.obj
 0002:000010b0       ??_C@_0CE@ODCKMFJN@Could?5not?5initialize?5inverse?5tab@ 100b70b0     BufImgSurfaceData.obj
 0002:000010d4       ??_C@_0CB@PGDFHIOO@Attempt?5to?5lock?5missing?5colormap@ 100b70d4     BufImgSurfaceData.obj
 0002:000010f8       ??_C@_0CG@MHEMAIPH@Initialization?5of?5SurfaceData?5fa@ 100b70f8     BufImgSurfaceData.obj
 0002:00001120       ??_C@_0BD@JFKDGMJL@Disposer?4addRecord?$AA@ 100b7120     Disposer.obj
 0002:00001134       ??_C@_09HADOBIAM@addRecord?$AA@ 100b7134     Disposer.obj
 0002:00001140       ??_C@_0BI@CMNNDAKC@?$CILjava?1lang?1Object?$DLJJ?$CJV?$AA@ 100b7140     Disposer.obj
 0002:00001158       ??_C@_0BE@DKPBBBLD@sun?1java2d?1Disposer?$AA@ 100b7158     Disposer.obj
 0002:0000116c       ??_C@_0CC@ILFFFFDG@?$FLE?$FN?3?5Error?5opening?5trace?5file?5?$CFs@ 100b716c     Trace.obj
 0002:00001190       ??_C@_01NOFIACDB@w?$AA@    100b7190     Trace.obj
 0002:00001194       ??_C@_0P@MJAMPLPF@J2D_TRACE_FILE?$AA@ 100b7194     Trace.obj
 0002:000011a4       ??_C@_02DPKJAMEF@?$CFd?$AA@ 100b71a4     Trace.obj
 0002:000011a8       ??_C@_0BA@MKBNHDPN@J2D_TRACE_LEVEL?$AA@ 100b71a8     Trace.obj
 0002:000011b8       ??_C@_01EEMJAFIK@?6?$AA@   100b71b8     Trace.obj
 0002:000011bc       ??_C@_04CLDEMHHG@?$FLE?$FN?5?$AA@ 100b71bc     Trace.obj
 0002:000011c4       ??_C@_04NBCEFIGC@?$FLW?$FN?5?$AA@ 100b71c4     Trace.obj
 0002:000011cc       ??_C@_04GBOCHIMO@?$FLI?$FN?5?$AA@ 100b71cc     Trace.obj
 0002:000011d4       ??_C@_04GJJIDPAH@?$FLV?$FN?5?$AA@ 100b71d4     Trace.obj
 0002:000011dc       ??_C@_04IJEHEIDE@?$FLX?$FN?5?$AA@ 100b71dc     Trace.obj
 0002:000011e4       ??_C@_07JGLHBLAI@outCode?$AA@ 100b71e4     gifdecoder.obj
 0002:000011ec       ??_C@_06EMCDFPCG@suffix?$AA@ 100b71ec     gifdecoder.obj
 0002:000011f4       ??_C@_06CHGOAPND@prefix?$AA@ 100b71f4     gifdecoder.obj
 0002:000011fc       ??_C@_02PBMBOJCL@?$FLS?$AA@ 100b71fc     gifdecoder.obj
 0002:00001200       ??_C@_0L@IINNECMJ@sendPixels?$AA@ 100b7200     gifdecoder.obj
 0002:0000120c       ??_C@_0CF@ENPIENAK@?$CIIIII?$FLBLjava?1awt?1image?1ColorMode@ 100b720c     gifdecoder.obj
 0002:00001234       ??_C@_09IDIEPDPI@readBytes?$AA@ 100b7234     gifdecoder.obj
 0002:00001240       ??_C@_07HGNEOLPD@?$CI?$FLBII?$CJI?$AA@ 100b7240     gifdecoder.obj
 0002:00001248       ??_C@_0BN@BPMFNEGI@Orphan?5gif?5decoder?5quitting?6?$AA@ 100b7248     gifdecoder.obj
 0002:00001268       ??_C@_0BD@CCFBCFA@flushing?5?$CFd?5bytes?6?$AA@ 100b7268     gifdecoder.obj
 0002:0000127c       ??_C@_01LFCBOECM@?4?$AA@   100b727c     gifdecoder.obj
 0002:00001280       ??_C@_0BB@LLFDAIJG@Decompressing?4?4?4?$AA@ 100b7280     gifdecoder.obj
 0002:00001294       ??_C@_0BL@FJJHDKLG@Raster?5samples?5are?5too?5big?$AA@ 100b7294     awt_parseImage.obj
 0002:000012b0       ??_C@_0BP@PCGPFIGL@sun?1awt?1image?1BytePackedRaster?$AA@ 100b72b0     awt_parseImage.obj
 0002:000012d0       ??_C@_0CD@CHOIIMKC@sun?1awt?1image?1ShortComponentRast@ 100b72d0     awt_parseImage.obj
 0002:000012f4       ??_C@_0CC@LLDLPMFO@sun?1awt?1image?1ByteComponentRaste@ 100b72f4     awt_parseImage.obj
 0002:00001318       ??_C@_0BI@LAKBIEKL@Can?8t?5grab?5SPPSM?5fields?$AA@ 100b7318     awt_parseImage.obj
 0002:00001330       ??_C@_0O@NALGGDJF@Out?5of?5memory?$AA@ 100b7330     awt_parseImage.obj
 0002:00001340       ??_C@_0CF@OBAKFCIB@sun?1awt?1image?1IntegerComponentRa@ 100b7340     awt_parseImage.obj
 0002:00001368       ??_C@_0CM@ICKLAAOC@java?1awt?1image?1SinglePixelPacked@ 100b7368     awt_parseImage.obj
 0002:00001394       ??_C@_0BD@PJHHBLLP@null?5Raster?5object?$AA@ 100b7394     awt_parseImage.obj
 0002:000013a8       ??_C@_0CD@HGBGPBCP@java?1awt?1image?1ComponentColorMod@ 100b73a8     awt_parseImage.obj
 0002:000013cc       ??_C@_0CA@FAAEGGCP@java?1awt?1image?1DirectColorModel?$AA@ 100b73cc     awt_parseImage.obj
 0002:000013ec       ??_C@_0CA@NNLBGENE@java?1awt?1image?1PackedColorModel?$AA@ 100b73ec     awt_parseImage.obj
 0002:0000140c       ??_C@_0BP@OBBGJOLP@null?5nBits?5structure?5in?5CModel?$AA@ 100b740c     awt_parseImage.obj
 0002:0000142c       ??_C@_0BK@IAHECHOJ@Unable?5to?5find?5default?5CM?$AA@ 100b742c     awt_parseImage.obj
 0002:00001448       ??_C@_0BK@LHHFFAON@java?1awt?1image?1ColorModel?$AA@ 100b7448     awt_parseImage.obj
 0002:00001464       ??_C@_0BH@PNHPEAAD@null?5ColorModel?5object?$AA@ 100b7464     awt_parseImage.obj
 0002:0000147c       ??_C@_0BD@BELAONOD@Band?5out?5of?5range?4?$AA@ 100b747c     awt_parseImage.obj
 0002:00001490       ??_C@_0O@BPALFKAJ@Out?5of?5Memory?$AA@ 100b7490     awt_parseImage.obj
 0002:000014a0       ??_C@_0BK@GHCOEMAN@null?5BufferedImage?5object?$AA@ 100b74a0     awt_parseImage.obj
 0002:000014bc       ??_C@_0BB@LGHKDAHN@srcLUTtransIndex?$AA@ 100b74bc     awt_ImageRep.obj
 0002:000014d0       ??_C@_09MNKGFBEJ@numSrcLUT?$AA@ 100b74d0     awt_ImageRep.obj
 0002:000014dc       ??_C@_0BF@CHGIBNDB@Null?5tile?5data?5array?$AA@ 100b74dc     awt_ImageRep.obj
 0002:000014f4       ??_C@_0BK@MAJKPIDC@Null?5channel?5offset?5array?$AA@ 100b74f4     awt_ImageRep.obj
 0002:00001510       ??_C@_0BA@JEMMJDPO@Null?5data?5array?$AA@ 100b7510     awt_ImageRep.obj
 0002:00001520       ??_C@_0BJ@LAHMKHOB@Null?5IndexColorModel?5LUT?$AA@ 100b7520     awt_ImageRep.obj
 0002:0000153c       ??_C@_0BF@KCAHODHK@NullPointerException?$AA@ 100b753c     awt_ImageRep.obj
 0002:00001554       ??_C@_0CA@FDABFFKP@j2d_mlib_ImageConvKernelConvert?$AA@ 100b7554     awt_ImagingLib.obj
 0002:00001574       ??_C@_0BF@CEDKEFDG@j2d_mlib_ImageLookUp?$AA@ 100b7574     awt_ImagingLib.obj
 0002:0000158c       ??_C@_0BF@NKHADDKB@j2d_mlib_ImageAffine?$AA@ 100b758c     awt_ImagingLib.obj
 0002:000015a4       ??_C@_0BG@LANGHBKF@j2d_mlib_ImageConvMxN?$AA@ 100b75a4     awt_ImagingLib.obj
 0002:000015bc       ??_C@_0N@IAFPKPKB@IMLIB_NOMLIB?$AA@ 100b75bc     awt_ImagingLib.obj
 0002:000015cc       ??_C@_0M@KJGAKACB@IMLIB_START?$AA@ 100b75cc     awt_ImagingLib.obj
 0002:000015d8       ??_C@_0M@HADMFFNE@IMLIB_PRINT?$AA@ 100b75d8     awt_ImagingLib.obj
 0002:000015e4       ??_C@_0M@JMCGNEMJ@IMLIB_DEBUG?$AA@ 100b75e4     awt_ImagingLib.obj
 0002:000015f0       ??_C@_0BH@OKCEAILF@Can?8t?5retrieve?5pixels?4?$AA@ 100b75f0     awt_ImagingLib.obj
 0002:00001608       ??_C@_0CO@HKMGBNEJ@Writing?5to?5non?9RGB?5images?5not?5im@ 100b7608     awt_ImagingLib.obj
 0002:00001638       ??_C@_07KIPIKCLI@dst?5is?6?$AA@ 100b7638     awt_ImagingLib.obj
 0002:00001640       ??_C@_03IGDBGCKF@?$CFx?5?$AA@ 100b7640     awt_ImagingLib.obj
 0002:00001644       ??_C@_07GGCCKDBN@src?5is?6?$AA@ 100b7644     awt_ImagingLib.obj
 0002:0000164c       ??_C@_0BA@OJGOILFF@Starting?5at?5?$CFd?6?$AA@ 100b764c     awt_ImagingLib.obj
 0002:0000165c       ??_C@_03JDANDILB@?$CFd?5?$AA@ 100b765c     awt_ImagingLib.obj
 0002:00001660       ??_C@_0BH@DONEGGKE@New?5Kernel?$CIscale?$DN?$CFd?$CJ?3?6?$AA@ 100b7660     awt_ImagingLib.obj
 0002:00001678       ??_C@_03JBELIGOI@?$CFg?5?$AA@ 100b7678     awt_ImagingLib.obj
 0002:0000167c       ??_C@_0BG@ICNEHHEN@Orig?5Kernel?$CIlen?$DN?$CFd?$CJ?3?6?$AA@ 100b767c     awt_ImagingLib.obj
 0002:00001694       __real@47800000            100b7694     awt_ImagingLib.obj
 0002:00001698       ??_C@_0BN@CNJBAEKJ@matrix?5is?5?$CFg?5?$CFg?5?$CFg?5?$CFg?5?$CFg?5?$CFg?6?$AA@ 100b7698     awt_ImagingLib.obj
 0002:000016b8       ??_C@_0BL@IIFJEIJI@Unknown?5interpolation?5type?$AA@ 100b76b8     awt_ImagingLib.obj
 0002:000016d4       ??_C@_08KCHOIKA@dst?5is?5?6?$AA@ 100b76d4     awt_ImagingLib.obj
 0002:000016e0       ??_C@_08ENPCKHPG@NULL?5LUT?$AA@ 100b76e0     awt_ImagingLib.obj
 0002:000016f0       __real@3fd5555555555555    100b76f0     dither.obj
 0002:000016f8       ??_C@_0BJ@BDKHAONF@Unable?5to?5grab?5field?5ids?$AA@ 100b76f8     imageInitIDs.obj
 0002:00001714       ??_C@_06DNOGEDDK@setRGB?$AA@ 100b7714     imageInitIDs.obj
 0002:0000171c       ??_C@_0M@HAFJLPNH@?$CIIIII?$FLIII?$CJV?$AA@ 100b771c     imageInitIDs.obj
 0002:00001728       ??_C@_0N@DBKEHJNH@?$CIIIII?$FLIII?$CJ?$FLI?$AA@ 100b7728     imageInitIDs.obj
 0002:00001738       ??_C@_0L@COHNFEGI@colorModel?$AA@ 100b7738     imageInitIDs.obj
 0002:00001744       ??_C@_0BM@BOLDHKCL@Ljava?1awt?1image?1ColorModel?$DL?$AA@ 100b7744     imageInitIDs.obj
 0002:00001760       ??_C@_09BBNODMI@imageType?$AA@ 100b7760     imageInitIDs.obj
 0002:0000176c       ??_C@_06NDPGICBH@raster?$AA@ 100b776c     imageInitIDs.obj
 0002:00001774       ??_C@_0CA@LCLCKHCP@Ljava?1awt?1image?1WritableRaster?$DL?$AA@ 100b7774     imageInitIDs.obj
 0002:00001794       ??_C@_0L@CIAPDGLE@dataBuffer?$AA@ 100b7794     imageInitIDs.obj
 0002:000017a0       ??_C@_0BM@JBNAJGLG@Ljava?1awt?1image?1DataBuffer?$DL?$AA@ 100b77a0     imageInitIDs.obj
 0002:000017bc       ??_C@_0BA@BJACNPHI@numDataElements?$AA@ 100b77bc     imageInitIDs.obj
 0002:000017cc       ??_C@_0M@FHGAANNF@sampleModel?$AA@ 100b77cc     imageInitIDs.obj
 0002:000017d8       ??_C@_0BN@IPOCLDBK@Ljava?1awt?1image?1SampleModel?$DL?$AA@ 100b77d8     imageInitIDs.obj
 0002:000017f8       ??_C@_0BG@NJAILMC@sampleModelTranslateY?$AA@ 100b77f8     imageInitIDs.obj
 0002:00001810       ??_C@_0BG@BEILLKID@sampleModelTranslateX?$AA@ 100b7810     imageInitIDs.obj
 0002:00001828       ??_C@_04DHGBADKA@minY?$AA@ 100b7828     imageInitIDs.obj
 0002:00001830       ??_C@_04COHKDCOB@minX?$AA@ 100b7830     imageInitIDs.obj
 0002:00001838       ??_C@_0BA@EIPPINMF@getDataElements?$AA@ 100b7838     imageInitIDs.obj
 0002:00001848       ??_C@_0CL@PDEAAPLE@?$CIIIIILjava?1lang?1Object?$DL?$CJLjava?1la@ 100b7848     imageInitIDs.obj
 0002:00001874       ??_C@_08PFHBDPNF@numBands?$AA@ 100b7874     imageInitIDs.obj
 0002:00001880       ??_C@_06LNLHEAAG@height?$AA@ 100b7880     imageInitIDs.obj
 0002:00001888       ??_C@_05IGKADHGO@width?$AA@ 100b7888     imageInitIDs.obj
 0002:00001890       ??_C@_04GPMDFGEJ@type?$AA@ 100b7890     imageInitIDs.obj
 0002:00001898       ??_C@_0M@KJIIKFFE@dataOffsets?$AA@ 100b7898     imageInitIDs.obj
 0002:000018a4       ??_C@_0L@GELMCLKC@bandOffset?$AA@ 100b78a4     imageInitIDs.obj
 0002:000018b0       ??_C@_0M@OPDBOPGP@pixelStride?$AA@ 100b78b0     imageInitIDs.obj
 0002:000018bc       ??_C@_0P@LGMHMOJL@scanlineStride?$AA@ 100b78bc     imageInitIDs.obj
 0002:000018cc       ??_C@_04PJOLNDGD@data?$AA@ 100b78cc     imageInitIDs.obj
 0002:000018d4       ??_C@_0O@JKIKNINL@dataBitOffset?$AA@ 100b78d4     imageInitIDs.obj
 0002:000018e4       ??_C@_0P@FEEANCBO@pixelBitStride?$AA@ 100b78e4     imageInitIDs.obj
 0002:000018f4       ??_C@_0BA@HKOJPPNM@setDataElements?$AA@ 100b78f4     imageInitIDs.obj
 0002:00001904       ??_C@_0BK@MKMCNHCN@?$CIIIIILjava?1lang?1Object?$DL?$CJV?$AA@ 100b7904     imageInitIDs.obj
 0002:00001920       ??_C@_0L@OHDCGHCI@maxBitSize?$AA@ 100b7920     imageInitIDs.obj
 0002:0000192c       ??_C@_08OMFEABLI@bitSizes?$AA@ 100b792c     imageInitIDs.obj
 0002:00001938       ??_C@_0L@DPGLOOMH@bitOffsets?$AA@ 100b7938     imageInitIDs.obj
 0002:00001944       ??_C@_08JCGOELBC@bitMasks?$AA@ 100b7944     imageInitIDs.obj
 0002:00001950       ??_C@_0O@POLLICAL@getRGBdefault?$AA@ 100b7950     imageInitIDs.obj
 0002:00001960       ??_C@_0BO@FMFCFFLP@?$CI?$CJLjava?1awt?1image?1ColorModel?$DL?$AA@ 100b7960     imageInitIDs.obj
 0002:00001980       ??_C@_07BNMNAAGG@is_sRGB?$AA@ 100b7980     imageInitIDs.obj
 0002:00001988       ??_C@_0P@CJOHEDG@colorSpaceType?$AA@ 100b7988     imageInitIDs.obj
 0002:00001998       ??_C@_0BG@FGABBFAG@?$CILjava?1lang?1Object?$DL?$CJI?$AA@ 100b7998     imageInitIDs.obj
 0002:000019b0       ??_C@_0N@CMNBIHOP@transparency?$AA@ 100b79b0     imageInitIDs.obj
 0002:000019c0       ??_C@_0BF@KHDILBPE@isAlphaPremultiplied?$AA@ 100b79c0     imageInitIDs.obj
 0002:000019d8       ??_C@_0O@HABMOCD@supportsAlpha?$AA@ 100b79d8     imageInitIDs.obj
 0002:000019e8       ??_C@_0O@IENPOJAC@numComponents?$AA@ 100b79e8     imageInitIDs.obj
 0002:000019f8       ??_C@_0L@BHIAAABJ@colorSpace?$AA@ 100b79f8     imageInitIDs.obj
 0002:00001a04       ??_C@_0BM@DKINILOP@Ljava?1awt?1color?1ColorSpace?$DL?$AA@ 100b7a04     imageInitIDs.obj
 0002:00001a20       ??_C@_05EPDEGJGP@nBits?$AA@ 100b7a20     imageInitIDs.obj
 0002:00001a28       ??_C@_0BC@KBCENDGO@transparent_index?$AA@ 100b7a28     imageInitIDs.obj
 0002:00001a3c       ??_C@_09LDEOPBPI@setPixels?$AA@ 100b7a3c     imageInitIDs.obj
 0002:00001a48       ??_C@_0CF@IJOGOJAI@?$CIIIII?$FLILjava?1awt?1image?1DataBuffe@ 100b7a48     imageInitIDs.obj
 0002:00001a70       ??_C@_09JNALNAGK@getPixels?$AA@ 100b7a70     imageInitIDs.obj
 0002:00001a7c       ??_C@_0CG@CHDBAJME@?$CIIIII?$FLILjava?1awt?1image?1DataBuffe@ 100b7a7c     imageInitIDs.obj
 0002:00001aa4       ??_C@_0M@DMKOFENK@bandOffsets?$AA@ 100b7aa4     imageInitIDs.obj
 0002:00001ab0       ??_C@_0CD@EMMIDNLA@Unable?5to?5grab?5DataBufferInt?4pDa@ 100b7ab0     imageInitIDs.obj
 0002:00001ad4       __real@bf800000            100b7ad4     OGLBlitLoops.obj
 0002:00001ad8       __real@3f80000000000000    100b7ad8     OGLBlitLoops.obj
 0002:00001ae0       ??_C@_0DF@GHMPKDMA@OGLBlitToSurfaceViaTexture?3?5coul@ 100b7ae0     OGLBlitLoops.obj
 0002:00001b18       ??_C@_0BMM@HJFJDHNK@uniform?5sampler?$CFs?5baseImage?$DLunif@ 100b7b18     OGLBufImgOps.obj
 0002:00001ce8       ??_C@_0BAA@HJBDEHPI@uniform?5sampler?$CFs?5baseImage?$DLunif@ 100b7ce8     OGLBufImgOps.obj
 0002:00001de8       ??_C@_0CDK@GBALENNN@const?5int?5MAX_KERNEL_SIZE?5?$DN?5?$CFs?$DLu@ 100b7de8     OGLBufImgOps.obj
 0002:00002024       ??_C@_09OGFDBJGL@baseImage?$AA@ 100b8024     OGLBufImgOps.obj
 0002:00002030       ??_C@_0DL@FABKLIFC@OGLBufImgOps_CreateConvolveProgr@ 100b8030     OGLBufImgOps.obj
 0002:0000206c       ??_C@_0CP@PBAHMDO@sum?5?$DN?5texture?$CFs?$CIbaseImage?0?5gl_Te@ 100b806c     OGLBufImgOps.obj
 0002:0000209c       ??_C@_0BB@LHNNNAID@sum?5?$DN?5vec4?$CI0?40?$CJ?$DL?$AA@ 100b809c     OGLBufImgOps.obj
 0002:000020b0       ??_C@_02LDEEJNBC@2D?$AA@   100b80b0     OGLBufImgOps.obj
 0002:000020b4       ??_C@_06IGEPIOJB@2DRect?$AA@ 100b80b4     OGLBufImgOps.obj
 0002:000020bc       ??_C@_01LAKCGALK@9?$AA@    100b80bc     OGLBufImgOps.obj
 0002:000020c0       ??_C@_02IFGANFKF@25?$AA@   100b80c0     OGLBufImgOps.obj
 0002:000020c4       ??_C@_0L@BMNJNHJO@kernelVals?$AA@ 100b80c4     OGLBufImgOps.obj
 0002:000020d0       ??_C@_07NLKMHMOL@imgEdge?$AA@ 100b80d0     OGLBufImgOps.obj
 0002:000020d8       ??_C@_0DK@CKKCJGE@OGLBufImgOps_CreateRescaleProgra@ 100b80d8     OGLBufImgOps.obj
 0002:00002114       ??_C@_0BI@IBFGJAM@result?4rgb?5?$CK?$DN?5result?4a?$DL?$AA@ 100b8114     OGLBufImgOps.obj
 0002:0000212c       ??_C@_0BM@BBPHJDHP@srcColor?4rgb?5?1?$DN?5srcColor?4a?$DL?$AA@ 100b812c     OGLBufImgOps.obj
 0002:00002148       ??_C@_00CNPNBAHC@?$AA@     100b8148     OGLBufImgOps.obj
 0002:0000214c       ??_C@_07EALNHAIO@offsets?$AA@ 100b814c     OGLBufImgOps.obj
 0002:00002154       ??_C@_0N@JECPLILM@scaleFactors?$AA@ 100b8154     OGLBufImgOps.obj
 0002:00002164       ??_C@_0M@GHHJPDIO@lookupTable?$AA@ 100b8164     OGLBufImgOps.obj
 0002:00002170       ??_C@_0DJ@GNGKIHJP@OGLBufImgOps_CreateLookupProgram@ 100b8170     OGLBufImgOps.obj
 0002:000021ac       ??_C@_0DO@JBOGAJJJ@result?4a?5?$DN?5texture2D?$CIlookupTable@ 100b81ac     OGLBufImgOps.obj
 0002:000021ec       ??_C@_0BH@GMJJMEJL@result?4a?5?$DN?5srcColor?4a?$DL?$AA@ 100b81ec     OGLBufImgOps.obj
 0002:00002204       ??_C@_06KLHHMIGM@offset?$AA@ 100b8204     OGLBufImgOps.obj
 0002:0000220c       ??_C@_0CF@JBMNMADP@OGLContext_SetSurfaces?3?5ops?5are?5@ 100b820c     OGLContext.obj
 0002:00002234       ??_C@_0DH@NHIPMEKB@OGLContext_SetSurfaces?3?5could?5no@ 100b8234     OGLContext.obj
 0002:0000226c       ??_C@_0DC@DHIBDBBC@OGLContext_SetSurfaces?3?5could?5no@ 100b826c     OGLContext.obj
 0002:000022a0       ??_C@_0DO@DCMBBOIA@OGLContext_SetSurfaces?3?5texture?5@ 100b82a0     OGLContext.obj
 0002:000022e0       ??_C@_04LOAJBDKD@true?$AA@ 100b82e0     OGLContext.obj
 0002:000022e8       ??_C@_0CH@OBNKBOFK@OGLContext_IsExtensionAvailable?3@ 100b82e8     OGLContext.obj
 0002:00002310       ??_C@_05LAPONLG@false?$AA@ 100b8310     OGLContext.obj
 0002:00002318       ??_C@_01CLKCMJKC@?5?$AA@   100b8318     OGLContext.obj
 0002:0000231c       ??_C@_0DK@KFCOPLDC@OGLContext_IsExtensionAvailable?3@ 100b831c     OGLContext.obj
 0002:00002358       ??_C@_0DM@LICMPKDM@OGLContext_IsFBObjectExtensionAv@ 100b8358     OGLContext.obj
 0002:00002394       ??_C@_0DO@HLJALJGB@OGLContext_IsFBObjectExtensionAv@ 100b8394     OGLContext.obj
 0002:000023d4       ??_C@_0DL@PHAIKEFH@OGLContext_IsFBObjectExtensionAv@ 100b83d4     OGLContext.obj
 0002:00002410       ??_C@_0CB@GJGLJMOK@sun?1java2d?1opengl?1OGLSurfaceData@ 100b8410     OGLContext.obj
 0002:00002434       ??_C@_0BC@GLIHDJB@isFBObjectEnabled?$AA@ 100b8434     OGLContext.obj
 0002:00002448       ??_C@_0BK@GDONINOA@GL_EXT_framebuffer_object?$AA@ 100b8448     OGLContext.obj
 0002:00002468       ??_C@_0EC@DBCBGNGD@OGLContext_IsLCDShaderSupportAva@ 100b8468     OGLContext.obj
 0002:000024b0       ??_C@_0EC@IJLKHGJE@OGLContext_IsLCDShaderSupportAva@ 100b84b0     OGLContext.obj
 0002:000024f4       ??_C@_0DK@HIDAOEIB@OGLContext_IsLCDShaderSupportAva@ 100b84f4     OGLContext.obj
 0002:00002530       ??_C@_0BD@CNJBMDBH@isLCDShaderEnabled?$AA@ 100b8530     OGLContext.obj
 0002:00002548       ??_C@_0EK@CKAIFOEA@OGLContext_IsBIOpShaderSupportAv@ 100b8548     OGLContext.obj
 0002:00002594       ??_C@_0DL@BPFBMCKC@OGLContext_IsBIOpShaderSupportAv@ 100b8594     OGLContext.obj
 0002:000025d0       ??_C@_0BE@MIEDAFFN@isBIOpShaderEnabled?$AA@ 100b85d0     OGLContext.obj
 0002:000025e8       ??_C@_0FF@FHBBEKHH@OGLContext_IsGradShaderSupportAv@ 100b85e8     OGLContext.obj
 0002:00002640       ??_C@_0DL@HDAABHNN@OGLContext_IsGradShaderSupportAv@ 100b8640     OGLContext.obj
 0002:0000267c       ??_C@_0BE@FJGCKMNN@isGradShaderEnabled?$AA@ 100b867c     OGLContext.obj
 0002:00002690       ??_C@_03KOEHGMDN@Sun?$AA@  100b8690     OGLContext.obj
 0002:00002694       ??_C@_06HLMMPIBG@NVIDIA?$AA@ 100b8694     OGLContext.obj
 0002:0000269c       ??_C@_03LHBNGNJL@ATI?$AA@  100b869c     OGLContext.obj
 0002:000026a0       ??_C@_0BI@LELAEDDA@GL_ARB_fragment_program?$AA@ 100b86a0     OGLContext.obj
 0002:000026b8       ??_C@_0BI@LJGLDEBL@GL_NV_fragment_program2?$AA@ 100b86b8     OGLContext.obj
 0002:000026d0       ??_C@_0BH@MFDHEDPG@GL_NV_fragment_program?$AA@ 100b86d0     OGLContext.obj
 0002:000026e8       ??_C@_0BA@CKDOINOD@J2D_OGL_TEXRECT?$AA@ 100b86e8     OGLContext.obj
 0002:000026f8       ??_C@_0BJ@NKHMPMDJ@GL_ARB_texture_rectangle?$AA@ 100b86f8     OGLContext.obj
 0002:00002714       ??_C@_0CA@IICOLDCN@GL_ARB_texture_non_power_of_two?$AA@ 100b8714     OGLContext.obj
 0002:00002734       ??_C@_0BE@MEMOPMEA@GL_ARB_multitexture?$AA@ 100b8734     OGLContext.obj
 0002:00002748       ??_C@_0BH@MOFIMEJB@GL_ARB_fragment_shader?$AA@ 100b8748     OGLContext.obj
 0002:00002760       ??_C@_0DG@CPEAHLHI@OGLContext_IsVersionSupported?3?5v@ 100b8760     OGLContext.obj
 0002:00002798       ??_C@_0DH@LAFNNLF@OGLContext_CreateFragmentProgram@ 100b8798     OGLContext.obj
 0002:000027d0       ??_C@_0DG@BEDBHNAC@OGLContext_CreateFragmentProgram@ 100b87d0     OGLContext.obj
 0002:00002808       ??_C@_0DJ@KNDKHBFH@OGLContext_CreateFragmentProgram@ 100b8808     OGLContext.obj
 0002:00002844       ??_C@_0DI@PEPJIDCD@OGLContext_CreateFragmentProgram@ 100b8844     OGLContext.obj
 0002:0000287c       ??_C@_0L@ODCKAACH@?$CFs?5?$CFs?5?$CI?$CFs?$CJ?$AA@ 100b887c     OGLContext.obj
 0002:00002888       ??_C@_0BA@FLDEFIEN@unknown?5version?$AA@ 100b8888     OGLContext.obj
 0002:00002898       ??_C@_0BB@DBPKLKGP@Unknown?5Renderer?$AA@ 100b8898     OGLContext.obj
 0002:000028ac       ??_C@_0P@JELLBOOJ@Unknown?5Vendor?$AA@ 100b88ac     OGLContext.obj
 0002:000028bc       ??_C@_0CN@PDIDLNBF@OGLFuncs_OpenLibrary?3?5could?5not?5@ 100b88bc     OGLFuncs.obj
 0002:000028ec       ??_C@_0N@DOKAJOHF@opengl32?4dll?$AA@ 100b88ec     OGLFuncs.obj
 0002:000028fc       ??_C@_0BF@DKHHAOOK@OGLFuncs_OpenLibrary?$AA@ 100b88fc     OGLFuncs.obj
 0002:00002914       ??_C@_0CP@PKFIBNFG@OGLFuncs_CloseLibrary?3?5could?5not@ 100b8914     OGLFuncs.obj
 0002:00002944       ??_C@_0DD@NNGPOEBI@OGLFuncs_CloseLibrary?3?5library?5n@ 100b8944     OGLFuncs.obj
 0002:00002978       ??_C@_0BG@OKODABOE@OGLFuncs_CloseLibrary?$AA@ 100b8978     OGLFuncs.obj
 0002:00002990       ??_C@_0O@GCGJMHDL@wglShareLists?$AA@ 100b8990     OGLFuncs.obj
 0002:000029a0       ??_C@_0BC@FFKMKEGM@wglGetProcAddress?$AA@ 100b89a0     OGLFuncs.obj
 0002:000029b4       ??_C@_0BA@BMKCDCKD@wglGetCurrentDC?$AA@ 100b89b4     OGLFuncs.obj
 0002:000029c4       ??_C@_0BF@HABDPBMA@wglGetCurrentContext?$AA@ 100b89c4     OGLFuncs.obj
 0002:000029dc       ??_C@_0P@BBBFNDGG@wglMakeCurrent?$AA@ 100b89dc     OGLFuncs.obj
 0002:000029ec       ??_C@_0BB@OGAIJNNO@wglDeleteContext?$AA@ 100b89ec     OGLFuncs.obj
 0002:00002a00       ??_C@_0BB@GHMBNOIP@wglCreateContext?$AA@ 100b8a00     OGLFuncs.obj
 0002:00002a14       ??_C@_0DI@BEILIMNO@OGLFuncs_InitPlatformFuncs?3?5libr@ 100b8a14     OGLFuncs.obj
 0002:00002a4c       ??_C@_0BL@LAOPECGG@OGLFuncs_InitPlatformFuncs?$AA@ 100b8a4c     OGLFuncs.obj
 0002:00002a68       ??_C@_0L@KBLIPDFH@glViewport?$AA@ 100b8a68     OGLFuncs.obj
 0002:00002a74       ??_C@_0BA@HAHECJNK@glVertexPointer?$AA@ 100b8a74     OGLFuncs.obj
 0002:00002a84       ??_C@_0L@DIMCKAPO@glVertex2i?$AA@ 100b8a84     OGLFuncs.obj
 0002:00002a90       ??_C@_0L@LPFKLMDB@glVertex2f?$AA@ 100b8a90     OGLFuncs.obj
 0002:00002a9c       ??_C@_0L@INGMNOLD@glVertex2d?$AA@ 100b8a9c     OGLFuncs.obj
 0002:00002aa8       ??_C@_0N@IFPDDBNE@glTranslatef?$AA@ 100b8aa8     OGLFuncs.obj
 0002:00002ab8       ??_C@_0BA@NHKIJEMK@glTexSubImage2D?$AA@ 100b8ab8     OGLFuncs.obj
 0002:00002ac8       ??_C@_0BA@NFOOCKJD@glTexSubImage1D?$AA@ 100b8ac8     OGLFuncs.obj
 0002:00002ad8       ??_C@_0BA@KDNJAKA@glTexParameteri?$AA@ 100b8ad8     OGLFuncs.obj
 0002:00002ae8       ??_C@_0N@JBIKHLCC@glTexImage2D?$AA@ 100b8ae8     OGLFuncs.obj
 0002:00002af8       ??_C@_0N@JDMMMFHL@glTexImage1D?$AA@ 100b8af8     OGLFuncs.obj
 0002:00002b08       ??_C@_0L@OALDPGOK@glTexGendv?$AA@ 100b8b08     OGLFuncs.obj
 0002:00002b14       ??_C@_09GKNHFOEO@glTexGeni?$AA@ 100b8b14     OGLFuncs.obj
 0002:00002b20       ??_C@_09NFCDHIOH@glTexEnvi?$AA@ 100b8b20     OGLFuncs.obj
 0002:00002b2c       ??_C@_0BC@DAOMILMO@glTexCoordPointer?$AA@ 100b8b2c     OGLFuncs.obj
 0002:00002b40       ??_C@_0N@BKNBCOAE@glTexCoord2f?$AA@ 100b8b40     OGLFuncs.obj
 0002:00002b50       ??_C@_0N@CIOHEMIG@glTexCoord2d?$AA@ 100b8b50     OGLFuncs.obj
 0002:00002b60       ??_C@_09ECGPAEPL@glScissor?$AA@ 100b8b60     OGLFuncs.obj
 0002:00002b6c       ??_C@_08JCPEOPLK@glScalef?$AA@ 100b8b6c     OGLFuncs.obj
 0002:00002b78       ??_C@_07NCCFLGOL@glRecti?$AA@ 100b8b78     OGLFuncs.obj
 0002:00002b80       ??_C@_0N@CKFNNHOO@glReadPixels?$AA@ 100b8b80     OGLFuncs.obj
 0002:00002b90       ??_C@_0N@HFKHBECK@glReadBuffer?$AA@ 100b8b90     OGLFuncs.obj
 0002:00002ba0       ??_C@_0O@LMHMIIIJ@glRasterPos2i?$AA@ 100b8ba0     OGLFuncs.obj
 0002:00002bb0       ??_C@_0N@IHFNHGBL@glPushMatrix?$AA@ 100b8bb0     OGLFuncs.obj
 0002:00002bc0       ??_C@_0BD@JKGPLNEA@glPushClientAttrib?$AA@ 100b8bc0     OGLFuncs.obj
 0002:00002bd4       ??_C@_0N@KDMLHFJM@glPushAttrib?$AA@ 100b8bd4     OGLFuncs.obj
 0002:00002be4       ??_C@_0BF@FFCGNNIA@glPrioritizeTextures?$AA@ 100b8be4     OGLFuncs.obj
 0002:00002bfc       ??_C@_0M@JPEAAEEK@glPopMatrix?$AA@ 100b8bfc     OGLFuncs.obj
 0002:00002c08       ??_C@_0BC@GOOJKIDH@glPopClientAttrib?$AA@ 100b8c08     OGLFuncs.obj
 0002:00002c1c       ??_C@_0M@LLNGAHMN@glPopAttrib?$AA@ 100b8c1c     OGLFuncs.obj
 0002:00002c28       ??_C@_0BA@FFBJGNC@glPolygonOffset?$AA@ 100b8c28     OGLFuncs.obj
 0002:00002c38       ??_C@_0M@JAMJIGNB@glPixelZoom?$AA@ 100b8c38     OGLFuncs.obj
 0002:00002c44       ??_C@_0BB@HFCIPEN@glPixelTransferf?$AA@ 100b8c44     OGLFuncs.obj
 0002:00002c58       ??_C@_0O@JCCIGLOF@glPixelStorei?$AA@ 100b8c58     OGLFuncs.obj
 0002:00002c68       ??_C@_07DBAFHOII@glOrtho?$AA@ 100b8c68     OGLFuncs.obj
 0002:00002c70       ??_C@_0N@KDLNHKEJ@glMatrixMode?$AA@ 100b8c70     OGLFuncs.obj
 0002:00002c80       ??_C@_09GKGMNAKG@glLogicOp?$AA@ 100b8c80     OGLFuncs.obj
 0002:00002c8c       ??_C@_0O@LFHKEMK@glLoadMatrixd?$AA@ 100b8c8c     OGLFuncs.obj
 0002:00002c9c       ??_C@_0P@EJAFHEPO@glLoadIdentity?$AA@ 100b8c9c     OGLFuncs.obj
 0002:00002cac       ??_C@_0M@NJHAEPDN@glIsTexture?$AA@ 100b8cac     OGLFuncs.obj
 0002:00002cb8       ??_C@_0M@INHMIHKC@glIsEnabled?$AA@ 100b8cb8     OGLFuncs.obj
 0002:00002cc4       ??_C@_0BE@EDEDCKLI@glInterleavedArrays?$AA@ 100b8cc4     OGLFuncs.obj
 0002:00002cd8       ??_C@_06HEADGMBC@glHint?$AA@ 100b8cd8     OGLFuncs.obj
 0002:00002ce0       ??_C@_0BJ@GLJHCPGI@glGetTexLevelParameteriv?$AA@ 100b8ce0     OGLFuncs.obj
 0002:00002cfc       ??_C@_0M@OPOBFDCB@glGetString?$AA@ 100b8cfc     OGLFuncs.obj
 0002:00002d08       ??_C@_0O@DHHDCCLF@glGetIntegerv?$AA@ 100b8d08     OGLFuncs.obj
 0002:00002d18       ??_C@_0M@CKCOBONE@glGetFloatv?$AA@ 100b8d18     OGLFuncs.obj
 0002:00002d24       ??_C@_0L@FPKAMKHB@glGetError?$AA@ 100b8d24     OGLFuncs.obj
 0002:00002d30       ??_C@_0N@OFBMMCDH@glGetDoublev?$AA@ 100b8d30     OGLFuncs.obj
 0002:00002d40       ??_C@_0O@NLMELLCJ@glGetBooleanv?$AA@ 100b8d40     OGLFuncs.obj
 0002:00002d50       ??_C@_0O@LLMANLNK@glGenTextures?$AA@ 100b8d50     OGLFuncs.obj
 0002:00002d60       ??_C@_07COFELLJA@glFlush?$AA@ 100b8d60     OGLFuncs.obj
 0002:00002d68       ??_C@_08DFCPOKBK@glFinish?$AA@ 100b8d68     OGLFuncs.obj
 0002:00002d74       ??_C@_05OIBMBLHE@glEnd?$AA@ 100b8d74     OGLFuncs.obj
 0002:00002d7c       ??_C@_0BE@KECPKGNE@glEnableClientState?$AA@ 100b8d7c     OGLFuncs.obj
 0002:00002d90       ??_C@_08OOEHEKOP@glEnable?$AA@ 100b8d90     OGLFuncs.obj
 0002:00002d9c       ??_C@_0N@FLFIHFDP@glDrawPixels?$AA@ 100b8d9c     OGLFuncs.obj
 0002:00002dac       ??_C@_0N@EKCLGPL@glDrawBuffer?$AA@ 100b8dac     OGLFuncs.obj
 0002:00002dbc       ??_C@_0N@CMNPPOHA@glDrawArrays?$AA@ 100b8dbc     OGLFuncs.obj
 0002:00002dcc       ??_C@_0BF@LJDHBNBP@glDisableClientState?$AA@ 100b8dcc     OGLFuncs.obj
 0002:00002de4       ??_C@_09MHGMIMKN@glDisable?$AA@ 100b8de4     OGLFuncs.obj
 0002:00002df0       ??_C@_0M@NEJABAEP@glDepthFunc?$AA@ 100b8df0     OGLFuncs.obj
 0002:00002dfc       ??_C@_0BB@KMPLFJIC@glDeleteTextures?$AA@ 100b8dfc     OGLFuncs.obj
 0002:00002e10       ??_C@_0BE@PIJELGDB@glCopyTexSubImage2D?$AA@ 100b8e10     OGLFuncs.obj
 0002:00002e24       ??_C@_0N@OACCOOE@glCopyPixels?$AA@ 100b8e24     OGLFuncs.obj
 0002:00002e34       ??_C@_0P@DPKEGLKI@glColorPointer?$AA@ 100b8e34     OGLFuncs.obj
 0002:00002e44       ??_C@_0M@DLGOAHPH@glColorMask?$AA@ 100b8e44     OGLFuncs.obj
 0002:00002e50       ??_C@_0L@IEIGEAFK@glColor4ub?$AA@ 100b8e50     OGLFuncs.obj
 0002:00002e5c       ??_C@_09PKFCMFPF@glColor4f?$AA@ 100b8e5c     OGLFuncs.obj
 0002:00002e68       ??_C@_0L@BJFBHIOD@glColor3ub?$AA@ 100b8e68     OGLFuncs.obj
 0002:00002e74       ??_C@_0N@LJIELNG@glClearDepth?$AA@ 100b8e74     OGLFuncs.obj
 0002:00002e84       ??_C@_0N@OGLMDNKC@glClearColor?$AA@ 100b8e84     OGLFuncs.obj
 0002:00002e94       ??_C@_07IBAPPAHJ@glClear?$AA@ 100b8e94     OGLFuncs.obj
 0002:00002e9c       ??_C@_0M@PFBKOKOH@glBlendFunc?$AA@ 100b8e9c     OGLFuncs.obj
 0002:00002ea8       ??_C@_08PJOLDJDK@glBitmap?$AA@ 100b8ea8     OGLFuncs.obj
 0002:00002eb4       ??_C@_0O@JKKCIBGC@glBindTexture?$AA@ 100b8eb4     OGLFuncs.obj
 0002:00002ec4       ??_C@_07FCOIFMD@glBegin?$AA@ 100b8ec4     OGLFuncs.obj
 0002:00002ecc       ??_C@_0BG@DHOKJLEP@glAreTexturesResident?$AA@ 100b8ecc     OGLFuncs.obj
 0002:00002ee4       ??_C@_0M@BJGLMKCC@glAlphaFunc?$AA@ 100b8ee4     OGLFuncs.obj
 0002:00002ef0       ??_C@_0DE@EBPIEBFN@OGLFuncs_InitBaseFuncs?3?5library?5@ 100b8ef0     OGLFuncs.obj
 0002:00002f24       ??_C@_0BH@CAOEOEKO@OGLFuncs_InitBaseFuncs?$AA@ 100b8f24     OGLFuncs.obj
 0002:00002f3c       ??_C@_0BK@JOBLJGNA@wglGetExtensionsStringARB?$AA@ 100b8f3c     OGLFuncs.obj
 0002:00002f58       ??_C@_0BJ@FAPGEIJD@wglMakeContextCurrentARB?$AA@ 100b8f58     OGLFuncs.obj
 0002:00002f74       ??_C@_0BD@HDEONFON@wglQueryPbufferARB?$AA@ 100b8f74     OGLFuncs.obj
 0002:00002f88       ??_C@_0BF@NBNLOHEN@wglDestroyPbufferARB?$AA@ 100b8f88     OGLFuncs.obj
 0002:00002fa0       ??_C@_0BH@GHMHENEG@wglReleasePbufferDCARB?$AA@ 100b8fa0     OGLFuncs.obj
 0002:00002fb8       ??_C@_0BD@PBENHCEO@wglGetPbufferDCARB?$AA@ 100b8fb8     OGLFuncs.obj
 0002:00002fcc       ??_C@_0BE@EEGPJDJE@wglCreatePbufferARB?$AA@ 100b8fcc     OGLFuncs.obj
 0002:00002fe0       ??_C@_0BN@GDKHKIAN@wglGetPixelFormatAttribivARB?$AA@ 100b8fe0     OGLFuncs.obj
 0002:00003000       ??_C@_0BI@JPMGGILH@wglChoosePixelFormatARB?$AA@ 100b9000     OGLFuncs.obj
 0002:00003018       ??_C@_0BC@MJFNICLA@glDeleteObjectARB?$AA@ 100b9018     OGLFuncs.obj
 0002:0000302c       ??_C@_0BK@IDAIKMOL@glGetObjectParameterivARB?$AA@ 100b902c     OGLFuncs.obj
 0002:00003048       ??_C@_0BA@FLIOBLOG@glGetInfoLogARB?$AA@ 100b9048     OGLFuncs.obj
 0002:00003058       ??_C@_0BC@OHCOJECC@glGetProgramivARB?$AA@ 100b9058     OGLFuncs.obj
 0002:0000306c       ??_C@_0BI@CAFPPHDC@glGetUniformLocationARB?$AA@ 100b906c     OGLFuncs.obj
 0002:00003084       ??_C@_0BA@EFILMFAP@glUniform4fvARB?$AA@ 100b9084     OGLFuncs.obj
 0002:00003094       ??_C@_0P@PFBFJFPB@glUniform4fARB?$AA@ 100b9094     OGLFuncs.obj
 0002:000030a4       ??_C@_0BA@IACMPLIB@glUniform3fvARB?$AA@ 100b90a4     OGLFuncs.obj
 0002:000030b4       ??_C@_0P@OIBAKFEJ@glUniform3fARB?$AA@ 100b90b4     OGLFuncs.obj
 0002:000030c4       ??_C@_0P@CDEMHGOM@glUniform2fARB?$AA@ 100b90c4     OGLFuncs.obj
 0002:000030d4       ??_C@_0BA@BHLDOKKI@glUniform1fvARB?$AA@ 100b90d4     OGLFuncs.obj
 0002:000030e4       ??_C@_0P@KFNIAEEC@glUniform1fARB?$AA@ 100b90e4     OGLFuncs.obj
 0002:000030f4       ??_C@_0P@CHIIJDJD@glUniform1iARB?$AA@ 100b90f4     OGLFuncs.obj
 0002:00003104       ??_C@_0BG@JEOFPDIM@glUseProgramObjectARB?$AA@ 100b9104     OGLFuncs.obj
 0002:0000311c       ??_C@_0BD@BEDGBOPM@glCompileShaderARB?$AA@ 100b911c     OGLFuncs.obj
 0002:00003130       ??_C@_0BC@MCCOFGJG@glShaderSourceARB?$AA@ 100b9130     OGLFuncs.obj
 0002:00003144       ??_C@_0BI@FMNPOEGE@glCreateShaderObjectARB?$AA@ 100b9144     OGLFuncs.obj
 0002:0000315c       ??_C@_0BB@HPIAOOAG@glLinkProgramARB?$AA@ 100b915c     OGLFuncs.obj
 0002:00003170       ??_C@_0BC@GINLBKLJ@glAttachObjectARB?$AA@ 100b9170     OGLFuncs.obj
 0002:00003184       ??_C@_0BJ@KGMBEPBI@glCreateProgramObjectARB?$AA@ 100b9184     OGLFuncs.obj
 0002:000031a0       ??_C@_0BN@BAGKOCJP@glFramebufferRenderbufferEXT?$AA@ 100b91a0     OGLFuncs.obj
 0002:000031c0       ??_C@_0BK@LFOBEPCF@glFramebufferTexture2DEXT?$AA@ 100b91c0     OGLFuncs.obj
 0002:000031dc       ??_C@_0BM@GOHPHGGE@glCheckFramebufferStatusEXT?$AA@ 100b91dc     OGLFuncs.obj
 0002:000031f8       ??_C@_0BF@FFIJGJAM@glGenFramebuffersEXT?$AA@ 100b91f8     OGLFuncs.obj
 0002:00003210       ??_C@_0BI@NPEJNLO@glDeleteFramebuffersEXT?$AA@ 100b9210     OGLFuncs.obj
 0002:00003228       ??_C@_0BF@EMIECBAK@glBindFramebufferEXT?$AA@ 100b9228     OGLFuncs.obj
 0002:00003240       ??_C@_0BJ@NPDAOAPK@glRenderbufferStorageEXT?$AA@ 100b9240     OGLFuncs.obj
 0002:0000325c       ??_C@_0BG@HHIDFCMP@glGenRenderbuffersEXT?$AA@ 100b925c     OGLFuncs.obj
 0002:00003274       ??_C@_0BJ@FCLEPNJL@glDeleteRenderbuffersEXT?$AA@ 100b9274     OGLFuncs.obj
 0002:00003290       ??_C@_0BG@GLKALDNN@glBindRenderbufferEXT?$AA@ 100b9290     OGLFuncs.obj
 0002:000032a8       ??_C@_0N@JAEIBBBF@glTexImage3D?$AA@ 100b92a8     OGLFuncs.obj
 0002:000032b8       ??_C@_0BF@GFGCIEPA@glMultiTexCoord2fARB?$AA@ 100b92b8     OGLFuncs.obj
 0002:000032d0       ??_C@_0BD@IKCKKKNH@glActiveTextureARB?$AA@ 100b92d0     OGLFuncs.obj
 0002:000032e4       ??_C@_0DD@OHHHECHD@OGLFuncs_InitExtFuncs?3?5library?5n@ 100b92e4     OGLFuncs.obj
 0002:00003318       ??_C@_0BG@CCOEKAOG@OGLFuncs_InitExtFuncs?$AA@ 100b9318     OGLFuncs.obj
 0002:00003330       ??_C@_0CP@CKHCPNEK@OGLMaskBlit_MaskBlit?3?5could?5not?5@ 100b9330     OGLMaskBlit.obj
 0002:00003360       ??_C@_0BG@KHDFLEBJ@dist?5?$DN?5fract?$CIdist?$CJ?$DL?$CFs?$AA@ 100b9360     OGLPaints.obj
 0002:00003378       ??_C@_0DF@LNGIPPEG@dist?5?$DN?51?40?5?9?5?$CIabs?$CIfract?$CIdist?5?$CK?50@ 100b9378     OGLPaints.obj
 0002:000033b0       ??_C@_0FF@OCFEPBJF@if?5?$CIdist?5?$DM?$DN?50?40?$CJ?5?$HL?5?5?5?5tc?5?$DN?50?40?$DL?$HN@ 100b93b0     OGLPaints.obj
 0002:00003408       ??_C@_0MH@IJNKAMHG@int?5i?$DLfloat?5relFraction?5?$DN?50?40?$DLfo@ 100b9408     OGLPaints.obj
 0002:000034d0       ??_C@_0BJN@NLJFNKHN@const?5int?5TEXTURE_SIZE?5?$DN?5?$CFd?$DLcons@ 100b94d0     OGLPaints.obj
 0002:00003670       ??_C@_06ENIPCAGE@colors?$AA@ 100b9670     OGLPaints.obj
 0002:00003678       ??_C@_04LFLEPBN@mask?$AA@  100b9678     OGLPaints.obj
 0002:00003680       ??_C@_0DJ@PMFHCFII@OGLPaints_CreateMultiGradProgram@ 100b9680     OGLPaints.obj
 0002:000036bc       ??_C@_0DO@CNDMGCFE@result?4rgb?5?$DN?51?4055?5?$CK?5pow?$CIresult?4@ 100b96bc     OGLPaints.obj
 0002:000036fc       ??_C@_0BJ@PMHJIPFF@dist?5?$DN?5gl_TexCoord?$FL0?$FN?4s?$DL?$AA@ 100b96fc     OGLPaints.obj
 0002:00003718       ??_C@_0CO@CADKMLCD@result?5?$CK?$DN?5texture2D?$CImask?0?5gl_Tex@ 100b9718     OGLPaints.obj
 0002:00003748       ??_C@_0BI@OEFMNCFN@uniform?5sampler2D?5mask?$DL?$AA@ 100b9748     OGLPaints.obj
 0002:00003760       ??_C@_09JJEJIPBB@fractions?$AA@ 100b9760     OGLPaints.obj
 0002:00003770       ??_C@_0FP@LFHOGFEE@vec3?5fragCoord?5?$DN?5vec3?$CIgl_FragCoo@ 100b9770     OGLPaints.obj
 0002:000037d0       ??_C@_0CI@HFOMOKPK@uniform?5vec3?5params?$DLuniform?5floa@ 100b97d0     OGLPaints.obj
 0002:000037f8       ??_C@_04NBKHBGLK@yoff?$AA@ 100b97f8     OGLPaints.obj
 0002:00003800       ??_C@_06JMGHNNK@params?$AA@ 100b9800     OGLPaints.obj
 0002:00003808       ??_C@_0OA@DMKHPAJF@vec3?5fragCoord?5?$DN?5?5?5?5vec3?$CIgl_Frag@ 100b9808     OGLPaints.obj
 0002:000038e8       ??_C@_0DG@BPLAOLHD@uniform?5vec3?5m0?$DLuniform?5vec3?5m1?$DL@ 100b98e8     OGLPaints.obj
 0002:00003920       ??_C@_07EHFGHJDG@precalc?$AA@ 100b9920     OGLPaints.obj
 0002:00003928       ??_C@_02IGOMHJCM@m1?$AA@   100b9928     OGLPaints.obj
 0002:0000392c       ??_C@_02JPPHEIGN@m0?$AA@   100b992c     OGLPaints.obj
 0002:00003930       ??_C@_0CO@DGLLLPAK@OGLRenderQueue_flushBuffer?3?5inva@ 100b9930     OGLRenderQueue.obj
 0002:00003960       ??_C@_0DN@HKAMNJNB@OGLRenderQueue_flushBuffer?3?5cann@ 100b9960     OGLRenderQueue.obj
 0002:000039a0       ??_C@_0EJC@CDHEJNM@void?5main?$CI?$CJ?5?$HL?5?5?5?5vec2?5oleg1?5?$DN?5dF@ 100b99a0     OGLRenderer.obj
 0002:00003e38       __real@3fe99999a0000000    100b9e38     OGLRenderer.obj
 0002:00003e40       __real@3ff3333340000000    100b9e40     OGLRenderer.obj
 0002:00003e48       __real@3fc99999a0000000    100b9e48     OGLRenderer.obj
 0002:00003e50       ??_C@_0CL@HDHGOEKO@OGLRenderer_DrawPoly?3?5points?5arr@ 100b9e50     OGLRenderer.obj
 0002:00003e7c       __real@40c00000            100b9e7c     OGLRenderer.obj
 0002:00003e80       __real@40a00000            100b9e80     OGLRenderer.obj
 0002:00003e88       ??_C@_0EB@OPNFIKNH@OGLRenderer_EnableAAParallelogra@ 100b9e88     OGLRenderer.obj
 0002:00003ecc       ??_C@_0DG@HPOLHLLA@OGLSD_InitTextureObject?3?5texture@ 100b9ecc     OGLSurfaceData.obj
 0002:00003f04       ??_C@_0DJ@KABALKLP@OGLSD_InitTextureObject?3?5actual?5@ 100b9f04     OGLSurfaceData.obj
 0002:00003f40       ??_C@_0CG@GKEENEEG@OGLSD_InitTextureObject?3?5ops?5are@ 100b9f40     OGLSurfaceData.obj
 0002:00003f68       ??_C@_0DG@EDCJHMII@OGLSD_InitFBObject?3?5could?5not?5fi@ 100b9f68     OGLSurfaceData.obj
 0002:00003fa0       ??_C@_0CO@MFIGBLGA@OGLSurfaceData_getTextureTarget?3@ 100b9fa0     OGLSurfaceData.obj
 0002:00003fd0       ??_C@_0CK@NIFGCIKL@OGLSurfaceData_getTextureID?3?5ops@ 100b9fd0     OGLSurfaceData.obj
 0002:00003ffc       ??_C@_0N@NPELAMKE@nativeHeight?$AA@ 100b9ffc     OGLSurfaceData.obj
 0002:0000400c       ??_C@_0M@KHPBEKDC@nativeWidth?$AA@ 100ba00c     OGLSurfaceData.obj
 0002:00004018       ??_C@_07IJEOLGPP@dispose?$AA@ 100ba018     OGLSurfaceData.obj
 0002:00004020       ??_C@_05JIFFKGAL@?$CIJJ?$CJV?$AA@ 100ba020     OGLSurfaceData.obj
 0002:00004028       ??_C@_0BM@JMDPHIHF@OGLSD_Lock?5not?5implemented?$CB?$AA@ 100ba028     OGLSurfaceData.obj
 0002:00004044       ??_C@_0CC@HBBCENDC@OGLSD_GetRasInfo?5not?5implemented@ 100ba044     OGLSurfaceData.obj
 0002:00004068       ??_C@_0BO@FMEIJMCN@OGLSD_Unlock?5not?5implemented?$CB?$AA@ 100ba068     OGLSurfaceData.obj
 0002:00004088       ??_C@_0DK@DPNBFBJL@OGLSurfaceData_initTexture?3?5coul@ 100ba088     OGLSurfaceData.obj
 0002:000040c4       ??_C@_0CJ@FJOABINF@OGLSurfaceData_initTexture?3?5ops?5@ 100ba0c4     OGLSurfaceData.obj
 0002:000040f0       ??_C@_0DF@CCFGNMPM@OGLSurfaceData_initFBObject?3?5cou@ 100ba0f0     OGLSurfaceData.obj
 0002:00004128       ??_C@_0DL@OEPCPIGL@OGLSurfaceData_initFBObject?3?5cou@ 100ba128     OGLSurfaceData.obj
 0002:00004164       ??_C@_0CK@GDECMOIL@OGLSurfaceData_initFBObject?3?5ops@ 100ba164     OGLSurfaceData.obj
 0002:00004190       ??_C@_0DM@BPAHCNJL@OGLSurfaceData_initFlipBackbuffe@ 100ba190     OGLSurfaceData.obj
 0002:000041cc       ??_C@_0DJ@CINAALLH@OGLSurfaceData_initFlipBackbuffe@ 100ba1cc     OGLSurfaceData.obj
 0002:00004208       ??_C@_0DA@CDJOLDBD@OGLSurfaceData_initFlipBackbuffe@ 100ba208     OGLSurfaceData.obj
 0002:00004238       ??_C@_0CAG@PIBCDJCJ@uniform?5vec3?5src_adj?$DLuniform?5sam@ 100ba238     OGLTextRenderer.obj
 0002:00004440       ??_C@_0DF@CGPPPICJ@OGLTR_InitGlyphCache?3?5could?5not?5@ 100ba440     OGLTextRenderer.obj
 0002:00004478       ??_C@_09PBJFMMDD@gamma_tex?$AA@ 100ba478     OGLTextRenderer.obj
 0002:00004484       ??_C@_0N@EDPJBFNH@invgamma_tex?$AA@ 100ba484     OGLTextRenderer.obj
 0002:00004494       ??_C@_07HEKLJOFC@dst_tex?$AA@ 100ba494     OGLTextRenderer.obj
 0002:0000449c       ??_C@_09NJCNLIHD@glyph_tex?$AA@ 100ba49c     OGLTextRenderer.obj
 0002:000044a8       ??_C@_0DD@OPGEJHLD@OGLTR_CreateLCDTextProgram?3?5erro@ 100ba4a8     OGLTextRenderer.obj
 0002:000044e0       __real@402e000000000000    100ba4e0     OGLTextRenderer.obj
 0002:000044e8       __real@4059000000000000    100ba4e8     OGLTextRenderer.obj
 0002:000044f0       ??_C@_07KEIACCLO@src_adj?$AA@ 100ba4f0     OGLTextRenderer.obj
 0002:000044f8       __real@3fa0000000000000    100ba4f8     OGLTextRenderer.obj
 0002:00004500       __real@3f60000000000000    100ba500     OGLTextRenderer.obj
 0002:00004508       ??_C@_0CI@LNCFIKH@OGLTR_DrawGlyphList?3?5glyph?5info?5@ 100ba508     OGLTextRenderer.obj
 0002:00004530       __real@3f400000            100ba530     OGLVertexCache.obj
 0002:00004534       __real@3f600000            100ba534     OGLVertexCache.obj
 0002:00004538       ??_C@_0BK@OPEJFCCI@WGLGraphicsConfig_initWGL?$AA@ 100ba538     WGLGraphicsConfig.obj
 0002:00004554       ??_C@_0CJ@HGEGGDEB@WGLGC_DestroyOGLContext?3?5context@ 100ba554     WGLGraphicsConfig.obj
 0002:00004580       ??_C@_0CN@LNGNIHHK@OGLGC_DestroyOGLGraphicsConfig?3?5@ 100ba580     WGLGraphicsConfig.obj
 0002:000045b0       ??_C@_0DK@FBPEBGCH@WGLGC_CreateScratchWindow?3?5error@ 100ba5b0     WGLGraphicsConfig.obj
 0002:000045ec       ??_C@_17JEOEGBLC@?$AAT?$AAm?$AAp?$AA?$AA@ 100ba5ec     WGLGraphicsConfig.obj
 0002:000045f4       ??_C@_0DN@LLHBPCJF@WGLGC_GetPixelFormatForDC?3?5chose@ 100ba5f4     WGLGraphicsConfig.obj
 0002:00004634       ??_C@_0DN@PBIGIJHH@WGLGC_GetPixelFormatForDC?3?5could@ 100ba634     WGLGraphicsConfig.obj
 0002:00004674       ??_C@_0BF@NGENGNAL@false?5?$CIlarge?5depth?$CJ?6?$AA@ 100ba674     WGLGraphicsConfig.obj
 0002:0000468c       ??_C@_05LFIOBDML@true?6?$AA@ 100ba68c     WGLGraphicsConfig.obj
 0002:00004694       ??_C@_0DM@JIBEIILK@?$FLV?$FN?5?5?5?5?5pixfmt?$DN?$CFd?5db?$DN?$CFd?5alpha?$DN?$CFd@ 100ba694     WGLGraphicsConfig.obj
 0002:000046d0       ??_C@_0BL@KIBKMAIL@?5?5candidate?5pixel?5formats?3?$AA@ 100ba6d0     WGLGraphicsConfig.obj
 0002:000046ec       ??_C@_0DC@KIOPPNBE@WGLGC_GetPixelFormatForDC?3?5no?5pi@ 100ba6ec     WGLGraphicsConfig.obj
 0002:00004720       ??_C@_0DH@DKHKLNKK@WGLGC_GetPixelFormatForDC?3?5error@ 100ba720     WGLGraphicsConfig.obj
 0002:00004758       ??_C@_0BK@CNAEBAEN@WGLGC_GetPixelFormatForDC?$AA@ 100ba758     WGLGraphicsConfig.obj
 0002:00004774       ??_C@_0DL@GHAFDJDO@WGLGC_SetBasicPixelFormatForDC?3?5@ 100ba774     WGLGraphicsConfig.obj
 0002:000047b0       ??_C@_0DA@LNMPIOJF@WGLGC_CreateContext?3?5error?5setti@ 100ba7b0     WGLGraphicsConfig.obj
 0002:000047e0       ??_C@_0DJ@KJEJLMAF@WGLGC_CreateContext?3?5could?5not?5g@ 100ba7e0     WGLGraphicsConfig.obj
 0002:0000481c       ??_C@_0DF@EIOHBJHB@WGLGC_CreateContext?3?5could?5not?5c@ 100ba81c     WGLGraphicsConfig.obj
 0002:00004854       ??_C@_0DJ@KBBNOII@WGLGC_InitExtFuncs?3?5could?5not?5in@ 100ba854     WGLGraphicsConfig.obj
 0002:00004890       ??_C@_0DI@MAHPPANE@WGLGC_InitExtFuncs?3?5could?5not?5ma@ 100ba890     WGLGraphicsConfig.obj
 0002:000048c8       ??_C@_0DG@IJGLOACI@WGLGC_InitExtFuncs?3?5could?5not?5cr@ 100ba8c8     WGLGraphicsConfig.obj
 0002:00004900       ??_C@_0DG@MOFEOGPC@WGLGC_InitExtFuncs?3?5could?5not?5fi@ 100ba900     WGLGraphicsConfig.obj
 0002:00004938       ??_C@_0DM@EBDAFHPD@WGLGC_InitOGLContext?3?5could?5not?5@ 100ba938     WGLGraphicsConfig.obj
 0002:00004974       ??_C@_0DJ@OPCINGAH@WGLGC_InitOGLContext?3?5could?5not?5@ 100ba974     WGLGraphicsConfig.obj
 0002:000049b0       ??_C@_0EA@MJNMEJCA@WGLGraphicsConfig_getWGLConfigIn@ 100ba9b0     WGLGraphicsConfig.obj
 0002:000049f0       ??_C@_0EK@IBMHAGEH@WGLGraphicsConfig_getWGLConfigIn@ 100ba9f0     WGLGraphicsConfig.obj
 0002:00004a3c       ??_C@_0DK@HFNCKIHG@WGLGraphicsConfig_getWGLConfigIn@ 100baa3c     WGLGraphicsConfig.obj
 0002:00004a78       ??_C@_0EK@ENHIOLOL@WGLGraphicsConfig_getWGLConfigIn@ 100baa78     WGLGraphicsConfig.obj
 0002:00004ac8       ??_C@_0EF@MHHIMBPM@WGLGraphicsConfig_getWGLConfigIn@ 100baac8     WGLGraphicsConfig.obj
 0002:00004b10       ??_C@_0BF@OGGDOHFN@WGL_ARB_pixel_format?$AA@ 100bab10     WGLGraphicsConfig.obj
 0002:00004b28       ??_C@_0BK@DBLHDHCO@WGL_ARB_make_current_read?$AA@ 100bab28     WGLGraphicsConfig.obj
 0002:00004b44       ??_C@_0BA@DOKENKKH@WGL_ARB_pbuffer?$AA@ 100bab44     WGLGraphicsConfig.obj
 0002:00004b54       ??_C@_0DL@LPKOHNGL@WGLGraphicsConfig_getWGLConfigIn@ 100bab54     WGLGraphicsConfig.obj
 0002:00004b90       ??_C@_0DG@LKLEKJCC@WGLGraphicsConfig_getWGLConfigIn@ 100bab90     WGLGraphicsConfig.obj
 0002:00004bc8       ??_C@_04MLLLIHIP@null?$AA@ 100babc8     WGLGraphicsConfig.obj
 0002:00004bd0       ??_C@_0EI@FMKKHFE@WGLGraphicsConfig_getWGLConfigIn@ 100babd0     WGLGraphicsConfig.obj
 0002:00004c18       ??_C@_0DK@CJCKPCG@WGLGraphicsConfig_getWGLConfigIn@ 100bac18     WGLGraphicsConfig.obj
 0002:00004c58       ??_C@_0EB@OJKHMIGA@WGLGraphicsConfig_getWGLConfigIn@ 100bac58     WGLGraphicsConfig.obj
 0002:00004c9c       ??_C@_0DP@KBBGMOCE@WGLGraphicsconfig_getWGLConfigIn@ 100bac9c     WGLGraphicsConfig.obj
 0002:00004ce0       ??_C@_0EE@KCNADFPP@WGLGraphicsConfig_getWGLConfigIn@ 100bace0     WGLGraphicsConfig.obj
 0002:00004d28       ??_C@_0EG@KCJDGKLL@WGLGraphicsConfig_getWGLConfigIn@ 100bad28     WGLGraphicsConfig.obj
 0002:00004d70       ??_C@_0EI@CMNELNOJ@WGLGraphicsConfig_getWGLConfigIn@ 100bad70     WGLGraphicsConfig.obj
 0002:00004db8       ??_C@_0DN@BOHNHLE@WGLGraphicsConfig_getWGLConfigIn@ 100badb8     WGLGraphicsConfig.obj
 0002:00004df8       ??_C@_0CD@NFGDDIFF@WGLGraphicsConfig_getWGLConfigIn@ 100badf8     WGLGraphicsConfig.obj
 0002:00004e1c       ??_C@_0BP@LGLPAELA@Config?5info?5is?5null?5in?5initOps?$AA@ 100bae1c     WGLSurfaceData.obj
 0002:00004e3c       ??_C@_0BI@PLFAEBLF@creating?5native?5wgl?5ops?$AA@ 100bae3c     WGLSurfaceData.obj
 0002:00004e54       ??_C@_0DD@BCNJPHIC@WGLSD_MakeCurrentToScratch?3?5coul@ 100bae54     WGLSurfaceData.obj
 0002:00004e88       ??_C@_0CM@FGBOODHJ@WGLSD_MakeCurrentToScratch?3?5cont@ 100bae88     WGLSurfaceData.obj
 0002:00004eb4       ??_C@_0CM@FFPLFPGD@OGLSD_GetNativeConfigInfo?3?5wgl?5o@ 100baeb4     WGLSurfaceData.obj
 0002:00004ee0       ??_C@_0CI@DPLOADPJ@OGLSD_GetNativeConfigInfo?3?5ops?5a@ 100baee0     WGLSurfaceData.obj
 0002:00004f08       ??_C@_0DB@CAGIJAEC@OGLSD_SetScratchContext?3?5wgl?5con@ 100baf08     WGLSurfaceData.obj
 0002:00004f3c       ??_C@_0DE@EHDONDHK@OGLSD_MakeOGLContextCurrent?3?5cou@ 100baf3c     WGLSurfaceData.obj
 0002:00004f70       ??_C@_0CN@PEHDDMJB@OGLSD_MakeOGLContextCurrent?3?5con@ 100baf70     WGLSurfaceData.obj
 0002:00004fa0       ??_C@_0DA@KOENLFKA@OGLSD_InitOGLWindow?3?5error?5setti@ 100bafa0     WGLSurfaceData.obj
 0002:00004fd0       ??_C@_0CB@JEHNCIOD@OGLSD_InitOGLWindow?3?5invalid?5hdc@ 100bafd0     WGLSurfaceData.obj
 0002:00004ff4       ??_C@_0CI@NOJPDFMM@OGLSD_InitOGLWindow?3?5disposed?5co@ 100baff4     WGLSurfaceData.obj
 0002:0000501c       ??_C@_0DC@HOAOGFJB@OGLSD_InitOGLWindow?3?5graphics?5co@ 100bb01c     WGLSurfaceData.obj
 0002:00005050       ??_C@_0CG@BMPIEOFF@OGLSD_InitOGLWindow?3?5wgl?5ops?5are@ 100bb050     WGLSurfaceData.obj
 0002:00005078       ??_C@_0CC@KPGMIIFL@OGLSD_InitOGLWindow?3?5ops?5are?5nul@ 100bb078     WGLSurfaceData.obj
 0002:0000509c       ??_C@_0CP@IFMPMLOD@WGLSurfaceData_initPbuffer?3?5inva@ 100bb09c     WGLSurfaceData.obj
 0002:000050cc       ??_C@_0DM@KALMGIAL@WGLSurfaceData_initPbuffer?3?5actu@ 100bb0cc     WGLSurfaceData.obj
 0002:00005108       ??_C@_0DJ@EGBGNNHO@WGLSurfaceData_initPbuffer?3?5coul@ 100bb108     WGLSurfaceData.obj
 0002:00005144       ??_C@_0DJ@NIKLJGMB@WGLSurfaceData_initPbuffer?3?5coul@ 100bb144     WGLSurfaceData.obj
 0002:00005180       ??_C@_0EA@EKCKHIAL@WGLSurfaceData_initPbuffer?3?5coul@ 100bb180     WGLSurfaceData.obj
 0002:000051c0       ??_C@_0DM@OJCJEINE@WGLSurfaceData_initPbuffer?3?5coul@ 100bb1c0     WGLSurfaceData.obj
 0002:000051fc       ??_C@_0DE@GMJOOFJC@WGLSurfaceData_initPbuffer?3?5wgl?5@ 100bb1fc     WGLSurfaceData.obj
 0002:00005230       ??_C@_0CN@ILKPMDDM@WGLSurfaceData_initPbuffer?3?5wgl?5@ 100bb230     WGLSurfaceData.obj
 0002:00005260       ??_C@_0CJ@CCLADAGI@WGLSurfaceData_initPbuffer?3?5ops?5@ 100bb260     WGLSurfaceData.obj
 0002:0000528c       ??_C@_0CM@ICINPCBI@OGLSD_SwapBuffers?3?5error?5while?5r@ 100bb28c     WGLSurfaceData.obj
 0002:000052b8       ??_C@_0CI@OPGAFEBC@OGLSD_SwapBuffers?3?5error?5in?5Swap@ 100bb2b8     WGLSurfaceData.obj
 0002:000052e0       ??_C@_0BP@FNNBLDHO@OGLSD_SwapBuffers?3?5invalid?5hdc?$AA@ 100bb2e0     WGLSurfaceData.obj
 0002:00005300       ??_C@_0CG@JJLDBHKL@OGLSD_SwapBuffers?3?5disposed?5comp@ 100bb300     WGLSurfaceData.obj
 0002:00005328       ??_C@_0DI@PNMHDKKL@AccelGlyphCache_Init?3?5could?5not?5@ 100bb328     AccelGlyphCache.obj
 0002:00005364       ??_7CriticalSection@@6B@   100bb364     CmdIDList.obj
 0002:00005374       ??_7Hashtable@@6B@         100bb374     Hashtable.obj
 0002:00005380       ??_7D3DContext@@6B@        100bb380     Devices.obj
 0002:00005384       ??_C@_0DM@KBLGNHPI@Devices?3?3UpdateInstance?3?5Failed?5@ 100bb384     Devices.obj
 0002:000053c0       ??_C@_1CO@OHAGJCBG@?$AAS?$AAu?$AAn?$AAA?$AAw?$AAt?$AAD?$AAr?$AAa?$AAw?$AAi?$AAn?$AAg?$AAS?$AAt?$AAa?$AAt?$AAe?$AAP?$AAr?$AAo?$AAp?$AA?$AA@ 100bb3c0     GDIRenderer.obj
 0002:000053f0       __real@3f91df46a2506b91    100bb3f0     GDIRenderer.obj
 0002:000053f8       __real@3febb67ae8584caa    100bb3f8     GDIRenderer.obj
 0002:00005400       ??_C@_0CO@OJAGPGEO@GDIRenderer_devCopyArea?3?5invalid@ 100bb400     GDIRenderer.obj
 0002:00005430       ??_C@_0O@GIDKOGNF@currentThread?$AA@ 100bb430     GDIWindowSurfaceData.obj
 0002:00005440       ??_C@_0BF@GLBLFFEM@?$CI?$CJLjava?1lang?1Thread?$DL?$AA@ 100bb440     GDIWindowSurfaceData.obj
 0002:00005458       ??_C@_0BB@NOKBFPFO@java?1lang?1Thread?$AA@ 100bb458     GDIWindowSurfaceData.obj
 0002:0000546c       ??_C@_0BJ@DMANKKOB@component?5argument?5pData?$AA@ 100bb46c     GDIWindowSurfaceData.obj
 0002:00005488       ??_C@_0CF@OLHIMFDC@GDIWindowSurfaceData?3?5bounds?5cha@ 100bb488     GDIWindowSurfaceData.obj
 0002:000054b0       ??_C@_0BD@KKPBELBN@disposed?5component?$AA@ 100bb4b0     GDIWindowSurfaceData.obj
 0002:000054c4       ??_C@_0DD@CBHKFKEI@GDIWindowSurfaceData_GetWindow?3?5@ 100bb4c4     GDIWindowSurfaceData.obj
 0002:000054f8       ??_C@_0BC@EDLKDGDG@HDC?5for?5component?$AA@ 100bb4f8     GDIWindowSurfaceData.obj
 0002:0000550c       ??_C@_0CE@LILIKHGI@Win32?5LockRasData?5cannot?5nest?5lo@ 100bb50c     GDIWindowSurfaceData.obj
 0002:00005530       ??_C@_0CG@MEHMAKKM@Unmatched?5unlock?5on?5Win32?5Surfac@ 100bb530     GDIWindowSurfaceData.obj
 0002:00005558       ??_C@_0P@OLAMMCGN@bounds?5changed?$AA@ 100bb558     GDIWindowSurfaceData.obj
 0002:00005568       ??_C@_06CPMBPJIM@d3dSet?$AA@ 100bb568     WindowsFlags.obj
 0002:00005570       ??_C@_0L@FCONKOAK@d3dEnabled?$AA@ 100bb570     WindowsFlags.obj
 0002:0000557c       ??_C@_0BA@MKGCGANM@setHighDPIAware?$AA@ 100bb57c     WindowsFlags.obj
 0002:0000558c       ??_C@_0M@CLNOEJFC@javaVersion?$AA@ 100bb58c     WindowsFlags.obj
 0002:00005598       ??_C@_0BD@JFADHEFE@Ljava?1lang?1String?$DL?$AA@ 100bb598     WindowsFlags.obj
 0002:000055ac       ??_C@_0BA@HAJILDLM@disableRegistry?$AA@ 100bb5ac     WindowsFlags.obj
 0002:000055bc       ??_C@_0O@IMCKAJNM@checkRegistry?$AA@ 100bb5bc     WindowsFlags.obj
 0002:000055cc       ??_C@_0L@OCFAGGDN@accelReset?$AA@ 100bb5cc     WindowsFlags.obj
 0002:000055d8       ??_C@_0BI@LMELKCGH@offscreenSharingEnabled?$AA@ 100bb5d8     WindowsFlags.obj
 0002:000055f0       ??_C@_07JFLIEEAK@J2D_D3D?$AA@ 100bb5f0     WindowsFlags.obj
 0002:000055f8       ??_C@_09ICAJBIOE@hPrintJob?$AA@ 100bb5f8     WPrinterJob.obj
 0002:00005604       ??_C@_1BA@GMFJBEKP@?$AAw?$AAi?$AAn?$AAd?$AAo?$AAw?$AAs?$AA?$AA@ 100bb604     WPrinterJob.obj
 0002:00005614       ??_C@_1O@LNKPKJJI@?$AAd?$AAe?$AAv?$AAi?$AAc?$AAe?$AA?$AA@ 100bb614     WPrinterJob.obj
 0002:00005624       ??_C@_17KOIOICEE@?$AA?0?$AA?0?$AA?0?$AA?$AA@ 100bb624     WPrinterJob.obj
 0002:0000562c       ??_C@_0BB@FLFAIHG@java?1lang?1String?$AA@ 100bb62c     WPrinterJob.obj
 0002:00005640       ??_C@_1BC@LJEDMNDC@?$AAW?$AAI?$AAN?$AAS?$AAP?$AAO?$AAO?$AAL?$AA?$AA@ 100bb640     WPrinterJob.obj
 0002:00005654       ??_C@_0L@JEJBPJIB@POSTSCRIPT?$AA@ 100bb654     WPrinterJob.obj
 0002:00005660       ??_C@_0BB@MBMKFGON@OutOfMemoryError?$AA@ 100bb660     WPrinterJob.obj
 0002:00005674       ??_C@_19BCFNFGEE@?$AAL?$AAP?$AAT?$AA1?$AA?$AA@ 100bb674     WPrinterJob.obj
 0002:00005680       ??_C@_17BPAADKPP@?$AAR?$AAA?$AAW?$AA?$AA@ 100bb680     WPrinterJob.obj
 0002:00005688       ??_C@_0CG@FIOIDPHD@Problem?5in?5Win32PrintJob_printRa@ 100bb688     WPrinterJob.obj
 0002:000056b0       ??_C@_08JEBPELPJ@consumed?$AA@ 100bb6b0     awt_AWTEvent.obj
 0002:000056bc       ??_C@_02EGCJHIOB@id?$AA@   100bb6bc     awt_AWTEvent.obj
 0002:000056c0       ??_C@_05MLDHCLIM@bdata?$AA@ 100bb6c0     awt_AWTEvent.obj
 0002:000056c8       ??_C@_0L@HOMBLKGN@null?5pData?$AA@ 100bb6c8     awt_AWTEvent.obj
 0002:000056d4       ??_C@_04JPOCPNKD@peer?$AA@ 100bb6d4     awt_AWTEvent.obj
 0002:000056dc       ??_C@_0O@JLGHEGMG@null?5AWTEvent?$AA@ 100bb6dc     awt_AWTEvent.obj
 0002:000056f0       ??_7GDIHashtable@@6B@      100bb6f0     awt_Brush.obj
 0002:000056fc       ??_7AwtGDIObject@@6B@      100bb6fc     awt_Brush.obj
 0002:00005708       ??_7AwtBrush@@6B@          100bb708     awt_Brush.obj
 0002:00005710       ??_C@_0M@LGCOLGAN@Brush?5cache?$AA@ 100bb710     awt_Brush.obj
 0002:0000571c       ??_C@_1DM@DIFKEMEL@?$AAS?$AAu?$AAn?$AAA?$AAw?$AAt?$AAN?$AAa?$AAt?$AAi?$AAv?$AAe?$AAD?$AAi?$AAa?$AAl?$AAo?$AAg?$AAW?$AAn?$AAd?$AAP?$AAr?$AAo?$AAc?$AAP?$AAr?$AAo?$AAp?$AA?$AA@ 100bb71c     awt_Button.obj
 0002:00005758       ??_C@_1DE@CLLBKKCD@?$AAS?$AAu?$AAn?$AAA?$AAw?$AAt?$AAM?$AAo?$AAd?$AAa?$AAl?$AAD?$AAi?$AAa?$AAl?$AAo?$AAg?$AAP?$AAe?$AAe?$AAr?$AAP?$AAr?$AAo?$AAp?$AA?$AA@ 100bb758     awt_Button.obj
 0002:0000578c       ??_C@_1CO@IJKKNDE@?$AAS?$AAu?$AAn?$AAA?$AAw?$AAt?$AAM?$AAo?$AAd?$AAa?$AAl?$AAB?$AAl?$AAo?$AAc?$AAk?$AAe?$AAr?$AAP?$AAr?$AAo?$AAp?$AA?$AA@ 100bb78c     awt_Button.obj
 0002:000057c4       ??_7AwtButton@@6B@         100bb7c4     awt_Button.obj
 0002:0000598c       ??_C@_1O@MOBNNEMB@?$AAB?$AAU?$AAT?$AAT?$AAO?$AAN?$AA?$AA@ 100bb98c     awt_Button.obj
 0002:0000599c       ??_C@_11LOCGONAA@?$AA?$AA@ 100bb99c     awt_Button.obj
 0002:000059a0       ??_C@_06JJLAMBGK@target?$AA@ 100bb9a0     awt_Button.obj
 0002:000059a8       ??_C@_0N@HBOLGCPJ@handleAction?$AA@ 100bb9a8     awt_Button.obj
 0002:000059b8       ??_C@_05IKOAAJOF@?$CIJI?$CJV?$AA@ 100bb9b8     awt_Button.obj
 0002:000059c0       ??_C@_0M@EMKNOMBI@handlePaint?$AA@ 100bb9c0     awt_Button.obj
 0002:000059cc       ??_C@_07CBAIJIEJ@?$CIIIII?$CJV?$AA@ 100bb9cc     awt_Button.obj
 0002:000059d4       ??_C@_05IDCCNNGI@label?$AA@ 100bb9d4     awt_Button.obj
 0002:000059dc       ??_C@_0BA@FOEJNEED@java?1awt?1Button?$AA@ 100bb9dc     awt_Button.obj
 0002:000059f4       ??_7AwtCanvas@@6B@         100bb9f4     awt_Canvas.obj
 0002:00005bbc       ??_C@_1BK@OIHPKKJG@?$AAS?$AAu?$AAn?$AAA?$AAw?$AAt?$AAC?$AAa?$AAn?$AAv?$AAa?$AAs?$AA?$AA@ 100bbbbc     awt_Canvas.obj
 0002:00005bd8       ??_C@_0CG@EGPBLFPL@?6Unable?5to?5set?5Pixel?5format?5on?5C@ 100bbbd8     awt_Canvas.obj
 0002:00005c00       ??_C@_0BL@IONOAEOO@java?1lang?1RuntimeException?$AA@ 100bbc00     awt_Canvas.obj
 0002:00005c1c       ??_C@_0BM@NDBGJOJL@sun?1awt?1Win32GraphicsConfig?$AA@ 100bbc1c     awt_Canvas.obj
 0002:00005c38       ??_C@_0BA@BFNCJJME@java?1awt?1Canvas?$AA@ 100bbc38     awt_Canvas.obj
 0002:00005c48       ??_C@_0M@LJOFGNME@null?5target?$AA@ 100bbc48     awt_Canvas.obj
 0002:00005c54       ??_C@_0M@OLPGGOLN@null?5parent?$AA@ 100bbc54     awt_Canvas.obj
 0002:00005c60       ??_C@_0N@MOBAJLNF@null?5hParent?$AA@ 100bbc60     awt_Canvas.obj
 0002:00005c70       ?CHECK_SIZE@AwtCheckbox@@2HB 100bbc70     awt_Checkbox.obj
 0002:00005c7c       ??_7AwtCheckbox@@6B@       100bbc7c     awt_Checkbox.obj
 0002:00005e44       ??_C@_0P@DCFADEGL@null?5awtParent?$AA@ 100bbe44     awt_Checkbox.obj
 0002:00005e54       ??_C@_05HDBKIDE@state?$AA@ 100bbe54     awt_Checkbox.obj
 0002:00005e5c       ??_C@_05MGJOOGAJ@group?$AA@ 100bbe5c     awt_Checkbox.obj
 0002:00005e64       ??_C@_0BJ@LGNBCFIE@Ljava?1awt?1CheckboxGroup?$DL?$AA@ 100bbe64     awt_Checkbox.obj
 0002:00005e80       ??_C@_04LHKBAEFM@?$CIZ?$CJV?$AA@ 100bbe80     awt_Checkbox.obj
 0002:00005e8c       ??_7AwtChoice@@6B@         100bbe8c     awt_Choice.obj
 0002:00006054       ??_C@_1BC@LGNOKEPM@?$AAC?$AAO?$AAM?$AAB?$AAO?$AAB?$AAO?$AAX?$AA?$AA@ 100bc054     awt_Choice.obj
 0002:00006068       ??_C@_0O@CDGHFIKD@preferredSize?$AA@ 100bc068     awt_Choice.obj
 0002:00006078       ??_C@_0BH@MBIIANPI@?$CI?$CJLjava?1awt?1Dimension?$DL?$AA@ 100bc078     awt_Choice.obj
 0002:00006090       ??_C@_09ELKBINFF@null?5item?$AA@ 100bc090     awt_Choice.obj
 0002:0000609c       ??_C@_0L@BPFICOMD@null?5items?$AA@ 100bc09c     awt_Choice.obj
 0002:000060a8       ??_C@_0BG@CDJPNKEE@handleContentsChanged?$AA@ 100bc0a8     awt_Clipboard.obj
 0002:000060c0       ??_C@_03GAEACAIP@?$CI?$CJV?$AA@ 100bc0c0     awt_Clipboard.obj
 0002:000060c4       ??_C@_0BL@BLNKDCH@lostSelectionOwnershipImpl?$AA@ 100bc0c4     awt_Clipboard.obj
 0002:000060e0       ??_C@_0CA@EJBFMCPI@java?1lang?1IllegalStateException?$AA@ 100bc0e0     awt_Clipboard.obj
 0002:00006100       ??_C@_0BN@FIMOKCG@cannot?5open?5system?5clipboard?$AA@ 100bc100     awt_Clipboard.obj
 0002:00006120       ??_C@_0BO@FIEBENOJ@cannot?5retrieve?5metafile?5bits?$AA@ 100bc120     awt_Clipboard.obj
 0002:00006140       ??_C@_0CE@OLFFAICP@failed?5to?5get?5system?5clipboard?5d@ 100bc140     awt_Clipboard.obj
 0002:00006164       ??_C@_0N@GCGGPLBG@invalid?5LCID?$AA@ 100bc164     awt_Clipboard.obj
 0002:00006174       ??_C@_0CD@HIJBADKF@invalid?5global?5memory?5block?5hand@ 100bc174     awt_Clipboard.obj
 0002:00006198       ??_C@_0CC@CKGHHMFK@system?5clipboard?5data?5unavailabl@ 100bc198     awt_Clipboard.obj
 0002:000061bc       ??_C@_0P@KGJJACFM@java?1awt?1Color?$AA@ 100bc1bc     awt_Color.obj
 0002:000061cc       ??_C@_06NOBEKGOM@?$CIIII?$CJV?$AA@ 100bc1cc     awt_Color.obj
 0002:000061d4       ??_C@_1CA@NIOLIAAO@?$AAS?$AAu?$AAn?$AAA?$AAw?$AAt?$AAC?$AAo?$AAm?$AAp?$AAo?$AAn?$AAe?$AAn?$AAt?$AA?$AA@ 100bc1d4     awt_Component.obj
 0002:00006398       ??_C@_0BJ@LMEHCFGK@Can?8t?5allocate?5localRefs?$AA@ 100bc398     awt_Component.obj
 0002:000063b8       __real@3fbd2f1a9fbe76c9    100bc3b8     awt_Component.obj
 0002:000063c0       __real@3fd322d0e5604189    100bc3c0     awt_Component.obj
 0002:000063c8       __real@3fe2c8b439581062    100bc3c8     awt_Component.obj
 0002:000063d0       ??_C@_0N@MKJGMOHB@handleExpose?$AA@ 100bc3d0     awt_Component.obj
 0002:000063e0       ??_C@_0BK@NJBMAODK@getExtendedKeyCodeForChar?$AA@ 100bc3e0     awt_Component.obj
 0002:000063fc       ??_C@_04DIFHPCLD@?$CII?$CJI?$AA@ 100bc3fc     awt_Component.obj
 0002:00006404       ??_C@_0BJ@BPONKEEA@sun?1awt?1ExtendedKeyCodes?$AA@ 100bc404     awt_Component.obj
 0002:00006420       ??_C@_0BJ@LCKCNHBM@inquireCandidatePosition?$AA@ 100bc420     awt_Component.obj
 0002:0000643c       ??_C@_0BN@NEHMGOCB@sun?1awt?1windows?1WInputMethod?$AA@ 100bc43c     awt_Component.obj
 0002:0000645c       ??_C@_0M@DABIKPGC@getItemImpl?$AA@ 100bc45c     awt_Component.obj
 0002:00006468       ??_C@_0BG@HKHHMCPO@?$CII?$CJLjava?1lang?1String?$DL?$AA@ 100bc468     awt_Component.obj
 0002:00006480       ??_C@_0BC@EJCMMEF@java?1awt?1AWTError?$AA@ 100bc480     awt_Component.obj
 0002:00006494       ??_C@_0DG@HEAAMFJN@HDC?5creation?5failure?5?9?5exceeded?5@ 100bc494     awt_Component.obj
 0002:000064cc       ??_C@_0BO@KCECIKKD@?$CILjava?1awt?1Component?$DLIJIICI?$CJV?$AA@ 100bc4cc     awt_Component.obj
 0002:000064ec       ??_C@_0BI@NKIHPMHO@java?1awt?1event?1KeyEvent?$AA@ 100bc4ec     awt_Component.obj
 0002:00006504       ??_C@_0CC@OKDBPGKL@?$CILjava?1awt?1Component?$DLIJIIIIIIZI?$CJ@ 100bc504     awt_Component.obj
 0002:00006528       ??_C@_0BK@LPADPGKI@java?1awt?1event?1MouseEvent?$AA@ 100bc528     awt_Component.obj
 0002:00006544       ??_C@_0CF@ODFKLDLE@?$CILjava?1awt?1Component?$DLIJIIIIIIZII@ 100bc544     awt_Component.obj
 0002:0000656c       ??_C@_0BP@GIACEAPF@java?1awt?1event?1MouseWheelEvent?$AA@ 100bc56c     awt_Component.obj
 0002:0000658c       ??_C@_0P@EDJNEPOK@java?1awt?1Point?$AA@ 100bc58c     awt_Component.obj
 0002:0000659c       ??_C@_05MNEAHDDF@?$CIII?$CJV?$AA@ 100bc59c     awt_Component.obj
 0002:000065a4       ??_C@_09NJLMIMOD@null?5font?$AA@ 100bc5a4     awt_Component.obj
 0002:000065b0       ??_C@_0BE@MKOCKEAM@sun?1awt?1UngrabEvent?$AA@ 100bc5b0     awt_Component.obj
 0002:000065c4       ??_C@_0BI@KLAHMCIB@?$CILjava?1awt?1Component?$DL?$CJV?$AA@ 100bc5c4     awt_Component.obj
 0002:000065dc       ??_C@_0BI@PJKHIGHE@replaceSurfaceDataLater?$AA@ 100bc5dc     awt_Component.obj
 0002:000065f4       ??_C@_0BD@COEKLCJP@replaceSurfaceData?$AA@ 100bc5f4     awt_Component.obj
 0002:00006608       ??_C@_0BP@FFPHKBBK@getLocationOnScreen_NoTreeLock?$AA@ 100bc608     awt_Component.obj
 0002:00006628       ??_C@_0BD@IKDDNMC@?$CI?$CJLjava?1awt?1Point?$DL?$AA@ 100bc628     awt_Component.obj
 0002:0000663c       ??_C@_0O@CBJKJPEO@isEnabledImpl?$AA@ 100bc63c     awt_Component.obj
 0002:0000664c       ??_C@_03MMPFGPID@?$CI?$CJZ?$AA@ 100bc64c     awt_Component.obj
 0002:00006650       ??_C@_0P@OHMAMMGG@getToolkitImpl?$AA@ 100bc650     awt_Component.obj
 0002:00006660       ??_C@_0BF@DOKONMIN@?$CI?$CJLjava?1awt?1Toolkit?$DL?$AA@ 100bc660     awt_Component.obj
 0002:00006678       ??_C@_0BF@FFJIGGIK@getFont_NoClientCode?$AA@ 100bc678     awt_Component.obj
 0002:00006690       ??_C@_0BC@FBADKKDK@?$CI?$CJLjava?1awt?1Font?$DL?$AA@ 100bc690     awt_Component.obj
 0002:000066a4       ??_C@_06CHDIMBDP@cursor?$AA@ 100bc6a4     awt_Component.obj
 0002:000066ac       ??_C@_0BC@GGFGOENL@Ljava?1awt?1Cursor?$DL?$AA@ 100bc6ac     awt_Component.obj
 0002:000066c0       ??_C@_04CFKPOEMC@hwnd?$AA@ 100bc6c0     awt_Component.obj
 0002:000066c8       ??_C@_0BC@EPIGEKED@winGraphicsConfig?$AA@ 100bc6c8     awt_Component.obj
 0002:000066dc       ??_C@_0BO@IBNICMJB@Lsun?1awt?1Win32GraphicsConfig?$DL?$AA@ 100bc6dc     awt_Component.obj
 0002:000066fc       ??_C@_0L@PKMBBCKK@appContext?$AA@ 100bc6fc     awt_Component.obj
 0002:00006708       ??_C@_0BF@LGBAHGEK@Lsun?1awt?1AppContext?$DL?$AA@ 100bc708     awt_Component.obj
 0002:00006720       ??_C@_09ECOOEGKD@focusable?$AA@ 100bc720     awt_Component.obj
 0002:0000672c       ??_C@_0P@FEFNIOKE@graphicsConfig?$AA@ 100bc72c     awt_Component.obj
 0002:0000673c       ??_C@_0CB@BFGFEPNH@Ljava?1awt?1GraphicsConfiguration?$DL@ 100bc73c     awt_Component.obj
 0002:00006760       ??_C@_06MLKDMCBD@parent?$AA@ 100bc760     awt_Component.obj
 0002:00006768       ??_C@_0BF@OHJJCMEK@Ljava?1awt?1Container?$DL?$AA@ 100bc768     awt_Component.obj
 0002:00006780       ??_C@_07MHHIKOPA@enabled?$AA@ 100bc780     awt_Component.obj
 0002:00006788       ??_C@_0L@EGALCOAD@foreground?$AA@ 100bc788     awt_Component.obj
 0002:00006794       ??_C@_0L@EGCKCJDC@background?$AA@ 100bc794     awt_Component.obj
 0002:000067a0       ??_C@_07DPDAEJMK@visible?$AA@ 100bc7a0     awt_Component.obj
 0002:000067a8       ??_C@_01EANLCPLP@y?$AA@    100bc7a8     awt_Component.obj
 0002:000067ac       ??_C@_01FJMABOPO@x?$AA@    100bc7ac     awt_Component.obj
 0002:000067b0       ??_C@_0BO@NKIINMDM@Ljava?1awt?1peer?1ComponentPeer?$DL?$AA@ 100bc7b0     awt_Component.obj
 0002:000067d0       ??_C@_0BP@NBIEFBBK@sun?1awt?1windows?1WComponentPeer?$AA@ 100bc7d0     awt_Component.obj
 0002:000067f0       ??_C@_0BD@BKDOLEAO@getButtonDownMasks?$AA@ 100bc7f0     awt_Component.obj
 0002:00006804       ??_C@_04FEAELJIO@?$CI?$CJ?$FLI?$AA@ 100bc804     awt_Component.obj
 0002:0000680c       ??_C@_0BK@KNEJDFKG@java?1awt?1event?1InputEvent?$AA@ 100bc80c     awt_Component.obj
 0002:0000682c       ??_7AwtComponent@@6B@      100bc82c     awt_Component.obj
 0002:000069f4       ??_C@_0O@NIBECLJG@setBackground?$AA@ 100bc9f4     awt_Component.obj
 0002:00006a04       ??_C@_0BE@GADMEIDL@?$CILjava?1awt?1Color?$DL?$CJV?$AA@ 100bca04     awt_Component.obj
 0002:00006a18       ??_C@_0BI@NBLNIHIB@java?1lang?1InternalError?$AA@ 100bca18     awt_Component.obj
 0002:00006a30       ??_C@_0BL@ENCPOIKC@java?1lang?1OutOfMemoryError?$AA@ 100bca30     awt_Component.obj
 0002:00006a4c       ??_C@_0BG@IKDDPPGD@?$CILjava?1lang?1String?$DL?$CJV?$AA@ 100bca4c     awt_Component.obj
 0002:00006a64       ??_C@_1DA@FDDMHHK@?$AAt?$AAo?$AAo?$AA?5?$AAm?$AAa?$AAn?$AAy?$AA?5?$AAw?$AAi?$AAn?$AAd?$AAo?$AAw?$AA?5?$AAh?$AAa?$AAn?$AAd?$AAl?$AAe?$AAs?$AA?$AA@ 100bca64     awt_Component.obj
 0002:00006a94       ??_C@_1CC@NAPOGGGD@?$AAS?$AAu?$AAn?$AAA?$AAw?$AAt?$AAS?$AAc?$AAr?$AAo?$AAl?$AAl?$AAP?$AAa?$AAn?$AAe?$AA?$AA@ 100bca94     awt_Component.obj
 0002:00006ab8       __real@c05e000000000000    100bcab8     awt_Component.obj
 0002:00006ac0       ??_C@_0BC@CFLOHJJO@VKEY?5translations?$AA@ 100bcac0     awt_Component.obj
 0002:00006ad4       ??_C@_0BF@FLHJLN@sendInputMethodEvent?$AA@ 100bcad4     awt_Component.obj
 0002:00006aec       ??_C@_0DE@DCMOPOGL@?$CIIJLjava?1lang?1String?$DL?$FLI?$FLLjava?1la@ 100bcaec     awt_Component.obj
 0002:00006b20       ??_C@_0BH@IPDDGPBB@?$CILjava?1awt?1AWTEvent?$DL?$CJV?$AA@ 100bcb20     awt_Component.obj
 0002:00006b38       ??_C@_0BI@GBNLPHE@java?1awt?1SequencedEvent?$AA@ 100bcb38     awt_Component.obj
 0002:00006b50       ??_C@_0BB@JKKJKADJ@getWheelRotation?$AA@ 100bcb50     awt_Component.obj
 0002:00006b64       ??_C@_0DE@PMCBHMED@Message?5not?5posted?0?5native?5event@ 100bcb64     awt_Component.obj
 0002:00006b98       ??_C@_0BA@OGJAJNGL@findComponentAt?$AA@ 100bcb98     awt_Container.obj
 0002:00006ba8       ??_C@_0BK@PBGJNFK@?$CIIIZ?$CJLjava?1awt?1Component?$DL?$AA@ 100bcba8     awt_Container.obj
 0002:00006bc4       ??_C@_09DMAFMMGL@layoutMgr?$AA@ 100bcbc4     awt_Container.obj
 0002:00006bd0       ??_C@_0BJ@MCPBBBPE@Ljava?1awt?1LayoutManager?$DL?$AA@ 100bcbd0     awt_Container.obj
 0002:00006bf0       ??_7AwtCursor@@6B@         100bcbf0     awt_Cursor.obj
 0002:00006c04       ??_C@_1BI@MOFNHFGM@?$AAH?$AAA?$AAN?$AAD?$AA_?$AAC?$AAU?$AAR?$AAS?$AAO?$AAR?$AA?$AA@ 100bcc04     awt_Cursor.obj
 0002:00006c1c       ??_C@_08FNINLCNE@setPData?$AA@ 100bcc1c     awt_Cursor.obj
 0002:00006c28       ??_C@_0BI@OJPGAHOB@bad?5width?5and?1or?5height?$AA@ 100bcc28     awt_Cursor.obj
 0002:00006c40       ??_C@_0BH@HOALKAGO@intRasterData?5argument?$AA@ 100bcc40     awt_Cursor.obj
 0002:00006c58       ??_C@_0P@GNAKFNKG@null?5container?$AA@ 100bcc58     awt_Cursor.obj
 0002:00006c68       ??_C@_0P@BCOOAMFA@null?5component?$AA@ 100bcc68     awt_Cursor.obj
 0002:00006c78       ??_C@_0BD@FMFECKDC@nativeUpdateCursor?$AA@ 100bcc78     awt_Cursor.obj
 0002:00006c8c       ??_C@_0CF@LBIEMDBM@sun?1awt?1windows?1WGlobalCursorMan@ 100bcc8c     awt_Cursor.obj
 0002:00006cb4       ??_C@_0CE@GOPCJDLM@sun?1awt?1datatransfer?1DataTransfe@ 100bccb4     awt_DataTransferer.obj
 0002:00006cd8       ??_C@_0M@NBBCBFGN@getInstance?$AA@ 100bccd8     awt_DataTransferer.obj
 0002:00006ce4       ??_C@_0CI@BMEMOCDP@?$CI?$CJLsun?1awt?1datatransfer?1DataTran@ 100bcce4     awt_DataTransferer.obj
 0002:00006d0c       ??_C@_0M@CGOFLPIF@convertData?$AA@ 100bcd0c     awt_DataTransferer.obj
 0002:00006d18       ??_C@_0EM@NFFGDJMC@?$CILjava?1lang?1Object?$DLLjava?1awt?1dat@ 100bcd18     awt_DataTransferer.obj
 0002:00006d64       ??_C@_0L@LOCOALK@concatData?$AA@ 100bcd64     awt_DataTransferer.obj
 0002:00006d70       ??_C@_0DJ@FLFJBGBN@?$CILjava?1lang?1Object?$DLLjava?1lang?1Ob@ 100bcd70     awt_DataTransferer.obj
 0002:00006dac       ??_C@_0BI@JMEPLCEF@failed?5to?5get?5drop?5data?$AA@ 100bcdac     awt_DataTransferer.obj
 0002:00006dc4       ??_C@_1BK@PMHHAFJN@?$AAM?$AAS?$AA?5?$AAS?$AAh?$AAe?$AAl?$AAl?$AA?5?$AAD?$AAl?$AAg?$AA?$AA@ 100bcdc4     awt_DesktopProperties.obj
 0002:00006de0       ??_C@_1BO@MABKJPII@?$AAM?$AAS?$AA?5?$AAS?$AAh?$AAe?$AAl?$AAl?$AA?5?$AAD?$AAl?$AAg?$AA?5?$AA2?$AA?$AA@ 100bcde0     awt_DesktopProperties.obj
 0002:00006e00       ??_C@_1HK@CHBAFBDL@?$AAS?$AAo?$AAf?$AAt?$AAw?$AAa?$AAr?$AAe?$AA?2?$AAM?$AAi?$AAc?$AAr?$AAo?$AAs?$AAo?$AAf?$AAt?$AA?2?$AAW?$AAi?$AAn?$AAd?$AAo?$AAw?$AAs?$AA?5?$AAN?$AAT?$AA?2?$AAC?$AAu@ 100bce00     awt_DesktopProperties.obj
 0002:00006e80       ??_C@_1GO@PHEJELIB@?$AAS?$AAo?$AAf?$AAt?$AAw?$AAa?$AAr?$AAe?$AA?2?$AAM?$AAi?$AAc?$AAr?$AAo?$AAs?$AAo?$AAf?$AAt?$AA?2?$AAW?$AAi?$AAn?$AAd?$AAo?$AAw?$AAs?$AA?2?$AAC?$AAu?$AAr?$AAr?$AAe@ 100bce80     awt_DesktopProperties.obj
 0002:00006ef0       ??_C@_1BI@KGBEBBME@?$AAT?$AAh?$AAe?$AAm?$AAe?$AAA?$AAc?$AAt?$AAi?$AAv?$AAe?$AA?$AA@ 100bcef0     awt_DesktopProperties.obj
 0002:00006f08       ??_C@_1DC@NAINKPKF@?$AAF?$AAo?$AAn?$AAt?$AAS?$AAm?$AAo?$AAo?$AAt?$AAh?$AAi?$AAn?$AAg?$AAO?$AAr?$AAi?$AAe?$AAn?$AAt?$AAa?$AAt?$AAi?$AAo?$AAn?$AA?$AA@ 100bcf08     awt_DesktopProperties.obj
 0002:00006f3c       ??_C@_1CM@FDDKAFMM@?$AAC?$AAo?$AAn?$AAt?$AAr?$AAo?$AAl?$AA?5?$AAP?$AAa?$AAn?$AAe?$AAl?$AA?2?$AAD?$AAe?$AAs?$AAk?$AAt?$AAo?$AAp?$AA?$AA@ 100bcf3c     awt_DesktopProperties.obj
 0002:00006f68       ??_C@_1CK@MHIILAEE@?$AAM?$AAi?$AAc?$AAr?$AAo?$AAs?$AAo?$AAf?$AAt?$AA?5?$AAS?$AAa?$AAn?$AAs?$AA?5?$AAS?$AAe?$AAr?$AAi?$AAf?$AA?$AA@ 100bcf68     awt_DesktopProperties.obj
 0002:00006f94       ??_C@_0BB@NLCAOFJ@setSoundProperty?$AA@ 100bcf94     awt_DesktopProperties.obj
 0002:00006fa8       ??_C@_0BA@KCECFOL@setFontProperty?$AA@ 100bcfa8     awt_DesktopProperties.obj
 0002:00006fb8       ??_C@_0CK@OBELPEBA@?$CILjava?1lang?1String?$DLLjava?1lang?1St@ 100bcfb8     awt_DesktopProperties.obj
 0002:00006fe4       ??_C@_0BB@BBIPMLDH@setColorProperty?$AA@ 100bcfe4     awt_DesktopProperties.obj
 0002:00006ff8       ??_C@_0BJ@LBEAHGJE@?$CILjava?1lang?1String?$DLIII?$CJV?$AA@ 100bcff8     awt_DesktopProperties.obj
 0002:00007014       ??_C@_0BC@NCOBMGLP@setStringProperty?$AA@ 100bd014     awt_DesktopProperties.obj
 0002:00007028       ??_C@_0CI@HEGLGDKJ@?$CILjava?1lang?1String?$DLLjava?1lang?1St@ 100bd028     awt_DesktopProperties.obj
 0002:00007050       ??_C@_0BD@OFKDPLC@setIntegerProperty?$AA@ 100bd050     awt_DesktopProperties.obj
 0002:00007064       ??_C@_0BH@FMFLCBKB@?$CILjava?1lang?1String?$DLI?$CJV?$AA@ 100bd064     awt_DesktopProperties.obj
 0002:0000707c       ??_C@_0BD@CCBFEOPF@setBooleanProperty?$AA@ 100bd07c     awt_DesktopProperties.obj
 0002:00007090       ??_C@_0BH@BOPHNJNA@?$CILjava?1lang?1String?$DLZ?$CJV?$AA@ 100bd090     awt_DesktopProperties.obj
 0002:000070a8       ??_C@_1CK@BJHJHOBL@?$AAw?$AAi?$AAn?$AA?4?$AAs?$AAy?$AAs?$AAt?$AAe?$AAm?$AAF?$AAi?$AAx?$AAe?$AAd?$AA?4?$AAf?$AAo?$AAn?$AAt?$AA?$AA@ 100bd0a8     awt_DesktopProperties.obj
 0002:000070d4       ??_C@_1CA@NFCHIHMB@?$AAw?$AAi?$AAn?$AA?4?$AAs?$AAy?$AAs?$AAt?$AAe?$AAm?$AA?4?$AAf?$AAo?$AAn?$AAt?$AA?$AA@ 100bd0d4     awt_DesktopProperties.obj
 0002:000070f4       ??_C@_1CE@BCJLOLNG@?$AAw?$AAi?$AAn?$AA?4?$AAo?$AAe?$AAm?$AAF?$AAi?$AAx?$AAe?$AAd?$AA?4?$AAf?$AAo?$AAn?$AAt?$AA?$AA@ 100bd0f4     awt_DesktopProperties.obj
 0002:00007118       ??_C@_1CI@OHJBIJPP@?$AAw?$AAi?$AAn?$AA?4?$AAd?$AAe?$AAf?$AAa?$AAu?$AAl?$AAt?$AAG?$AAU?$AAI?$AA?4?$AAf?$AAo?$AAn?$AAt?$AA?$AA@ 100bd118     awt_DesktopProperties.obj
 0002:00007140       ??_C@_1CO@CHLILCFE@?$AAw?$AAi?$AAn?$AA?4?$AAd?$AAe?$AAv?$AAi?$AAc?$AAe?$AAD?$AAe?$AAf?$AAa?$AAu?$AAl?$AAt?$AA?4?$AAf?$AAo?$AAn?$AAt?$AA?$AA@ 100bd140     awt_DesktopProperties.obj
 0002:00007170       ??_C@_1CC@HFLOJMCA@?$AAw?$AAi?$AAn?$AA?4?$AAa?$AAn?$AAs?$AAi?$AAV?$AAa?$AAr?$AA?4?$AAf?$AAo?$AAn?$AAt?$AA?$AA@ 100bd170     awt_DesktopProperties.obj
 0002:00007194       ??_C@_1CG@PCBDGHEO@?$AAw?$AAi?$AAn?$AA?4?$AAa?$AAn?$AAs?$AAi?$AAF?$AAi?$AAx?$AAe?$AAd?$AA?4?$AAf?$AAo?$AAn?$AAt?$AA?$AA@ 100bd194     awt_DesktopProperties.obj
 0002:000071bc       ??_C@_1BA@PICGEGJB@?$AAD?$AAI?$AAS?$AAP?$AAL?$AAA?$AAY?$AA?$AA@ 100bd1bc     awt_DesktopProperties.obj
 0002:000071cc       ??_C@_1CM@BOFLDPHI@?$AAw?$AAi?$AAn?$AA?4?$AAx?$AAp?$AAs?$AAt?$AAy?$AAl?$AAe?$AA?4?$AAc?$AAo?$AAl?$AAo?$AAr?$AAN?$AAa?$AAm?$AAe?$AA?$AA@ 100bd1cc     awt_DesktopProperties.obj
 0002:000071f8       ??_C@_1BE@NDDEBDOO@?$AAC?$AAo?$AAl?$AAo?$AAr?$AAN?$AAa?$AAm?$AAe?$AA?$AA@ 100bd1f8     awt_DesktopProperties.obj
 0002:0000720c       ??_C@_1CK@DJNPEGID@?$AAw?$AAi?$AAn?$AA?4?$AAx?$AAp?$AAs?$AAt?$AAy?$AAl?$AAe?$AA?4?$AAs?$AAi?$AAz?$AAe?$AAN?$AAa?$AAm?$AAe?$AA?$AA@ 100bd20c     awt_DesktopProperties.obj
 0002:00007238       ??_C@_1BC@KOHPLMLE@?$AAS?$AAi?$AAz?$AAe?$AAN?$AAa?$AAm?$AAe?$AA?$AA@ 100bd238     awt_DesktopProperties.obj
 0002:0000724c       ??_C@_1CI@GCADDDBP@?$AAw?$AAi?$AAn?$AA?4?$AAx?$AAp?$AAs?$AAt?$AAy?$AAl?$AAe?$AA?4?$AAd?$AAl?$AAl?$AAN?$AAa?$AAm?$AAe?$AA?$AA@ 100bd24c     awt_DesktopProperties.obj
 0002:00007274       ??_C@_1BA@EGNLLNNJ@?$AAD?$AAl?$AAl?$AAN?$AAa?$AAm?$AAe?$AA?$AA@ 100bd274     awt_DesktopProperties.obj
 0002:00007284       ??_C@_1DA@ININJFN@?$AAw?$AAi?$AAn?$AA?4?$AAx?$AAp?$AAs?$AAt?$AAy?$AAl?$AAe?$AA?4?$AAt?$AAh?$AAe?$AAm?$AAe?$AAA?$AAc?$AAt?$AAi?$AAv?$AAe?$AA?$AA@ 100bd284     awt_DesktopProperties.obj
 0002:000072b4       ??_C@_1CI@MPEDAJDE@?$AAw?$AAi?$AAn?$AA?4?$AAm?$AAe?$AAs?$AAs?$AAa?$AAg?$AAe?$AAb?$AAo?$AAx?$AA?4?$AAf?$AAo?$AAn?$AAt?$AA?$AA@ 100bd2b4     awt_DesktopProperties.obj
 0002:000072dc       ??_C@_1CC@DODADFDJ@?$AAw?$AAi?$AAn?$AA?4?$AAt?$AAo?$AAo?$AAl?$AAt?$AAi?$AAp?$AA?4?$AAf?$AAo?$AAn?$AAt?$AA?$AA@ 100bd2dc     awt_DesktopProperties.obj
 0002:00007300       ??_C@_1CA@EGOLNMNK@?$AAw?$AAi?$AAn?$AA?4?$AAs?$AAt?$AAa?$AAt?$AAu?$AAs?$AA?4?$AAf?$AAo?$AAn?$AAt?$AA?$AA@ 100bd300     awt_DesktopProperties.obj
 0002:00007320       ??_C@_1CK@HENIPEOH@?$AAw?$AAi?$AAn?$AA?4?$AAs?$AAc?$AAr?$AAo?$AAl?$AAl?$AAb?$AAa?$AAr?$AA?4?$AAh?$AAe?$AAi?$AAg?$AAh?$AAt?$AA?$AA@ 100bd320     awt_DesktopProperties.obj
 0002:0000734c       ??_C@_1CI@BBBLDGIG@?$AAw?$AAi?$AAn?$AA?4?$AAs?$AAc?$AAr?$AAo?$AAl?$AAl?$AAb?$AAa?$AAr?$AA?4?$AAw?$AAi?$AAd?$AAt?$AAh?$AA?$AA@ 100bd34c     awt_DesktopProperties.obj
 0002:00007374       ??_C@_1CK@EKOBKGGB@?$AAw?$AAi?$AAn?$AA?4?$AAm?$AAe?$AAn?$AAu?$AA?4?$AAb?$AAu?$AAt?$AAt?$AAo?$AAn?$AAW?$AAi?$AAd?$AAt?$AAh?$AA?$AA@ 100bd374     awt_DesktopProperties.obj
 0002:000073a0       ??_C@_1CA@HIOMHBML@?$AAw?$AAi?$AAn?$AA?4?$AAm?$AAe?$AAn?$AAu?$AA?4?$AAh?$AAe?$AAi?$AAg?$AAh?$AAt?$AA?$AA@ 100bd3a0     awt_DesktopProperties.obj
 0002:000073c0       ??_C@_1BM@CEMPPIIK@?$AAw?$AAi?$AAn?$AA?4?$AAm?$AAe?$AAn?$AAu?$AA?4?$AAf?$AAo?$AAn?$AAt?$AA?$AA@ 100bd3c0     awt_DesktopProperties.obj
 0002:000073dc       ??_C@_1DI@PMFJFEFP@?$AAw?$AAi?$AAn?$AA?4?$AAf?$AAr?$AAa?$AAm?$AAe?$AA?4?$AAs?$AAi?$AAz?$AAi?$AAn?$AAg?$AAB?$AAo?$AAr?$AAd?$AAe?$AAr?$AAW?$AAi?$AAd?$AAt?$AAh?$AA?$AA@ 100bd3dc     awt_DesktopProperties.obj
 0002:00007418       ??_C@_1EG@NDJPMHEB@?$AAw?$AAi?$AAn?$AA?4?$AAf?$AAr?$AAa?$AAm?$AAe?$AA?4?$AAs?$AAm?$AAa?$AAl?$AAl?$AAC?$AAa?$AAp?$AAt?$AAi?$AAo?$AAn?$AAB?$AAu?$AAt?$AAt?$AAo?$AAn?$AAH?$AAe?$AAi?$AAg@ 100bd418     awt_DesktopProperties.obj
 0002:00007460       ??_C@_1EE@GLFJGBPD@?$AAw?$AAi?$AAn?$AA?4?$AAf?$AAr?$AAa?$AAm?$AAe?$AA?4?$AAs?$AAm?$AAa?$AAl?$AAl?$AAC?$AAa?$AAp?$AAt?$AAi?$AAo?$AAn?$AAB?$AAu?$AAt?$AAt?$AAo?$AAn?$AAW?$AAi?$AAd?$AAt@ 100bd460     awt_DesktopProperties.obj
 0002:000074a4       ??_C@_1DK@LGLIIJBF@?$AAw?$AAi?$AAn?$AA?4?$AAf?$AAr?$AAa?$AAm?$AAe?$AA?4?$AAs?$AAm?$AAa?$AAl?$AAl?$AAC?$AAa?$AAp?$AAt?$AAi?$AAo?$AAn?$AAH?$AAe?$AAi?$AAg?$AAh?$AAt?$AA?$AA@ 100bd4a4     awt_DesktopProperties.obj
 0002:000074e0       ??_C@_1DG@CJCDLDN@?$AAw?$AAi?$AAn?$AA?4?$AAf?$AAr?$AAa?$AAm?$AAe?$AA?4?$AAs?$AAm?$AAa?$AAl?$AAl?$AAC?$AAa?$AAp?$AAt?$AAi?$AAo?$AAn?$AAF?$AAo?$AAn?$AAt?$AA?$AA@ 100bd4e0     awt_DesktopProperties.obj
 0002:00007518       ??_C@_1DM@PHBPJJN@?$AAw?$AAi?$AAn?$AA?4?$AAf?$AAr?$AAa?$AAm?$AAe?$AA?4?$AAc?$AAa?$AAp?$AAt?$AAi?$AAo?$AAn?$AAB?$AAu?$AAt?$AAt?$AAo?$AAn?$AAH?$AAe?$AAi?$AAg?$AAh?$AAt?$AA?$AA@ 100bd518     awt_DesktopProperties.obj
 0002:00007554       ??_C@_1DK@IAIIILFB@?$AAw?$AAi?$AAn?$AA?4?$AAf?$AAr?$AAa?$AAm?$AAe?$AA?4?$AAc?$AAa?$AAp?$AAt?$AAi?$AAo?$AAn?$AAB?$AAu?$AAt?$AAt?$AAo?$AAn?$AAW?$AAi?$AAd?$AAt?$AAh?$AA?$AA@ 100bd554     awt_DesktopProperties.obj
 0002:00007590       ??_C@_1DA@KAHKIPLD@?$AAw?$AAi?$AAn?$AA?4?$AAf?$AAr?$AAa?$AAm?$AAe?$AA?4?$AAc?$AAa?$AAp?$AAt?$AAi?$AAo?$AAn?$AAH?$AAe?$AAi?$AAg?$AAh?$AAt?$AA?$AA@ 100bd590     awt_DesktopProperties.obj
 0002:000075c0       ??_C@_1CM@LOHKDHNK@?$AAw?$AAi?$AAn?$AA?4?$AAf?$AAr?$AAa?$AAm?$AAe?$AA?4?$AAc?$AAa?$AAp?$AAt?$AAi?$AAo?$AAn?$AAF?$AAo?$AAn?$AAt?$AA?$AA@ 100bd5c0     awt_DesktopProperties.obj
 0002:000075ec       ??_C@_1BM@ODLMDJEG@?$AAw?$AAi?$AAn?$AA?4?$AAi?$AAc?$AAo?$AAn?$AA?4?$AAf?$AAo?$AAn?$AAt?$AA?$AA@ 100bd5ec     awt_DesktopProperties.obj
 0002:00007608       ??_C@_1DC@DGKBCOE@?$AAw?$AAi?$AAn?$AA?4?$AAi?$AAc?$AAo?$AAn?$AA?4?$AAt?$AAi?$AAt?$AAl?$AAe?$AAW?$AAr?$AAa?$AAp?$AAp?$AAi?$AAn?$AAg?$AAO?$AAn?$AA?$AA@ 100bd608     awt_DesktopProperties.obj
 0002:0000763c       ??_C@_1CE@OHDKKCNH@?$AAw?$AAi?$AAn?$AA?4?$AAi?$AAc?$AAo?$AAn?$AA?4?$AAv?$AAs?$AAp?$AAa?$AAc?$AAi?$AAn?$AAg?$AA?$AA@ 100bd63c     awt_DesktopProperties.obj
 0002:00007660       ??_C@_1CE@NALEOMEG@?$AAw?$AAi?$AAn?$AA?4?$AAi?$AAc?$AAo?$AAn?$AA?4?$AAh?$AAs?$AAp?$AAa?$AAc?$AAi?$AAn?$AAg?$AA?$AA@ 100bd660     awt_DesktopProperties.obj
 0002:00007684       ??_C@_1CM@NICLLENA@?$AAw?$AAi?$AAn?$AA?4?$AAt?$AAo?$AAo?$AAl?$AAt?$AAi?$AAp?$AA?4?$AAt?$AAe?$AAx?$AAt?$AAC?$AAo?$AAl?$AAo?$AAr?$AA?$AA@ 100bd684     awt_DesktopProperties.obj
 0002:000076b0       ??_C@_1DI@GOFIHNOM@?$AAw?$AAi?$AAn?$AA?4?$AAt?$AAo?$AAo?$AAl?$AAt?$AAi?$AAp?$AA?4?$AAb?$AAa?$AAc?$AAk?$AAg?$AAr?$AAo?$AAu?$AAn?$AAd?$AAC?$AAo?$AAl?$AAo?$AAr?$AA?$AA@ 100bd6b0     awt_DesktopProperties.obj
 0002:000076e8       ??_C@_1DC@NOOHMFIL@?$AAw?$AAi?$AAn?$AA?4?$AAt?$AAe?$AAx?$AAt?$AA?4?$AAg?$AAr?$AAa?$AAy?$AAe?$AAd?$AAT?$AAe?$AAx?$AAt?$AAC?$AAo?$AAl?$AAo?$AAr?$AA?$AA@ 100bd6e8     awt_DesktopProperties.obj
 0002:0000771c       ??_C@_1DM@IOJMBKHF@?$AAw?$AAi?$AAn?$AA?4?$AAs?$AAc?$AAr?$AAo?$AAl?$AAl?$AAb?$AAa?$AAr?$AA?4?$AAb?$AAa?$AAc?$AAk?$AAg?$AAr?$AAo?$AAu?$AAn?$AAd?$AAC?$AAo?$AAl?$AAo?$AAr?$AA?$AA@ 100bd71c     awt_DesktopProperties.obj
 0002:00007758       ??_C@_1DI@MJAFABKJ@?$AAw?$AAi?$AAn?$AA?4?$AAm?$AAe?$AAn?$AAu?$AAb?$AAa?$AAr?$AA?4?$AAb?$AAa?$AAc?$AAk?$AAg?$AAr?$AAo?$AAu?$AAn?$AAd?$AAC?$AAo?$AAl?$AAo?$AAr?$AA?$AA@ 100bd758     awt_DesktopProperties.obj
 0002:00007790       ??_C@_1CG@BBIHKFJD@?$AAw?$AAi?$AAn?$AA?4?$AAm?$AAe?$AAn?$AAu?$AA?4?$AAt?$AAe?$AAx?$AAt?$AAC?$AAo?$AAl?$AAo?$AAr?$AA?$AA@ 100bd790     awt_DesktopProperties.obj
 0002:000077b8       ??_C@_1DC@OBNNFMKL@?$AAw?$AAi?$AAn?$AA?4?$AAm?$AAe?$AAn?$AAu?$AA?4?$AAb?$AAa?$AAc?$AAk?$AAg?$AAr?$AAo?$AAu?$AAn?$AAd?$AAC?$AAo?$AAl?$AAo?$AAr?$AA?$AA@ 100bd7b8     awt_DesktopProperties.obj
 0002:000077ec       ??_C@_1DA@MEEKNOLJ@?$AAw?$AAi?$AAn?$AA?4?$AAm?$AAd?$AAi?$AA?4?$AAb?$AAa?$AAc?$AAk?$AAg?$AAr?$AAo?$AAu?$AAn?$AAd?$AAC?$AAo?$AAl?$AAo?$AAr?$AA?$AA@ 100bd7ec     awt_DesktopProperties.obj
 0002:0000781c       ??_C@_1DI@IJNIGIHA@?$AAw?$AAi?$AAn?$AA?4?$AAi?$AAt?$AAe?$AAm?$AA?4?$AAh?$AAi?$AAg?$AAh?$AAl?$AAi?$AAg?$AAh?$AAt?$AAT?$AAe?$AAx?$AAt?$AAC?$AAo?$AAl?$AAo?$AAr?$AA?$AA@ 100bd81c     awt_DesktopProperties.obj
 0002:00007854       ??_C@_1DA@JLGEBBMJ@?$AAw?$AAi?$AAn?$AA?4?$AAi?$AAt?$AAe?$AAm?$AA?4?$AAh?$AAi?$AAg?$AAh?$AAl?$AAi?$AAg?$AAh?$AAt?$AAC?$AAo?$AAl?$AAo?$AAr?$AA?$AA@ 100bd854     awt_DesktopProperties.obj
 0002:00007884       ??_C@_1CI@IKMANPFF@?$AAw?$AAi?$AAn?$AA?4?$AAf?$AAr?$AAa?$AAm?$AAe?$AA?4?$AAt?$AAe?$AAx?$AAt?$AAC?$AAo?$AAl?$AAo?$AAr?$AA?$AA@ 100bd884     awt_DesktopProperties.obj
 0002:000078b0       ??_C@_1EG@KNKMANFJ@?$AAw?$AAi?$AAn?$AA?4?$AAf?$AAr?$AAa?$AAm?$AAe?$AA?4?$AAi?$AAn?$AAa?$AAc?$AAt?$AAi?$AAv?$AAe?$AAC?$AAa?$AAp?$AAt?$AAi?$AAo?$AAn?$AAT?$AAe?$AAx?$AAt?$AAC?$AAo?$AAl@ 100bd8b0     awt_DesktopProperties.obj
 0002:000078f8       ??_C@_1DO@EAMHBFOM@?$AAw?$AAi?$AAn?$AA?4?$AAf?$AAr?$AAa?$AAm?$AAe?$AA?4?$AAi?$AAn?$AAa?$AAc?$AAt?$AAi?$AAv?$AAe?$AAC?$AAa?$AAp?$AAt?$AAi?$AAo?$AAn?$AAC?$AAo?$AAl?$AAo?$AAr?$AA?$AA@ 100bd8f8     awt_DesktopProperties.obj
 0002:00007938       ??_C@_1DM@BFMDOJCI@?$AAw?$AAi?$AAn?$AA?4?$AAf?$AAr?$AAa?$AAm?$AAe?$AA?4?$AAi?$AAn?$AAa?$AAc?$AAt?$AAi?$AAv?$AAe?$AAB?$AAo?$AAr?$AAd?$AAe?$AAr?$AAC?$AAo?$AAl?$AAo?$AAr?$AA?$AA@ 100bd938     awt_DesktopProperties.obj
 0002:00007974       ??_C@_1DG@BKEDBOPD@?$AAw?$AAi?$AAn?$AA?4?$AAf?$AAr?$AAa?$AAm?$AAe?$AA?4?$AAc?$AAa?$AAp?$AAt?$AAi?$AAo?$AAn?$AAT?$AAe?$AAx?$AAt?$AAC?$AAo?$AAl?$AAo?$AAr?$AA?$AA@ 100bd974     awt_DesktopProperties.obj
 0002:000079ac       ??_C@_1DE@HGGPOLBG@?$AAw?$AAi?$AAn?$AA?4?$AAf?$AAr?$AAa?$AAm?$AAe?$AA?4?$AAb?$AAa?$AAc?$AAk?$AAg?$AAr?$AAo?$AAu?$AAn?$AAd?$AAC?$AAo?$AAl?$AAo?$AAr?$AA?$AA@ 100bd9ac     awt_DesktopProperties.obj
 0002:000079e0       ??_C@_1CA@DBEFNFPM@?$AAw?$AAi?$AAn?$AA?4?$AAf?$AAr?$AAa?$AAm?$AAe?$AA?4?$AAc?$AAo?$AAl?$AAo?$AAr?$AA?$AA@ 100bd9e0     awt_DesktopProperties.obj
 0002:00007a00       ??_C@_1DI@HEFOBNBL@?$AAw?$AAi?$AAn?$AA?4?$AAf?$AAr?$AAa?$AAm?$AAe?$AA?4?$AAa?$AAc?$AAt?$AAi?$AAv?$AAe?$AAB?$AAo?$AAr?$AAd?$AAe?$AAr?$AAC?$AAo?$AAl?$AAo?$AAr?$AA?$AA@ 100bda00     awt_DesktopProperties.obj
 0002:00007a38       ??_C@_1DK@OHMCHEE@?$AAw?$AAi?$AAn?$AA?4?$AAf?$AAr?$AAa?$AAm?$AAe?$AA?4?$AAa?$AAc?$AAt?$AAi?$AAv?$AAe?$AAC?$AAa?$AAp?$AAt?$AAi?$AAo?$AAn?$AAC?$AAo?$AAl?$AAo?$AAr?$AA?$AA@ 100bda38     awt_DesktopProperties.obj
 0002:00007a74       ??_C@_1DI@BDIHGBGO@?$AAw?$AAi?$AAn?$AA?4?$AAd?$AAe?$AAs?$AAk?$AAt?$AAo?$AAp?$AA?4?$AAb?$AAa?$AAc?$AAk?$AAg?$AAr?$AAo?$AAu?$AAn?$AAd?$AAC?$AAo?$AAl?$AAo?$AAr?$AA?$AA@ 100bda74     awt_DesktopProperties.obj
 0002:00007aac       ??_C@_1CK@PEAOFKFB@?$AAw?$AAi?$AAn?$AA?4?$AAb?$AAu?$AAt?$AAt?$AAo?$AAn?$AA?4?$AAt?$AAe?$AAx?$AAt?$AAC?$AAo?$AAl?$AAo?$AAr?$AA?$AA@ 100bdaac     awt_DesktopProperties.obj
 0002:00007ad8       ??_C@_1CG@EGNCKECL@?$AAw?$AAi?$AAn?$AA?4?$AA3?$AAd?$AA?4?$AAs?$AAh?$AAa?$AAd?$AAo?$AAw?$AAC?$AAo?$AAl?$AAo?$AAr?$AA?$AA@ 100bdad8     awt_DesktopProperties.obj
 0002:00007b00       ??_C@_1CE@HEOEKCGA@?$AAw?$AAi?$AAn?$AA?4?$AA3?$AAd?$AA?4?$AAl?$AAi?$AAg?$AAh?$AAt?$AAC?$AAo?$AAl?$AAo?$AAr?$AA?$AA@ 100bdb00     awt_DesktopProperties.obj
 0002:00007b24       ??_C@_1CM@NHNMMNMD@?$AAw?$AAi?$AAn?$AA?4?$AA3?$AAd?$AA?4?$AAh?$AAi?$AAg?$AAh?$AAl?$AAi?$AAg?$AAh?$AAt?$AAC?$AAo?$AAl?$AAo?$AAr?$AA?$AA@ 100bdb24     awt_DesktopProperties.obj
 0002:00007b50       ??_C@_1CO@ENOJMHCH@?$AAw?$AAi?$AAn?$AA?4?$AA3?$AAd?$AA?4?$AAb?$AAa?$AAc?$AAk?$AAg?$AAr?$AAo?$AAu?$AAn?$AAd?$AAC?$AAo?$AAl?$AAo?$AAr?$AA?$AA@ 100bdb50     awt_DesktopProperties.obj
 0002:00007b80       ??_C@_1CO@KEKBGPLE@?$AAw?$AAi?$AAn?$AA?4?$AA3?$AAd?$AA?4?$AAd?$AAa?$AAr?$AAk?$AAS?$AAh?$AAa?$AAd?$AAo?$AAw?$AAC?$AAo?$AAl?$AAo?$AAr?$AA?$AA@ 100bdb80     awt_DesktopProperties.obj
 0002:00007bb0       ??_C@_1DC@FMBJDEMJ@?$AAw?$AAi?$AAn?$AA?4?$AAi?$AAt?$AAe?$AAm?$AA?4?$AAh?$AAo?$AAt?$AAT?$AAr?$AAa?$AAc?$AAk?$AAe?$AAd?$AAC?$AAo?$AAl?$AAo?$AAr?$AA?$AA@ 100bdbb0     awt_DesktopProperties.obj
 0002:00007be8       ??_C@_1EO@MCIFMLHB@?$AAw?$AAi?$AAn?$AA?4?$AAf?$AAr?$AAa?$AAm?$AAe?$AA?4?$AAi?$AAn?$AAa?$AAc?$AAt?$AAi?$AAv?$AAe?$AAC?$AAa?$AAp?$AAt?$AAi?$AAo?$AAn?$AAG?$AAr?$AAa?$AAd?$AAi?$AAe?$AAn@ 100bdbe8     awt_DesktopProperties.obj
 0002:00007c38       ??_C@_1EK@LOIDNPFH@?$AAw?$AAi?$AAn?$AA?4?$AAf?$AAr?$AAa?$AAm?$AAe?$AA?4?$AAa?$AAc?$AAt?$AAi?$AAv?$AAe?$AAC?$AAa?$AAp?$AAt?$AAi?$AAo?$AAn?$AAG?$AAr?$AAa?$AAd?$AAi?$AAe?$AAn?$AAt?$AAC@ 100bdc38     awt_DesktopProperties.obj
 0002:00007c88       ??_C@_1IM@MAAFKOFH@?$AAS?$AAo?$AAf?$AAt?$AAw?$AAa?$AAr?$AAe?$AA?2?$AAM?$AAi?$AAc?$AAr?$AAo?$AAs?$AAo?$AAf?$AAt?$AA?2?$AAW?$AAi?$AAn?$AAd?$AAo?$AAw?$AAs?$AA?2?$AAC?$AAu?$AAr?$AAr?$AAe@ 100bdc88     awt_DesktopProperties.obj
 0002:00007d14       ??_C@_1DG@CAJBOGCF@?$AAw?$AAi?$AAn?$AA?4?$AAc?$AAo?$AAm?$AAd?$AAl?$AAg?$AA?4?$AAp?$AAl?$AAa?$AAc?$AAe?$AAs?$AAB?$AAa?$AAr?$AAP?$AAl?$AAa?$AAc?$AAe?$AAN?$AA?$AA@ 100bdd14     awt_DesktopProperties.obj
 0002:00007d4c       ??_C@_1O@GHKEBFNN@?$AAP?$AAl?$AAa?$AAc?$AAe?$AAN?$AA?$AA@ 100bdd4c     awt_DesktopProperties.obj
 0002:00007d5c       ??_C@_1CO@LABMKHEB@?$AAw?$AAi?$AAn?$AA?4?$AAc?$AAo?$AAm?$AAd?$AAl?$AAg?$AA?4?$AAn?$AAo?$AAP?$AAl?$AAa?$AAc?$AAe?$AAs?$AAB?$AAa?$AAr?$AA?$AA@ 100bdd5c     awt_DesktopProperties.obj
 0002:00007d90       ??_C@_1HI@BFGEBKHB@?$AAS?$AAo?$AAf?$AAt?$AAw?$AAa?$AAr?$AAe?$AA?2?$AAM?$AAi?$AAc?$AAr?$AAo?$AAs?$AAo?$AAf?$AAt?$AA?2?$AAW?$AAi?$AAn?$AAd?$AAo?$AAw?$AAs?$AA?2?$AAC?$AAu?$AAr?$AAr?$AAe@ 100bdd90     awt_DesktopProperties.obj
 0002:00007e08       ??_C@_1BI@LKJFALG@?$AAN?$AAo?$AAP?$AAl?$AAa?$AAc?$AAe?$AAs?$AAB?$AAa?$AAr?$AA?$AA@ 100bde08     awt_DesktopProperties.obj
 0002:00007e20       ??_C@_1CM@LMIEMMDO@?$AAw?$AAi?$AAn?$AA?4?$AAi?$AAc?$AAo?$AAn?$AA?4?$AAs?$AAh?$AAe?$AAl?$AAl?$AAI?$AAc?$AAo?$AAn?$AAB?$AAP?$AAP?$AA?$AA@ 100bde20     awt_DesktopProperties.obj
 0002:00007e50       ??_C@_1EI@DHKOGGHM@?$AAC?$AAo?$AAn?$AAt?$AAr?$AAo?$AAl?$AA?5?$AAP?$AAa?$AAn?$AAe?$AAl?$AA?2?$AAD?$AAe?$AAs?$AAk?$AAt?$AAo?$AAp?$AA?2?$AAW?$AAi?$AAn?$AAd?$AAo?$AAw?$AAM?$AAe?$AAt?$AAr@ 100bde50     awt_DesktopProperties.obj
 0002:00007e98       ??_C@_1BO@HHBLCDMP@?$AAS?$AAh?$AAe?$AAl?$AAl?$AA?5?$AAI?$AAc?$AAo?$AAn?$AA?5?$AAB?$AAP?$AAP?$AA?$AA@ 100bde98     awt_DesktopProperties.obj
 0002:00007eb8       ??_C@_1CO@ENNHGNNE@?$AAa?$AAw?$AAt?$AA?4?$AAf?$AAi?$AAl?$AAe?$AA?4?$AAs?$AAh?$AAo?$AAw?$AAA?$AAt?$AAt?$AAr?$AAi?$AAb?$AAC?$AAo?$AAl?$AA?$AA@ 100bdeb8     awt_DesktopProperties.obj
 0002:00007ee8       ??_C@_1DC@NOPIEFMB@?$AAa?$AAw?$AAt?$AA?4?$AAf?$AAi?$AAl?$AAe?$AA?4?$AAs?$AAh?$AAo?$AAw?$AAH?$AAi?$AAd?$AAd?$AAe?$AAn?$AAF?$AAi?$AAl?$AAe?$AAs?$AA?$AA@ 100bdee8     awt_DesktopProperties.obj
 0002:00007f1c       ??_C@_1CI@KNIIEGGM@?$AAw?$AAi?$AAn?$AA?4?$AAh?$AAi?$AAg?$AAh?$AAC?$AAo?$AAn?$AAt?$AAr?$AAa?$AAs?$AAt?$AA?4?$AAo?$AAn?$AA?$AA@ 100bdf1c     awt_DesktopProperties.obj
 0002:00007f44       ??_C@_1DA@GKANNEFB@?$AAw?$AAi?$AAn?$AA?4?$AAm?$AAe?$AAn?$AAu?$AA?4?$AAk?$AAe?$AAy?$AAb?$AAo?$AAa?$AAr?$AAd?$AAC?$AAu?$AAe?$AAs?$AAO?$AAn?$AA?$AA@ 100bdf44     awt_DesktopProperties.obj
 0002:00007f74       ??_C@_1CO@JGBLPFHK@?$AAw?$AAi?$AAn?$AA?4?$AAi?$AAt?$AAe?$AAm?$AA?4?$AAh?$AAo?$AAt?$AAT?$AAr?$AAa?$AAc?$AAk?$AAi?$AAn?$AAg?$AAO?$AAn?$AA?$AA@ 100bdf74     awt_DesktopProperties.obj
 0002:00007fa4       ??_C@_1DK@JCEMKNAP@?$AAw?$AAi?$AAn?$AA?4?$AAf?$AAr?$AAa?$AAm?$AAe?$AA?4?$AAc?$AAa?$AAp?$AAt?$AAi?$AAo?$AAn?$AAG?$AAr?$AAa?$AAd?$AAi?$AAe?$AAn?$AAt?$AAs?$AAO?$AAn?$AA?$AA@ 100bdfa4     awt_DesktopProperties.obj
 0002:00007fe0       ??_C@_1CM@EENEECOE@?$AAa?$AAw?$AAt?$AA?4?$AAw?$AAh?$AAe?$AAe?$AAl?$AAM?$AAo?$AAu?$AAs?$AAe?$AAP?$AAr?$AAe?$AAs?$AAe?$AAn?$AAt?$AA?$AA@ 100bdfe0     awt_DesktopProperties.obj
 0002:0000800c       ??_C@_1DG@KFOPNKLA@?$AAa?$AAw?$AAt?$AA?4?$AAd?$AAy?$AAn?$AAa?$AAm?$AAi?$AAc?$AAL?$AAa?$AAy?$AAo?$AAu?$AAt?$AAS?$AAu?$AAp?$AAp?$AAo?$AAr?$AAt?$AAe?$AAd?$AA?$AA@ 100be00c     awt_DesktopProperties.obj
 0002:00008044       ??_C@_1CO@OPOCKDLP@?$AAa?$AAw?$AAt?$AA?4?$AAm?$AAu?$AAl?$AAt?$AAi?$AAC?$AAl?$AAi?$AAc?$AAk?$AAI?$AAn?$AAt?$AAe?$AAr?$AAv?$AAa?$AAl?$AA?$AA@ 100be044     awt_DesktopProperties.obj
 0002:00008074       ??_C@_1CK@HEOPGPND@?$AAa?$AAw?$AAt?$AA?4?$AAm?$AAo?$AAu?$AAs?$AAe?$AA?4?$AAn?$AAu?$AAm?$AAB?$AAu?$AAt?$AAt?$AAo?$AAn?$AAs?$AA?$AA@ 100be074     awt_DesktopProperties.obj
 0002:000080a0       ??_C@_1DG@JOBAGDOA@?$AAD?$AAn?$AAD?$AA?4?$AAg?$AAe?$AAs?$AAt?$AAu?$AAr?$AAe?$AAM?$AAo?$AAt?$AAi?$AAo?$AAn?$AAT?$AAh?$AAr?$AAe?$AAs?$AAh?$AAo?$AAl?$AAd?$AA?$AA@ 100be0a0     awt_DesktopProperties.obj
 0002:000080d8       ??_C@_1CA@LAACBLOJ@?$AAw?$AAi?$AAn?$AA?4?$AAd?$AAr?$AAa?$AAg?$AA?4?$AAh?$AAe?$AAi?$AAg?$AAh?$AAt?$AA?$AA@ 100be0d8     awt_DesktopProperties.obj
 0002:000080f8       ??_C@_1BO@LPOKMMDD@?$AAw?$AAi?$AAn?$AA?4?$AAd?$AAr?$AAa?$AAg?$AA?4?$AAw?$AAi?$AAd?$AAt?$AAh?$AA?$AA@ 100be0f8     awt_DesktopProperties.obj
 0002:00008118       ??_C@_1EE@GPFHHNIC@?$AAw?$AAi?$AAn?$AA?4?$AAt?$AAe?$AAx?$AAt?$AA?4?$AAf?$AAo?$AAn?$AAt?$AAS?$AAm?$AAo?$AAo?$AAt?$AAh?$AAi?$AAn?$AAg?$AAO?$AAr?$AAi?$AAe?$AAn?$AAt?$AAa?$AAt?$AAi?$AAo@ 100be118     awt_DesktopProperties.obj
 0002:0000815c       ??_C@_1DO@LBKJAEJH@?$AAw?$AAi?$AAn?$AA?4?$AAt?$AAe?$AAx?$AAt?$AA?4?$AAf?$AAo?$AAn?$AAt?$AAS?$AAm?$AAo?$AAo?$AAt?$AAh?$AAi?$AAn?$AAg?$AAC?$AAo?$AAn?$AAt?$AAr?$AAa?$AAs?$AAt?$AA?$AA@ 100be15c     awt_DesktopProperties.obj
 0002:0000819c       ??_C@_1DG@KIFJAAFF@?$AAw?$AAi?$AAn?$AA?4?$AAt?$AAe?$AAx?$AAt?$AA?4?$AAf?$AAo?$AAn?$AAt?$AAS?$AAm?$AAo?$AAo?$AAt?$AAh?$AAi?$AAn?$AAg?$AAT?$AAy?$AAp?$AAe?$AA?$AA@ 100be19c     awt_DesktopProperties.obj
 0002:000081d4       ??_C@_1DC@MIMMGICD@?$AAw?$AAi?$AAn?$AA?4?$AAt?$AAe?$AAx?$AAt?$AA?4?$AAf?$AAo?$AAn?$AAt?$AAS?$AAm?$AAo?$AAo?$AAt?$AAh?$AAi?$AAn?$AAg?$AAO?$AAn?$AA?$AA@ 100be1d4     awt_DesktopProperties.obj
 0002:00008208       ??_C@_1DI@BMGKMLOP@?$AAw?$AAi?$AAn?$AA?4?$AAf?$AAr?$AAa?$AAm?$AAe?$AA?4?$AAf?$AAu?$AAl?$AAl?$AAW?$AAi?$AAn?$AAd?$AAo?$AAw?$AAD?$AAr?$AAa?$AAg?$AAs?$AAO?$AAn?$AA?$AA@ 100be208     awt_DesktopProperties.obj
 0002:00008240       ??_C@_1CA@MFIFAKBM@?$AAw?$AAi?$AAn?$AA?4?$AAs?$AAo?$AAu?$AAn?$AAd?$AA?4?$AAs?$AAt?$AAa?$AAr?$AAt?$AA?$AA@ 100be240     awt_DesktopProperties.obj
 0002:00008260       ??_C@_1BI@MIPPMMJP@?$AAS?$AAy?$AAs?$AAt?$AAe?$AAm?$AAS?$AAt?$AAa?$AAr?$AAt?$AA?$AA@ 100be260     awt_DesktopProperties.obj
 0002:00008278       ??_C@_1CG@LHANHHKK@?$AAw?$AAi?$AAn?$AA?4?$AAs?$AAo?$AAu?$AAn?$AAd?$AA?4?$AAq?$AAu?$AAe?$AAs?$AAt?$AAi?$AAo?$AAn?$AA?$AA@ 100be278     awt_DesktopProperties.obj
 0002:000082a0       ??_C@_1BO@EFCGNPAM@?$AAS?$AAy?$AAs?$AAt?$AAe?$AAm?$AAQ?$AAu?$AAe?$AAs?$AAt?$AAi?$AAo?$AAn?$AA?$AA@ 100be2a0     awt_DesktopProperties.obj
 0002:000082c0       ??_C@_1BO@KAMGCGJC@?$AAw?$AAi?$AAn?$AA?4?$AAs?$AAo?$AAu?$AAn?$AAd?$AA?4?$AAh?$AAa?$AAn?$AAd?$AA?$AA@ 100be2c0     awt_DesktopProperties.obj
 0002:000082e0       ??_C@_1BG@LLMFOPAM@?$AAS?$AAy?$AAs?$AAt?$AAe?$AAm?$AAH?$AAa?$AAn?$AAd?$AA?$AA@ 100be2e0     awt_DesktopProperties.obj
 0002:000082f8       ??_C@_1BO@HLNAOAAF@?$AAw?$AAi?$AAn?$AA?4?$AAs?$AAo?$AAu?$AAn?$AAd?$AA?4?$AAe?$AAx?$AAi?$AAt?$AA?$AA@ 100be2f8     awt_DesktopProperties.obj
 0002:00008318       ??_C@_1BG@GANDCJJL@?$AAS?$AAy?$AAs?$AAt?$AAe?$AAm?$AAE?$AAx?$AAi?$AAt?$AA?$AA@ 100be318     awt_DesktopProperties.obj
 0002:00008330       ??_C@_1CM@MIMGEDJL@?$AAw?$AAi?$AAn?$AA?4?$AAs?$AAo?$AAu?$AAn?$AAd?$AA?4?$AAe?$AAx?$AAc?$AAl?$AAa?$AAm?$AAa?$AAt?$AAi?$AAo?$AAn?$AA?$AA@ 100be330     awt_DesktopProperties.obj
 0002:0000835c       ??_C@_1CE@IGKHOKLO@?$AAS?$AAy?$AAs?$AAt?$AAe?$AAm?$AAE?$AAx?$AAc?$AAl?$AAa?$AAm?$AAa?$AAt?$AAi?$AAo?$AAn?$AA?$AA@ 100be35c     awt_DesktopProperties.obj
 0002:00008380       ??_C@_1CG@JMHDJFMF@?$AAw?$AAi?$AAn?$AA?4?$AAs?$AAo?$AAu?$AAn?$AAd?$AA?4?$AAa?$AAs?$AAt?$AAe?$AAr?$AAi?$AAs?$AAk?$AA?$AA@ 100be380     awt_DesktopProperties.obj
 0002:000083a8       ??_C@_1BO@GOFIDNGD@?$AAS?$AAy?$AAs?$AAt?$AAe?$AAm?$AAA?$AAs?$AAt?$AAe?$AAr?$AAi?$AAs?$AAk?$AA?$AA@ 100be3a8     awt_DesktopProperties.obj
 0002:000083c8       ??_C@_1CI@PNHOJDEO@?$AAw?$AAi?$AAn?$AA?4?$AAs?$AAo?$AAu?$AAn?$AAd?$AA?4?$AAr?$AAe?$AAs?$AAt?$AAo?$AAr?$AAe?$AAU?$AAp?$AA?$AA@ 100be3c8     awt_DesktopProperties.obj
 0002:000083f0       ??_C@_1BE@OOILLKBE@?$AAR?$AAe?$AAs?$AAt?$AAo?$AAr?$AAe?$AAU?$AAp?$AA?$AA@ 100be3f0     awt_DesktopProperties.obj
 0002:00008404       ??_C@_1CM@FGAHIHGG@?$AAw?$AAi?$AAn?$AA?4?$AAs?$AAo?$AAu?$AAn?$AAd?$AA?4?$AAr?$AAe?$AAs?$AAt?$AAo?$AAr?$AAe?$AAD?$AAo?$AAw?$AAn?$AA?$AA@ 100be404     awt_DesktopProperties.obj
 0002:00008430       ??_C@_1BI@CIFOEBOJ@?$AAR?$AAe?$AAs?$AAt?$AAo?$AAr?$AAe?$AAD?$AAo?$AAw?$AAn?$AA?$AA@ 100be430     awt_DesktopProperties.obj
 0002:00008448       ??_C@_1BO@PHHBBMPJ@?$AAw?$AAi?$AAn?$AA?4?$AAs?$AAo?$AAu?$AAn?$AAd?$AA?4?$AAo?$AAp?$AAe?$AAn?$AA?$AA@ 100be448     awt_DesktopProperties.obj
 0002:00008468       ??_C@_19FMFEEEON@?$AAO?$AAp?$AAe?$AAn?$AA?$AA@ 100be468     awt_DesktopProperties.obj
 0002:00008474       ??_C@_1CI@JEFPEMKP@?$AAw?$AAi?$AAn?$AA?4?$AAs?$AAo?$AAu?$AAn?$AAd?$AA?4?$AAm?$AAe?$AAn?$AAu?$AAP?$AAo?$AAp?$AAu?$AAp?$AA?$AA@ 100be474     awt_DesktopProperties.obj
 0002:0000849c       ??_C@_1BE@IHKKGFPF@?$AAM?$AAe?$AAn?$AAu?$AAP?$AAo?$AAp?$AAu?$AAp?$AA?$AA@ 100be49c     awt_DesktopProperties.obj
 0002:000084b0       ??_C@_1CM@PJEDPDJI@?$AAw?$AAi?$AAn?$AA?4?$AAs?$AAo?$AAu?$AAn?$AAd?$AA?4?$AAm?$AAe?$AAn?$AAu?$AAC?$AAo?$AAm?$AAm?$AAa?$AAn?$AAd?$AA?$AA@ 100be4b0     awt_DesktopProperties.obj
 0002:000084dc       ??_C@_1BI@IHBKDFBH@?$AAM?$AAe?$AAn?$AAu?$AAC?$AAo?$AAm?$AAm?$AAa?$AAn?$AAd?$AA?$AA@ 100be4dc     awt_DesktopProperties.obj
 0002:000084f4       ??_C@_1CG@DCOEDPJF@?$AAw?$AAi?$AAn?$AA?4?$AAs?$AAo?$AAu?$AAn?$AAd?$AA?4?$AAm?$AAi?$AAn?$AAi?$AAm?$AAi?$AAz?$AAe?$AA?$AA@ 100be4f4     awt_DesktopProperties.obj
 0002:0000851c       ??_C@_1BC@IKLJJNJG@?$AAM?$AAi?$AAn?$AAi?$AAm?$AAi?$AAz?$AAe?$AA?$AA@ 100be51c     awt_DesktopProperties.obj
 0002:00008530       ??_C@_1CG@NPIHNHAA@?$AAw?$AAi?$AAn?$AA?4?$AAs?$AAo?$AAu?$AAn?$AAd?$AA?4?$AAm?$AAa?$AAx?$AAi?$AAm?$AAi?$AAz?$AAe?$AA?$AA@ 100be530     awt_DesktopProperties.obj
 0002:00008558       ??_C@_1BC@GHNKHFAD@?$AAM?$AAa?$AAx?$AAi?$AAm?$AAi?$AAz?$AAe?$AA?$AA@ 100be558     awt_DesktopProperties.obj
 0002:0000856c       ??_C@_1CA@MLJHNHJB@?$AAw?$AAi?$AAn?$AA?4?$AAs?$AAo?$AAu?$AAn?$AAd?$AA?4?$AAc?$AAl?$AAo?$AAs?$AAe?$AA?$AA@ 100be56c     awt_DesktopProperties.obj
 0002:0000858c       ??_C@_1M@IAIJHCCH@?$AAC?$AAl?$AAo?$AAs?$AAe?$AA?$AA@ 100be58c     awt_DesktopProperties.obj
 0002:00008598       ??_C@_1CE@LFABAHCB@?$AAw?$AAi?$AAn?$AA?4?$AAs?$AAo?$AAu?$AAn?$AAd?$AA?4?$AAd?$AAe?$AAf?$AAa?$AAu?$AAl?$AAt?$AA?$AA@ 100be598     awt_DesktopProperties.obj
 0002:000085bc       ??_C@_1BC@KICPAAIK@?$AA?4?$AAD?$AAe?$AAf?$AAa?$AAu?$AAl?$AAt?$AA?$AA@ 100be5bc     awt_DesktopProperties.obj
 0002:000085d0       ??_C@_1CO@NENCACAA@?$AAw?$AAi?$AAn?$AA?4?$AAp?$AAr?$AAo?$AAp?$AAe?$AAr?$AAt?$AAi?$AAe?$AAs?$AA?4?$AAv?$AAe?$AAr?$AAs?$AAi?$AAo?$AAn?$AA?$AA@ 100be5d0     awt_DesktopProperties.obj
 0002:00008604       ??_7AwtDialog@@6B@         100be604     awt_Dialog.obj
 0002:00008818       ??_C@_1BK@HCLPKBHO@?$AAS?$AAu?$AAn?$AAA?$AAw?$AAt?$AAD?$AAi?$AAa?$AAl?$AAo?$AAg?$AA?$AA@ 100be818     awt_Dialog.obj
 0002:00008834       ??_C@_0BH@JGNGAIIH@getActiveWindowHandles?$AA@ 100be834     awt_Dialog.obj
 0002:0000884c       ??_C@_04HPCJOKEN@?$CI?$CJ?$FLJ?$AA@ 100be84c     awt_Dialog.obj
 0002:00008854       ??_C@_0BM@PBCGCOHM@sun?1awt?1windows?1WWindowPeer?$AA@ 100be854     awt_Dialog.obj
 0002:00008870       ??_C@_1BI@LOFGNFPL@?$AAI?$AAn?$AAp?$AAu?$AAt?$AAM?$AAe?$AAt?$AAh?$AAo?$AAd?$AA?$AA@ 100be870     awt_Dialog.obj
 0002:00008888       ??_C@_0P@GCCCJCLI@null?5IMMOption?$AA@ 100be888     awt_Dialog.obj
 0002:00008898       ??_C@_0M@JOGLOLGL@undecorated?$AA@ 100be898     awt_Dialog.obj
 0002:000088a4       ??_C@_05PHLGJONK@title?$AA@ 100be8a4     awt_Dialog.obj
 0002:000088ac       ??_C@_0BA@LEJKCHLN@setDefaultColor?$AA@ 100be8ac     awt_Dialog.obj
 0002:000088c0       ??_7JAWTDrawingSurface@@6B@ 100be8c0     awt_DrawingSurface.obj
 0002:000088c4       ??_C@_1BA@PEIBBIBE@?$AAA?$AAW?$AAT?$AA_?$AAO?$AAF?$AAN?$AA?$AA@ 100be8c4     awt_FileDialog.obj
 0002:000088ec       ??_C@_06EOIELIPE@filter?$AA@ 100be8ec     awt_FileDialog.obj
 0002:000088f4       ??_C@_04DAMGJPCA@file?$AA@ 100be8f4     awt_FileDialog.obj
 0002:000088fc       ??_C@_03DAPAKLGM@dir?$AA@  100be8fc     awt_FileDialog.obj
 0002:00008900       ??_C@_04GMGOKAFF@mode?$AA@ 100be900     awt_FileDialog.obj
 0002:00008908       ??_C@_0BE@OICBBLFN@java?1awt?1FileDialog?$AA@ 100be908     awt_FileDialog.obj
 0002:0000891c       ??_C@_0P@LFIHIHIC@isMultipleMode?$AA@ 100be91c     awt_FileDialog.obj
 0002:0000892c       ??_C@_0BE@FGEGEBPF@checkFilenameFilter?$AA@ 100be92c     awt_FileDialog.obj
 0002:00008940       ??_C@_0BG@CGIGLAGP@?$CILjava?1lang?1String?$DL?$CJZ?$AA@ 100be940     awt_FileDialog.obj
 0002:00008958       ??_C@_0N@NBPAFKMI@handleCancel?$AA@ 100be958     awt_FileDialog.obj
 0002:00008968       ??_C@_0P@LELBKHFL@handleSelected?$AA@ 100be968     awt_FileDialog.obj
 0002:00008978       ??_C@_05LINNFHLD@?$CI?$FLC?$CJV?$AA@ 100be978     awt_FileDialog.obj
 0002:00008980       ??_C@_07IMLOPGGK@setHWnd?$AA@ 100be980     awt_FileDialog.obj
 0002:00008988       ??_C@_0L@MABNEAFE@fileFilter?$AA@ 100be988     awt_FileDialog.obj
 0002:00008994       ??_C@_0BJ@BNCKADC@Ljava?1io?1FilenameFilter?$DL?$AA@ 100be994     awt_FileDialog.obj
 0002:000089b0       ??_C@_0CB@MEJGDNGM@Lsun?1awt?1windows?1WComponentPeer?$DL@ 100be9b0     awt_FileDialog.obj
 0002:000089d4       ??_C@_13HOIJIPNN@?$AA?5?$AA?$AA@ 100be9d4     awt_FileDialog.obj
 0002:000089d8       ??_C@_0BD@HMGGFBMH@Ljava?1lang?1Object?$DL?$AA@ 100be9d8     awt_Event.obj
 0002:000089f0       ??_7AwtFont@@6B@           100be9f0     awt_Font.obj
 0002:00008a04       ??_C@_1BO@EHOAHJDJ@?$AAB?$AAA?$AAL?$AAT?$AAI?$AAC?$AA_?$AAC?$AAH?$AAA?$AAR?$AAS?$AAE?$AAT?$AA?$AA@ 100bea04     awt_Font.obj
 0002:00008a24       ??_C@_1BI@MGIINLEN@?$AAM?$AAA?$AAC?$AA_?$AAC?$AAH?$AAA?$AAR?$AAS?$AAE?$AAT?$AA?$AA@ 100bea24     awt_Font.obj
 0002:00008a3c       ??_C@_1CA@LOACOBBN@?$AAR?$AAU?$AAS?$AAS?$AAI?$AAA?$AAN?$AA_?$AAC?$AAH?$AAA?$AAR?$AAS?$AAE?$AAT?$AA?$AA@ 100bea3c     awt_Font.obj
 0002:00008a5c       ??_C@_1CG@MNHMFBIC@?$AAE?$AAA?$AAS?$AAT?$AAE?$AAU?$AAR?$AAO?$AAP?$AAE?$AA_?$AAC?$AAH?$AAA?$AAR?$AAS?$AAE?$AAT?$AA?$AA@ 100bea5c     awt_Font.obj
 0002:00008a84       ??_C@_1BK@DBIPFOJM@?$AAT?$AAH?$AAA?$AAI?$AA_?$AAC?$AAH?$AAA?$AAR?$AAS?$AAE?$AAT?$AA?$AA@ 100bea84     awt_Font.obj
 0002:00008aa0       ??_C@_1CG@MPJEKCBP@?$AAV?$AAI?$AAE?$AAT?$AAN?$AAA?$AAM?$AAE?$AAS?$AAE?$AA_?$AAC?$AAH?$AAA?$AAR?$AAS?$AAE?$AAT?$AA?$AA@ 100beaa0     awt_Font.obj
 0002:00008ac8       ??_C@_1CA@KAHGDOP@?$AAT?$AAU?$AAR?$AAK?$AAI?$AAS?$AAH?$AA_?$AAC?$AAH?$AAA?$AAR?$AAS?$AAE?$AAT?$AA?$AA@ 100beac8     awt_Font.obj
 0002:00008ae8       ??_C@_1BM@OEPKNMKP@?$AAG?$AAR?$AAE?$AAE?$AAK?$AA_?$AAC?$AAH?$AAA?$AAR?$AAS?$AAE?$AAT?$AA?$AA@ 100beae8     awt_Font.obj
 0002:00008b04       ??_C@_1BO@ENDGLKEO@?$AAA?$AAR?$AAA?$AAB?$AAI?$AAC?$AA_?$AAC?$AAH?$AAA?$AAR?$AAS?$AAE?$AAT?$AA?$AA@ 100beb04     awt_Font.obj
 0002:00008b24       ??_C@_1BO@JAIDACHN@?$AAH?$AAE?$AAB?$AAR?$AAE?$AAW?$AA_?$AAC?$AAH?$AAA?$AAR?$AAS?$AAE?$AAT?$AA?$AA@ 100beb24     awt_Font.obj
 0002:00008b44       ??_C@_1BM@ECPGMCJB@?$AAJ?$AAO?$AAH?$AAA?$AAB?$AA_?$AAC?$AAH?$AAA?$AAR?$AAS?$AAE?$AAT?$AA?$AA@ 100beb44     awt_Font.obj
 0002:00008b60       ??_C@_1BI@FKOKMPCF@?$AAO?$AAE?$AAM?$AA_?$AAC?$AAH?$AAA?$AAR?$AAS?$AAE?$AAT?$AA?$AA@ 100beb60     awt_Font.obj
 0002:00008b78       ??_C@_1CI@JJPNGGGP@?$AAC?$AAH?$AAI?$AAN?$AAE?$AAS?$AAE?$AAB?$AAI?$AAG?$AA5?$AA_?$AAC?$AAH?$AAA?$AAR?$AAS?$AAE?$AAT?$AA?$AA@ 100beb78     awt_Font.obj
 0002:00008ba0       ??_C@_1CA@OMCCPGEM@?$AAH?$AAA?$AAN?$AAG?$AAE?$AAU?$AAL?$AA_?$AAC?$AAH?$AAA?$AAR?$AAS?$AAE?$AAT?$AA?$AA@ 100beba0     awt_Font.obj
 0002:00008bc0       ??_C@_1BO@BCKFODFC@?$AAG?$AAB?$AA2?$AA3?$AA1?$AA2?$AA_?$AAC?$AAH?$AAA?$AAR?$AAS?$AAE?$AAT?$AA?$AA@ 100bebc0     awt_Font.obj
 0002:00008be0       ??_C@_1CC@DEDECMFL@?$AAS?$AAH?$AAI?$AAF?$AAT?$AAJ?$AAI?$AAS?$AA_?$AAC?$AAH?$AAA?$AAR?$AAS?$AAE?$AAT?$AA?$AA@ 100bebe0     awt_Font.obj
 0002:00008c04       ??_C@_1BE@JMMGGGIG@?$AAW?$AAi?$AAn?$AAg?$AAD?$AAi?$AAn?$AAg?$AAs?$AA?$AA@ 100bec04     awt_Font.obj
 0002:00008c18       ??_C@_1BO@DLLJDOFA@?$AAS?$AAY?$AAM?$AAB?$AAO?$AAL?$AA_?$AAC?$AAH?$AAA?$AAR?$AAS?$AAE?$AAT?$AA?$AA@ 100bec18     awt_Font.obj
 0002:00008c38       ??_C@_1CA@LIKEGLGA@?$AAD?$AAE?$AAF?$AAA?$AAU?$AAL?$AAT?$AA_?$AAC?$AAH?$AAA?$AAR?$AAS?$AAE?$AAT?$AA?$AA@ 100bec38     awt_Font.obj
 0002:00008c58       ??_C@_1BK@GBMOOEDM@?$AAA?$AAN?$AAS?$AAI?$AA_?$AAC?$AAH?$AAA?$AAR?$AAS?$AAE?$AAT?$AA?$AA@ 100bec58     awt_Font.obj
 0002:00008c74       __real@4f800000            100bec74     awt_Font.obj
 0002:00008c78       ??_C@_19EEIDFNHG@?$AAB?$AAo?$AAl?$AAd?$AA?$AA@ 100bec78     awt_Font.obj
 0002:00008c84       ??_C@_1O@FJOOOIMH@?$AAI?$AAt?$AAa?$AAl?$AAi?$AAc?$AA?$AA@ 100bec84     awt_Font.obj
 0002:00008c94       ??_C@_0BE@PLHEAPED@off?5or?5len?5argument?$AA@ 100bec94     awt_Font.obj
 0002:00008ca8       ??_C@_0P@LAFPHNEB@bytes?5argument?$AA@ 100beca8     awt_Font.obj
 0002:00008cb8       ??_C@_0L@BAGDOLKA@maxAdvance?$AA@ 100becb8     awt_Font.obj
 0002:00008cc4       ??_C@_09BMFIFOJA@maxHeight?$AA@ 100becc4     awt_Font.obj
 0002:00008cd0       ??_C@_0L@FIPJBLOB@maxDescent?$AA@ 100becd0     awt_Font.obj
 0002:00008cdc       ??_C@_09LIHLFGFN@maxAscent?$AA@ 100becdc     awt_Font.obj
 0002:00008ce8       ??_C@_07EFNGFIJB@leading?$AA@ 100bece8     awt_Font.obj
 0002:00008cf0       ??_C@_07EBDEMCIO@descent?$AA@ 100becf0     awt_Font.obj
 0002:00008cf8       ??_C@_06BJJEEIML@ascent?$AA@ 100becf8     awt_Font.obj
 0002:00008d00       ??_C@_06KOJOMGFN@widths?$AA@ 100bed00     awt_Font.obj
 0002:00008d08       ??_C@_07LECCLFMF@getFont?$AA@ 100bed08     awt_Font.obj
 0002:00008d10       ??_C@_0CE@GMIGDEKI@?$CILjava?1lang?1String?$DL?$CJLjava?1awt?1Fo@ 100bed10     awt_Font.obj
 0002:00008d34       ??_C@_05IAKJCFIM@style?$AA@ 100bed34     awt_Font.obj
 0002:00008d3c       ??_C@_04IAGNFIBA@size?$AA@ 100bed3c     awt_Font.obj
 0002:00008d44       ??_C@_04MEMAJGDJ@name?$AA@ 100bed44     awt_Font.obj
 0002:00008d4c       ??_C@_07GODAHPOE@getPeer?$AA@ 100bed4c     awt_Font.obj
 0002:00008d54       ??_C@_0BL@KLECKJKL@?$CI?$CJLjava?1awt?1peer?1FontPeer?$DL?$AA@ 100bed54     awt_Font.obj
 0002:00008d70       ??_C@_09BDJIKBK@getHeight?$AA@ 100bed70     awt_Font.obj
 0002:00008d7c       ??_C@_04EFPADHIC@font?$AA@ 100bed7c     awt_Font.obj
 0002:00008d84       ??_C@_0BA@NPKBIODJ@Ljava?1awt?1Font?$DL?$AA@ 100bed84     awt_Font.obj
 0002:00008d94       ??_C@_0L@BDLAMIIM@useUnicode?$AA@ 100bed94     awt_Font.obj
 0002:00008da0       ??_C@_0L@CBEJHPAN@nativeName?$AA@ 100beda0     awt_Font.obj
 0002:00008dac       ??_C@_0BN@DEFEOFNC@makeConvertedMultiFontString?$AA@ 100bedac     awt_Font.obj
 0002:00008dcc       ??_C@_0CI@LGPDODK@?$CILjava?1lang?1String?$DL?$CJ?$FLLjava?1lang?1@ 100bedcc     awt_Font.obj
 0002:00008df4       ??_C@_0P@EFHDGEIK@componentFonts?$AA@ 100bedf4     awt_Font.obj
 0002:00008e04       ??_C@_0BK@FEDCLBLJ@?$FLLsun?1awt?1FontDescriptor?$DL?$AA@ 100bee04     awt_Font.obj
 0002:00008e20       ??_C@_0L@GJPKDGJO@fontConfig?$AA@ 100bee20     awt_Font.obj
 0002:00008e2c       ??_C@_0BM@GLFMBFAM@Lsun?1awt?1FontConfiguration?$DL?$AA@ 100bee2c     awt_Font.obj
 0002:00008e48       ??_C@_0BG@KONHFLHM@textComponentFontName?$AA@ 100bee48     awt_Font.obj
 0002:00008e64       ??_7CSegTableComponent@@6B@ 100bee64     awt_Font.obj
 0002:00008e74       ??_7CSegTable@@6B@         100bee74     awt_Font.obj
 0002:00008e8c       ??_7CStdSegTable@@6B@      100bee8c     awt_Font.obj
 0002:00008ea4       ??_7CEUDCSegTable@@6B@     100beea4     awt_Font.obj
 0002:00008ebc       ??_7CCombinedSegTable@@6B@ 100beebc     awt_Font.obj
 0002:00008ec8       ??_C@_05JBPPGLJD@EUDC?2?$AA@ 100beec8     awt_Font.obj
 0002:00008ed0       ??_C@_0N@GCHKILOJ@userfont?4fon?$AA@ 100beed0     awt_Font.obj
 0002:00008ee0       ??_C@_0BG@DEPLEOPH@SystemDefaultEUDCFont?$AA@ 100beee0     awt_Font.obj
 0002:00008ef8       ??_C@_08EIKCGINI@fontName?$AA@ 100beef8     awt_Font.obj
 0002:00008f04       ??_C@_1BE@GPJGNBOA@?$AA?$CF?$AAl?$AAs?$AA?9?$AA?$CF?$AAd?$AA?9?$AA?$CF?$AAd?$AA?$AA@ 100bef04     awt_Font.obj
 0002:00008f18       ??_C@_1M@KAKMLIHO@?$AAA?$AAr?$AAi?$AAa?$AAl?$AA?$AA@ 100bef18     awt_Font.obj
 0002:00008f24       ??_C@_1CA@MBPOLHGL@?$AAT?$AAi?$AAm?$AAe?$AAs?$AA?5?$AAN?$AAe?$AAw?$AA?5?$AAR?$AAo?$AAm?$AAa?$AAn?$AA?$AA@ 100bef24     awt_Font.obj
 0002:00008f44       ??_C@_1BI@GNONBDFP@?$AAC?$AAo?$AAu?$AAr?$AAi?$AAe?$AAr?$AA?5?$AAN?$AAe?$AAw?$AA?$AA@ 100bef44     awt_Font.obj
 0002:00008f5c       ??_C@_1BK@JCPKDPM@?$AAZ?$AAa?$AAp?$AAf?$AAD?$AAi?$AAn?$AAg?$AAb?$AAa?$AAt?$AAs?$AA?$AA@ 100bef5c     awt_Font.obj
 0002:00008f78       ??_C@_1BM@MFCIMBB@?$AAM?$AAS?$AA?5?$AAS?$AAa?$AAn?$AAs?$AA?5?$AAS?$AAe?$AAr?$AAi?$AAf?$AA?$AA@ 100bef78     awt_Font.obj
 0002:00008f94       ??_C@_1BI@GBLCJECP@?$AAD?$AAi?$AAa?$AAl?$AAo?$AAg?$AAI?$AAn?$AAp?$AAu?$AAt?$AA?$AA@ 100bef94     awt_Font.obj
 0002:00008fac       ??_C@_1O@CFJIAAME@?$AAD?$AAi?$AAa?$AAl?$AAo?$AAg?$AA?$AA@ 100befac     awt_Font.obj
 0002:00008fbc       ??_C@_1BG@ELPMCNIB@?$AAM?$AAo?$AAn?$AAo?$AAs?$AAp?$AAa?$AAc?$AAe?$AAd?$AA?$AA@ 100befbc     awt_Font.obj
 0002:00008fd4       ??_C@_1BA@NGEFCDFC@?$AAC?$AAo?$AAu?$AAr?$AAi?$AAe?$AAr?$AA?$AA@ 100befd4     awt_Font.obj
 0002:00008fe4       ??_C@_1M@CHMCBOPI@?$AAS?$AAe?$AAr?$AAi?$AAf?$AA?$AA@ 100befe4     awt_Font.obj
 0002:00008ff0       ??_C@_1BG@NNBDBKAP@?$AAT?$AAi?$AAm?$AAe?$AAs?$AAR?$AAo?$AAm?$AAa?$AAn?$AA?$AA@ 100beff0     awt_Font.obj
 0002:00009008       ??_C@_1BE@KOABJGOA@?$AAS?$AAa?$AAn?$AAs?$AAS?$AAe?$AAr?$AAi?$AAf?$AA?$AA@ 100bf008     awt_Font.obj
 0002:0000901c       ??_C@_1BE@FKPLHFCF@?$AAH?$AAe?$AAl?$AAv?$AAe?$AAt?$AAi?$AAc?$AAa?$AA?$AA@ 100bf01c     awt_Font.obj
 0002:00009030       __real@404ca5dc1a674644    100bf030     awt_Font.obj
 0002:00009038       __real@4076800000000000    100bf038     awt_Font.obj
 0002:00009040       __real@4024000000000000    100bf040     awt_Font.obj
 0002:00009048       ??_C@_0BC@COBCGCON@fontMetrics?8?5font?$AA@ 100bf048     awt_Font.obj
 0002:0000905c       ??_C@_0N@ONDJPIFI@str?5argument?$AA@ 100bf05c     awt_Font.obj
 0002:0000906c       ??_C@_0BB@KPAHBGJA@off?1len?5argument?$AA@ 100bf06c     awt_Font.obj
 0002:00009084       ??_7AwtFrame@@6B@          100bf084     awt_Frame.obj
 0002:00009290       ??_C@_1BI@MGHGODBG@?$AAS?$AAu?$AAn?$AAA?$AAw?$AAt?$AAF?$AAr?$AAa?$AAm?$AAe?$AA?$AA@ 100bf290     awt_Frame.obj
 0002:000092a8       ??_C@_0BN@BNDIBHNL@sun?1awt?1im?1InputMethodWindow?$AA@ 100bf2a8     awt_Frame.obj
 0002:000092c8       ??_C@_0BG@DOHGCELN@sun?1awt?1EmbeddedFrame?$AA@ 100bf2c8     awt_Frame.obj
 0002:000092e0       ??_C@_0BL@PGIKBDLD@sun?1awt?1windows?1WFramePeer?$AA@ 100bf2e0     awt_Frame.obj
 0002:000092fc       ??_C@_0P@HDPLIAOJ@keepOnMinimize?$AA@ 100bf2fc     awt_Frame.obj
 0002:0000930c       ??_C@_0BG@DKJHNCJM@notifyIMMOptionChange?$AA@ 100bf30c     awt_Frame.obj
 0002:00009324       ??_C@_0BD@KACEDCCP@java?1awt?1Rectangle?$AA@ 100bf324     awt_Frame.obj
 0002:00009338       ??_C@_0BD@KPOFNHBN@IMMOption?5argument?$AA@ 100bf338     awt_Frame.obj
 0002:0000934c       ??_C@_0BB@OOIOKNMB@getExtendedState?$AA@ 100bf34c     awt_Frame.obj
 0002:00009360       ??_C@_0BB@IKNHBDHD@setExtendedState?$AA@ 100bf360     awt_Frame.obj
 0002:00009374       ??_C@_0BK@CEBIIHND@activateEmbeddingTopLevel?$AA@ 100bf374     awt_Frame.obj
 0002:00009390       ??_C@_06NCGDPKCC@handle?$AA@ 100bf390     awt_Frame.obj
 0002:00009398       ??_C@_0BC@PKCDOLGP@AWTBlockedThreads?$AA@ 100bf398     awt_Frame.obj
 0002:000093b0       __real@3feccccccccccccd    100bf3b0     awt_GDIObject.obj
 0002:000093b8       ??_C@_1CM@HPLOJBAF@?$AAG?$AAD?$AAI?$AAP?$AAr?$AAo?$AAc?$AAe?$AAs?$AAs?$AAH?$AAa?$AAn?$AAd?$AAl?$AAe?$AAQ?$AAu?$AAo?$AAt?$AAa?$AA?$AA@ 100bf3b8     awt_GDIObject.obj
 0002:000093e8       ??_C@_1GK@MGDALEJA@?$AAS?$AAO?$AAF?$AAT?$AAW?$AAA?$AAR?$AAE?$AA?2?$AAM?$AAi?$AAc?$AAr?$AAo?$AAs?$AAo?$AAf?$AAt?$AA?2?$AAW?$AAi?$AAn?$AAd?$AAo?$AAw?$AAs?$AA?5?$AAN?$AAT?$AA?2?$AAC?$AAu@ 100bf3e8     awt_GDIObject.obj
 0002:00009454       ??_C@_0DM@PFNAHCLO@Pen?1Brush?5creation?5failure?5?9?5exc@ 100bf454     awt_GDIObject.obj
 0002:00009490       ??_C@_09OECJJJAK@modifiers?$AA@ 100bf490     awt_InputEvent.obj
 0002:0000949c       ?SYSCOMMAND_IMM@@3IB       100bf49c     awt_InputMethod.obj
 0002:000094a0       ??_C@_0BB@HKCNAMHI@java?1util?1Locale?$AA@ 100bf4a0     awt_InputMethod.obj
 0002:000094b4       ??_C@_0P@LBICCPMG@forLanguageTag?$AA@ 100bf4b4     awt_InputMethod.obj
 0002:000094c4       ??_C@_0CH@DFDFOAHK@?$CILjava?1lang?1String?$DL?$CJLjava?1util?1L@ 100bf4c4     awt_InputMethod.obj
 0002:000094ec       ??_C@_13JGCMLPCH@?$AA1?$AA?$AA@ 100bf4ec     awt_InputMethod.obj
 0002:000094f0       ??_C@_1DA@FKJDDCGN@?$AAK?$AAe?$AAy?$AAb?$AAo?$AAa?$AAr?$AAd?$AA?5?$AAL?$AAa?$AAy?$AAo?$AAu?$AAt?$AA?2?$AAP?$AAr?$AAe?$AAl?$AAo?$AAa?$AAd?$AA?$AA@ 100bf4f0     awt_InputMethod.obj
 0002:00009520       ?GCS_INDEX@AwtInputTextInfor@@0QBKB 100bf520     awt_InputTextInfor.obj
 0002:00009544       ??_C@_06CMLIEHFC@concat?$AA@ 100bf544     awt_InputTextInfor.obj
 0002:0000954c       ??_C@_0CH@NCPCFFHJ@?$CILjava?1lang?1String?$DL?$CJLjava?1lang?1S@ 100bf54c     awt_InputTextInfor.obj
 0002:00009574       ??_C@_06PMMPCIPB@bottom?$AA@ 100bf574     awt_Insets.obj
 0002:0000957c       ??_C@_03FGFCOCMD@top?$AA@  100bf57c     awt_Insets.obj
 0002:00009580       ??_C@_05DHJDAOHK@right?$AA@ 100bf580     awt_Insets.obj
 0002:00009588       ??_C@_04GOOOJOPP@left?$AA@ 100bf588     awt_Insets.obj
 0002:00009590       ??_C@_0BA@MEKPDKBB@extendedKeyCode?$AA@ 100bf590     awt_KeyEvent.obj
 0002:000095a0       ??_C@_08HLAAIMLE@scancode?$AA@ 100bf5a0     awt_KeyEvent.obj
 0002:000095ac       ??_C@_0BE@DPDEBDCA@primaryLevelUnicode?$AA@ 100bf5ac     awt_KeyEvent.obj
 0002:000095c0       ??_C@_07GEAMPFIB@rawCode?$AA@ 100bf5c0     awt_KeyEvent.obj
 0002:000095c8       ??_C@_07FHCCOECG@keyChar?$AA@ 100bf5c8     awt_KeyEvent.obj
 0002:000095d0       ??_C@_01GFHCPBMG@C?$AA@    100bf5d0     awt_KeyEvent.obj
 0002:000095d4       ??_C@_07MJLNJKOC@keyCode?$AA@ 100bf5d4     awt_KeyEvent.obj
 0002:000095e4       ??_7AwtLabel@@6B@          100bf5e4     awt_Label.obj
 0002:000097ac       ??_C@_1BI@PPAMPLJI@?$AAS?$AAu?$AAn?$AAA?$AAw?$AAt?$AAL?$AAa?$AAb?$AAe?$AAl?$AA?$AA@ 100bf7ac     awt_Label.obj
 0002:000097c4       ??_C@_09EPAMMDLD@alignment?$AA@ 100bf7c4     awt_Label.obj
 0002:000097d0       ??_C@_04CIMGMMMG@text?$AA@ 100bf7d0     awt_Label.obj
 0002:000097dc       ??_7AwtList@@6B@           100bf7dc     awt_List.obj
 0002:000099a4       ??_C@_1BA@BFOCGNID@?$AAL?$AAI?$AAS?$AAT?$AAB?$AAO?$AAX?$AA?$AA@ 100bf9a4     awt_List.obj
 0002:000099b4       ??_C@_0BI@KAGONOCE@?$CII?$CJLjava?1awt?1Dimension?$DL?$AA@ 100bf9b4     awt_List.obj
 0002:000099cc       ??_C@_06JJLENMDM@?$CIIJI?$CJV?$AA@ 100bf9cc     awt_List.obj
 0002:000099d4       ??_C@_0BC@EFBEKCEF@handleListChanged?$AA@ 100bf9d4     awt_List.obj
 0002:000099ec       ??_7AwtMenu@@6B@           100bf9ec     awt_Menu.obj
 0002:00009a40       ??_C@_1BG@KCBBADAJ@?$AAS?$AAu?$AAn?$AAA?$AAw?$AAt?$AAM?$AAe?$AAn?$AAu?$AA?$AA@ 100bfa40     awt_Menu.obj
 0002:00009a58       ??_C@_0BH@FANNGO@?$CII?$CJLjava?1awt?1MenuItem?$DL?$AA@ 100bfa58     awt_Menu.obj
 0002:00009a70       ??_C@_0P@LIEPKCJG@countItemsImpl?$AA@ 100bfa70     awt_Menu.obj
 0002:00009a84       ??_7AwtMenuBar@@6B@        100bfa84     awt_MenuBar.obj
 0002:00009ad8       ??_C@_1BM@DLNAODJE@?$AAS?$AAu?$AAn?$AAA?$AAw?$AAt?$AAM?$AAe?$AAn?$AAu?$AAB?$AAa?$AAr?$AA?$AA@ 100bfad8     awt_MenuBar.obj
 0002:00009af4       ??_C@_09NIMKGMNH@null?5menu?$AA@ 100bfaf4     awt_MenuBar.obj
 0002:00009b00       ??_C@_0M@DAGHBLNH@getMenuImpl?$AA@ 100bfb00     awt_MenuBar.obj
 0002:00009b0c       ??_C@_0BD@OKBJDLGN@?$CII?$CJLjava?1awt?1Menu?$DL?$AA@ 100bfb0c     awt_MenuBar.obj
 0002:00009b20       ??_C@_0BB@FJBNCJEJ@getMenuCountImpl?$AA@ 100bfb20     awt_MenuBar.obj
 0002:00009b38       ??_7AwtMenuItem@@6B@       100bfb38     awt_MenuItem.obj
 0002:00009b6c       ??_C@_1BO@DHAKBOEJ@?$AAS?$AAu?$AAn?$AAA?$AAw?$AAt?$AAM?$AAe?$AAn?$AAu?$AAI?$AAt?$AAe?$AAm?$AA?$AA@ 100bfb6c     awt_MenuItem.obj
 0002:00009b8c       ??_C@_1CM@GGOBMKKJ@?$AAt?$AAo?$AAo?$AA?5?$AAm?$AAa?$AAn?$AAy?$AA?5?$AAm?$AAe?$AAn?$AAu?$AA?5?$AAh?$AAa?$AAn?$AAd?$AAl?$AAe?$AAs?$AA?$AA@ 100bfb8c     awt_MenuItem.obj
 0002:00009bb8       ??_C@_0BO@ICBEBDIF@sun?1awt?1windows?1WMenuItemPeer?$AA@ 100bfbb8     awt_MenuItem.obj
 0002:00009bd8       ??_C@_0BB@GOAOLBOJ@java?1awt?1Toolkit?$AA@ 100bfbd8     awt_MenuItem.obj
 0002:00009bec       ??_C@_1BK@IIEDABMO@?$AAC?$AAH?$AAE?$AAC?$AAK?$AA_?$AAB?$AAI?$AAT?$AAM?$AAA?$AAP?$AA?$AA@ 100bfbec     awt_MenuItem.obj
 0002:00009c08       ??_C@_13IMODFHAA@?$AA?9?$AA?$AA@ 100bfc08     awt_MenuItem.obj
 0002:00009c0c       ??_C@_0P@IDNOPAEE@getDefaultFont?$AA@ 100bfc0c     awt_MenuItem.obj
 0002:00009c1c       ??_C@_0O@LMFKHEJD@shortcutLabel?$AA@ 100bfc1c     awt_MenuItem.obj
 0002:00009c2c       ??_C@_0L@MKMAEEHI@isCheckbox?$AA@ 100bfc2c     awt_MenuItem.obj
 0002:00009c38       ??_C@_09BJALEDND@null?5Menu?$AA@ 100bfc38     awt_MenuItem.obj
 0002:00009c44       ??_C@_07DFBCBEHO@getName?$AA@ 100bfc44     awt_MenuItem.obj
 0002:00009c4c       ??_C@_0BF@FOHFOJOB@?$CI?$CJLjava?1lang?1String?$DL?$AA@ 100bfc4c     awt_MenuItem.obj
 0002:00009c64       ??_C@_06HFKPFKMP@button?$AA@ 100bfc64     awt_MouseEvent.obj
 0002:00009c70       ??_7AwtObject@@6B@         100bfc70     awt_Object.obj
 0002:00009c84       ??_C@_09HPPLONHG@postEvent?$AA@ 100bfc84     awt_Object.obj
 0002:00009c90       ??_C@_0M@LDNJBNKP@createError?$AA@ 100bfc90     awt_Object.obj
 0002:00009c9c       ??_C@_0BC@PJDLGCJF@Ljava?1lang?1Error?$DL?$AA@ 100bfc9c     awt_Object.obj
 0002:00009cb0       ??_C@_0BB@ECKCOPKL@getPeerForTarget?$AA@ 100bfcb0     awt_Object.obj
 0002:00009cc4       ??_C@_0DC@DGKDKFOE@?$CILjava?1lang?1Object?$DL?$CJLsun?1awt?1win@ 100bfcc4     awt_Object.obj
 0002:00009cf8       ??_C@_09OMEHJBAL@destroyed?$AA@ 100bfcf8     awt_Object.obj
 0002:00009d04       ??_C@_09CCHJGOKC@FORCEGRAY?$AA@ 100bfd04     awt_Palette.obj
 0002:00009d10       __real@3ff15c9880000000    100bfd10     awt_Palette.obj
 0002:00009d18       __real@3f000000            100bfd18     awt_Palette.obj
 0002:00009d1c       ??_C@_07NNFNILLF@insets_?$AA@ 100bfd1c     awt_Panel.obj
 0002:00009d24       ??_C@_0BC@DAGJDLAJ@Ljava?1awt?1Insets?$DL?$AA@ 100bfd24     awt_Panel.obj
 0002:00009d3c       ??_7AwtPopupMenu@@6B@      100bfd3c     awt_PopupMenu.obj
 0002:00009d90       ??_C@_1CA@JOBANJHA@?$AAS?$AAu?$AAn?$AAA?$AAw?$AAt?$AAP?$AAo?$AAp?$AAu?$AAp?$AAM?$AAe?$AAn?$AAu?$AA?$AA@ 100bfd90     awt_PopupMenu.obj
 0002:00009db0       ??_C@_0BA@OGBNMJGA@isTrayIconPopup?$AA@ 100bfdb0     awt_PopupMenu.obj
 0002:00009dc0       ??_C@_0BD@MIBINPKO@java?1awt?1PopupMenu?$AA@ 100bfdc0     awt_PopupMenu.obj
 0002:00009dd8       ??_7AwtPen@@6B@            100bfdd8     awt_Pen.obj
 0002:00009de0       ??_C@_09OEKGCAKB@Pen?5cache?$AA@ 100bfde0     awt_Pen.obj
 0002:00009df8       ??_C@_13DEFPDAGF@?$AA?0?$AA?$AA@ 100bfdf8     awt_PrintControl.obj
 0002:00009dfc       ??_C@_0BF@BPOFNLPM@setPrinterNameAttrib?$AA@ 100bfdfc     awt_PrintControl.obj
 0002:00009e14       ??_C@_0BB@EKENLGGB@setResolutionDPI?$AA@ 100bfe14     awt_PrintControl.obj
 0002:00009e28       ??_C@_0BI@BGEDOMLH@setRangeCopiesAttribute?$AA@ 100bfe28     awt_PrintControl.obj
 0002:00009e40       ??_C@_07GEIHFBL@?$CIIIZI?$CJV?$AA@ 100bfe40     awt_PrintControl.obj
 0002:00009e48       ??_C@_0BE@OHKKOLMP@setNativeAttributes?$AA@ 100bfe48     awt_PrintControl.obj
 0002:00009e5c       ??_C@_0BG@JAKCJMIK@getPrintToFileEnabled?$AA@ 100bfe5c     awt_PrintControl.obj
 0002:00009e74       ??_C@_0BA@NOKFEJIB@getSelectAttrib?$AA@ 100bfe74     awt_PrintControl.obj
 0002:00009e84       ??_C@_0BD@HODFOMPL@setMediaTrayAttrib?$AA@ 100bfe84     awt_PrintControl.obj
 0002:00009e98       ??_C@_0BD@IEBPNKBD@getMediaTrayAttrib?$AA@ 100bfe98     awt_PrintControl.obj
 0002:00009eac       ??_C@_0BE@ICEDBIHC@setWin32MediaAttrib?$AA@ 100bfeac     awt_PrintControl.obj
 0002:00009ec0       ??_C@_0BE@CMGIFIAO@getWin32MediaAttrib?$AA@ 100bfec0     awt_PrintControl.obj
 0002:00009ed4       ??_C@_0BB@EIOALCMA@getPrinterAttrib?$AA@ 100bfed4     awt_PrintControl.obj
 0002:00009ee8       ??_C@_0P@KABNHBOM@getSidesAttrib?$AA@ 100bfee8     awt_PrintControl.obj
 0002:00009ef8       ??_C@_0P@OODJMKH@getColorAttrib?$AA@ 100bfef8     awt_PrintControl.obj
 0002:00009f08       ??_C@_0BB@MCHNNKON@getQualityAttrib?$AA@ 100bff08     awt_PrintControl.obj
 0002:00009f1c       ??_C@_0O@OMMJFDLM@getDestAttrib?$AA@ 100bff1c     awt_PrintControl.obj
 0002:00009f2c       ??_C@_0BB@OEMLKPHC@getMaxPageAttrib?$AA@ 100bff2c     awt_PrintControl.obj
 0002:00009f40       ??_C@_0BB@FNONDEAD@getMinPageAttrib?$AA@ 100bff40     awt_PrintControl.obj
 0002:00009f54       ??_C@_0BA@IPIHLOKA@getToPageAttrib?$AA@ 100bff54     awt_PrintControl.obj
 0002:00009f64       ??_C@_0BC@CHJHBKCA@getFromPageAttrib?$AA@ 100bff64     awt_PrintControl.obj
 0002:00009f78       ??_C@_0BA@IIABJMG@getOrientAttrib?$AA@ 100bff78     awt_PrintControl.obj
 0002:00009f88       ??_C@_0BB@GNJFIHKO@getCollateAttrib?$AA@ 100bff88     awt_PrintControl.obj
 0002:00009f9c       ??_C@_0BA@EHJKMBCL@getCopiesAttrib?$AA@ 100bff9c     awt_PrintControl.obj
 0002:00009fac       ??_C@_0BE@GLAJLAO@driverDoesCollation?$AA@ 100bffac     awt_PrintControl.obj
 0002:00009fc0       ??_C@_0BJ@NPNCGCAB@driverDoesMultipleCopies?$AA@ 100bffc0     awt_PrintControl.obj
 0002:00009fdc       ??_C@_0M@IPFAFFAI@setDevNames?$AA@ 100bffdc     awt_PrintControl.obj
 0002:00009fe8       ??_C@_0M@IAEOIDIL@getDevNames?$AA@ 100bffe8     awt_PrintControl.obj
 0002:00009ff4       ??_C@_0L@FEGJOBDG@setDevMode?$AA@ 100bfff4     awt_PrintControl.obj
 0002:0000a000       ??_C@_0L@EKEGFGHP@getDevMode?$AA@ 100c0000     awt_PrintControl.obj
 0002:0000a00c       ??_C@_0L@GILIMGH@setPrintDC?$AA@ 100c000c     awt_PrintControl.obj
 0002:0000a018       ??_C@_0L@BIKEDLCO@getPrintDC?$AA@ 100c0018     awt_PrintControl.obj
 0002:0000a024       ??_C@_03IGDHHNNC@?$CI?$CJJ?$AA@ 100c0024     awt_PrintControl.obj
 0002:0000a028       ??_C@_0BA@KKECAPGL@dialogOwnerPeer?$AA@ 100c0028     awt_PrintControl.obj
 0002:0000a038       ??_C@_0BM@NNDAAPMO@sun?1awt?1windows?1WPrinterJob?$AA@ 100c0038     awt_PrintControl.obj
 0002:0000a058       __real@4052000000000000    100c0058     awt_PrintControl.obj
 0002:0000a060       ??_C@_1M@IHOKFDFC@?$AAF?$AAI?$AAL?$AAE?$AA?3?$AA?$AA@ 100c0060     awt_PrintControl.obj
 0002:0000a06c       ??_C@_04IANEHKHC@pjob?$AA@ 100c006c     awt_PrintDialog.obj
 0002:0000a074       ??_C@_0BM@JGANJLLJ@Ljava?1awt?1print?1PrinterJob?$DL?$AA@ 100c0074     awt_PrintDialog.obj
 0002:0000a090       ??_C@_0BD@PJNDBJKH@getImageableHeight?$AA@ 100c0090     awt_PrintJob.obj
 0002:0000a0a4       ??_C@_0BC@OGNEOFAC@getImageableWidth?$AA@ 100c00a4     awt_PrintJob.obj
 0002:0000a0b8       ??_C@_0O@EGKPNIAF@getImageableY?$AA@ 100c00b8     awt_PrintJob.obj
 0002:0000a0c8       ??_C@_0O@FPLEOJEE@getImageableX?$AA@ 100c00c8     awt_PrintJob.obj
 0002:0000a0d8       ??_C@_03BILEFAFM@?$CI?$CJD?$AA@ 100c00d8     awt_PrintJob.obj
 0002:0000a0dc       ??_C@_08GOOJDBNP@getWidth?$AA@ 100c00dc     awt_PrintJob.obj
 0002:0000a0e8       ??_C@_07PGLLPGDL@?$CIDDDD?$CJV?$AA@ 100c00e8     awt_PrintJob.obj
 0002:0000a0f0       ??_C@_0BB@MOEGGKAI@setImageableArea?$AA@ 100c00f0     awt_PrintJob.obj
 0002:0000a104       ??_C@_05MHLKGPFJ@?$CIDD?$CJV?$AA@ 100c0104     awt_PrintJob.obj
 0002:0000a10c       ??_C@_07IJEOOFIG@setSize?$AA@ 100c010c     awt_PrintJob.obj
 0002:0000a114       ??_C@_0O@FDBFPLFJ@mAttMediaTray?$AA@ 100c0114     awt_PrintJob.obj
 0002:0000a124       ??_C@_0BC@KCOCMBPM@mAttMediaSizeName?$AA@ 100c0124     awt_PrintJob.obj
 0002:0000a138       ??_C@_0L@ICKGFNNC@mAttCopies?$AA@ 100c0138     awt_PrintJob.obj
 0002:0000a144       ??_C@_0M@EGAMEGAF@mAttCollate?$AA@ 100c0144     awt_PrintJob.obj
 0002:0000a150       ??_C@_0M@CEGBNFLP@mAttQuality?$AA@ 100c0150     awt_PrintJob.obj
 0002:0000a15c       ??_C@_08MHHALNFD@mAttYRes?$AA@ 100c015c     awt_PrintJob.obj
 0002:0000a168       ??_C@_08PKBAJEOD@mAttXRes?$AA@ 100c0168     awt_PrintJob.obj
 0002:0000a174       ??_C@_0BB@LDANJGKD@mAttChromaticity?$AA@ 100c0174     awt_PrintJob.obj
 0002:0000a188       ??_C@_09CBMKEIJA@mAttSides?$AA@ 100c0188     awt_PrintJob.obj
 0002:0000a194       ??_C@_0P@HOOGDNIF@setOrientation?$AA@ 100c0194     awt_PrintJob.obj
 0002:0000a1a4       ??_C@_0P@LAPIMHKJ@getOrientation?$AA@ 100c01a4     awt_PrintJob.obj
 0002:0000a1b4       ??_C@_0BK@KAOANBHH@?$CILjava?1awt?1print?1Paper?$DL?$CJV?$AA@ 100c01b4     awt_PrintJob.obj
 0002:0000a1d0       ??_C@_08MAACKKIP@setPaper?$AA@ 100c01d0     awt_PrintJob.obj
 0002:0000a1dc       ??_C@_0BJ@PDPEDNFN@?$CI?$CJLjava?1awt?1print?1Paper?$DL?$AA@ 100c01dc     awt_PrintJob.obj
 0002:0000a1f8       ??_C@_08DBCOLJPC@getPaper?$AA@ 100c01f8     awt_PrintJob.obj
 0002:0000a204       ??_C@_09GIBDHKNC@getCopies?$AA@ 100c0204     awt_PrintJob.obj
 0002:0000a210       ??_C@_0BE@BLFLDEKM@landscapeRotates270?$AA@ 100c0210     awt_PrintJob.obj
 0002:0000a224       ??_C@_0BB@JPODJJEB@noDefaultPrinter?$AA@ 100c0224     awt_PrintJob.obj
 0002:0000a238       ??_C@_0BH@IHLFIIEG@userRequestedCollation?$AA@ 100c0238     awt_PrintJob.obj
 0002:0000a250       ??_C@_0M@MENMPNLF@mPageHeight?$AA@ 100c0250     awt_PrintJob.obj
 0002:0000a25c       ??_C@_0L@DBKFCAGH@mPageWidth?$AA@ 100c025c     awt_PrintJob.obj
 0002:0000a268       ??_C@_0N@KCLBABJO@mPrintHeight?$AA@ 100c0268     awt_PrintJob.obj
 0002:0000a278       ??_C@_0M@FKGCMBLN@mPrintWidth?$AA@ 100c0278     awt_PrintJob.obj
 0002:0000a284       ??_C@_0M@BLGGEGMA@mPrintPhysY?$AA@ 100c0284     awt_PrintJob.obj
 0002:0000a290       ??_C@_0M@CHNHHIB@mPrintPhysX?$AA@ 100c0290     awt_PrintJob.obj
 0002:0000a29c       ??_C@_0L@PCOOHCKF@mPrintYRes?$AA@ 100c029c     awt_PrintJob.obj
 0002:0000a2a8       ??_C@_0L@MPIOFLBF@mPrintXRes?$AA@ 100c02a8     awt_PrintJob.obj
 0002:0000a2b4       ??_C@_0BA@BJGAJEDO@mPrintPaperSize?$AA@ 100c02b4     awt_PrintJob.obj
 0002:0000a2c4       ??_C@_0CA@CCIDMCEC@java?1awt?1print?1PrinterException?$AA@ 100c02c4     awt_PrintJob.obj
 0002:0000a310       ??_C@_04BGIHDKAM@page?$AA@ 100c0310     awt_PrintJob.obj
 0002:0000a318       ??_C@_0BM@NFIIMHLG@Ljava?1awt?1print?1PageFormat?$DL?$AA@ 100c0318     awt_PrintJob.obj
 0002:0000a334       ??_C@_0CE@FOHPNIAO@Problem?5in?5WPrinterJob_drawDIBIm@ 100c0334     awt_PrintJob.obj
 0002:0000a358       __real@408f400000000000    100c0358     awt_PrintJob.obj
 0002:0000a360       __real@400ccccccccccccd    100c0360     awt_PrintJob.obj
 0002:0000a368       ??_C@_0CD@FNACLLLN@Lsun?1awt?1windows?1WPrintDialogPee@ 100c0368     awt_PrintJob.obj
 0002:0000a38c       ??_C@_0BO@MHKALAMJ@Invalid?5name?5of?5PrintService?4?$AA@ 100c038c     awt_PrintJob.obj
 0002:0000a3b0       __real@3fb999999999999a    100c03b0     awt_PrintJob.obj
 0002:0000a3b8       ??_C@_0BC@DNIEKJFG@No?5printer?5found?4?$AA@ 100c03b8     awt_PrintJob.obj
 0002:0000a3cc       ??_C@_1BM@GDHGEKHD@?$AAJ?$AAa?$AAv?$AAa?$AA?5?$AAP?$AAr?$AAi?$AAn?$AAt?$AAi?$AAn?$AAg?$AA?$AA@ 100c03cc     awt_PrintJob.obj
 0002:0000a3e8       ??_C@_13COJANIEC@?$AA0?$AA?$AA@ 100c03e8     awt_PrintJob.obj
 0002:0000a3f0       ??_7AwtRobot@@6B@          100c03f0     awt_Robot.obj
 0002:0000a410       ??_C@_0BB@HKFHBAKO@Invalid?5key?5code?$AA@ 100c0410     awt_Robot.obj
 0002:0000a424       ??_C@_04IJPPGBJD@warp?$AA@ 100c0424     awt_Scrollbar.obj
 0002:0000a42c       ??_C@_07LCCDNIPB@dragEnd?$AA@ 100c042c     awt_Scrollbar.obj
 0002:0000a434       ??_C@_04PHPAONAP@drag?$AA@ 100c0434     awt_Scrollbar.obj
 0002:0000a43c       ??_C@_06CPPBBFJE@pageUp?$AA@ 100c043c     awt_Scrollbar.obj
 0002:0000a444       ??_C@_08IHMKEFAD@pageDown?$AA@ 100c0444     awt_Scrollbar.obj
 0002:0000a450       ??_C@_06GOMMADDC@lineUp?$AA@ 100c0450     awt_Scrollbar.obj
 0002:0000a458       ??_C@_08ILEDKKAA@lineDown?$AA@ 100c0458     awt_Scrollbar.obj
 0002:0000a464       ?SbNlineDown@AwtScrollbar@@0QBDB 100c0464     awt_Scrollbar.obj
 0002:0000a468       ?SbNlineUp@AwtScrollbar@@0QBDB 100c0468     awt_Scrollbar.obj
 0002:0000a46c       ?SbNpageDown@AwtScrollbar@@0QBDB 100c046c     awt_Scrollbar.obj
 0002:0000a470       ?SbNpageUp@AwtScrollbar@@0QBDB 100c0470     awt_Scrollbar.obj
 0002:0000a474       ?SbNdrag@AwtScrollbar@@0QBDB 100c0474     awt_Scrollbar.obj
 0002:0000a478       ?SbNdragEnd@AwtScrollbar@@0QBDB 100c0478     awt_Scrollbar.obj
 0002:0000a47c       ?SbNwarp@AwtScrollbar@@0QBDB 100c047c     awt_Scrollbar.obj
 0002:0000a484       ??_7AwtScrollbar@@6B@      100c0484     awt_Scrollbar.obj
 0002:0000a64c       ??_C@_1BE@PNDFOHKG@?$AAS?$AAC?$AAR?$AAO?$AAL?$AAL?$AAB?$AAA?$AAR?$AA?$AA@ 100c064c     awt_Scrollbar.obj
 0002:0000a660       ??_C@_0M@KPMDGEHG@orientation?$AA@ 100c0660     awt_Scrollbar.obj
 0002:0000a66c       ??_C@_0O@IFODOJKB@pageIncrement?$AA@ 100c066c     awt_Scrollbar.obj
 0002:0000a67c       ??_C@_0O@OAOKNBM@lineIncrement?$AA@ 100c067c     awt_Scrollbar.obj
 0002:0000a694       ??_7AwtScrollPane@@6B@     100c0694     awt_ScrollPane.obj
 0002:0000a860       ??_C@_0M@IMGDKCNN@vAdjustable?$AA@ 100c0860     awt_ScrollPane.obj
 0002:0000a86c       ??_C@_0M@GJEKJMDP@hAdjustable?$AA@ 100c086c     awt_ScrollPane.obj
 0002:0000a878       ??_C@_0CA@FHBCFAFH@Ljava?1awt?1ScrollPaneAdjustable?$DL?$AA@ 100c0878     awt_ScrollPane.obj
 0002:0000a898       ??_C@_0BH@MMCPIOHD@scrollbarDisplayPolicy?$AA@ 100c0898     awt_ScrollPane.obj
 0002:0000a8b0       ??_C@_0P@IOOCNGHL@blockIncrement?$AA@ 100c08b0     awt_ScrollPane.obj
 0002:0000a8c0       ??_C@_0O@KAHJJKOM@unitIncrement?$AA@ 100c08c0     awt_ScrollPane.obj
 0002:0000a8d0       ??_C@_0BA@CCNFCCGI@postScrollEvent?$AA@ 100c08d0     awt_ScrollPane.obj
 0002:0000a8e0       ??_C@_07GDKEGADI@?$CIIIIZ?$CJV?$AA@ 100c08e0     awt_ScrollPane.obj
 0002:0000a8e8       ??_C@_0O@BMHFAOJN@setTypedValue?$AA@ 100c08e8     awt_ScrollPane.obj
 0002:0000a8f8       ??_C@_0BO@OBFLNEFL@java?1awt?1ScrollPaneAdjustable?$AA@ 100c08f8     awt_ScrollPane.obj
 0002:0000a91c       ??_7AwtTextArea@@6B@       100c091c     awt_TextArea.obj
 0002:0000aaf8       ??_C@_1BI@FOHIGIAE@?$AAR?$AAi?$AAc?$AAh?$AAE?$AAd?$AAi?$AAt?$AA2?$AA0?$AAW?$AA?$AA@ 100c0af8     awt_TextArea.obj
 0002:0000ab10       ??_C@_0N@LLMPJNLH@RICHED20?4DLL?$AA@ 100c0b10     awt_TextArea.obj
 0002:0000ab20       ??_C@_19KFAJFECL@?$AAE?$AAD?$AAI?$AAT?$AA?$AA@ 100c0b20     awt_TextArea.obj
 0002:0000ab2c       ??_C@_19GJEFGPFN@?$AAT?$AAE?$AAX?$AAT?$AA?$AA@ 100c0b2c     awt_TextArea.obj
 0002:0000ab38       ??_C@_0N@BGKKAOAG@valueChanged?$AA@ 100c0b38     awt_TextArea.obj
 0002:0000ab48       ??_C@_0M@KCDMBJCC@null?5string?$AA@ 100c0b48     awt_TextArea.obj
 0002:0000ab54       ??_C@_0BE@PBAHEPIM@scrollbarVisibility?$AA@ 100c0b54     awt_TextArea.obj
 0002:0000ab6c       ??_7OleCallback@AwtTextArea@@6B@ 100c0b6c     awt_TextArea.obj
 0002:0000aba4       ??_7AwtTextComponent@@6B@  100c0ba4     awt_TextComponent.obj
 0002:0000ad80       ??_C@_0BD@LEGCHOAK@canAccessClipboard?$AA@ 100c0d80     awt_TextComponent.obj
 0002:0000ad94       ??_C@_0BH@JCNOFEOD@java?1awt?1TextComponent?$AA@ 100c0d94     awt_TextComponent.obj
 0002:0000adb4       ??_7AwtTextField@@6B@      100c0db4     awt_TextField.obj
 0002:0000af90       ??_C@_1BM@LNKEELMO@?$AAS?$AAu?$AAn?$AAA?$AAw?$AAt?$AAT?$AAo?$AAo?$AAl?$AAk?$AAi?$AAt?$AA?$AA@ 100c0f90     awt_Toolkit.obj
 0002:0000afac       ?EXIT_ENCLOSING_LOOP@AwtToolkit@@2HB 100c0fac     awt_Toolkit.obj
 0002:0000afb0       ?EXIT_ALL_ENCLOSING_LOOPS@AwtToolkit@@2HB 100c0fb0     awt_Toolkit.obj
 0002:0000afb4       ??_C@_0L@ODOFLMKJ@isHeadless?$AA@ 100c0fb4     awt_Toolkit.obj
 0002:0000afc0       ??_C@_0BN@HIHKPLPE@java?1awt?1GraphicsEnvironment?$AA@ 100c0fc0     awt_Toolkit.obj
 0002:0000afe0       ??_C@_0BI@LBPHPLPL@notifyToolkitThreadFree?$AA@ 100c0fe0     awt_Toolkit.obj
 0002:0000aff8       ??_C@_0BI@CHHMOHBN@notifyToolkitThreadBusy?$AA@ 100c0ff8     awt_Toolkit.obj
 0002:0000b010       ??_C@_0BI@OEDGILNC@sun?1awt?1AWTAutoShutdown?$AA@ 100c1010     awt_Toolkit.obj
 0002:0000b028       ??_C@_1BC@LMIJMNIA@?$AA0?$AA0?$AA0?$AA0?$AA0?$AA0?$AA0?$AA0?$AA?$AA@ 100c1028     awt_Toolkit.obj
 0002:0000b03c       ??_C@_03LGMJKEGG@run?$AA@  100c103c     awt_Toolkit.obj
 0002:0000b040       ??_C@_0M@JEEALGJF@AWT?9Windows?$AA@ 100c1040     awt_Toolkit.obj
 0002:0000b04c       ??_C@_1BC@MIKLDJAK@?$AAA?$AAW?$AAT?$AA_?$AAI?$AAC?$AAO?$AAN?$AA?$AA@ 100c104c     awt_Toolkit.obj
 0002:0000b084       ??_C@_0BA@IAMFLOIG@java?1awt?1Insets?$AA@ 100c1084     awt_Toolkit.obj
 0002:0000b094       ??_C@_0P@INCJDIIA@getFontMetrics?$AA@ 100c1094     awt_Toolkit.obj
 0002:0000b0a4       ??_C@_0CI@FNHKJJGL@?$CILjava?1awt?1Font?$DL?$CJLjava?1awt?1FontM@ 100c10a4     awt_Toolkit.obj
 0002:0000b0cc       ??_C@_0BC@EHGEDOBO@getDefaultToolkit?$AA@ 100c10cc     awt_Toolkit.obj
 0002:0000b0e0       ??_C@_09NJNMABLE@sdCurrent?$AA@ 100c10e0     awt_Toolkit.obj
 0002:0000b0ec       ??_C@_0BJ@IHLHKAOH@Lsun?1java2d?1SurfaceData?$DL?$AA@ 100c10ec     awt_Toolkit.obj
 0002:0000b108       ??_C@_0BC@NJHEDOHA@volSurfaceManager?$AA@ 100c1108     awt_Toolkit.obj
 0002:0000b11c       ??_C@_0CH@FDGBIIBH@Lsun?1awt?1image?1VolatileSurfaceMa@ 100c111c     awt_Toolkit.obj
 0002:0000b144       ??_C@_0BD@NMPNDKMD@java?1awt?1Component?$AA@ 100c1144     awt_Toolkit.obj
 0002:0000b158       ??_C@_0CF@IILBOKKL@sun?1awt?1image?1VolatileSurfaceMan@ 100c1158     awt_Toolkit.obj
 0002:0000b180       ??_C@_0BP@MPFCKGL@sun?1awt?1image?1SunVolatileImage?$AA@ 100c1180     awt_Toolkit.obj
 0002:0000b1a0       ??_C@_0BH@ECLOGKIF@sun?1java2d?1SurfaceData?$AA@ 100c11a0     awt_Toolkit.obj
 0002:0000b1b8       ??_C@_0P@MKOHJJPN@displayChanged?$AA@ 100c11b8     awt_Toolkit.obj
 0002:0000b1c8       ??_C@_0BF@ECKDGJBI@windowsSettingChange?$AA@ 100c11c8     awt_Toolkit.obj
 0002:0000b1e0       ??_C@_0CI@LDDEGNGM@java?1lang?1UnsupportedOperationEx@ 100c11e0     awt_Toolkit.obj
 0002:0000b208       ??_C@_0CE@CEPGMIPC@Keyboard?5doesn?8t?5have?5requested?5@ 100c1208     awt_Toolkit.obj
 0002:0000b22c       ??_C@_1BG@FKECCOOO@?$AA?5?$AA?$CI?$AAU?$AAn?$AAk?$AAn?$AAo?$AAw?$AAn?$AA?$CJ?$AA?$AA@ 100c122c     awt_Toolkit.obj
 0002:0000b244       ??_C@_1CA@KGMKJPDO@?$AA?5?$AA?$CI?$AAW?$AAi?$AAn?$AAd?$AAo?$AAw?$AAs?$AA?5?$AA2?$AA0?$AA0?$AA0?$AA?$CJ?$AA?$AA@ 100c1244     awt_Toolkit.obj
 0002:0000b264       ??_C@_1BM@LOLBPAHA@?$AA?5?$AA?$CI?$AAW?$AAi?$AAn?$AAd?$AAo?$AAw?$AAs?$AA?5?$AAX?$AAP?$AA?$CJ?$AA?$AA@ 100c1264     awt_Toolkit.obj
 0002:0000b280       ??_C@_1CC@PDLNELMM@?$AA?5?$AA?$CI?$AAW?$AAi?$AAn?$AAd?$AAo?$AAw?$AAs?$AA?5?$AAV?$AAi?$AAs?$AAt?$AAa?$AA?$CJ?$AA?$AA@ 100c1280     awt_Toolkit.obj
 0002:0000b2a4       ??_C@_1BG@EDDFGBDD@?$AA0?$AAx?$AA?$CF?$AAx?$AA?5?$AA?$DN?$AA?5?$AA?$CF?$AAl?$AAd?$AA?$AA@ 100c12a4     awt_Toolkit.obj
 0002:0000b2bc       ??_C@_0M@NDNOEKEH@SplashClose?$AA@ 100c12bc     awt_Toolkit.obj
 0002:0000b2c8       ??_C@_1CC@BFKJHIOJ@?$AAs?$AAp?$AAl?$AAa?$AAs?$AAh?$AAs?$AAc?$AAr?$AAe?$AAe?$AAn?$AA?4?$AAd?$AAl?$AAl?$AA?$AA@ 100c12c8     awt_Toolkit.obj
 0002:0000b2ec       ??_C@_0BJ@KMGMKMGM@sun?1awt?1windows?1WToolkit?$AA@ 100c12ec     awt_Toolkit.obj
 0002:0000b308       ??_C@_0BD@JBDLAFDK@updateSystemColors?$AA@ 100c1308     awt_Toolkit.obj
 0002:0000b31c       ??_C@_0BF@IPJJKDDG@java?1awt?1SystemColor?$AA@ 100c131c     awt_Toolkit.obj
 0002:0000b334       ??_C@_1CI@DOLFKBEA@?$AAt?$AAh?$AAe?$AAA?$AAw?$AAt?$AAT?$AAo?$AAo?$AAl?$AAk?$AAi?$AAt?$AAW?$AAi?$AAn?$AAd?$AAo?$AAw?$AA?$AA@ 100c1334     awt_Toolkit.obj
 0002:0000b35c       ??_C@_0BJ@KBBDNHIG@unsupported?5screen?5depth?$AA@ 100c135c     awt_Toolkit.obj
 0002:0000b378       ??_C@_1HI@FKNMLLBN@?$AAS?$AAo?$AAr?$AAr?$AAy?$AA?0?$AA?5?$AAb?$AAu?$AAt?$AA?5?$AAt?$AAh?$AAi?$AAs?$AA?5?$AAr?$AAe?$AAl?$AAe?$AAa?$AAs?$AAe?$AA?5?$AAo?$AAf?$AA?5?$AAJ?$AAa?$AAv?$AAa?$AA?5@ 100c1378     awt_Toolkit.obj
 0002:0000b3f0       ??_C@_1DC@OFPBKCGO@?$AAA?$AAW?$AAT?$AA?5?$AAI?$AAn?$AAi?$AAt?$AAi?$AAa?$AAl?$AAi?$AAz?$AAa?$AAt?$AAi?$AAo?$AAn?$AA?5?$AAE?$AAr?$AAr?$AAo?$AAr?$AA?$AA@ 100c13f0     awt_Toolkit.obj
 0002:0000b424       ??_C@_1BK@BKJLKPGO@?$AAS?$AAu?$AAn?$AAA?$AAw?$AAt?$AAW?$AAi?$AAn?$AAd?$AAo?$AAw?$AA?$AA@ 100c1424     awt_Window.obj
 0002:0000b440       ??_C@_1CI@NBKPOAPN@?$AAS?$AAu?$AAn?$AAA?$AAw?$AAt?$AAW?$AAa?$AAr?$AAn?$AAi?$AAn?$AAg?$AAW?$AAi?$AAn?$AAd?$AAo?$AAw?$AA?$AA@ 100c1440     awt_Window.obj
 0002:0000b468       ??_C@_04CGLGICBP@getY?$AA@ 100c1468     awt_Window.obj
 0002:0000b470       ??_C@_04DPKNLDFO@getX?$AA@ 100c1470     awt_Window.obj
 0002:0000b478       ??_C@_0BG@OMNHCMCP@java?1awt?1geom?1Point2D?$AA@ 100c1478     awt_Window.obj
 0002:0000b490       ??_C@_05IDNBCHJO@POPUP?$AA@ 100c1490     awt_Window.obj
 0002:0000b498       ??_C@_07DAFIJLK@UTILITY?$AA@ 100c1498     awt_Window.obj
 0002:0000b4a0       ??_C@_1M@LAMDPNNK@?$AAB?$AAO?$AAG?$AAG?$AAY?$AA?$AA@ 100c14a0     awt_Window.obj
 0002:0000b4ac       ??_C@_0P@JKEJEIPJ@java?1awt?1Frame?$AA@ 100c14ac     awt_Window.obj
 0002:0000b4bc       ??_C@_0BJ@BCHOJGMI@?$CILjava?1awt?1Component?$DLI?$CJV?$AA@ 100c14bc     awt_Window.obj
 0002:0000b4d8       ??_C@_0BO@NPEBOBCL@java?1awt?1event?1ComponentEvent?$AA@ 100c14d8     awt_Window.obj
 0002:0000b4f8       ??_C@_0CJ@NBDMKJKK@?$CILjava?1awt?1Window?$DLILjava?1awt?1Win@ 100c14f8     awt_Window.obj
 0002:0000b524       ??_C@_0BL@EHLGJPOC@java?1awt?1event?1WindowEvent?$AA@ 100c1524     awt_Window.obj
 0002:0000b540       ??_C@_0BL@JCHPAJHB@dynamicallyLayoutContainer?$AA@ 100c1540     awt_Window.obj
 0002:0000b55c       ??_C@_0BD@COMJLBBB@draggedToNewScreen?$AA@ 100c155c     awt_Window.obj
 0002:0000b570       ??_C@_0L@MNJPIDKP@null?5title?$AA@ 100c1570     awt_Window.obj
 0002:0000b57c       ??_C@_0M@ILHGJMKE@null?5insets?$AA@ 100c157c     awt_Window.obj
 0002:0000b588       ??_C@_0BA@FPCMGFBL@iconRaster?5data?$AA@ 100c1588     awt_Window.obj
 0002:0000b598       ??_C@_0M@EJFGHCCL@raster?5data?$AA@ 100c1598     awt_Window.obj
 0002:0000b5a4       ??_C@_0BN@JNHPEDJC@Native?5resources?5unavailable?$AA@ 100c15a4     awt_Window.obj
 0002:0000b5c4       ??_C@_0CI@DNEBCILP@java?1awt?1IllegalComponentStateEx@ 100c15c4     awt_Window.obj
 0002:0000b5ec       ??_C@_0BB@HCDCHEFH@Peer?5null?5in?5JNI?$AA@ 100c15ec     awt_Window.obj
 0002:0000b600       ??_C@_0BF@LIKJLKOA@java?1awt?1Window$Type?$AA@ 100c1600     awt_Window.obj
 0002:0000b618       ??_C@_0CB@HGNJHJPP@calculateSecurityWarningPosition@ 100c1618     awt_Window.obj
 0002:0000b63c       ??_C@_0BO@PPCHLCBH@?$CIDDDD?$CJLjava?1awt?1geom?1Point2D?$DL?$AA@ 100c163c     awt_Window.obj
 0002:0000b65c       ??_C@_0BB@FGDKFFPD@autoRequestFocus?$AA@ 100c165c     awt_Window.obj
 0002:0000b670       ??_C@_0BB@LNBFHKDF@getWarningString?$AA@ 100c1670     awt_Window.obj
 0002:0000b684       ??_C@_0BG@CAGJDNOO@securityWarningHeight?$AA@ 100c1684     awt_Window.obj
 0002:0000b69c       ??_C@_0BF@IKKKHAOL@securityWarningWidth?$AA@ 100c169c     awt_Window.obj
 0002:0000b6b4       ??_C@_0BD@HABGIBKA@locationByPlatform?$AA@ 100c16b4     awt_Window.obj
 0002:0000b6c8       ??_C@_0O@PEGKEOIM@warningString?$AA@ 100c16c8     awt_Window.obj
 0002:0000b6d8       ??_C@_0L@FCJFKCHE@windowType?$AA@ 100c16d8     awt_Window.obj
 0002:0000b6e4       ??_C@_0BH@EDKGMKNL@Ljava?1awt?1Window$Type?$DL?$AA@ 100c16e4     awt_Window.obj
 0002:0000b6fc       ??_C@_04PPIPGOOP@sysH?$AA@ 100c16fc     awt_Window.obj
 0002:0000b704       ??_C@_04DCNFGAHB@sysW?$AA@ 100c1704     awt_Window.obj
 0002:0000b70c       ??_C@_04KMFGENPP@sysY?$AA@ 100c170c     awt_Window.obj
 0002:0000b714       ??_C@_04LFENHMLO@sysX?$AA@ 100c1714     awt_Window.obj
 0002:0000b724       ??_7AwtWindow@@6B@         100c1724     awt_Window.obj
 0002:0000b92c       ??_C@_0CE@PAOCFGCM@javax?1swing?1Popup$HeavyWeightWin@ 100c192c     awt_Window.obj
 0002:0000b950       ??_C@_0BL@BFOBLJEK@COMBOBOX_POPUP_WINDOW_TYPE?$AA@ 100c1950     awt_Window.obj
 0002:0000b96c       ??_C@_0BG@ILJGKBFL@POPUPMENU_WINDOW_TYPE?$AA@ 100c196c     awt_Window.obj
 0002:0000b984       ??_C@_0BE@HDPJFKDO@SUBMENU_WINDOW_TYPE?$AA@ 100c1984     awt_Window.obj
 0002:0000b998       ??_C@_0BB@BAMNDHIM@MENU_WINDOW_TYPE?$AA@ 100c1998     awt_Window.obj
 0002:0000b9ac       ??_C@_0BE@NPAKBGAD@TOOLTIP_WINDOW_TYPE?$AA@ 100c19ac     awt_Window.obj
 0002:0000b9c0       ??_C@_0BG@MOOJDJHI@UNDEFINED_WINDOW_TYPE?$AA@ 100c19c0     awt_Window.obj
 0002:0000b9d8       ??_C@_0DD@FDGAFAEC@com?1sun?1java?1swing?1plaf?1windows?1@ 100c19d8     awt_Window.obj
 0002:0000ba0c       ??_C@_1CC@KPOKNCMJ@?$AAt?$AAo?$AAo?$AAl?$AAt?$AAi?$AAp?$AAs?$AA_?$AAc?$AAl?$AAa?$AAs?$AAs?$AA3?$AA2?$AA?$AA@ 100c1a0c     awt_Window.obj
 0002:0000ba30       ??_C@_0CE@DNEMEJGN@Could?5not?5update?5the?5devices?5arr@ 100c1a30     awt_Win32GraphicsEnv.obj
 0002:0000ba54       ??_C@_0BD@ENICNPLM@SetProcessDPIAware?$AA@ 100c1a54     awt_Win32GraphicsEnv.obj
 0002:0000ba68       ??_C@_0L@GMPLCCII@user32?4dll?$AA@ 100c1a68     awt_Win32GraphicsEnv.obj
 0002:0000ba74       ??_C@_0CB@MIAEFOEA@sun?1awt?1Win32GraphicsEnvironment@ 100c1a74     awt_Win32GraphicsEnv.obj
 0002:0000ba98       ??_C@_0BG@HCNFEKKM@dwmCompositionChanged?$AA@ 100c1a98     awt_Win32GraphicsEnv.obj
 0002:0000bab0       ??_C@_1CE@DBABOMBK@?$AA?$CF?$AAs?$AA?2?$AAF?$AAO?$AAN?$AAT?$AAS?$AA?2?$AAE?$AAU?$AAD?$AAC?$AA?4?$AAT?$AAT?$AAE?$AA?$AA@ 100c1ab0     awt_Win32GraphicsEnv.obj
 0002:0000bad4       ??_C@_1BC@NAFGAFBM@?$AAE?$AAU?$AAD?$AAC?$AA?4?$AAT?$AAT?$AAE?$AA?$AA@ 100c1ad4     awt_Win32GraphicsEnv.obj
 0002:0000bae8       ??_C@_19LJDFFCJJ@?$AA?$CF?$AAs?$AA?$CF?$AAs?$AA?$AA@ 100c1ae8     awt_Win32GraphicsEnv.obj
 0002:0000baf4       ??_C@_1BG@FIGGICF@?$AAS?$AAy?$AAs?$AAt?$AAe?$AAm?$AAR?$AAo?$AAo?$AAt?$AA?$AA@ 100c1af4     awt_Win32GraphicsEnv.obj
 0002:0000bb0c       ??_C@_1BK@HCAHJHON@?$AA?$CF?$AAS?$AAy?$AAs?$AAt?$AAe?$AAm?$AAR?$AAo?$AAo?$AAt?$AA?$CF?$AA?$AA@ 100c1b0c     awt_Win32GraphicsEnv.obj
 0002:0000bb28       ??_C@_1CM@PNPIDKPN@?$AAS?$AAy?$AAs?$AAt?$AAe?$AAm?$AAD?$AAe?$AAf?$AAa?$AAu?$AAl?$AAt?$AAE?$AAU?$AAD?$AAC?$AAF?$AAo?$AAn?$AAt?$AA?$AA@ 100c1b28     awt_Win32GraphicsEnv.obj
 0002:0000bb54       ??_C@_1BC@FHPNFED@?$AAE?$AAU?$AAD?$AAC?$AA?2?$AA9?$AA3?$AA6?$AA?$AA@ 100c1b54     awt_Win32GraphicsEnv.obj
 0002:0000bb68       ??_C@_1BC@PGENGJIC@?$AAE?$AAU?$AAD?$AAC?$AA?2?$AA9?$AA5?$AA0?$AA?$AA@ 100c1b68     awt_Win32GraphicsEnv.obj
 0002:0000bb7c       ??_C@_1BE@COCGDNAM@?$AAE?$AAU?$AAD?$AAC?$AA?2?$AA1?$AA2?$AA5?$AA2?$AA?$AA@ 100c1b7c     awt_Win32GraphicsEnv.obj
 0002:0000bb90       ??_C@_1BC@EABJPFKN@?$AAE?$AAU?$AAD?$AAC?$AA?2?$AA9?$AA4?$AA9?$AA?$AA@ 100c1b90     awt_Win32GraphicsEnv.obj
 0002:0000bba4       ??_C@_1BC@IKBNECBE@?$AAE?$AAU?$AAD?$AAC?$AA?2?$AA9?$AA3?$AA2?$AA?$AA@ 100c1ba4     awt_Win32GraphicsEnv.obj
 0002:0000bbb8       ??_C@_0CA@JJHKEKI@?$CIII?$FLIIILjava?1math?1BigInteger?$DL?$CJV?$AA@ 100c1bb8     awt_Win32GraphicsDevice.obj
 0002:0000bbd8       ??_C@_0BF@BHHPIDOP@java?1math?1BigInteger?$AA@ 100c1bd8     awt_Win32GraphicsDevice.obj
 0002:0000bbf0       ??_C@_05GBDANG@?$CI?$FLB?$CJV?$AA@ 100c1bf0     awt_Win32GraphicsDevice.obj
 0002:0000bbf8       ??_C@_0CF@ELAAMGGG@?$CILjava?1awt?1color?1ColorSpace?$DL?$FLIZZ@ 100c1bf8     awt_Win32GraphicsDevice.obj
 0002:0000bc20       ??_C@_0BP@KEKLABNC@?$CII?$CJLjava?1awt?1color?1ColorSpace?$DL?$AA@ 100c1c20     awt_Win32GraphicsDevice.obj
 0002:0000bc40       ??_C@_0BK@DNCHDCBO@java?1awt?1color?1ColorSpace?$AA@ 100c1c40     awt_Win32GraphicsDevice.obj
 0002:0000bc5c       ??_C@_0BK@IHODGDFO@sun?1awt?1Win32ColorModel24?$AA@ 100c1c5c     awt_Win32GraphicsDevice.obj
 0002:0000bc78       ??_C@_0DB@MFECIEDO@rgb?5or?5lookupcache?5array?5of?5Inde@ 100c1c78     awt_Win32GraphicsDevice.obj
 0002:0000bcac       ??_C@_0CP@OGBKKNDL@Problem?5retrieving?5rgb?5or?5cache?5@ 100c1cac     awt_Win32GraphicsDevice.obj
 0002:0000bcdc       ??_C@_0L@CIIAKOJB@invalidate?$AA@ 100c1cdc     awt_Win32GraphicsDevice.obj
 0002:0000bce8       ??_C@_0P@KPCKEKKD@paletteChanged?$AA@ 100c1ce8     awt_Win32GraphicsDevice.obj
 0002:0000bcf8       ??_C@_0M@MBLDALCC@lookupcache?$AA@ 100c1cf8     awt_Win32GraphicsDevice.obj
 0002:0000bd04       ??_C@_0BC@ECJHIEPN@dynamicColorModel?$AA@ 100c1d04     awt_Win32GraphicsDevice.obj
 0002:0000bd18       ??_C@_0M@KMNGEKII@alwaysOnTop?$AA@ 100c1d18     awt_Win32GraphicsDevice.obj
 0002:0000bd24       ??_C@_0CH@LEJCMGCL@Could?5not?5get?5display?5mode?5const@ 100c1d24     awt_Win32GraphicsDevice.obj
 0002:0000bd4c       ??_C@_0CB@DJNKHJDA@Could?5not?5get?5display?5mode?5class@ 100c1d4c     awt_Win32GraphicsDevice.obj
 0002:0000bd70       ??_C@_0BF@NJGPNPOL@java?1awt?1DisplayMode?$AA@ 100c1d70     awt_Win32GraphicsDevice.obj
 0002:0000bd88       ??_C@_0BL@KOLGENBN@Could?5not?5set?5display?5mode?$AA@ 100c1d88     awt_Win32GraphicsDevice.obj
 0002:0000bda4       ??_C@_0CP@HOIDMAOJ@Could?5not?5get?5method?5java?4util?4A@ 100c1da4     awt_Win32GraphicsDevice.obj
 0002:0000bdd4       ??_C@_03BDGOHNNK@add?$AA@  100c1dd4     awt_Win32GraphicsDevice.obj
 0002:0000bdd8       ??_C@_0BG@DHOOFEJE@?$CILjava?1lang?1Object?$DL?$CJZ?$AA@ 100c1dd8     awt_Win32GraphicsDevice.obj
 0002:0000bdf0       ??_C@_0CI@EICBHDJM@Could?5not?5get?5class?5java?4util?4Ar@ 100c1df0     awt_Win32GraphicsDevice.obj
 0002:0000be18       ??_C@_06KABONEAP@visual?$AA@ 100c1e18     awt_Win32GraphicsConfig.obj
 0002:0000be20       ?CACHE_INCR@AwtDropTarget@@0IB 100c1e20     awt_DnDDT.obj
 0002:0000be24       ??_C@_0CH@INJGOCPI@sun?1awt?1windows?1WDropTargetConte@ 100c1e24     awt_DnDDT.obj
 0002:0000be4c       ??_C@_0BK@JFEBKCKA@getWDropTargetContextPeer?$AA@ 100c1e4c     awt_DnDDT.obj
 0002:0000be68       ??_C@_0CL@EBMMIMOM@?$CI?$CJLsun?1awt?1windows?1WDropTargetCo@ 100c1e68     awt_DnDDT.obj
 0002:0000be94       ??_C@_0BD@NHLMLHNE@handleEnterMessage?$AA@ 100c1e94     awt_DnDDT.obj
 0002:0000bea8       ??_C@_0BP@IJFAPFPH@?$CILjava?1awt?1Component?$DLIIII?$FLJJ?$CJI?$AA@ 100c1ea8     awt_DnDDT.obj
 0002:0000bec8       ??_C@_0BC@BKIOKLFM@handleExitMessage?$AA@ 100c1ec8     awt_DnDDT.obj
 0002:0000bedc       ??_C@_0BJ@MLDJCG@?$CILjava?1awt?1Component?$DLJ?$CJV?$AA@ 100c1edc     awt_DnDDT.obj
 0002:0000bef8       ??_C@_0BE@GEIELJF@handleMotionMessage?$AA@ 100c1ef8     awt_DnDDT.obj
 0002:0000bf0c       ??_C@_0BC@DDHGJOPM@handleDropMessage?$AA@ 100c1f0c     awt_DnDDT.obj
 0002:0000bf20       ??_C@_0BP@EEAKPLGJ@?$CILjava?1awt?1Component?$DLIIII?$FLJJ?$CJV?$AA@ 100c1f20     awt_DnDDT.obj
 0002:0000bf40       ??_C@_0O@FGLFOMPA@getFileStream?$AA@ 100c1f40     awt_DnDDT.obj
 0002:0000bf50       ??_C@_0CP@HFMFBFKL@?$CILjava?1lang?1String?$DLJ?$CJLjava?1io?1Fi@ 100c1f50     awt_DnDDT.obj
 0002:0000bf80       ??_C@_0L@NFOGPFBN@getIStream?$AA@ 100c1f80     awt_DnDDT.obj
 0002:0000bf8c       ??_C@_0BG@OIAMGFIO@?$CIJ?$CJLjava?1lang?1Object?$DL?$AA@ 100c1f8c     awt_DnDDT.obj
 0002:0000bfa4       ??_C@_0BO@KEIPIEBN@Cant?5find?5java?1io?1IOException?$AA@ 100c1fa4     awt_DnDDT.obj
 0002:0000bfc4       ??_C@_0CB@KCPANAMN@java?1lang?1ClassNotFoundException@ 100c1fc4     awt_DnDDT.obj
 0002:0000bfe8       ??_C@_0BE@EBAPEBGJ@java?1io?1IOException?$AA@ 100c1fe8     awt_DnDDT.obj
 0002:0000c000       ??_7WDTCPIStreamWrapper@@6B@ 100c2000     awt_DnDDT.obj
 0002:0000c014       ??_C@_0CD@PCCJBAED@IStream?3?3Stat?$CI?$CJ?5cbSize?5?$DO?50x7ffff@ 100c2014     awt_DnDDT.obj
 0002:0000c038       ??_C@_0BH@DCHFPBFB@IStream?3?3Stat?$CI?$CJ?5failed?$AA@ 100c2038     awt_DnDDT.obj
 0002:0000c050       ??_C@_0BF@ILKEBBEA@IStream?3?3Read?5failed?$AA@ 100c2050     awt_DnDDT.obj
 0002:0000c068       ??_C@_1CK@DOIMBAJG@?$AAU?$AAn?$AAk?$AAn?$AAo?$AAw?$AAn?$AA?5?$AAe?$AAr?$AAr?$AAo?$AAr?$AA?5?$AA0?$AAx?$AA?$CF?$AA0?$AAl?$AAX?$AA?$AA@ 100c2068     awt_DnDDT.obj
 0002:0000c094       ??_C@_1CI@KPMALOMG@?$AAI?$AAD?$AAi?$AAs?$AAp?$AAa?$AAt?$AAc?$AAh?$AA?5?$AAe?$AAr?$AAr?$AAo?$AAr?$AA?5?$AA?$CD?$AA?$CF?$AAd?$AA?$AA@ 100c2094     awt_DnDDT.obj
 0002:0000c0bc       ??_C@_1CE@FPGCAAED@?$AAC?$AAO?$AAM?$AA?5?$AAE?$AAr?$AAr?$AAo?$AAr?$AA?3?$AA?$CF?$AA0?$AA8?$AAx?$AA?5?$AA?$CF?$AAs?$AA?$AA@ 100c20bc     awt_DnDDT.obj
 0002:0000c0e0       ??_C@_1HO@GCKAJIIE@?$AAE?$AAr?$AAr?$AAo?$AAr?$AA?3?$AA?$CF?$AA0?$AA8?$AAx?$AA?5?$AAi?$AAn?$AA?5?$AA?3?$AA?3?$AAR?$AAe?$AAg?$AAi?$AAs?$AAt?$AAe?$AAr?$AAD?$AAr?$AAa?$AAg?$AAD?$AAr?$AAo?$AAp@ 100c20e0     awt_DnDDT.obj
 0002:0000c160       ??_C@_1BAA@FIHJPPBC@?$AAE?$AAr?$AAr?$AAo?$AAr?$AA?3?$AA?$CF?$AA0?$AA8?$AAx?$AA?5?$AAi?$AAn?$AA?5?$AAC?$AAo?$AAC?$AAr?$AAe?$AAa?$AAt?$AAe?$AAI?$AAn?$AAs?$AAt?$AAa?$AAn?$AAc?$AAe?$AA?$CI?$AA?5@ 100c2160     awt_DnDDT.obj
 0002:0000c278       ??_C@_1CK@HFPONGPH@?$AAE?$AAr?$AAr?$AAo?$AAr?$AA?3?$AA?5?$AAO?$AAu?$AAt?$AA?5?$AAo?$AAf?$AA?5?$AAM?$AAe?$AAm?$AAo?$AAr?$AAy?$AA?$AA@ 100c2278     awt_DnDDT.obj
 0002:0000c2a8       ??_C@_1GK@ELIBLLMG@?$AAE?$AAr?$AAr?$AAo?$AAr?$AA?3?$AA?$CF?$AA0?$AA8?$AAx?$AA?5?$AAi?$AAn?$AA?5?$AAE?$AAx?$AAt?$AAr?$AAa?$AAc?$AAt?$AAN?$AAa?$AAt?$AAi?$AAv?$AAe?$AAD?$AAa?$AAt?$AAa?$AA?$CI@ 100c22a8     awt_DnDDT.obj
 0002:0000c318       ??_7AwtDropTarget@@6BIDropTarget@@@ 100c2318     awt_DnDDT.obj
 0002:0000c338       ??_7AwtDropTarget@@6B0@@   100c2338     awt_DnDDT.obj
 0002:0000c36c       ??_8AwtDropTarget@@7B@     100c236c     awt_DnDDT.obj
 0002:0000c378       ??_C@_1HE@CBPJFIM@?$AAE?$AAr?$AAr?$AAo?$AAr?$AA?3?$AA?$CF?$AA0?$AA8?$AAx?$AA?5?$AAi?$AAn?$AA?5?$AAs?$AAp?$AAS?$AAr?$AAc?$AA?9?$AA?$DO?$AAC?$AAo?$AAp?$AAy?$AAT?$AAo?$AA?$CI?$AAs?$AAp?$AAD?$AAs@ 100c2378     awt_DnDDT.obj
 0002:0000c3f0       ??_C@_1GC@FEHMGNKI@?$AAE?$AAr?$AAr?$AAo?$AAr?$AA?3?$AA?$CF?$AA0?$AA8?$AAx?$AA?5?$AAi?$AAn?$AA?5?$AAs?$AAp?$AAS?$AAr?$AAc?$AA?9?$AA?$DO?$AAS?$AAt?$AAa?$AAt?$AA?$CI?$AA?$CG?$AAs?$AAi?$AA?0?$AA?5?$AAS@ 100c23f0     awt_DnDDT.obj
 0002:0000c458       ??_C@_1KE@DNEHHCL@?$AAE?$AAr?$AAr?$AAo?$AAr?$AA?3?$AA?$CF?$AA0?$AA8?$AAx?$AA?5?$AAi?$AAn?$AA?5?$AAS?$AAH?$AAC?$AAr?$AAe?$AAa?$AAt?$AAe?$AAS?$AAt?$AAr?$AAe?$AAa?$AAm?$AAO?$AAn?$AAF?$AAi@ 100c2458     awt_DnDDT.obj
 0002:0000c4fc       ??_C@_1DG@LICFOICK@?$AAE?$AAr?$AAr?$AAo?$AAr?$AA?3?$AA?$CF?$AA0?$AA8?$AAx?$AA?5?$AAi?$AAn?$AA?5?$AAE?$AA_?$AAI?$AAN?$AAV?$AAA?$AAL?$AAI?$AAD?$AAA?$AAR?$AAG?$AA?$AA@ 100c24fc     awt_DnDDT.obj
 0002:0000c538       ??_C@_1JA@OAPOHKLE@?$AAE?$AAr?$AAr?$AAo?$AAr?$AA?3?$AA?$CF?$AA0?$AA8?$AAx?$AA?5?$AAi?$AAn?$AA?5?$AAC?$AAr?$AAe?$AAa?$AAt?$AAe?$AAS?$AAt?$AAr?$AAe?$AAa?$AAm?$AAO?$AAn?$AAH?$AAG?$AAl?$AAo@ 100c2538     awt_DnDDT.obj
 0002:0000c5c8       ??_C@_1IK@EIBCJNLP@?$AAE?$AAr?$AAr?$AAo?$AAr?$AA?3?$AA?$CF?$AA0?$AA8?$AAx?$AA?5?$AAi?$AAn?$AA?5?$AAE?$AAx?$AAt?$AAr?$AAa?$AAc?$AAt?$AAN?$AAa?$AAt?$AAi?$AAv?$AAe?$AAD?$AAa?$AAt?$AAa?$AA?$CI@ 100c25c8     awt_DnDDT.obj
 0002:0000c658       ??_C@_1LM@HHBPLOFM@?$AAE?$AAr?$AAr?$AAo?$AAr?$AA?3?$AA?$CF?$AA0?$AA8?$AAx?$AA?5?$AAi?$AAn?$AA?5?$AAS?$AAH?$AAG?$AAe?$AAt?$AAF?$AAo?$AAl?$AAd?$AAe?$AAr?$AAP?$AAa?$AAt?$AAh?$AA?$CI?$AA?5?$AAN@ 100c2658     awt_DnDDT.obj
 0002:0000c714       ??_C@_13FPGAJAPJ@?$AA?2?$AA?$AA@ 100c2714     awt_DnDDT.obj
 0002:0000c718       ??_C@_1IK@DOGFDNFC@?$AAE?$AAr?$AAr?$AAo?$AAr?$AA?3?$AA?$CF?$AA0?$AA8?$AAx?$AA?5?$AAi?$AAn?$AA?5?$AAS?$AAH?$AAG?$AAe?$AAt?$AAF?$AAo?$AAl?$AAd?$AAe?$AAr?$AAP?$AAa?$AAt?$AAh?$AA?$CI?$AA?5?$AAN@ 100c2718     awt_DnDDT.obj
 0002:0000c7a4       ??_C@_0M@NBNLNHMA@getProperty?$AA@ 100c27a4     awt_DnDDT.obj
 0002:0000c7b0       ??_C@_0BB@NAICLKDB@java?1lang?1System?$AA@ 100c27b0     awt_DnDDT.obj
 0002:0000c7c8       ??_C@_1GO@MGEJGP@?$AAE?$AAr?$AAr?$AAo?$AAr?$AA?3?$AA?$CF?$AA0?$AA8?$AAx?$AA?5?$AAi?$AAn?$AA?5?$AAG?$AAe?$AAt?$AAH?$AAG?$AAl?$AAo?$AAb?$AAa?$AAl?$AAF?$AAr?$AAo?$AAm?$AAS?$AAt?$AAr?$AAe@ 100c27c8     awt_DnDDT.obj
 0002:0000c838       ??_C@_1DI@OFIOIHDP@?$AAE?$AAr?$AAr?$AAo?$AAr?$AA?3?$AA?$CF?$AA0?$AA8?$AAx?$AA?5?$AAi?$AAn?$AA?5?$AAE?$AA_?$AAO?$AAU?$AAT?$AAO?$AAF?$AAM?$AAE?$AAM?$AAO?$AAR?$AAY?$AA?$AA@ 100c2838     awt_DnDDT.obj
 0002:0000c870       ??_C@_1GM@MGEOLDJB@?$AAE?$AAr?$AAr?$AAo?$AAr?$AA?3?$AA?$CF?$AA0?$AA8?$AAx?$AA?5?$AAi?$AAn?$AA?5?$AAs?$AAp?$AAF?$AAi?$AAl?$AAe?$AAN?$AAa?$AAm?$AAe?$AAs?$AA?9?$AA?$DO?$AAS?$AAt?$AAa?$AAt?$AA?$CI@ 100c2870     awt_DnDDT.obj
 0002:0000c8e0       ??_C@_1HM@EKOILJBF@?$AAE?$AAr?$AAr?$AAo?$AAr?$AA?3?$AA?$CF?$AA0?$AA8?$AAx?$AA?5?$AAi?$AAn?$AA?5?$AAs?$AAp?$AAF?$AAi?$AAl?$AAe?$AAN?$AAa?$AAm?$AAe?$AAs?$AA?9?$AA?$DO?$AAW?$AAr?$AAi?$AAt?$AAe@ 100c28e0     awt_DnDDT.obj
 0002:0000c960       ??_C@_1MK@HCAKMODM@?$AAE?$AAr?$AAr?$AAo?$AAr?$AA?3?$AA?$CF?$AA0?$AA8?$AAx?$AA?5?$AAi?$AAn?$AA?5?$AAs?$AAp?$AAF?$AAi?$AAl?$AAe?$AAN?$AAa?$AAm?$AAe?$AAs?$AA?9?$AA?$DO?$AAW?$AAr?$AAi?$AAt?$AAe@ 100c2960     awt_DnDDT.obj
 0002:0000ca30       ??_C@_1FM@GGLHGNCC@?$AAE?$AAr?$AAr?$AAo?$AAr?$AA?3?$AA?$CF?$AA0?$AA8?$AAx?$AA?5?$AAi?$AAn?$AA?5?$AAS?$AAa?$AAv?$AAe?$AAI?$AAn?$AAd?$AAe?$AAx?$AAT?$AAo?$AAF?$AAi?$AAl?$AAe?$AA?$CI?$AA?5?$AAs@ 100c2a30     awt_DnDDT.obj
 0002:0000ca90       ??_C@_1GG@IFDEBPMF@?$AAE?$AAr?$AAr?$AAo?$AAr?$AA?3?$AA?$CF?$AA0?$AA8?$AAx?$AA?5?$AAi?$AAn?$AA?5?$AAG?$AAe?$AAt?$AAT?$AAe?$AAm?$AAp?$AAP?$AAa?$AAt?$AAh?$AAW?$AAi?$AAt?$AAh?$AAS?$AAl?$AAa@ 100c2a90     awt_DnDDT.obj
 0002:0000caf8       ??_C@_1IA@JMNJJJFF@?$AAE?$AAr?$AAr?$AAo?$AAr?$AA?3?$AA?$CF?$AA0?$AA8?$AAx?$AA?5?$AAi?$AAn?$AA?5?$AAC?$AAr?$AAe?$AAa?$AAt?$AAe?$AAS?$AAt?$AAr?$AAe?$AAa?$AAm?$AAO?$AAn?$AAH?$AAG?$AAl?$AAo@ 100c2af8     awt_DnDDT.obj
 0002:0000cb7c       ??_7zbad_alloc@std@@6B@    100c2b7c     awt_DnDDS.obj
 0002:0000cb84       ??_C@_0CH@HGFHAGHE@sun?1awt?1windows?1WDragSourceConte@ 100c2b84     awt_DnDDS.obj
 0002:0000cbac       ??_C@_09IGKDHNBJ@dragEnter?$AA@ 100c2bac     awt_DnDDS.obj
 0002:0000cbb8       ??_C@_0L@DJAIFPMN@dragMotion?$AA@ 100c2bb8     awt_DnDDS.obj
 0002:0000cbc4       ??_C@_0BB@FOMJPLKL@operationChanged?$AA@ 100c2bc4     awt_DnDDS.obj
 0002:0000cbd8       ??_C@_08PMPBMGLA@dragExit?$AA@ 100c2bd8     awt_DnDDS.obj
 0002:0000cbe4       ??_C@_0BB@GFPNBKIH@dragDropFinished?$AA@ 100c2be4     awt_DnDDS.obj
 0002:0000cbf8       ??_C@_07HHDOBOBK@?$CIZIII?$CJV?$AA@ 100c2bf8     awt_DnDDS.obj
 0002:0000cc00       ??_C@_0P@LBOIPEJE@dragMouseMoved?$AA@ 100c2c00     awt_DnDDS.obj
 0002:0000cc14       ??_7ADSIEnumFormatEtc@AwtDragSource@@6BIEnumFORMATETC@@@ 100c2c14     awt_DnDDS.obj
 0002:0000cc34       ??_7ADSIEnumFormatEtc@AwtDragSource@@6B01@@ 100c2c34     awt_DnDDS.obj
 0002:0000cc3c       ??_7ADSIStreamProxy@AwtDragSource@@6BIStream@@@ 100c2c3c     awt_DnDDS.obj
 0002:0000cc78       ??_7ADSIStreamProxy@AwtDragSource@@6B01@@ 100c2c78     awt_DnDDS.obj
 0002:0000cc80       ??_C@_1OE@JDGHPFHJ@?$AAE?$AAr?$AAr?$AAo?$AAr?$AA?3?$AA?$CF?$AA0?$AA8?$AAx?$AA?5?$AAi?$AAn?$AA?5?$AAC?$AAo?$AAC?$AAr?$AAe?$AAa?$AAt?$AAe?$AAI?$AAn?$AAs?$AAt?$AAa?$AAn?$AAc?$AAe?$AA?$CI?$AA?5@ 100c2c80     awt_DnDDS.obj
 0002:0000cd68       ??_7AwtDragSource@@6BIDataObject@@@ 100c2d68     awt_DnDDS.obj
 0002:0000cd9c       ??_7AwtDragSource@@6BIDropSource@@@ 100c2d9c     awt_DnDDS.obj
 0002:0000cdb4       ??_7AwtDragSource@@6B0@@   100c2db4     awt_DnDDS.obj
 0002:0000cdbc       ??_8ADSIEnumFormatEtc@AwtDragSource@@7B@ 100c2dbc     awt_DnDDS.obj
 0002:0000cdc4       ??_8ADSIStreamProxy@AwtDragSource@@7B@ 100c2dc4     awt_DnDDS.obj
 0002:0000cdcc       ??_8AwtDragSource@@7B@     100c2dcc     awt_DnDDS.obj
 0002:0000cdd8       ??_C@_0CK@JKNCGOBK@java?1awt?1dnd?1InvalidDnDOperation@ 100c2dd8     awt_DnDDS.obj
 0002:0000ce04       ??_C@_0BN@LCGNPDNC@Drag?5and?5drop?5is?5in?5progress?$AA@ 100c2e04     awt_DnDDS.obj
 0002:0000ce24       ??_C@_0BE@JONHPENG@map?1set?$DMT?$DO?5too?5long?$AA@ 100c2e24     awt_DnDDS.obj
 0002:0000ce38       ??_C@_0BM@PAPJHAGI@invalid?5map?1set?$DMT?$DO?5iterator?$AA@ 100c2e38     awt_DnDDS.obj
 0002:0000ce64       ??_C@_1CK@PIMKBGGH@?$AAP?$AAe?$AAr?$AAf?$AAo?$AAr?$AAm?$AAe?$AAd?$AA?5?$AAD?$AAr?$AAo?$AAp?$AAE?$AAf?$AAf?$AAe?$AAc?$AAt?$AA?$AA@ 100c2e64     awt_DnDDS.obj
 0002:0000ce90       ??_C@_1CK@IHGKIJHD@?$AAF?$AAi?$AAl?$AAe?$AAG?$AAr?$AAo?$AAu?$AAp?$AAD?$AAe?$AAs?$AAc?$AAr?$AAi?$AAp?$AAt?$AAo?$AAr?$AAW?$AA?$AA@ 100c2e90     awt_DnDDS.obj
 0002:0000cebc       ??_C@_1CI@CEGIFMP@?$AAF?$AAi?$AAl?$AAe?$AAG?$AAr?$AAo?$AAu?$AAp?$AAD?$AAe?$AAs?$AAc?$AAr?$AAi?$AAp?$AAt?$AAo?$AAr?$AA?$AA@ 100c2ebc     awt_DnDDS.obj
 0002:0000cee4       ??_C@_1BK@BPLEJIIK@?$AAF?$AAi?$AAl?$AAe?$AAC?$AAo?$AAn?$AAt?$AAe?$AAn?$AAt?$AAs?$AA?$AA@ 100c2ee4     awt_DnDDS.obj
 0002:0000cf00       ??_C@_1DE@OPNKDBBJ@?$AA_?$AAS?$AAU?$AAN?$AAW?$AA_?$AAJ?$AAA?$AAV?$AAA?$AA_?$AAA?$AAW?$AAT?$AA_?$AAP?$AAR?$AAO?$AAC?$AAE?$AAS?$AAS?$AA_?$AAI?$AAD?$AA?$AA@ 100c2f00     awt_DnDDS.obj
 0002:0000cf34       ??_C@_0BF@BPALOPBH@j2d_mlib_ImageDelete?$AA@ 100c2f34     awt_Mlib.obj
 0002:0000cf4c       ??_C@_0BL@FPMGALMC@j2d_mlib_ImageCreateStruct?$AA@ 100c2f4c     awt_Mlib.obj
 0002:0000cf68       ??_C@_0BF@EGANBGJM@j2d_mlib_ImageCreate?$AA@ 100c2f68     awt_Mlib.obj
 0002:0000cf80       ??_C@_1BO@OCAFABOA@?$AAm?$AAl?$AAi?$AAb?$AA_?$AAi?$AAm?$AAa?$AAg?$AAe?$AA?4?$AAd?$AAl?$AAl?$AA?$AA@ 100c2f80     awt_Mlib.obj
 0002:0000cfa0       ??_C@_0BM@JELNOANJ@java?4lang?4OutOfMemoryError?6?$AA@ 100c2fa0     awt_new.obj
 0002:0000cfc0       ??_7AwtTrayIcon@@6B@       100c2fc0     awt_TrayIcon.obj
 0002:0000cff4       ??_C@_1BO@GMLKNBJK@?$AAS?$AAu?$AAn?$AAA?$AAw?$AAt?$AAT?$AAr?$AAa?$AAy?$AAI?$AAc?$AAo?$AAn?$AA?$AA@ 100c2ff4     awt_TrayIcon.obj
 0002:0000d014       ??_C@_0O@OGDGDABE@DllGetVersion?$AA@ 100c3014     awt_TrayIcon.obj
 0002:0000d024       ??_C@_0M@LNAMDANG@Shell32?4dll?$AA@ 100c3024     awt_TrayIcon.obj
 0002:0000d030       ??_C@_0O@POBDPGCM@showPopupMenu?$AA@ 100c3030     awt_TrayIcon.obj
 0002:0000d040       ??_C@_0CL@CIGJLNHM@?$CILjava?1lang?1Object?$DLILjava?1lang?1S@ 100c3040     awt_TrayIcon.obj
 0002:0000d06c       ??_C@_0BL@HFLJKABB@java?1awt?1event?1ActionEvent?$AA@ 100c306c     awt_TrayIcon.obj
 0002:0000d088       ??_C@_19PFCDLDMI@?$AAN?$AAO?$AAN?$AAE?$AA?$AA@ 100c3088     awt_TrayIcon.obj
 0002:0000d094       ??_C@_19FILLMKCG@?$AAI?$AAN?$AAF?$AAO?$AA?$AA@ 100c3094     awt_TrayIcon.obj
 0002:0000d0a0       ??_C@_1BA@KPCCLDOC@?$AAW?$AAA?$AAR?$AAN?$AAI?$AAN?$AAG?$AA?$AA@ 100c30a0     awt_TrayIcon.obj
 0002:0000d0b0       ??_C@_1M@BJACCECO@?$AAE?$AAR?$AAR?$AAO?$AAR?$AA?$AA@ 100c30b0     awt_TrayIcon.obj
 0002:0000d0bc       ??_C@_0O@PLFBMHJP@actionCommand?$AA@ 100c30bc     awt_TrayIcon.obj
 0002:0000d0cc       ??_C@_1BO@NBGJACOC@?$AAT?$AAa?$AAs?$AAk?$AAb?$AAa?$AAr?$AAC?$AAr?$AAe?$AAa?$AAt?$AAe?$AAd?$AA?$AA@ 100c30cc     awt_TrayIcon.obj
 0002:0000d0ec       ??_C@_1CE@FNCECEFL@?$AAT?$AAr?$AAa?$AAy?$AAM?$AAe?$AAs?$AAs?$AAa?$AAg?$AAe?$AAW?$AAi?$AAn?$AAd?$AAo?$AAw?$AA?$AA@ 100c30ec     awt_TrayIcon.obj
 0002:0000d110       ??_C@_1DK@KILFOIN@?$AAO?$AAS?$AAE?$AAr?$AAr?$AAo?$AAr?$AA?3?$AA?$CF?$AAd?$AA?5?$AAi?$AAn?$AA?5?$AAS?$AAe?$AAl?$AAe?$AAc?$AAt?$AAB?$AAM?$AAO?$AAb?$AAj?$AAe?$AAc?$AAt?$AA?$AA@ 100c3110     awt_DCHolder.obj
 0002:0000d150       ??_C@_1EK@FLOHFAPA@?$AAO?$AAS?$AAE?$AAr?$AAr?$AAo?$AAr?$AA?3?$AA?$CF?$AAd?$AA?5?$AAi?$AAn?$AA?5?$AAC?$AAr?$AAe?$AAa?$AAt?$AAe?$AAC?$AAo?$AAm?$AAp?$AAa?$AAt?$AAi?$AAb?$AAl?$AAe?$AAB?$AAi@ 100c3150     awt_DCHolder.obj
 0002:0000d1a0       ??_C@_1EC@HOBKJIHP@?$AAO?$AAS?$AAE?$AAr?$AAr?$AAo?$AAr?$AA?3?$AA?$CF?$AAd?$AA?5?$AAi?$AAn?$AA?5?$AAC?$AAr?$AAe?$AAa?$AAt?$AAe?$AAC?$AAo?$AAm?$AAp?$AAa?$AAt?$AAi?$AAb?$AAl?$AAe?$AAD?$AAC@ 100c31a0     awt_DCHolder.obj
 0002:0000d1e4       ??_C@_1M@GPDJLPMI@?$AA?4?$AA?$CF?$AA0?$AA3?$AAd?$AA?$AA@ 100c31e4     awt_ole.obj
 0002:0000d1f0       ??_C@_1BO@PKPFHKMJ@?$AA?$CF?$AAb?$AA?5?$AA?$CF?$AAd?$AA?5?$AA?$CF?$AAH?$AA?3?$AA?$CF?$AAM?$AA?3?$AA?$CF?$AAS?$AA?$AA@ 100c31f0     awt_ole.obj
 0002:0000d210       ??_C@_13LBAGMAIH@?$AA?6?$AA?$AA@ 100c3210     awt_ole.obj
 0002:0000d214       ??_C@_17LGKOMLJ@?$AA?4?$AA?4?$AA?4?$AA?$AA@ 100c3214     awt_ole.obj
 0002:0000d21c       ??_C@_1CG@LBGHEMHB@?$AAP?$AA?3?$AA?$CF?$AA0?$AA4?$AAd?$AA?5?$AAT?$AA?3?$AA?$CF?$AA0?$AA4?$AAd?$AA?5?$AA?$CF?$AAs?$AA?$CF?$AAs?$AA?$AA@ 100c321c     awt_ole.obj
 0002:0000d244       ??_C@_1O@BCEFDHC@?$AAE?$AAr?$AAr?$AAo?$AAr?$AA?3?$AA?$AA@ 100c3244     awt_ole.obj
 0002:0000d254       ??_C@_1O@CGCIEIID@?$AA?$FL?$AA?$CF?$AA0?$AA8?$AAx?$AA?$FN?$AA?$AA@ 100c3254     awt_ole.obj
 0002:0000d264       ??_C@_0DD@GEPKBBI@D3DBL_CopySurfaceToIntArgbImage?3@ 100c3264     D3DBlitLoops.obj
 0002:0000d298       ??_C@_0DB@OHNPDJBF@D3DBL_CopyImageToIntXrgbSurface?3@ 100c3298     D3DBlitLoops.obj
 0002:0000d2d0       __real@3f1a36e2e0000000    100c32d0     D3DBlitLoops.obj
 0002:0000d2d8       ??_C@_0DJ@NIKIOOKA@D3DBlitTextureToSurface?3?5BeginSc@ 100c32d8     D3DBlitLoops.obj
 0002:0000d314       ??_C@_0DF@OIOFJGMK@D3DBlitToSurfaceViaTexture?3?5coul@ 100c3314     D3DBlitLoops.obj
 0002:0000d34c       ??_C@_0DA@LPNFGJGK@D3DBlitLoops_CopyArea?3?5could?5not@ 100c334c     D3DBlitLoops.obj
 0002:0001c578       __real@c000000000000000    100d2578     D3DContext.obj
 0002:0001c580       ??_C@_0DL@MOIONFOK@D3DContext?3?3InitDefice?3?5successf@ 100d2580     D3DContext.obj
 0002:0001c5bc       ??_C@_0DE@PMCKEBOA@D3DContext?3?3InitDevice?3?5error?5cr@ 100d25bc     D3DContext.obj
 0002:0001c5f0       ??_C@_0DB@GCKCPFHG@D3DContext?3?3InitDevice?3?5sync?5que@ 100d25f0     D3DContext.obj
 0002:0001c624       ??_C@_0CC@PBKPNBLP@D3DContext?3?3InitDevice?3?5device?5?$CF@ 100d2624     D3DContext.obj
 0002:0001c648       ??_C@_0DK@MOGJJNMB@D3DContext?3?3CreateFragmentProgra@ 100d2648     D3DContext.obj
 0002:0001c684       ??_C@_0DO@FFGJHPOG@D3DContext?3?3EnableFragmentProgra@ 100d2684     D3DContext.obj
 0002:0001c6c4       ??_C@_0DN@OGNLGCIE@D3DContext?3?3EnableLCDTextProgram@ 100d26c4     D3DContext.obj
 0002:0001c704       ??_C@_0P@CDHBPDFA@?5?5?$HM?5CAPS_EMPTY?$AA@ 100d2704     D3DContext.obj
 0002:0001c714       ??_C@_0BG@CEHLEPEL@?5?5?$HM?5CAPS_TEXNONSQUARE?$AA@ 100d2714     D3DContext.obj
 0002:0001c72c       ??_C@_0BE@CDONPOIM@?5?5?$HM?5CAPS_TEXNONPOW2?$AA@ 100d272c     D3DContext.obj
 0002:0001c740       ??_C@_0BG@GKCJONMA@?5?5?$HM?5CAPS_MULTITEXTURE?$AA@ 100d2740     D3DContext.obj
 0002:0001c758       ??_C@_0O@OJOFOFCD@?5?5?$HM?5CAPS_PS30?$AA@ 100d2758     D3DContext.obj
 0002:0001c768       ??_C@_0BD@FMCHJLPC@?5?5?$HM?5CAPS_AA_SHADER?$AA@ 100d2768     D3DContext.obj
 0002:0001c77c       ??_C@_0DD@BLBBOMDF@?5?5?$HM?5CAPS_LCD_SHADER?5?$HM?5CAPS_BIOP_@ 100d277c     D3DContext.obj
 0002:0001c7b0       ??_C@_0BL@HKADMMBK@?5?5?$HM?5CAPS_RT_TEXTURE_OPAQUE?$AA@ 100d27b0     D3DContext.obj
 0002:0001c7cc       ??_C@_0BK@CFMGGDDH@?5?5?$HM?5CAPS_RT_TEXTURE_ALPHA?$AA@ 100d27cc     D3DContext.obj
 0002:0001c7e8       ??_C@_0BI@MLODHKDO@?5?5?$HM?5CAPS_RT_PLAIN_ALPHA?$AA@ 100d27e8     D3DContext.obj
 0002:0001c800       ??_C@_0BD@LFMLHDEC@?5?5?$HM?5CAPS_DEVICE_OK?$AA@ 100d2800     D3DContext.obj
 0002:0001c814       ??_C@_0DO@CFFEEDKN@D3DContext?3?3ConfigureContext?3?5su@ 100d2814     D3DContext.obj
 0002:0001c854       ??_C@_0CE@IIPIPKNL@D3DCREATE_SOFTWARE_VERTEXPROCESS@ 100d2854     D3DContext.obj
 0002:0001c878       ??_C@_0CE@NFBLPJNI@D3DCREATE_HARDWARE_VERTEXPROCESS@ 100d2878     D3DContext.obj
 0002:0001c89c       ??_C@_0CM@LJDLGEFN@?$FLV?$FN?5dwBehaviorFlags?$DND3DCREATE_FP@ 100d289c     D3DContext.obj
 0002:0001c8c8       ??_C@_0DM@BNHMJFCH@D3DContext?3?3ConfigureContext?3?5su@ 100d28c8     D3DContext.obj
 0002:0001c904       ??_C@_0CH@MBOGFKGH@D3DContext?3?3ConfigureContext?5dev@ 100d2904     D3DContext.obj
 0002:0001c92c       ??_C@_0CC@NNEOKBOM@D3DContext?3?3InitContext?5device?5?$CF@ 100d292c     D3DContext.obj
 0002:0001c950       ??_C@_0CC@EHOKFFJA@?5?5x1?$DN?$CF?94d?5y1?$DN?$CF?94d?5x2?$DN?$CF?94d?5y2?$DN?$CF?94@ 100d2950     D3DContext.obj
 0002:0001c974       ??_C@_0BJ@HECBPIIN@D3DContext?3?3ResetContext?$AA@ 100d2974     D3DContext.obj
 0002:0001c990       ??_C@_0DK@DJDPIFEK@D3DGlyphCache?3?3Init?3?5could?5not?5c@ 100d2990     D3DGlyphCache.obj
 0002:0001c9cc       ??_C@_0DE@HJLFEHPF@D3DGlyphCache?3?3Init?3?5could?5not?5i@ 100d29cc     D3DGlyphCache.obj
 0002:0001ca00       ??_C@_1CO@MPBOEOKL@?$AA?$CF?$AAx?$AA?$CG?$AA?$CF?$AAx?$AA?5?$AA?$CF?$AAS?$AA?5?$AA?$CI?$AA?$CF?$AAd?$AA?4?$AA?$CF?$AAd?$AA?4?$AA?$CF?$AAd?$AA?4?$AA?$CF?$AAd?$AA?$CJ?$AA?$AA@ 100d2a00     D3DGraphicsDevice.obj
 0002:0001ca30       ??_C@_0CO@LLJNFCMD@D3DGD_getDeviceCapsNative?3?5devic@ 100d2a30     D3DGraphicsDevice.obj
 0002:0001ca60       ??_C@_0BK@HNAPMLFJ@D3DGD_getDeviceCapsNative?$AA@ 100d2a60     D3DGraphicsDevice.obj
 0002:0001ca7c       ??_C@_0DF@MDLKODBO@D3DGD_configDisplayModeNative?3?5u@ 100d2a7c     D3DGraphicsDevice.obj
 0002:0001cab4       ??_C@_0DB@GBFPEEGC@D3DGD_configDisplayModeNative?3?5n@ 100d2ab4     D3DGraphicsDevice.obj
 0002:0001d05c       ??_7PreloadAction@AwtToolkit@@6B@ 100d305c     D3DPipelineManager.obj
 0002:0001d068       ??_C@_1BO@OHAKPJFH@?$AAD?$AA3?$AAD?$AAF?$AAo?$AAc?$AAu?$AAs?$AAW?$AAi?$AAn?$AAd?$AAo?$AAw?$AA?$AA@ 100d3068     D3DPipelineManager.obj
 0002:0001d088       ??_C@_0CM@OCGKFKMG@sun?1java2d?1pipe?1hw?1AccelDeviceEv@ 100d3088     D3DPipelineManager.obj
 0002:0001d0b4       ??_C@_0N@BAMIDDEJ@eventOccured?$AA@ 100d30b4     D3DPipelineManager.obj
 0002:0001d0c4       ??_C@_0CB@BCODLFNH@OS_UNKNOWN?3?5GetVersionEx?5failed?6@ 100d30c4     D3DPipelineManager.obj
 0002:0001d0e8       ??_C@_0CP@MCEDLNHP@OS_UNKNOWN?3?5dwPlatformId?$DN?$CFd?5dwMa@ 100d30e8     D3DPipelineManager.obj
 0002:0001d118       ??_C@_0DB@MJMDMHBG@OS_UNKNOWN?3?5dwMajorVersion?$DN?$CFd?5dw@ 100d3118     D3DPipelineManager.obj
 0002:0001d14c       ??_C@_04HJJMMLKJ@Pro?6?$AA@ 100d314c     D3DPipelineManager.obj
 0002:0001d154       ??_C@_05MLOLPIFO@Home?6?$AA@ 100d3154     D3DPipelineManager.obj
 0002:0001d15c       ??_C@_09GKHKBAJH@OS_WINXP?5?$AA@ 100d315c     D3DPipelineManager.obj
 0002:0001d168       ??_C@_0BB@HABNLFEG@OS_WINSERV_2003?6?$AA@ 100d3168     D3DPipelineManager.obj
 0002:0001d17c       ??_C@_0N@HFABFBMJ@OS_WINXP_64?6?$AA@ 100d317c     D3DPipelineManager.obj
 0002:0001d18c       ??_C@_0BM@KLCNEPCJ@OS_WINSERV_2008R2?5or?5newer?6?$AA@ 100d318c     D3DPipelineManager.obj
 0002:0001d1a8       ??_C@_0BG@HMFIACCC@OS_WINDOWS7?5or?5newer?6?$AA@ 100d31a8     D3DPipelineManager.obj
 0002:0001d1c0       ??_C@_0BB@HMEIFKKH@OS_WINSERV_2008?6?$AA@ 100d31c0     D3DPipelineManager.obj
 0002:0001d1d4       ??_C@_09GMCEPCMH@OS_VISTA?6?$AA@ 100d31d4     D3DPipelineManager.obj
 0002:0001d1e0       ??_C@_0BC@LMKDNMNH@?$FLI?$FN?5OS?5Version?5?$DN?5?$AA@ 100d31e0     D3DPipelineManager.obj
 0002:0001d1f4       ??_C@_0DP@LJECMDEE@?5?5Warning?3?5hw?1driver?5match?5overr@ 100d31f4     D3DPipelineManager.obj
 0002:0001d238       ??_C@_0EC@COKJPGDF@D3DPPLM?3?3CheckForBadHardware?3?5ba@ 100d3238     D3DPipelineManager.obj
 0002:0001d27c       ??_C@_0DF@GMLLKCHP@?5?5update?5your?5driver?5to?5at?5least@ 100d327c     D3DPipelineManager.obj
 0002:0001d2b4       ??_C@_0CE@PILPOEJD@?5?5bad?5driver?5found?0?5device?5disab@ 100d32b4     D3DPipelineManager.obj
 0002:0001d2d8       ??_C@_0FH@OJEAGIPP@D3DPPLM?3?3CheckForBadHardware?3?5fo@ 100d32d8     D3DPipelineManager.obj
 0002:0001d330       ??_C@_0BI@LCPEFDMD@ref?5rasterizer?5selected?$AA@ 100d3330     D3DPipelineManager.obj
 0002:0001d348       ??_C@_0BI@FBOGJCFM@hal?5rasterizer?5selected?$AA@ 100d3348     D3DPipelineManager.obj
 0002:0001d360       ??_C@_0EL@EKNCBGFN@unknown?5rasterizer?3?5?$CFs?0?5only?5?$CIre@ 100d3360     D3DPipelineManager.obj
 0002:0001d3ac       ??_C@_0BM@GFGCKKDL@nullref?5rasterizer?5selected?$AA@ 100d33ac     D3DPipelineManager.obj
 0002:0001d3c8       ??_C@_03JODACOMD@nul?$AA@  100d33c8     D3DPipelineManager.obj
 0002:0001d3cc       ??_C@_03LBOHNFKJ@tnl?$AA@  100d33cc     D3DPipelineManager.obj
 0002:0001d3d0       ??_C@_03KAHEHKLD@hal?$AA@  100d33d0     D3DPipelineManager.obj
 0002:0001d3d4       ??_C@_03GCDGINBO@ref?$AA@  100d33d4     D3DPipelineManager.obj
 0002:0001d3d8       ??_C@_0CA@IHFPPPGP@?$FLW?$FN?5D3DPPLM?3?3SelectDeviceType?3?5?$AA@ 100d33d8     D3DPipelineManager.obj
 0002:0001d3f8       ??_C@_0BD@DMCODMOG@J2D_D3D_RASTERIZER?$AA@ 100d33f8     D3DPipelineManager.obj
 0002:0001d40c       ??_C@_0CN@OGOPEGAI@D3DPPLM?3?3CheckDeviceCaps?3?5adapte@ 100d340c     D3DPipelineManager.obj
 0002:0001d440       ??_C@_0EK@IEDHDABE@D3DPPLM?3?3CheckDeviceCaps?3?5adapte@ 100d3440     D3DPipelineManager.obj
 0002:0001d48c       ??_C@_0BG@NFMNOAAJ@D3DTEXOPCAPS_MODULATE?$AA@ 100d348c     D3DPipelineManager.obj
 0002:0001d4a4       ??_C@_0BG@FGPHEHOB@D3DPTADDRESSCAPS_WRAP?$AA@ 100d34a4     D3DPipelineManager.obj
 0002:0001d4bc       ??_C@_0BH@DOIJCBLA@D3DPTADDRESSCAPS_CLAMP?$AA@ 100d34bc     D3DPipelineManager.obj
 0002:0001d4d4       ??_C@_0BL@LMMGIOB@D3DPBLENDCAPS_INVDESTALPHA?$AA@ 100d34d4     D3DPipelineManager.obj
 0002:0001d4f0       ??_C@_0BK@LNNOMMLC@D3DPBLENDCAPS_INVSRCALPHA?$AA@ 100d34f0     D3DPipelineManager.obj
 0002:0001d50c       ??_C@_0BI@BEOJJKL@D3DPBLENDCAPS_DESTALPHA?$AA@ 100d350c     D3DPipelineManager.obj
 0002:0001d524       ??_C@_0BH@DPIBKBDM@D3DPBLENDCAPS_SRCALPHA?$AA@ 100d3524     D3DPipelineManager.obj
 0002:0001d53c       ??_C@_0BC@COOJBCOD@D3DPBLENDCAPS_ONE?$AA@ 100d353c     D3DPipelineManager.obj
 0002:0001d550       ??_C@_0BD@CIKECDBM@D3DPBLENDCAPS_ZERO?$AA@ 100d3550     D3DPipelineManager.obj
 0002:0001d564       ??_C@_0BB@LJDFGMKE@D3DPCMPCAPS_LESS?$AA@ 100d3564     D3DPipelineManager.obj
 0002:0001d578       ??_C@_0BD@DFNMPPNP@D3DPCMPCAPS_ALWAYS?$AA@ 100d3578     D3DPipelineManager.obj
 0002:0001d58c       ??_C@_0BD@KFIGHLLF@D3DPMISCCAPS_MASKZ?$AA@ 100d358c     D3DPipelineManager.obj
 0002:0001d5a0       ??_C@_0BF@IKEGPNFA@D3DPMISCCAPS_BLENDOP?$AA@ 100d35a0     D3DPipelineManager.obj
 0002:0001d5b8       ??_C@_0BG@BGDIOAAJ@D3DPMISCCAPS_CULLNONE?$AA@ 100d35b8     D3DPipelineManager.obj
 0002:0001d5d0       ??_C@_0CK@CAKDMKN@D3DCAPS3_ALPHA_FULLSCREEN_FLIP_O@ 100d35d0     D3DPipelineManager.obj
 0002:0001d5fc       ??_C@_0BL@MAEMKJNM@D3DPRASTERCAPS_SCISSORTEST?$AA@ 100d35fc     D3DPipelineManager.obj
 0002:0001d618       ??_C@_0BL@LJCEGD@D3DDEVCAPS_HWRASTERIZATION?$AA@ 100d3618     D3DPipelineManager.obj
 0002:0001d634       ??_C@_0BP@NOKCNOAH@D3DDEVCAPS_HWTRANSFORMANDLIGHT?$AA@ 100d3634     D3DPipelineManager.obj
 0002:0001d658       ??_C@_0EE@MAHPBBCJ@D3DPPLM?3?3CheckDeviceCaps?3?5adapte@ 100d3658     D3DPipelineManager.obj
 0002:0001d69c       ??_C@_0BM@BNGKJPKF@D3DDEVCAPS_DRAWPRIMTLVERTEX?$AA@ 100d369c     D3DPipelineManager.obj
 0002:0001d6b8       ??_C@_0ED@KOEBCIAM@D3DPPLM?3?3D3DEnabledOnAdapter?3?5no@ 100d36b8     D3DPipelineManager.obj
 0002:0001d700       ??_C@_0EN@FAHJDLGJ@D3DPPLM?3?3CreateDefaultFocusWindo@ 100d3700     D3DPipelineManager.obj
 0002:0001d750       ??_C@_0DH@IJJFJLHH@D3DPPLM?3?3CreateDefaultFocusWindo@ 100d3750     D3DPipelineManager.obj
 0002:0001d788       ??_C@_0EC@PMGDDEPF@D3DPPLM?3?3CreateDefaultFocusWindo@ 100d3788     D3DPipelineManager.obj
 0002:0001d7d0       ??_C@_0EC@NCMMLMFG@D3DPPLM?3?3CreateDefaultFocusWindo@ 100d37d0     D3DPipelineManager.obj
 0002:0001d818       ??_C@_0EJ@NAMKLPJH@D3DPPLM?3?3GetD3DContext?3?5invalid?5@ 100d3818     D3DPipelineManager.obj
 0002:0001d864       ??_C@_0CK@FPLEOMEC@D3DPPLM?3?3GetContext?3?5no?5d3d?5on?5a@ 100d3864     D3DPipelineManager.obj
 0002:0001d890       ??_C@_0EA@CHOLJLHI@D3DPPLM?3?3GetD3DContext?3?5failed?5t@ 100d3890     D3DPipelineManager.obj
 0002:0001d8d4       ??_7D3DInitializer@@6B@    100d38d4     D3DPipelineManager.obj
 0002:0001d8e4       ??_7D3DAdapterInitializer@D3DInitializer@@6B@ 100d38e4     D3DPipelineManager.obj
 0002:0001d8f0       ??_C@_0CN@FGDGIFFI@D3DAdapterInitializer?3?3InitImpl?$CI@ 100d38f0     D3DPipelineManager.obj
 0002:0001d920       ??_C@_0CM@JHLOJCNI@D3DAdapterInitializer?3?3InitImpl?$CI@ 100d3920     D3DPipelineManager.obj
 0002:0001d94c       ??_C@_0BH@LELGPJE@AWT?5warmup?3?5preloadD3D?$AA@ 100d394c     D3DPipelineManager.obj
 0002:0001d964       ??_C@_0CN@JHJIEMCA@?5?5OS?5check?5overridden?5via?5J2D_D3@ 100d3964     D3DPipelineManager.obj
 0002:0001d998       ??_C@_0FD@OKKEPOKL@D3DPPLM?3?3CheckOSVersion?3?5Windows@ 100d3998     D3DPipelineManager.obj
 0002:0001d9ec       ??_C@_0DL@NJNPENND@D3DPPLM?3?3GDICheckForBadHardware?3@ 100d39ec     D3DPipelineManager.obj
 0002:0001da28       ??_C@_15BHOFONJE@?$AA?$CF?$AAX?$AA?$AA@ 100d3a28     D3DPipelineManager.obj
 0002:0001da30       ??_C@_0DH@LGKFOLAD@D3DPPLM?3?3CheckAdaptersInfo?3?5no?5s@ 100d3a30     D3DPipelineManager.obj
 0002:0001da68       ??_C@_0BD@KGADJKHE@?$CF02X?$CF02X?$CF02X?$CF02X?$HN?6?$AA@ 100d3a68     D3DPipelineManager.obj
 0002:0001da7c       ??_C@_0BC@NPHNPJNA@?$CF02X?$CF02X?9?$CF02X?$CF02X?$AA@ 100d3a7c     D3DPipelineManager.obj
 0002:0001da90       ??_C@_0CI@EAALCGKE@?$FLI?$FN?5GUID?5?5?5?5?5?5?5?5?5?5?5?5?5?3?5?$HL?$CF08X?9?$CF04@ 100d3a90     D3DPipelineManager.obj
 0002:0001dab8       ??_C@_0BP@MBJBHBDF@Driver?5Version?5?5?5?3?5?$CFd?4?$CFd?4?$CFd?4?$CFd?$AA@ 100d3ab8     D3DPipelineManager.obj
 0002:0001dad8       ??_C@_0BI@IJICGPHP@SubSys?5Id?5?5?5?5?5?5?5?5?3?50x?$CFx?$AA@ 100d3ad8     D3DPipelineManager.obj
 0002:0001daf0       ??_C@_0BK@LOOABALA@Device?5Id?5?5?5?5?5?5?5?5?3?50x?$CF04x?$AA@ 100d3af0     D3DPipelineManager.obj
 0002:0001db0c       ??_C@_0BK@PAOJGKPB@Vendor?5Id?5?5?5?5?5?5?5?5?3?50x?$CF04x?$AA@ 100d3b0c     D3DPipelineManager.obj
 0002:0001db28       ??_C@_0BK@NMOLPGLJ@GDI?5Name?0?5Driver?5?3?5?$CFs?0?5?$CFs?$AA@ 100d3b28     D3DPipelineManager.obj
 0002:0001db44       ??_C@_0BG@MLCAAKBG@Description?5?5?5?5?5?5?3?5?$CFs?$AA@ 100d3b44     D3DPipelineManager.obj
 0002:0001db5c       ??_C@_0BI@HNGGAGIC@Adapter?5Handle?5?5?5?3?50x?$CFx?$AA@ 100d3b5c     D3DPipelineManager.obj
 0002:0001db74       ??_C@_0BG@CONKCHAG@Adapter?5Ordinal?5?5?3?5?$CFd?$AA@ 100d3b74     D3DPipelineManager.obj
 0002:0001db8c       ??_C@_0BD@EMMMLPFN@?9?9?9?9?9?9?9?9?9?9?9?9?9?9?9?9?9?9?$AA@ 100d3b8c     D3DPipelineManager.obj
 0002:0001dba0       ??_C@_0BC@EBNIGFEP@CheckAdaptersInfo?$AA@ 100d3ba0     D3DPipelineManager.obj
 0002:0001dbb4       ??_C@_0BM@GDBEFNAP@InitAdapters?3?5out?5of?5memory?$AA@ 100d3bb4     D3DPipelineManager.obj
 0002:0001dbd0       ??_C@_0CB@ENHMHEFB@InitD3D?3?5failed?5to?5init?5adapters@ 100d3bd0     D3DPipelineManager.obj
 0002:0001dbf4       ??_C@_0CM@GDCJFKAG@InitD3D?3?5unable?5to?5create?5IDirec@ 100d3bf4     D3DPipelineManager.obj
 0002:0001dc20       ??_C@_0BM@HLGOHIP@InitD3D?3?5no?5Direct3DCreate9?$AA@ 100d3c20     D3DPipelineManager.obj
 0002:0001dc3c       ??_C@_0BA@FAFMMBOF@Direct3DCreate9?$AA@ 100d3c3c     D3DPipelineManager.obj
 0002:0001dc4c       ??_C@_0BF@JECEPJBF@InitD3D?3?5no?5d3d9?4dll?$AA@ 100d3c4c     D3DPipelineManager.obj
 0002:0001dc64       ??_C@_08NIHLGCK@d3d9?4dll?$AA@ 100d3c64     D3DPipelineManager.obj
 0002:0001dc70       ??_C@_0BP@ODOLJILL@D3DInitializer?3?3CleanImpl?5?$CI?$CFs?$CJ?$AA@ 100d3c70     D3DPipelineManager.obj
 0002:0001dc90       ??_C@_06IKLLLDHL@normal?$AA@ 100d3c90     D3DPipelineManager.obj
 0002:0001dc98       ??_C@_08KCMEBBMN@RELAUNCH?$AA@ 100d3c98     D3DPipelineManager.obj
 0002:0001dca4       ??_C@_0DL@PMPLAECG@D3DPPLM?3?3CreateInstance?3?5unexpec@ 100d3ca4     D3DPipelineManager.obj
 0002:0001dce0       ??_C@_0BJ@DHNGECJG@D3DInitializer?3?3InitImpl?$AA@ 100d3ce0     D3DPipelineManager.obj
 0002:0001dcfc       ??_C@_0BD@NJHHGKCD@J2D_D3D_NO_HWCHECK?$AA@ 100d3cfc     D3DPipelineManager.obj
 0002:0001dd10       ??_C@_0DH@MNILFPKI@D3DRenderer_DrawPoly?3?5d3dc?0?5xPoi@ 100d3d10     D3DRenderer.obj
 0002:0001dd48       ??_C@_0CF@LHMPHFHJ@D3DRQ_flushBuffer?3?5invalid?5opcod@ 100d3d48     D3DRenderQueue.obj
 0002:0001dd70       ??_C@_0CJ@KGKLMDLI@D3DRQ_FlushBuffer?3?5failed?5to?5get@ 100d3d70     D3DRenderQueue.obj
 0002:0001dd9c       ??_C@_0CA@DMFJGOAG@D3DRQ_flushBuffer?3?5null?5manager?$AA@ 100d3d9c     D3DRenderQueue.obj
 0002:0001ddbc       ??_C@_0DN@IEBGEOPP@D3DRenderQueue_flushBuffer?3?5cann@ 100d3dbc     D3DRenderQueue.obj
 0002:0001de00       ??_7IManagedResource@@6B@  100d3e00     D3DResourceManager.obj
 0002:0001de10       ??_7D3DResource@@6B@       100d3e10     D3DResourceManager.obj
 0002:0001de1c       ??_C@_0P@EJOPDAAP@setSurfaceLost?$AA@ 100d3e1c     D3DSurfaceData.obj
 0002:0001de2c       ??_C@_0BO@GHGCPIDG@sun?1java2d?1d3d?1D3DSurfaceData?$AA@ 100d3e2c     D3DSurfaceData.obj
 0002:0001de4c       ??_C@_0BM@OHBIIHKJ@D3DSD_Lock?5not?5implemented?$CB?$AA@ 100d3e4c     D3DSurfaceData.obj
 0002:0001de68       ??_C@_0CC@LLMLEGNM@D3DSD_GetRasInfo?5not?5implemented@ 100d3e68     D3DSurfaceData.obj
 0002:0001de8c       ??_C@_0BO@FMMHICJE@D3DSD_Unlock?5not?5implemented?$CB?$AA@ 100d3e8c     D3DSurfaceData.obj
 0002:0001deac       ??_C@_0BI@DCKNDILE@creating?5native?5d3d?5ops?$AA@ 100d3eac     D3DSurfaceData.obj
 0002:0001dec4       ??_C@_0CI@JHCIPGMB@D3DTR_DrawGlyphList?3?5glyph?5info?5@ 100d3ec4     D3DTextRenderer.obj
 0002:0001def0       __real@3fd99999a0000000    100d3ef0     D3DVertexCacher.obj
 0002:0001def8       __real@3fd374bc60000000    100d3ef8     D3DVertexCacher.obj
 0002:0001df00       __real@3fb99999a0000000    100d3f00     D3DVertexCacher.obj
 0002:0001df08       __real@3fd3333340000000    100d3f08     D3DVertexCacher.obj
 0002:0001df10       __real@3fe051eb80000000    100d3f10     D3DVertexCacher.obj
 0002:0001df18       ??_C@_0M@FNNOHNCO@DestroyIcon?$AA@ 100d3f18     ShellFolder2.obj
 0002:0001df24       ??_C@_0M@FNIAECKH@GetIconInfo?$AA@ 100d3f24     ShellFolder2.obj
 0002:0001df30       ??_C@_0BL@FHKIMDIG@SHGetSpecialFolderLocation?$AA@ 100d3f30     ShellFolder2.obj
 0002:0001df4c       ??_C@_0BF@BEKBEGIC@SHGetPathFromIDListW?$AA@ 100d3f4c     ShellFolder2.obj
 0002:0001df64       ??_C@_0M@CHNBKAFG@SHGetMalloc?$AA@ 100d3f64     ShellFolder2.obj
 0002:0001df70       ??_C@_0P@GABLNNHJ@SHGetFileInfoW?$AA@ 100d3f70     ShellFolder2.obj
 0002:0001df80       ??_C@_0BD@BJPBPDCF@SHGetDesktopFolder?$AA@ 100d3f80     ShellFolder2.obj
 0002:0001df94       ??_C@_0BA@HLDBALKH@FindExecutableW?$AA@ 100d3f94     ShellFolder2.obj
 0002:0001dfa4       ??_C@_0BC@PEPMLFHG@ImageList_GetIcon?$AA@ 100d3fa4     ShellFolder2.obj
 0002:0001dfb8       ??_C@_0N@OGEBEC@comctl32?4dll?$AA@ 100d3fb8     ShellFolder2.obj
 0002:0001dfc8       ??_C@_0M@KFDNOLCO@shell32?4dll?$AA@ 100d3fc8     ShellFolder2.obj
 0002:0001dfd4       ??_C@_0L@OKLICPED@folderType?$AA@ 100d3fd4     ShellFolder2.obj
 0002:0001dfe0       ??_C@_0M@NDEOCEGH@displayName?$AA@ 100d3fe0     ShellFolder2.obj
 0002:0001dfec       ??_C@_0BA@JKGGCJDM@setRelativePIDL?$AA@ 100d3fec     ShellFolder2.obj
 0002:0001dffc       ??_C@_0M@NHFDGOHH@pIShellIcon?$AA@ 100d3ffc     ShellFolder2.obj
 0002:0001e008       ??_C@_0BA@JDENANKO@setIShellFolder?$AA@ 100d4008     ShellFolder2.obj
 0002:0001e018       ??_C@_0CD@DILIAANJ@Could?5not?5initialize?5shell?5libra@ 100d4018     ShellFolder2.obj
 0002:0001e03c       ??_C@_0CJ@JDOPMFCE@Could?5not?5initialize?5COM?3?5HRESUL@ 100d403c     ShellFolder2.obj
 0002:0001e068       ??_C@_0CL@BMJOJBID@Could?5not?5get?5desktop?5shell?5fold@ 100d4068     ShellFolder2.obj
 0002:0001e094       ??_C@_0CD@CLCLCCAN@Could?5not?5get?5desktop?5shell?5fold@ 100d4094     ShellFolder2.obj
 0002:0001e0b8       ??_C@_0CJ@JEPNFDOF@Could?5not?5bind?5shell?5folder?5to?5i@ 100d40b8     ShellFolder2.obj
 0002:0001e0e4       ??_C@_0CD@LCAGDBND@Could?5not?5get?5shell?5folder?5ID?5li@ 100d40e4     ShellFolder2.obj
 0002:0001e108       ??_C@_0BN@CJACOEMA@Desktop?5shell?5folder?5missing?$AA@ 100d4108     ShellFolder2.obj
 0002:0001e128       ??_C@_0BF@MAPBPAKB@Could?5not?5parse?5name?$AA@ 100d4128     ShellFolder2.obj
 0002:0001e140       ??_C@_1CA@BPIDFFJM@?$AAT?$AAo?$AAo?$AAl?$AAb?$AAa?$AAr?$AAW?$AAi?$AAn?$AAd?$AAo?$AAw?$AA3?$AA2?$AA?$AA@ 100d4140     ShellFolder2.obj
 0002:0001e160       ??_C@_0BJ@PDOMIOOF@?$CILjava?1lang?1String?$DLIIZ?$CJV?$AA@ 100d4160     ShellFolder2.obj
 0002:0001e17c       ??_C@_0CE@MAHPBHFM@sun?1awt?1shell?1ShellFolderColumnI@ 100d417c     ShellFolder2.obj
 0002:0001e1a0       ??_C@_1O@MHJJMELH@?$AAB?$AAu?$AAt?$AAt?$AAo?$AAn?$AA?$AA@ 100d41a0     ThemeReader.obj
 0002:0001e1b0       ??_C@_0BL@HMNCCIB@GetThemeTransitionDuration?$AA@ 100d41b0     ThemeReader.obj
 0002:0001e1cc       ??_C@_0CG@PIAFJFHK@IsThemeBackgroundPartiallyTransp@ 100d41cc     ThemeReader.obj
 0002:0001e1f4       ??_C@_0P@CCAEJACP@SetWindowTheme?$AA@ 100d41f4     ThemeReader.obj
 0002:0001e204       ??_C@_0BB@PPCKKHF@GetThemePartSize?$AA@ 100d4204     ThemeReader.obj
 0002:0001e218       ??_C@_0BB@IJLPOJPC@GetThemePosition?$AA@ 100d4218     ThemeReader.obj
 0002:0001e22c       ??_C@_0M@OBHABJJH@GetThemeInt?$AA@ 100d422c     ThemeReader.obj
 0002:0001e238       ??_C@_0BC@NHLOMMMD@GetThemeEnumValue?$AA@ 100d4238     ThemeReader.obj
 0002:0001e24c       ??_C@_0O@NLPLHKC@GetThemeColor?$AA@ 100d424c     ThemeReader.obj
 0002:0001e25c       ??_C@_0BA@FCOABBCL@GetThemeSysBool?$AA@ 100d425c     ThemeReader.obj
 0002:0001e26c       ??_C@_0N@HINNEILA@GetThemeBool?$AA@ 100d426c     ThemeReader.obj
 0002:0001e27c       ??_C@_0BD@OHCNAPGI@IsThemePartDefined?$AA@ 100d427c     ThemeReader.obj
 0002:0001e290       ??_C@_0BA@EEGOKIDP@GetThemeMargins?$AA@ 100d4290     ThemeReader.obj
 0002:0001e2a0       ??_C@_0BO@LGILCFAC@GetThemeBackgroundContentRect?$AA@ 100d42a0     ThemeReader.obj
 0002:0001e2c0       ??_C@_0O@GFNKKDLH@DrawThemeText?$AA@ 100d42c0     ThemeReader.obj
 0002:0001e2d0       ??_C@_0P@HCLGHJBF@CloseThemeData?$AA@ 100d42d0     ThemeReader.obj
 0002:0001e2e0       ??_C@_0BE@PPLLOBHO@DrawThemeBackground?$AA@ 100d42e0     ThemeReader.obj
 0002:0001e2f4       ??_C@_0O@ENCOPDIF@OpenThemeData?$AA@ 100d42f4     ThemeReader.obj
 0002:0001e304       ??_C@_0M@GDMFMGIN@UXTHEME?4DLL?$AA@ 100d4304     ThemeReader.obj
 0002:0001e310       ??_C@_0P@FMOHGMJA@HTHEME?5is?5null?$AA@ 100d4310     ThemeReader.obj
 0002:0001e320       ??_C@_0BD@NAMIEEJL@java?1awt?1Dimension?$AA@ 100d4320     ThemeReader.obj
 0002:0001e338       ??_7DllUtil@@6B@           100d4338     DllUtil.obj
 0002:0001e33c       ??_C@_0BG@FLICLKDI@DwmGetWindowAttribute?$AA@ 100d433c     DllUtil.obj
 0002:0001e354       ??_C@_0BI@KJPLJBHH@DwmIsCompositionEnabled?$AA@ 100d4354     DllUtil.obj
 0002:0001e370       ??_7DwmAPI@@6B@            100d4370     DllUtil.obj
 0002:0001e374       ??_C@_0L@CHICAHNN@DWMAPI?4DLL?$AA@ 100d4374     DllUtil.obj
 0002:0001e380       __sz_USER32_dll            100d4380     user32:USER32.dll
 0002:0001e390       __sz_GDI32_dll             100d4390     gdi32:GDI32.dll
 0002:0001e3a0       __sz_WINSPOOL_DRV          100d43a0     winspool:WINSPOOL.DRV
 0002:0001e3b0       __sz_IMM32_dll             100d43b0     imm32:IMM32.dll
 0002:0001e3c0       __sz_ole32_dll             100d43c0     ole32:ole32.dll
 0002:0001e3cc       _GUID_NULL                 100d43cc     uuid:cguid_i.obj
 0002:0001e3dc       _IID_IRichEditOleCallback  100d43dc     uuid:cguid_i.obj
 0002:0001e3ec       _IID_IUnknown              100d43ec     uuid:unknwn_i.obj
 0002:0001e3fc       _IID_IDropSource           100d43fc     uuid:oleidl_i.obj
 0002:0001e40c       _IID_IDropTarget           100d440c     uuid:oleidl_i.obj
 0002:0001e41c       _IID_IShellIcon            100d441c     uuid:shguids.obj
 0002:0001e42c       _IID_IShellFolder          100d442c     uuid:shguids.obj
 0002:0001e43c       _IID_IShellDetails         100d443c     uuid:shguids.obj
 0002:0001e44c       _IID_IShellLinkW           100d444c     uuid:shguids.obj
 0002:0001e45c       _IID_IExtractIconW         100d445c     uuid:shguids.obj
 0002:0001e46c       _IID_IShellFolder2         100d446c     uuid:shguids.obj
 0002:0001e47c       _CLSID_DragDropHelper      100d447c     uuid:shguids.obj
 0002:0001e48c       _IID_IDropTargetHelper     100d448c     uuid:shguids2.obj
 0002:0001e49c       _IID_IDragSourceHelper     100d449c     uuid:shguids2.obj
 0002:0001e4ac       _CLSID_ShellLink           100d44ac     uuid:shguids2.obj
 0002:0001e4bc       _IID_IStream               100d44bc     uuid:objidl_i.obj
 0002:0001e4cc       _IID_IPersistFile          100d44cc     uuid:objidl_i.obj
 0002:0001e4dc       _IID_IEnumFORMATETC        100d44dc     uuid:objidl_i.obj
 0002:0001e4ec       _IID_IDataObject           100d44ec     uuid:objidl_i.obj
 0002:0001e500       __sz_SHELL32_dll           100d4500     shell32:SHELL32.dll
 0002:0001e510       __sz_COMDLG32_dll          100d4510     comdlg32:COMDLG32.dll
 0002:0001e520       __sz_WINMM_dll             100d4520     winmm:WINMM.dll
 0002:0001e530       __sz_COMCTL32_dll          100d4530     comctl32:COMCTL32.dll
 0002:0001e540       __sz_SHLWAPI_dll           100d4540     shlwapi:SHLWAPI.dll
 0002:0001e550       ??_7type_info@@6B@         100d4550     MSVCRT:ti_inst.obj
 0002:0001e554       __pRawDllMain              100d4554     MSVCRT:crtdll.obj
 0002:0001e554       __pDefaultRawDllMain       100d4554     MSVCRT:crtdll.obj
 0002:0001e560       ??_7_com_error@@6B@        100d4560     comsupp:comraise.obj
 0002:0001e568       ??_7logic_error@std@@6B@   100d4568     libcpmt:xthrow.obj
 0002:0001e574       ??_7length_error@std@@6B@  100d4574     libcpmt:xthrow.obj
 0002:0001e580       ??_7out_of_range@std@@6B@  100d4580     libcpmt:xthrow.obj
 0002:0001e588       __load_config_used         100d4588     MSVCRT:loadcfg.obj
 0002:0001e634       ??_R4CriticalSection@@6B@  100d4634     CmdIDList.obj
 0002:0001e648       ??_R3CriticalSection@@8    100d4648     CmdIDList.obj
 0002:0001e658       ??_R2CriticalSection@@8    100d4658     CmdIDList.obj
 0002:0001e660       ??_R1A@?0A@EA@CriticalSection@@8 100d4660     CmdIDList.obj
 0002:0001e67c       ??_R4Hashtable@@6B@        100d467c     Hashtable.obj
 0002:0001e690       ??_R3Hashtable@@8          100d4690     Hashtable.obj
 0002:0001e6a0       ??_R2Hashtable@@8          100d46a0     Hashtable.obj
 0002:0001e6a8       ??_R1A@?0A@EA@Hashtable@@8 100d46a8     Hashtable.obj
 0002:0001e6c4       ??_R4D3DContext@@6B@       100d46c4     Devices.obj
 0002:0001e6d8       ??_R3D3DContext@@8         100d46d8     Devices.obj
 0002:0001e6e8       ??_R2D3DContext@@8         100d46e8     Devices.obj
 0002:0001e6f0       ??_R1A@?0A@EA@D3DContext@@8 100d46f0     Devices.obj
 0002:0001e70c       ??_R4GDIHashtable@@6B@     100d470c     awt_Brush.obj
 0002:0001e720       ??_R3GDIHashtable@@8       100d4720     awt_Brush.obj
 0002:0001e730       ??_R2GDIHashtable@@8       100d4730     awt_Brush.obj
 0002:0001e73c       ??_R1A@?0A@EA@GDIHashtable@@8 100d473c     awt_Brush.obj
 0002:0001e758       ??_R4AwtGDIObject@@6B@     100d4758     awt_Brush.obj
 0002:0001e76c       ??_R3AwtGDIObject@@8       100d476c     awt_Brush.obj
 0002:0001e77c       ??_R2AwtGDIObject@@8       100d477c     awt_Brush.obj
 0002:0001e784       ??_R1A@?0A@EA@AwtGDIObject@@8 100d4784     awt_Brush.obj
 0002:0001e7a0       ??_R4AwtBrush@@6B@         100d47a0     awt_Brush.obj
 0002:0001e7b4       ??_R3AwtBrush@@8           100d47b4     awt_Brush.obj
 0002:0001e7c4       ??_R2AwtBrush@@8           100d47c4     awt_Brush.obj
 0002:0001e7d0       ??_R1A@?0A@EA@AwtBrush@@8  100d47d0     awt_Brush.obj
 0002:0001e7ec       ??_R4AwtButton@@6B@        100d47ec     awt_Button.obj
 0002:0001e800       ??_R3AwtButton@@8          100d4800     awt_Button.obj
 0002:0001e810       ??_R2AwtButton@@8          100d4810     awt_Button.obj
 0002:0001e820       ??_R1A@?0A@EA@AwtButton@@8 100d4820     awt_Button.obj
 0002:0001e83c       ??_R1A@?0A@EA@AwtComponent@@8 100d483c     awt_Button.obj
 0002:0001e858       ??_R3AwtComponent@@8       100d4858     awt_Button.obj
 0002:0001e868       ??_R2AwtComponent@@8       100d4868     awt_Button.obj
 0002:0001e874       ??_R1A@?0A@EA@AwtObject@@8 100d4874     awt_Button.obj
 0002:0001e890       ??_R3AwtObject@@8          100d4890     awt_Button.obj
 0002:0001e8a0       ??_R2AwtObject@@8          100d48a0     awt_Button.obj
 0002:0001e8a8       ??_R4AwtCanvas@@6B@        100d48a8     awt_Canvas.obj
 0002:0001e8bc       ??_R3AwtCanvas@@8          100d48bc     awt_Canvas.obj
 0002:0001e8cc       ??_R2AwtCanvas@@8          100d48cc     awt_Canvas.obj
 0002:0001e8dc       ??_R1A@?0A@EA@AwtCanvas@@8 100d48dc     awt_Canvas.obj
 0002:0001e8f8       ??_R4AwtCheckbox@@6B@      100d48f8     awt_Checkbox.obj
 0002:0001e90c       ??_R3AwtCheckbox@@8        100d490c     awt_Checkbox.obj
 0002:0001e91c       ??_R2AwtCheckbox@@8        100d491c     awt_Checkbox.obj
 0002:0001e92c       ??_R1A@?0A@EA@AwtCheckbox@@8 100d492c     awt_Checkbox.obj
 0002:0001e948       ??_R4AwtChoice@@6B@        100d4948     awt_Choice.obj
 0002:0001e95c       ??_R3AwtChoice@@8          100d495c     awt_Choice.obj
 0002:0001e96c       ??_R2AwtChoice@@8          100d496c     awt_Choice.obj
 0002:0001e97c       ??_R1A@?0A@EA@AwtChoice@@8 100d497c     awt_Choice.obj
 0002:0001e998       ??_R4AwtComponent@@6B@     100d4998     awt_Component.obj
 0002:0001e9ac       ??_R4AwtCursor@@6B@        100d49ac     awt_Cursor.obj
 0002:0001e9c0       ??_R3AwtCursor@@8          100d49c0     awt_Cursor.obj
 0002:0001e9d0       ??_R2AwtCursor@@8          100d49d0     awt_Cursor.obj
 0002:0001e9dc       ??_R1A@?0A@EA@AwtCursor@@8 100d49dc     awt_Cursor.obj
 0002:0001e9f8       ??_R4AwtDialog@@6B@        100d49f8     awt_Dialog.obj
 0002:0001ea0c       ??_R3AwtDialog@@8          100d4a0c     awt_Dialog.obj
 0002:0001ea1c       ??_R2AwtDialog@@8          100d4a1c     awt_Dialog.obj
 0002:0001ea38       ??_R1A@?0A@EA@AwtDialog@@8 100d4a38     awt_Dialog.obj
 0002:0001ea54       ??_R1A@?0A@EA@AwtFrame@@8  100d4a54     awt_Dialog.obj
 0002:0001ea70       ??_R3AwtFrame@@8           100d4a70     awt_Dialog.obj
 0002:0001ea80       ??_R2AwtFrame@@8           100d4a80     awt_Dialog.obj
 0002:0001ea98       ??_R1A@?0A@EA@AwtWindow@@8 100d4a98     awt_Dialog.obj
 0002:0001eab4       ??_R3AwtWindow@@8          100d4ab4     awt_Dialog.obj
 0002:0001eac4       ??_R2AwtWindow@@8          100d4ac4     awt_Dialog.obj
 0002:0001ead8       ??_R4JAWTDrawingSurface@@6B@ 100d4ad8     awt_DrawingSurface.obj
 0002:0001eaec       ??_R3JAWTDrawingSurface@@8 100d4aec     awt_DrawingSurface.obj
 0002:0001eafc       ??_R2JAWTDrawingSurface@@8 100d4afc     awt_DrawingSurface.obj
 0002:0001eb08       ??_R1A@?0A@EA@JAWTDrawingSurface@@8 100d4b08     awt_DrawingSurface.obj
 0002:0001eb24       ??_R13?0A@EA@jawt_DrawingSurface@@8 100d4b24     awt_DrawingSurface.obj
 0002:0001eb40       ??_R3jawt_DrawingSurface@@8 100d4b40     awt_DrawingSurface.obj
 0002:0001eb50       ??_R2jawt_DrawingSurface@@8 100d4b50     awt_DrawingSurface.obj
 0002:0001eb58       ??_R1A@?0A@EA@jawt_DrawingSurface@@8 100d4b58     awt_DrawingSurface.obj
 0002:0001eb74       ??_R4AwtFont@@6B@          100d4b74     awt_Font.obj
 0002:0001eb88       ??_R3AwtFont@@8            100d4b88     awt_Font.obj
 0002:0001eb98       ??_R2AwtFont@@8            100d4b98     awt_Font.obj
 0002:0001eba4       ??_R1A@?0A@EA@AwtFont@@8   100d4ba4     awt_Font.obj
 0002:0001ebc0       ??_R4CSegTableComponent@@6B@ 100d4bc0     awt_Font.obj
 0002:0001ebd4       ??_R3CSegTableComponent@@8 100d4bd4     awt_Font.obj
 0002:0001ebe4       ??_R2CSegTableComponent@@8 100d4be4     awt_Font.obj
 0002:0001ebec       ??_R1A@?0A@EA@CSegTableComponent@@8 100d4bec     awt_Font.obj
 0002:0001ec08       ??_R4CSegTable@@6B@        100d4c08     awt_Font.obj
 0002:0001ec1c       ??_R3CSegTable@@8          100d4c1c     awt_Font.obj
 0002:0001ec2c       ??_R2CSegTable@@8          100d4c2c     awt_Font.obj
 0002:0001ec38       ??_R1A@?0A@EA@CSegTable@@8 100d4c38     awt_Font.obj
 0002:0001ec54       ??_R4CStdSegTable@@6B@     100d4c54     awt_Font.obj
 0002:0001ec68       ??_R3CStdSegTable@@8       100d4c68     awt_Font.obj
 0002:0001ec78       ??_R2CStdSegTable@@8       100d4c78     awt_Font.obj
 0002:0001ec88       ??_R1A@?0A@EA@CStdSegTable@@8 100d4c88     awt_Font.obj
 0002:0001eca4       ??_R4CEUDCSegTable@@6B@    100d4ca4     awt_Font.obj
 0002:0001ecb8       ??_R3CEUDCSegTable@@8      100d4cb8     awt_Font.obj
 0002:0001ecc8       ??_R2CEUDCSegTable@@8      100d4cc8     awt_Font.obj
 0002:0001ecd8       ??_R1A@?0A@EA@CEUDCSegTable@@8 100d4cd8     awt_Font.obj
 0002:0001ecf4       ??_R4CCombinedSegTable@@6B@ 100d4cf4     awt_Font.obj
 0002:0001ed08       ??_R3CCombinedSegTable@@8  100d4d08     awt_Font.obj
 0002:0001ed18       ??_R2CCombinedSegTable@@8  100d4d18     awt_Font.obj
 0002:0001ed24       ??_R1A@?0A@EA@CCombinedSegTable@@8 100d4d24     awt_Font.obj
 0002:0001ed40       ??_R4AwtFrame@@6B@         100d4d40     awt_Frame.obj
 0002:0001ed54       ??_R4AwtLabel@@6B@         100d4d54     awt_Label.obj
 0002:0001ed68       ??_R3AwtLabel@@8           100d4d68     awt_Label.obj
 0002:0001ed78       ??_R2AwtLabel@@8           100d4d78     awt_Label.obj
 0002:0001ed88       ??_R1A@?0A@EA@AwtLabel@@8  100d4d88     awt_Label.obj
 0002:0001eda4       ??_R4AwtList@@6B@          100d4da4     awt_List.obj
 0002:0001edb8       ??_R3AwtList@@8            100d4db8     awt_List.obj
 0002:0001edc8       ??_R2AwtList@@8            100d4dc8     awt_List.obj
 0002:0001edd8       ??_R1A@?0A@EA@AwtList@@8   100d4dd8     awt_List.obj
 0002:0001edf4       ??_R4AwtMenu@@6B@          100d4df4     awt_Menu.obj
 0002:0001ee08       ??_R3AwtMenu@@8            100d4e08     awt_Menu.obj
 0002:0001ee18       ??_R2AwtMenu@@8            100d4e18     awt_Menu.obj
 0002:0001ee28       ??_R1A@?0A@EA@AwtMenu@@8   100d4e28     awt_Menu.obj
 0002:0001ee44       ??_R1A@?0A@EA@AwtMenuItem@@8 100d4e44     awt_Menu.obj
 0002:0001ee60       ??_R3AwtMenuItem@@8        100d4e60     awt_Menu.obj
 0002:0001ee70       ??_R2AwtMenuItem@@8        100d4e70     awt_Menu.obj
 0002:0001ee7c       ??_R4AwtMenuBar@@6B@       100d4e7c     awt_MenuBar.obj
 0002:0001ee90       ??_R3AwtMenuBar@@8         100d4e90     awt_MenuBar.obj
 0002:0001eea0       ??_R2AwtMenuBar@@8         100d4ea0     awt_MenuBar.obj
 0002:0001eeb4       ??_R1A@?0A@EA@AwtMenuBar@@8 100d4eb4     awt_MenuBar.obj
 0002:0001eed0       ??_R4AwtMenuItem@@6B@      100d4ed0     awt_MenuItem.obj
 0002:0001eee4       ??_R4AwtObject@@6B@        100d4ee4     awt_Object.obj
 0002:0001eef8       ??_R4AwtPopupMenu@@6B@     100d4ef8     awt_PopupMenu.obj
 0002:0001ef0c       ??_R3AwtPopupMenu@@8       100d4f0c     awt_PopupMenu.obj
 0002:0001ef1c       ??_R2AwtPopupMenu@@8       100d4f1c     awt_PopupMenu.obj
 0002:0001ef30       ??_R1A@?0A@EA@AwtPopupMenu@@8 100d4f30     awt_PopupMenu.obj
 0002:0001ef4c       ??_R4AwtPen@@6B@           100d4f4c     awt_Pen.obj
 0002:0001ef60       ??_R3AwtPen@@8             100d4f60     awt_Pen.obj
 0002:0001ef70       ??_R2AwtPen@@8             100d4f70     awt_Pen.obj
 0002:0001ef7c       ??_R1A@?0A@EA@AwtPen@@8    100d4f7c     awt_Pen.obj
 0002:0001ef98       ??_R4AwtRobot@@6B@         100d4f98     awt_Robot.obj
 0002:0001efac       ??_R3AwtRobot@@8           100d4fac     awt_Robot.obj
 0002:0001efbc       ??_R2AwtRobot@@8           100d4fbc     awt_Robot.obj
 0002:0001efc8       ??_R1A@?0A@EA@AwtRobot@@8  100d4fc8     awt_Robot.obj
 0002:0001efe4       ??_R4AwtScrollbar@@6B@     100d4fe4     awt_Scrollbar.obj
 0002:0001eff8       ??_R3AwtScrollbar@@8       100d4ff8     awt_Scrollbar.obj
 0002:0001f008       ??_R2AwtScrollbar@@8       100d5008     awt_Scrollbar.obj
 0002:0001f018       ??_R1A@?0A@EA@AwtScrollbar@@8 100d5018     awt_Scrollbar.obj
 0002:0001f034       ??_R4AwtScrollPane@@6B@    100d5034     awt_ScrollPane.obj
 0002:0001f048       ??_R3AwtScrollPane@@8      100d5048     awt_ScrollPane.obj
 0002:0001f058       ??_R2AwtScrollPane@@8      100d5058     awt_ScrollPane.obj
 0002:0001f06c       ??_R1A@?0A@EA@AwtScrollPane@@8 100d506c     awt_ScrollPane.obj
 0002:0001f088       ??_R4AwtTextArea@@6B@      100d5088     awt_TextArea.obj
 0002:0001f09c       ??_R3AwtTextArea@@8        100d509c     awt_TextArea.obj
 0002:0001f0ac       ??_R2AwtTextArea@@8        100d50ac     awt_TextArea.obj
 0002:0001f0c0       ??_R1A@?0A@EA@AwtTextArea@@8 100d50c0     awt_TextArea.obj
 0002:0001f0dc       ??_R1A@?0A@EA@AwtTextComponent@@8 100d50dc     awt_TextArea.obj
 0002:0001f0f8       ??_R3AwtTextComponent@@8   100d50f8     awt_TextArea.obj
 0002:0001f108       ??_R2AwtTextComponent@@8   100d5108     awt_TextArea.obj
 0002:0001f118       ??_R4OleCallback@AwtTextArea@@6B@ 100d5118     awt_TextArea.obj
 0002:0001f12c       ??_R3OleCallback@AwtTextArea@@8 100d512c     awt_TextArea.obj
 0002:0001f13c       ??_R2OleCallback@AwtTextArea@@8 100d513c     awt_TextArea.obj
 0002:0001f14c       ??_R1A@?0A@EA@OleCallback@AwtTextArea@@8 100d514c     awt_TextArea.obj
 0002:0001f168       ??_R1A@?0A@EA@IRichEditOleCallback@@8 100d5168     awt_TextArea.obj
 0002:0001f184       ??_R3IRichEditOleCallback@@8 100d5184     awt_TextArea.obj
 0002:0001f194       ??_R2IRichEditOleCallback@@8 100d5194     awt_TextArea.obj
 0002:0001f1a0       ??_R1A@?0A@EA@IUnknown@@8  100d51a0     awt_TextArea.obj
 0002:0001f1bc       ??_R3IUnknown@@8           100d51bc     awt_TextArea.obj
 0002:0001f1cc       ??_R2IUnknown@@8           100d51cc     awt_TextArea.obj
 0002:0001f1d4       ??_R4AwtTextComponent@@6B@ 100d51d4     awt_TextComponent.obj
 0002:0001f1e8       ??_R4AwtTextField@@6B@     100d51e8     awt_TextField.obj
 0002:0001f1fc       ??_R3AwtTextField@@8       100d51fc     awt_TextField.obj
 0002:0001f20c       ??_R2AwtTextField@@8       100d520c     awt_TextField.obj
 0002:0001f220       ??_R1A@?0A@EA@AwtTextField@@8 100d5220     awt_TextField.obj
 0002:0001f23c       ??_R4AwtWindow@@6B@        100d523c     awt_Window.obj
 0002:0001f250       ??_R4WDTCPIStreamWrapper@@6B@ 100d5250     awt_DnDDT.obj
 0002:0001f264       ??_R3WDTCPIStreamWrapper@@8 100d5264     awt_DnDDT.obj
 0002:0001f274       ??_R2WDTCPIStreamWrapper@@8 100d5274     awt_DnDDT.obj
 0002:0001f27c       ??_R1A@?0A@EA@WDTCPIStreamWrapper@@8 100d527c     awt_DnDDT.obj
 0002:0001f298       ??_R4AwtDropTarget@@6B0@@  100d5298     awt_DnDDT.obj
 0002:0001f2ac       ??_R3AwtDropTarget@@8      100d52ac     awt_DnDDT.obj
 0002:0001f2bc       ??_R2AwtDropTarget@@8      100d52bc     awt_DnDDT.obj
 0002:0001f2cc       ??_R1A@?0A@EA@AwtDropTarget@@8 100d52cc     awt_DnDDT.obj
 0002:0001f2e8       ??_R1A@33FA@IDropTarget@@8 100d52e8     awt_DnDDT.obj
 0002:0001f304       ??_R3IDropTarget@@8        100d5304     awt_DnDDT.obj
 0002:0001f314       ??_R2IDropTarget@@8        100d5314     awt_DnDDT.obj
 0002:0001f320       ??_R1A@?0A@EA@IDropTarget@@8 100d5320     awt_DnDDT.obj
 0002:0001f33c       ??_R1A@33EA@IUnknown@@8    100d533c     awt_DnDDT.obj
 0002:0001f358       ??_R4AwtDropTarget@@6BIDropTarget@@@ 100d5358     awt_DnDDT.obj
 0002:0001f36c       ??_R4zbad_alloc@std@@6B@   100d536c     awt_DnDDS.obj
 0002:0001f380       ??_R3zbad_alloc@std@@8     100d5380     awt_DnDDS.obj
 0002:0001f390       ??_R2zbad_alloc@std@@8     100d5390     awt_DnDDS.obj
 0002:0001f39c       ??_R1A@?0A@EA@zbad_alloc@std@@8 100d539c     awt_DnDDS.obj
 0002:0001f3b8       ??_R1A@?0A@EA@exception@std@@8 100d53b8     awt_DnDDS.obj
 0002:0001f3d4       ??_R3exception@std@@8      100d53d4     awt_DnDDS.obj
 0002:0001f3e4       ??_R2exception@std@@8      100d53e4     awt_DnDDS.obj
 0002:0001f3ec       ??_R4ADSIEnumFormatEtc@AwtDragSource@@6B01@@ 100d53ec     awt_DnDDS.obj
 0002:0001f400       ??_R3ADSIEnumFormatEtc@AwtDragSource@@8 100d5400     awt_DnDDS.obj
 0002:0001f410       ??_R2ADSIEnumFormatEtc@AwtDragSource@@8 100d5410     awt_DnDDS.obj
 0002:0001f420       ??_R1A@?0A@EA@ADSIEnumFormatEtc@AwtDragSource@@8 100d5420     awt_DnDDS.obj
 0002:0001f43c       ??_R1A@33FA@IEnumFORMATETC@@8 100d543c     awt_DnDDS.obj
 0002:0001f458       ??_R3IEnumFORMATETC@@8     100d5458     awt_DnDDS.obj
 0002:0001f468       ??_R2IEnumFORMATETC@@8     100d5468     awt_DnDDS.obj
 0002:0001f474       ??_R1A@?0A@EA@IEnumFORMATETC@@8 100d5474     awt_DnDDS.obj
 0002:0001f490       ??_R4ADSIEnumFormatEtc@AwtDragSource@@6BIEnumFORMATETC@@@ 100d5490     awt_DnDDS.obj
 0002:0001f4a4       ??_R4ADSIStreamProxy@AwtDragSource@@6B01@@ 100d54a4     awt_DnDDS.obj
 0002:0001f4b8       ??_R3ADSIStreamProxy@AwtDragSource@@8 100d54b8     awt_DnDDS.obj
 0002:0001f4c8       ??_R2ADSIStreamProxy@AwtDragSource@@8 100d54c8     awt_DnDDS.obj
 0002:0001f4dc       ??_R1A@?0A@EA@ADSIStreamProxy@AwtDragSource@@8 100d54dc     awt_DnDDS.obj
 0002:0001f4f8       ??_R1A@73FA@IStream@@8     100d54f8     awt_DnDDS.obj
 0002:0001f514       ??_R3IStream@@8            100d5514     awt_DnDDS.obj
 0002:0001f524       ??_R2IStream@@8            100d5524     awt_DnDDS.obj
 0002:0001f534       ??_R1A@?0A@EA@IStream@@8   100d5534     awt_DnDDS.obj
 0002:0001f550       ??_R1A@?0A@EA@ISequentialStream@@8 100d5550     awt_DnDDS.obj
 0002:0001f56c       ??_R3ISequentialStream@@8  100d556c     awt_DnDDS.obj
 0002:0001f57c       ??_R2ISequentialStream@@8  100d557c     awt_DnDDS.obj
 0002:0001f588       ??_R1A@73EA@ISequentialStream@@8 100d5588     awt_DnDDS.obj
 0002:0001f5a4       ??_R1A@73EA@IUnknown@@8    100d55a4     awt_DnDDS.obj
 0002:0001f5c0       ??_R4ADSIStreamProxy@AwtDragSource@@6BIStream@@@ 100d55c0     awt_DnDDS.obj
 0002:0001f5d4       ??_R4AwtDragSource@@6B0@@  100d55d4     awt_DnDDS.obj
 0002:0001f5e8       ??_R3AwtDragSource@@8      100d55e8     awt_DnDDS.obj
 0002:0001f5f8       ??_R2AwtDragSource@@8      100d55f8     awt_DnDDS.obj
 0002:0001f610       ??_R1A@?0A@EA@AwtDragSource@@8 100d5610     awt_DnDDS.obj
 0002:0001f62c       ??_R1A@33FA@IDropSource@@8 100d562c     awt_DnDDS.obj
 0002:0001f648       ??_R3IDropSource@@8        100d5648     awt_DnDDS.obj
 0002:0001f658       ??_R2IDropSource@@8        100d5658     awt_DnDDS.obj
 0002:0001f664       ??_R1A@?0A@EA@IDropSource@@8 100d5664     awt_DnDDS.obj
 0002:0001f680       ??_R1A@33EC@IUnknown@@8    100d5680     awt_DnDDS.obj
 0002:0001f69c       ??_R1A@37FA@IDataObject@@8 100d569c     awt_DnDDS.obj
 0002:0001f6b8       ??_R3IDataObject@@8        100d56b8     awt_DnDDS.obj
 0002:0001f6c8       ??_R2IDataObject@@8        100d56c8     awt_DnDDS.obj
 0002:0001f6d4       ??_R1A@?0A@EA@IDataObject@@8 100d56d4     awt_DnDDS.obj
 0002:0001f6f0       ??_R1A@37EC@IUnknown@@8    100d56f0     awt_DnDDS.obj
 0002:0001f70c       ??_R4AwtDragSource@@6BIDropSource@@@ 100d570c     awt_DnDDS.obj
 0002:0001f720       ??_R4AwtDragSource@@6BIDataObject@@@ 100d5720     awt_DnDDS.obj
 0002:0001f734       ??_R4AwtTrayIcon@@6B@      100d5734     awt_TrayIcon.obj
 0002:0001f748       ??_R3AwtTrayIcon@@8        100d5748     awt_TrayIcon.obj
 0002:0001f758       ??_R2AwtTrayIcon@@8        100d5758     awt_TrayIcon.obj
 0002:0001f764       ??_R1A@?0A@EA@AwtTrayIcon@@8 100d5764     awt_TrayIcon.obj
 0002:0001f780       ??_R4PreloadAction@AwtToolkit@@6B@ 100d5780     D3DPipelineManager.obj
 0002:0001f794       ??_R3PreloadAction@AwtToolkit@@8 100d5794     D3DPipelineManager.obj
 0002:0001f7a4       ??_R2PreloadAction@AwtToolkit@@8 100d57a4     D3DPipelineManager.obj
 0002:0001f7ac       ??_R1A@?0A@EA@PreloadAction@AwtToolkit@@8 100d57ac     D3DPipelineManager.obj
 0002:0001f7c8       ??_R4D3DInitializer@@6B@   100d57c8     D3DPipelineManager.obj
 0002:0001f7dc       ??_R3D3DInitializer@@8     100d57dc     D3DPipelineManager.obj
 0002:0001f7ec       ??_R2D3DInitializer@@8     100d57ec     D3DPipelineManager.obj
 0002:0001f7f8       ??_R1A@?0A@EA@D3DInitializer@@8 100d57f8     D3DPipelineManager.obj
 0002:0001f814       ??_R4D3DAdapterInitializer@D3DInitializer@@6B@ 100d5814     D3DPipelineManager.obj
 0002:0001f828       ??_R3D3DAdapterInitializer@D3DInitializer@@8 100d5828     D3DPipelineManager.obj
 0002:0001f838       ??_R2D3DAdapterInitializer@D3DInitializer@@8 100d5838     D3DPipelineManager.obj
 0002:0001f844       ??_R1A@?0A@EA@D3DAdapterInitializer@D3DInitializer@@8 100d5844     D3DPipelineManager.obj
 0002:0001f860       ??_R4IManagedResource@@6B@ 100d5860     D3DResourceManager.obj
 0002:0001f874       ??_R3IManagedResource@@8   100d5874     D3DResourceManager.obj
 0002:0001f884       ??_R2IManagedResource@@8   100d5884     D3DResourceManager.obj
 0002:0001f88c       ??_R1A@?0A@EA@IManagedResource@@8 100d588c     D3DResourceManager.obj
 0002:0001f8a8       ??_R4D3DResource@@6B@      100d58a8     D3DResourceManager.obj
 0002:0001f8bc       ??_R3D3DResource@@8        100d58bc     D3DResourceManager.obj
 0002:0001f8cc       ??_R2D3DResource@@8        100d58cc     D3DResourceManager.obj
 0002:0001f8d8       ??_R1A@?0A@EA@D3DResource@@8 100d58d8     D3DResourceManager.obj
 0002:0001f8f4       ??_R4DllUtil@@6B@          100d58f4     DllUtil.obj
 0002:0001f908       ??_R3DllUtil@@8            100d5908     DllUtil.obj
 0002:0001f918       ??_R2DllUtil@@8            100d5918     DllUtil.obj
 0002:0001f920       ??_R1A@?0A@EA@DllUtil@@8   100d5920     DllUtil.obj
 0002:0001f93c       ??_R4DwmAPI@@6B@           100d593c     DllUtil.obj
 0002:0001f950       ??_R3DwmAPI@@8             100d5950     DllUtil.obj
 0002:0001f960       ??_R2DwmAPI@@8             100d5960     DllUtil.obj
 0002:0001f96c       ??_R1A@?0A@EA@DwmAPI@@8    100d596c     DllUtil.obj
 0002:0001f988       ??_R4type_info@@6B@        100d5988     MSVCRT:ti_inst.obj
 0002:0001f99c       ??_R3type_info@@8          100d599c     MSVCRT:ti_inst.obj
 0002:0001f9ac       ??_R2type_info@@8          100d59ac     MSVCRT:ti_inst.obj
 0002:0001f9b4       ??_R1A@?0A@EA@type_info@@8 100d59b4     MSVCRT:ti_inst.obj
 0002:0001f9d0       ??_R4logic_error@std@@6B@  100d59d0     libcpmt:xthrow.obj
 0002:0001f9e4       ??_R3logic_error@std@@8    100d59e4     libcpmt:xthrow.obj
 0002:0001f9f4       ??_R2logic_error@std@@8    100d59f4     libcpmt:xthrow.obj
 0002:0001fa00       ??_R1A@?0A@EA@logic_error@std@@8 100d5a00     libcpmt:xthrow.obj
 0002:0001fa1c       ??_R4length_error@std@@6B@ 100d5a1c     libcpmt:xthrow.obj
 0002:0001fa30       ??_R3length_error@std@@8   100d5a30     libcpmt:xthrow.obj
 0002:0001fa40       ??_R2length_error@std@@8   100d5a40     libcpmt:xthrow.obj
 0002:0001fa50       ??_R1A@?0A@EA@length_error@std@@8 100d5a50     libcpmt:xthrow.obj
 0002:0001fa6c       ??_R4out_of_range@std@@6B@ 100d5a6c     libcpmt:xthrow.obj
 0002:0001fa80       ??_R3out_of_range@std@@8   100d5a80     libcpmt:xthrow.obj
 0002:0001fa90       ??_R2out_of_range@std@@8   100d5a90     libcpmt:xthrow.obj
 0002:0001faa0       ??_R1A@?0A@EA@out_of_range@std@@8 100d5aa0     libcpmt:xthrow.obj
 0002:0001fac0       ___safe_se_handler_table   100d5ac0     <linker-defined>
 0002:00020260       ___rtc_iaa                 100d6260     MSVCRT:_initsect_.obj
 0002:00020264       ___rtc_izz                 100d6264     MSVCRT:_initsect_.obj
 0002:00020268       ___rtc_taa                 100d6268     MSVCRT:_initsect_.obj
 0002:0002026c       ___rtc_tzz                 100d626c     MSVCRT:_initsect_.obj
 0002:0002040c       __TI1?AVawt_toolkit_shutdown@@ 100d640c     GDIWindowSurfaceData.obj
 0002:0002041c       __CTA1?AVawt_toolkit_shutdown@@ 100d641c     GDIWindowSurfaceData.obj
 0002:00020424       __CT??_R0?AVawt_toolkit_shutdown@@@81 100d6424     GDIWindowSurfaceData.obj
 0002:00020500       __TI1?AVbad_alloc@std@@    100d6500     WPrinterJob.obj
 0002:000205ac       __CTA1?AVbad_alloc@std@@   100d65ac     WPrinterJob.obj
 0002:000205b4       __CT??_R0?AVbad_alloc@std@@@81 100d65b4     WPrinterJob.obj
 0002:0002b8d4       __TI2?AVzbad_alloc@std@@   100e18d4     awt_DnDDS.obj
 0002:0002b8e4       __CTA2?AVzbad_alloc@std@@  100e18e4     awt_DnDDS.obj
 0002:0002b8f0       __CT??_R0?AVzbad_alloc@std@@@8??0zbad_alloc@std@@QAE@ABV01@@Z12 100e18f0     awt_DnDDS.obj
 0002:0002b90c       __CT??_R0?AVexception@std@@@8??0exception@std@@QAE@ABV01@@Z12 100e190c     awt_DnDDS.obj
 0002:0002c41c       __TI2?AVLibraryUnavailableException@DllUtil@@ 100e241c     DllUtil.obj
 0002:0002c42c       __CTA2?AVLibraryUnavailableException@DllUtil@@ 100e242c     DllUtil.obj
 0002:0002c438       __CT??_R0?AVLibraryUnavailableException@DllUtil@@@81 100e2438     DllUtil.obj
 0002:0002c454       __CT??_R0?AVException@DllUtil@@@81 100e2454     DllUtil.obj
 0002:0002c470       __TI2?AVFunctionUnavailableException@DllUtil@@ 100e2470     DllUtil.obj
 0002:0002c480       __CTA2?AVFunctionUnavailableException@DllUtil@@ 100e2480     DllUtil.obj
 0002:0002c48c       __CT??_R0?AVFunctionUnavailableException@DllUtil@@@81 100e248c     DllUtil.obj
 0002:0002c58c       __TI1?AV_com_error@@       100e258c     comsupp:comraise.obj
 0002:0002c59c       __CTA1?AV_com_error@@      100e259c     comsupp:comraise.obj
 0002:0002c5a4       __CT??_R0?AV_com_error@@@8??0_com_error@@QAE@ABV0@@Z16 100e25a4     comsupp:comraise.obj
 0002:0002c5c0       __CT??_R0?AVlogic_error@std@@@8??0logic_error@std@@QAE@ABV01@@Z12 100e25c0     libcpmt:xthrow.obj
 0002:0002c5dc       __TI3?AVlength_error@std@@ 100e25dc     libcpmt:xthrow.obj
 0002:0002c5ec       __CTA3?AVlength_error@std@@ 100e25ec     libcpmt:xthrow.obj
 0002:0002c5fc       __CT??_R0?AVlength_error@std@@@8??0length_error@std@@QAE@ABV01@@Z12 100e25fc     libcpmt:xthrow.obj
 0002:0002c618       __TI3?AVout_of_range@std@@ 100e2618     libcpmt:xthrow.obj
 0002:0002c628       __CTA3?AVout_of_range@std@@ 100e2628     libcpmt:xthrow.obj
 0002:0002c638       __CT??_R0?AVout_of_range@std@@@8??0out_of_range@std@@QAE@ABV01@@Z12 100e2638     libcpmt:xthrow.obj
 0002:0002c654       __DELAY_IMPORT_DESCRIPTOR_USER32_dll 100e2654     user32:USER32.dll
 0002:0002c674       __DELAY_IMPORT_DESCRIPTOR_GDI32_dll 100e2674     gdi32:GDI32.dll
 0002:0002c694       __DELAY_IMPORT_DESCRIPTOR_WINSPOOL_DRV 100e2694     winspool:WINSPOOL.DRV
 0002:0002c6b4       __DELAY_IMPORT_DESCRIPTOR_IMM32_dll 100e26b4     imm32:IMM32.dll
 0002:0002c6d4       __DELAY_IMPORT_DESCRIPTOR_ole32_dll 100e26d4     ole32:ole32.dll
 0002:0002c6f4       __DELAY_IMPORT_DESCRIPTOR_SHELL32_dll 100e26f4     shell32:SHELL32.dll
 0002:0002c714       __DELAY_IMPORT_DESCRIPTOR_COMDLG32_dll 100e2714     comdlg32:COMDLG32.dll
 0002:0002c734       __DELAY_IMPORT_DESCRIPTOR_WINMM_dll 100e2734     winmm:WINMM.dll
 0002:0002c754       __DELAY_IMPORT_DESCRIPTOR_COMCTL32_dll 100e2754     comctl32:COMCTL32.dll
 0002:0002c774       __DELAY_IMPORT_DESCRIPTOR_SHLWAPI_dll 100e2774     shlwapi:SHLWAPI.dll
 0002:0002c794       __NULL_DELAY_IMPORT_DESCRIPTOR 100e2794     user32:USER32.dll
 0002:0002c7cc       \177COMCTL32_NULL_THUNK_DATA_DLN 100e27cc     comctl32:COMCTL32.dll
 0002:0002c7e4       \177COMDLG32_NULL_THUNK_DATA_DLN 100e27e4     comdlg32:COMDLG32.dll
 0002:0002c99c       \177GDI32_NULL_THUNK_DATA_DLN 100e299c     gdi32:GDI32.dll
 0002:0002c9dc       \177IMM32_NULL_THUNK_DATA_DLN 100e29dc     imm32:IMM32.dll
 0002:0002c9f8       \177SHELL32_NULL_THUNK_DATA_DLN 100e29f8     shell32:SHELL32.dll
 0002:0002ca00       \177SHLWAPI_NULL_THUNK_DATA_DLN 100e2a00     shlwapi:SHLWAPI.dll
 0002:0002ccdc       \177USER32_NULL_THUNK_DATA_DLN 100e2cdc     user32:USER32.dll
 0002:0002cce4       \177WINMM_NULL_THUNK_DATA_DLN 100e2ce4     winmm:WINMM.dll
 0002:0002cd20       \177WINSPOOL_NULL_THUNK_DATA_DLN 100e2d20     winspool:WINSPOOL.DRV
 0002:0002cd5c       \177ole32_NULL_THUNK_DATA_DLN 100e2d5c     ole32:ole32.dll
 0002:0002e514       \177USER32_NULL_THUNK_DATA_DLB 100e4514     user32:USER32.dll
 0002:0002e7f0       \177GDI32_NULL_THUNK_DATA_DLB 100e47f0     gdi32:GDI32.dll
 0002:0002e9a8       \177WINSPOOL_NULL_THUNK_DATA_DLB 100e49a8     winspool:WINSPOOL.DRV
 0002:0002e9e4       \177IMM32_NULL_THUNK_DATA_DLB 100e49e4     imm32:IMM32.dll
 0002:0002ea24       \177ole32_NULL_THUNK_DATA_DLB 100e4a24     ole32:ole32.dll
 0002:0002ea60       \177SHELL32_NULL_THUNK_DATA_DLB 100e4a60     shell32:SHELL32.dll
 0002:0002ea7c       \177COMDLG32_NULL_THUNK_DATA_DLB 100e4a7c     comdlg32:COMDLG32.dll
 0002:0002ea94       \177WINMM_NULL_THUNK_DATA_DLB 100e4a94     winmm:WINMM.dll
 0002:0002ea9c       \177COMCTL32_NULL_THUNK_DATA_DLB 100e4a9c     comctl32:COMCTL32.dll
 0002:0002eab8       \177SHLWAPI_NULL_THUNK_DATA_DLB 100e4ab8     shlwapi:SHLWAPI.dll
 0002:0002eabc       __IMPORT_DESCRIPTOR_java   100e4abc     java:java.dll
 0002:0002ead0       __IMPORT_DESCRIPTOR_KERNEL32 100e4ad0     kernel32:KERNEL32.dll
 0002:0002eae4       __IMPORT_DESCRIPTOR_jvm    100e4ae4     jvm:jvm.dll
 0002:0002eaf8       __IMPORT_DESCRIPTOR_ADVAPI32 100e4af8     advapi32:ADVAPI32.dll
 0002:0002eb0c       __IMPORT_DESCRIPTOR_MSVCR100 100e4b0c     MSVCRT:MSVCR100.dll
 0002:0002eb20       __IMPORT_DESCRIPTOR_OLEAUT32 100e4b20     oleaut32:OLEAUT32.dll
 0002:0002eb34       __NULL_IMPORT_DESCRIPTOR   100e4b34     java:java.dll
 0003:00000010       _PrimitiveTypes            100f1010     GraphicsPrimitiveMgr.obj
 0003:00000178       _SurfaceTypes              100f1178     GraphicsPrimitiveMgr.obj
 0003:000003d0       _CompositeTypes            100f13d0     GraphicsPrimitiveMgr.obj
 0003:00000440       _pBilinearFunc             100f1440     TransformHelper.obj
 0003:00000444       _pBicubicFunc              100f1444     TransformHelper.obj
 0003:00000448       _AlphaRules                100f1448     AlphaMacros.obj
 0003:000004b0       _AnyByteSetParallelogramFuncs 100f14b0     AnyByte.obj
 0003:000004b8       _AnyBytePrimitives         100f14b8     AnyByte.obj
 0003:00000718       _ByteBinary1BitPrimitives  100f1718     ByteBinary1Bit.obj
 0003:00000a38       _ByteBinary2BitPrimitives  100f1a38     ByteBinary2Bit.obj
 0003:00000d58       _ByteBinary4BitPrimitives  100f1d58     ByteBinary4Bit.obj
 0003:00001078       _ByteIndexedTransformHelperFuncs 100f2078     ByteIndexed.obj
 0003:00001084       _ByteIndexedBmTransformHelperFuncs 100f2084     ByteIndexed.obj
 0003:00001090       _ByteIndexedPrimitives     100f2090     ByteIndexed.obj
 0003:00001410       _ByteGrayTransformHelperFuncs 100f2410     ByteGray.obj
 0003:00001420       _ByteGrayPrimitives        100f2420     ByteGray.obj
 0003:000018e0       _Index8GrayTransformHelperFuncs 100f28e0     Index8Gray.obj
 0003:000018f0       _Index8GrayPrimitives      100f28f0     Index8Gray.obj
 0003:00001c50       _Index12GrayTransformHelperFuncs 100f2c50     Index12Gray.obj
 0003:00001c60       _Index12GrayPrimitives     100f2c60     Index12Gray.obj
 0003:00001fe0       _AnyShortSetParallelogramFuncs 100f2fe0     AnyShort.obj
 0003:00001fe8       _AnyShortPrimitives        100f2fe8     AnyShort.obj
 0003:00002248       _Ushort555RgbPrimitives    100f3248     Ushort555Rgb.obj
 0003:00002688       _Ushort565RgbPrimitives    100f3688     Ushort565Rgb.obj
 0003:00002ae8       _Ushort4444ArgbPrimitives  100f3ae8     Ushort4444Argb.obj
 0003:00002b28       _Ushort555RgbxPrimitives   100f3b28     Ushort555Rgbx.obj
 0003:00002de8       _UshortGrayPrimitives      100f3de8     UshortGray.obj
 0003:00003188       _UshortIndexedPrimitives   100f4188     UshortIndexed.obj
 0003:00003548       _Any3ByteSetParallelogramFuncs 100f4548     Any3Byte.obj
 0003:00003550       _Any3BytePrimitives        100f4550     Any3Byte.obj
 0003:000037b0       _ThreeByteBgrTransformHelperFuncs 100f47b0     ThreeByteBgr.obj
 0003:000037c0       _ThreeByteBgrPrimitives    100f47c0     ThreeByteBgr.obj
 0003:00003be0       _AnyIntSetParallelogramFuncs 100f4be0     AnyInt.obj
 0003:00003be8       _AnyIntPrimitives          100f4be8     AnyInt.obj
 0003:00003e48       _IntArgbTransformHelperFuncs 100f4e48     IntArgb.obj
 0003:00003e58       _IntArgbPrimitives         100f4e58     IntArgb.obj
 0003:000040f8       _IntArgbPreTransformHelperFuncs 100f50f8     IntArgbPre.obj
 0003:00004108       _IntArgbPrePrimitives      100f5108     IntArgbPre.obj
 0003:000044a8       _IntArgbBmTransformHelperFuncs 100f54a8     IntArgbBm.obj
 0003:000044b8       _IntArgbBmPrimitives       100f54b8     IntArgbBm.obj
 0003:000046f8       _IntRgbTransformHelperFuncs 100f56f8     IntRgb.obj
 0003:00004708       _IntRgbPrimitives          100f5708     IntRgb.obj
 0003:00004b68       _IntBgrTransformHelperFuncs 100f5b68     IntBgr.obj
 0003:00004b78       _IntBgrPrimitives          100f5b78     IntBgr.obj
 0003:000050b8       _IntRgbxTransformHelperFuncs 100f60b8     IntRgbx.obj
 0003:000050c8       _IntRgbxPrimitives         100f60c8     IntRgbx.obj
 0003:000054a8       _Any4ByteSetParallelogramFuncs 100f64a8     Any4Byte.obj
 0003:000054b0       _Any4BytePrimitives        100f64b0     Any4Byte.obj
 0003:00005710       _FourByteAbgrTransformHelperFuncs 100f6710     FourByteAbgr.obj
 0003:00005720       _FourByteAbgrPrimitives    100f6720     FourByteAbgr.obj
 0003:00005ae0       _FourByteAbgrPreTransformHelperFuncs 100f6ae0     FourByteAbgrPre.obj
 0003:00005af0       _FourByteAbgrPrePrimitives 100f6af0     FourByteAbgrPre.obj
 0003:00005f00       _StdBlendRules             100f6f00     OGLContext.obj
 0003:00005f80       _PixelFormats              100f6f80     OGLSurfaceData.obj
 0003:00006050       ??_R0?AVCriticalSection@@@8 100f7050     CmdIDList.obj
 0003:00006070       ??_R0?AVHashtable@@@8      100f7070     Hashtable.obj
 0003:00006088       ??_R0?AVD3DContext@@@8     100f7088     Devices.obj
 0003:000060a4       ?arrayLock@Devices@@0VCriticalSection@@A 100f70a4     Devices.obj
 0003:000060c0       ?theAwtObjectList@@3VAwtObjectList@@A 100f70c0     ObjectList.obj
 0003:000060e8       _threadInfoIndex           100f70e8     GDIWindowSurfaceData.obj
 0003:000060ec       ??_R0?AVawt_toolkit_shutdown@@@8 100f70ec     GDIWindowSurfaceData.obj
 0003:00006110       ?useD3D@@3HA               100f7110     WindowsFlags.obj
 0003:00006118       ??_R0?AVbad_alloc@std@@@8  100f7118     WPrinterJob.obj
 0003:00006138       ??_R0?AVGDIHashtable@@@8   100f7138     awt_Brush.obj
 0003:00006154       ??_R0?AVAwtGDIObject@@@8   100f7154     awt_Brush.obj
 0003:00006170       ??_R0?AVAwtBrush@@@8       100f7170     awt_Brush.obj
 0003:00006198       ??_R0?AVAwtButton@@@8      100f7198     awt_Button.obj
 0003:000061b0       ??_R0?AVAwtComponent@@@8   100f71b0     awt_Button.obj
 0003:000061cc       ??_R0?AVAwtObject@@@8      100f71cc     awt_Button.obj
 0003:000061f4       ??_R0?AVAwtCanvas@@@8      100f71f4     awt_Canvas.obj
 0003:0000621c       ??_R0?AVAwtCheckbox@@@8    100f721c     awt_Checkbox.obj
 0003:00006244       ??_R0?AVAwtChoice@@@8      100f7244     awt_Choice.obj
 0003:0000625c       ?skipInitialWmDrawClipboardMsg@AwtClipboard@@0HC 100f725c     awt_Clipboard.obj
 0003:00006270       ?szAwtComponentClassName@@3PBGB 100f7270     awt_Component.obj
 0003:00006278       ?keyMapTable@@3PAUKeyMapEntry@@A 100f7278     awt_Component.obj
 0003:000066c0       ?windowMoveLock@@3VCriticalSection@@A 100f76c0     awt_Component.obj
 0003:000066ec       ??_R0?AVAwtCursor@@@8      100f76ec     awt_Cursor.obj
 0003:00006738       ??_R0?AVAwtDialog@@@8      100f7738     awt_Dialog.obj
 0003:00006750       ??_R0?AVAwtFrame@@@8       100f7750     awt_Dialog.obj
 0003:00006768       ??_R0?AVAwtWindow@@@8      100f7768     awt_Dialog.obj
 0003:00006784       ??_R0?AVJAWTDrawingSurface@@@8 100f7784     awt_DrawingSurface.obj
 0003:000067a8       ??_R0?AUjawt_DrawingSurface@@@8 100f77a8     awt_DrawingSurface.obj
 0003:000067e4       ?m_fEUDCSubKeyExist@CCombinedSegTable@@0HA 100f77e4     awt_Font.obj
 0003:000067e8       ?m_fTTEUDCFileExist@CCombinedSegTable@@0HA 100f77e8     awt_Font.obj
 0003:000067ec       ??_R0?AVAwtFont@@@8        100f77ec     awt_Font.obj
 0003:00006804       ??_R0?AVCSegTableComponent@@@8 100f7804     awt_Font.obj
 0003:00006828       ??_R0?AVCSegTable@@@8      100f7828     awt_Font.obj
 0003:00006840       ??_R0?AVCStdSegTable@@@8   100f7840     awt_Font.obj
 0003:0000685c       ??_R0?AVCEUDCSegTable@@@8  100f785c     awt_Font.obj
 0003:00006878       ??_R0?AVCCombinedSegTable@@@8 100f7878     awt_Font.obj
 0003:000068b8       ??_R0?AVAwtLabel@@@8       100f78b8     awt_Label.obj
 0003:000068e0       ??_R0?AVAwtList@@@8        100f78e0     awt_List.obj
 0003:00006908       ??_R0?AVAwtMenu@@@8        100f7908     awt_Menu.obj
 0003:00006920       ??_R0?AVAwtMenuItem@@@8    100f7920     awt_Menu.obj
 0003:0000694c       ??_R0?AVAwtMenuBar@@@8     100f794c     awt_MenuBar.obj
 0003:00006974       ?m_useCustomPalette@AwtPalette@@0HA 100f7974     awt_Palette.obj
 0003:00006978       ?customPalette@AwtPalette@@0PAUtagPALETTEENTRY@@A 100f7978     awt_Palette.obj
 0003:00006d3c       ??_R0?AVAwtPopupMenu@@@8   100f7d3c     awt_PopupMenu.obj
 0003:00006d58       ??_R0?AVAwtPen@@@8         100f7d58     awt_Pen.obj
 0003:00006e6c       ??_R0?AVAwtRobot@@@8       100f7e6c     awt_Robot.obj
 0003:00006e94       ??_R0?AVAwtScrollbar@@@8   100f7e94     awt_Scrollbar.obj
 0003:00006ec0       ??_R0?AVAwtScrollPane@@@8  100f7ec0     awt_ScrollPane.obj
 0003:00006eec       ?sm_oleCallback@AwtTextArea@@0VOleCallback@1@A 100f7eec     awt_TextArea.obj
 0003:00006ef4       ??_R0?AVAwtTextArea@@@8    100f7ef4     awt_TextArea.obj
 0003:00006f10       ??_R0?AVAwtTextComponent@@@8 100f7f10     awt_TextArea.obj
 0003:00006f34       ??_R0?AVOleCallback@AwtTextArea@@@8 100f7f34     awt_TextArea.obj
 0003:00006f5c       ??_R0?AUIRichEditOleCallback@@@8 100f7f5c     awt_TextArea.obj
 0003:00006f80       ??_R0?AUIUnknown@@@8       100f7f80     awt_TextArea.obj
 0003:00006fa0       ??_R0?AVAwtTextField@@@8   100f7fa0     awt_TextField.obj
 0003:00006fd0       ??_R0?AVException@DllUtil@@@8 100f7fd0     awt_Toolkit.obj
 0003:00007094       ??_R0?AVWDTCPIStreamWrapper@@@8 100f8094     awt_DnDDT.obj
 0003:000070b8       ??_R0?AV_com_error@@@8     100f80b8     awt_DnDDT.obj
 0003:000070d4       ??_R0?AVAwtDropTarget@@@8  100f80d4     awt_DnDDT.obj
 0003:000070f0       ??_R0?AUIDropTarget@@@8    100f80f0     awt_DnDDT.obj
 0003:0000713c       ??_R0?AVzbad_alloc@std@@@8 100f813c     awt_DnDDS.obj
 0003:0000715c       ??_R0?AVexception@std@@@8  100f815c     awt_DnDDS.obj
 0003:00007178       ??_R0?AVADSIEnumFormatEtc@AwtDragSource@@@8 100f8178     awt_DnDDS.obj
 0003:000071a8       ??_R0?AUIEnumFORMATETC@@@8 100f81a8     awt_DnDDS.obj
 0003:000071c8       ??_R0?AVADSIStreamProxy@AwtDragSource@@@8 100f81c8     awt_DnDDS.obj
 0003:000071f4       ??_R0?AUIStream@@@8        100f81f4     awt_DnDDS.obj
 0003:0000720c       ??_R0?AUISequentialStream@@@8 100f820c     awt_DnDDS.obj
 0003:0000722c       ??_R0?AVAwtDragSource@@@8  100f822c     awt_DnDDS.obj
 0003:00007248       ??_R0?AUIDropSource@@@8    100f8248     awt_DnDDS.obj
 0003:00007264       ??_R0?AUIDataObject@@@8    100f8264     awt_DnDDS.obj
 0003:00007284       ??_R0?AVAwtTrayIcon@@@8    100f8284     awt_TrayIcon.obj
 0003:000072a0       ?rescaleShaders@@3PAPBKA   100f82a0     D3DContext.obj
 0003:000072a8       ?convolveShaders@@3PAPBKA  100f82a8     D3DContext.obj
 0003:000072b8       ?lookupShaders@@3PAPBKA    100f82b8     D3DContext.obj
 0003:000072c8       ?gradShaders@@3PAPBKA      100f82c8     D3DContext.obj
 0003:000072d8       ?linearShaders@@3PAPBKA    100f82d8     D3DContext.obj
 0003:00007358       ?radialShaders@@3PAPBKA    100f8358     D3DContext.obj
 0003:000073d8       ?StdBlendRules@@3PAUD3DBlendRule@@A 100f83d8     D3DContext.obj
 0003:00007458       ??_R0?AVPreloadAction@AwtToolkit@@@8 100f8458     D3DPipelineManager.obj
 0003:00007490       ??_R0?AVD3DInitializer@@@8 100f8490     D3DPipelineManager.obj
 0003:000074b0       ??_R0?AVD3DAdapterInitializer@D3DInitializer@@@8 100f84b0     D3DPipelineManager.obj
 0003:000074e4       ?theInstance@D3DInitializer@@0V1@A 100f84e4     D3DPipelineManager.obj
 0003:00007514       ??_R0?AVIManagedResource@@@8 100f8514     D3DResourceManager.obj
 0003:00007534       ??_R0?AVD3DResource@@@8    100f8534     D3DResourceManager.obj
 0003:00007568       ??_R0?AVDllUtil@@@8        100f8568     DllUtil.obj
 0003:00007580       ??_R0?AVLibraryUnavailableException@DllUtil@@@8 100f8580     DllUtil.obj
 0003:000075b4       ??_R0?AVDwmAPI@@@8         100f85b4     DllUtil.obj
 0003:000075cc       ??_R0?AVFunctionUnavailableException@DllUtil@@@8 100f85cc     DllUtil.obj
 0003:00007610       ___security_cookie         100f8610     MSVCRT:gs_cookie.obj
 0003:00007614       ___security_cookie_complement 100f8614     MSVCRT:gs_cookie.obj
 0003:00007620       ??_R0?AVtype_info@@@8      100f8620     MSVCRT:ti_inst.obj
 0003:00007640       ___native_dllmain_reason   100f8640     MSVCRT:natstart.obj
 0003:00007644       ___native_vcclrit_reason   100f8644     MSVCRT:natstart.obj
 0003:00007648       ?vtMissing@@3V_variant_t@@A 100f8648     comsupp:comutil.obj
 0003:00007658       ?__errorPfn@@3P6GXJPAUIErrorInfo@@@ZA 100f8658     comsupp:comsupp.obj
 0003:0000765c       ??_R0?AVlogic_error@std@@@8 100f865c     libcpmt:xthrow.obj
 0003:0000767c       ??_R0?AVlength_error@std@@@8 100f867c     libcpmt:xthrow.obj
 0003:0000769c       ??_R0?AVout_of_range@std@@@8 100f869c     libcpmt:xthrow.obj
 0003:000076c0       __imp__RemoveWindowSubclass@12 100f86c0     comctl32:COMCTL32.dll
 0003:000076c4       __imp__DefSubclassProc@16  100f86c4     comctl32:COMCTL32.dll
 0003:000076c8       __imp__InitCommonControlsEx@4 100f86c8     comctl32:COMCTL32.dll
 0003:000076cc       __imp__ImageList_GetIcon@12 100f86cc     comctl32:COMCTL32.dll
 0003:000076d0       __imp__ImageList_Destroy@4 100f86d0     comctl32:COMCTL32.dll
 0003:000076d4       __imp__SetWindowSubclass@16 100f86d4     comctl32:COMCTL32.dll
 0003:000076d8       \177COMCTL32_NULL_THUNK_DATA_DLA 100f86d8     comctl32:COMCTL32.dll
 0003:000076dc       __imp__PageSetupDlgW@4     100f86dc     comdlg32:COMDLG32.dll
 0003:000076e0       __imp__CommDlgExtendedError@0 100f86e0     comdlg32:COMDLG32.dll
 0003:000076e4       __imp__GetSaveFileNameW@4  100f86e4     comdlg32:COMDLG32.dll
 0003:000076e8       __imp__GetOpenFileNameW@4  100f86e8     comdlg32:COMDLG32.dll
 0003:000076ec       __imp__PrintDlgW@4         100f86ec     comdlg32:COMDLG32.dll
 0003:000076f0       \177COMDLG32_NULL_THUNK_DATA_DLA 100f86f0     comdlg32:COMDLG32.dll
 0003:000076f4       __imp__Polygon@12          100f86f4     gdi32:GDI32.dll
 0003:000076f8       __imp__SetPolyFillMode@8   100f86f8     gdi32:GDI32.dll
 0003:000076fc       __imp__AbortPath@4         100f86fc     gdi32:GDI32.dll
 0003:00007700       __imp__StrokePath@4        100f8700     gdi32:GDI32.dll
 0003:00007704       __imp__Pie@36              100f8704     gdi32:GDI32.dll
 0003:00007708       __imp__EndPath@4           100f8708     gdi32:GDI32.dll
 0003:0000770c       __imp__CloseFigure@4       100f870c     gdi32:GDI32.dll
 0003:00007710       __imp__PolyBezierTo@12     100f8710     gdi32:GDI32.dll
 0003:00007714       __imp__BeginPath@4         100f8714     gdi32:GDI32.dll
 0003:00007718       __imp__DeleteObject@4      100f8718     gdi32:GDI32.dll
 0003:0000771c       __imp__Polyline@12         100f871c     gdi32:GDI32.dll
 0003:00007720       __imp__Arc@36              100f8720     gdi32:GDI32.dll
 0003:00007724       __imp__Ellipse@20          100f8724     gdi32:GDI32.dll
 0003:00007728       __imp__RoundRect@28        100f8728     gdi32:GDI32.dll
 0003:0000772c       __imp__LineTo@12           100f872c     gdi32:GDI32.dll
 0003:00007730       __imp__MoveToEx@16         100f8730     gdi32:GDI32.dll
 0003:00007734       __imp__PatBlt@24           100f8734     gdi32:GDI32.dll
 0003:00007738       __imp__SetDIBitsToDevice@48 100f8738     gdi32:GDI32.dll
 0003:0000773c       __imp__SwapBuffers@4       100f873c     gdi32:GDI32.dll
 0003:00007740       __imp__ChoosePixelFormat@8 100f8740     gdi32:GDI32.dll
 0003:00007744       __imp__FillPath@4          100f8744     gdi32:GDI32.dll
 0003:00007748       __imp__SetMapMode@8        100f8748     gdi32:GDI32.dll
 0003:0000774c       __imp__CombineRgn@16       100f874c     gdi32:GDI32.dll
 0003:00007750       __imp__DescribePixelFormat@16 100f8750     gdi32:GDI32.dll
 0003:00007754       __imp__RemoveFontResourceExW@12 100f8754     gdi32:GDI32.dll
 0003:00007758       __imp__AddFontResourceExW@12 100f8758     gdi32:GDI32.dll
 0003:0000775c       __imp__CreateICW@16        100f875c     gdi32:GDI32.dll
 0003:00007760       __imp__GetObjectW@12       100f8760     gdi32:GDI32.dll
 0003:00007764       __imp__CreateCompatibleBitmap@12 100f8764     gdi32:GDI32.dll
 0003:00007768       __imp__GetPixel@12         100f8768     gdi32:GDI32.dll
 0003:0000776c       __imp__StartPage@4         100f876c     gdi32:GDI32.dll
 0003:00007770       __imp__StartDocW@8         100f8770     gdi32:GDI32.dll
 0003:00007774       __imp__EnumFontFamiliesExW@20 100f8774     gdi32:GDI32.dll
 0003:00007778       __imp__ExtCreatePen@20     100f8778     gdi32:GDI32.dll
 0003:0000777c       __imp__SelectClipPath@8    100f877c     gdi32:GDI32.dll
 0003:00007780       __imp__GetCurrentPositionEx@8 100f8780     gdi32:GDI32.dll
 0003:00007784       __imp__EndPage@4           100f8784     gdi32:GDI32.dll
 0003:00007788       __imp__AbortDoc@4          100f8788     gdi32:GDI32.dll
 0003:0000778c       __imp__EndDoc@4            100f878c     gdi32:GDI32.dll
 0003:00007790       __imp__CreatePen@12        100f8790     gdi32:GDI32.dll
 0003:00007794       __imp__GetSystemPaletteEntries@16 100f8794     gdi32:GDI32.dll
 0003:00007798       __imp__GetNearestColor@8   100f8798     gdi32:GDI32.dll
 0003:0000779c       __imp__SetTextAlign@8      100f879c     gdi32:GDI32.dll
 0003:000077a0       __imp__StretchBlt@44       100f87a0     gdi32:GDI32.dll
 0003:000077a4       __imp__ExtTextOutW@32      100f87a4     gdi32:GDI32.dll
 0003:000077a8       __imp__TextOutW@20         100f87a8     gdi32:GDI32.dll
 0003:000077ac       __imp__GetTextExtentPoint32W@16 100f87ac     gdi32:GDI32.dll
 0003:000077b0       __imp__TextOutA@20         100f87b0     gdi32:GDI32.dll
 0003:000077b4       __imp__GetTextExtentPoint32A@16 100f87b4     gdi32:GDI32.dll
 0003:000077b8       __imp__GetCharWidthW@16    100f87b8     gdi32:GDI32.dll
 0003:000077bc       __imp__GetFontData@20      100f87bc     gdi32:GDI32.dll
 0003:000077c0       __imp__CreateFontIndirectW@4 100f87c0     gdi32:GDI32.dll
 0003:000077c4       __imp__GetTextFaceW@12     100f87c4     gdi32:GDI32.dll
 0003:000077c8       __imp__DPtoLP@12           100f87c8     gdi32:GDI32.dll
 0003:000077cc       __imp__CreateEnhMetaFileW@16 100f87cc     gdi32:GDI32.dll
 0003:000077d0       __imp__CloseEnhMetaFile@4  100f87d0     gdi32:GDI32.dll
 0003:000077d4       __imp__CreateMetaFileW@4   100f87d4     gdi32:GDI32.dll
 0003:000077d8       __imp__CloseMetaFile@4     100f87d8     gdi32:GDI32.dll
 0003:000077dc       __imp__GetEnhMetaFileHeader@12 100f87dc     gdi32:GDI32.dll
 0003:000077e0       __imp__SetPixelFormat@12   100f87e0     gdi32:GDI32.dll
 0003:000077e4       __imp__LPtoDP@12           100f87e4     gdi32:GDI32.dll
 0003:000077e8       __imp__CreatePalette@4     100f87e8     gdi32:GDI32.dll
 0003:000077ec       __imp__SelectPalette@12    100f87ec     gdi32:GDI32.dll
 0003:000077f0       __imp__RealizePalette@4    100f87f0     gdi32:GDI32.dll
 0003:000077f4       __imp__PlayEnhMetaFile@12  100f87f4     gdi32:GDI32.dll
 0003:000077f8       __imp__DeleteEnhMetaFile@4 100f87f8     gdi32:GDI32.dll
 0003:000077fc       __imp__StretchDIBits@52    100f87fc     gdi32:GDI32.dll
 0003:00007800       __imp__GetObjectType@4     100f8800     gdi32:GDI32.dll
 0003:00007804       __imp__GetEnhMetaFilePaletteEntries@12 100f8804     gdi32:GDI32.dll
 0003:00007808       __imp__GetPaletteEntries@16 100f8808     gdi32:GDI32.dll
 0003:0000780c       __imp__SetBkColor@8        100f880c     gdi32:GDI32.dll
 0003:00007810       __imp__SetWindowOrgEx@16   100f8810     gdi32:GDI32.dll
 0003:00007814       __imp__SaveDC@4            100f8814     gdi32:GDI32.dll
 0003:00007818       __imp__RestoreDC@8         100f8818     gdi32:GDI32.dll
 0003:0000781c       __imp__OffsetWindowOrgEx@16 100f881c     gdi32:GDI32.dll
 0003:00007820       __imp__SetTextColor@8      100f8820     gdi32:GDI32.dll
 0003:00007824       __imp__SetBkMode@8         100f8824     gdi32:GDI32.dll
 0003:00007828       __imp__OffsetRgn@12        100f8828     gdi32:GDI32.dll
 0003:0000782c       __imp__GetRegionData@12    100f882c     gdi32:GDI32.dll
 0003:00007830       __imp__GetMetaFileBitsEx@12 100f8830     gdi32:GDI32.dll
 0003:00007834       __imp__SetWinMetaFileBits@16 100f8834     gdi32:GDI32.dll
 0003:00007838       __imp__GetEnhMetaFileBits@12 100f8838     gdi32:GDI32.dll
 0003:0000783c       __imp__SetEnhMetaFileBits@8 100f883c     gdi32:GDI32.dll
 0003:00007840       __imp__SetMetaFileBitsEx@8 100f8840     gdi32:GDI32.dll
 0003:00007844       __imp__DeleteMetaFile@4    100f8844     gdi32:GDI32.dll
 0003:00007848       __imp__GetTextMetricsW@8   100f8848     gdi32:GDI32.dll
 0003:0000784c       __imp__GetClipBox@8        100f884c     gdi32:GDI32.dll
 0003:00007850       __imp__CreateSolidBrush@4  100f8850     gdi32:GDI32.dll
 0003:00007854       __imp__GetDIBits@28        100f8854     gdi32:GDI32.dll
 0003:00007858       __imp__CreateDIBitmap@24   100f8858     gdi32:GDI32.dll
 0003:0000785c       __imp__CreateBitmap@20     100f885c     gdi32:GDI32.dll
 0003:00007860       __imp__ExtEscape@24        100f8860     gdi32:GDI32.dll
 0003:00007864       __imp__CreateDCW@16        100f8864     gdi32:GDI32.dll
 0003:00007868       __imp__ResetDCW@8          100f8868     gdi32:GDI32.dll
 0003:0000786c       __imp__GetDeviceCaps@8     100f886c     gdi32:GDI32.dll
 0003:00007870       __imp__GdiSetBatchLimit@4  100f8870     gdi32:GDI32.dll
 0003:00007874       __imp__OffsetViewportOrgEx@16 100f8874     gdi32:GDI32.dll
 0003:00007878       __imp__SelectClipRgn@8     100f8878     gdi32:GDI32.dll
 0003:0000787c       __imp__ExtCreateRegion@12  100f887c     gdi32:GDI32.dll
 0003:00007880       __imp__SetROP2@8           100f8880     gdi32:GDI32.dll
 0003:00007884       __imp__SelectObject@8      100f8884     gdi32:GDI32.dll
 0003:00007888       __imp__DeleteDC@4          100f8888     gdi32:GDI32.dll
 0003:0000788c       __imp__CreateDIBSection@24 100f888c     gdi32:GDI32.dll
 0003:00007890       __imp__CreateCompatibleDC@4 100f8890     gdi32:GDI32.dll
 0003:00007894       __imp__BitBlt@36           100f8894     gdi32:GDI32.dll
 0003:00007898       __imp__GdiFlush@0          100f8898     gdi32:GDI32.dll
 0003:0000789c       __imp__GetStockObject@4    100f889c     gdi32:GDI32.dll
 0003:000078a0       __imp__CreateRectRgn@16    100f88a0     gdi32:GDI32.dll
 0003:000078a4       __imp__CreateRectRgnIndirect@4 100f88a4     gdi32:GDI32.dll
 0003:000078a8       \177GDI32_NULL_THUNK_DATA_DLA 100f88a8     gdi32:GDI32.dll
 0003:000078ac       __imp__ImmSetOpenStatus@8  100f88ac     imm32:IMM32.dll
 0003:000078b0       __imp__ImmDestroyContext@4 100f88b0     imm32:IMM32.dll
 0003:000078b4       __imp__ImmGetContext@4     100f88b4     imm32:IMM32.dll
 0003:000078b8       __imp__ImmAssociateContext@8 100f88b8     imm32:IMM32.dll
 0003:000078bc       __imp__ImmSetCompositionWindow@8 100f88bc     imm32:IMM32.dll
 0003:000078c0       __imp__ImmSetCandidateWindow@8 100f88c0     imm32:IMM32.dll
 0003:000078c4       __imp__ImmGetDefaultIMEWnd@4 100f88c4     imm32:IMM32.dll
 0003:000078c8       __imp__ImmGetDescriptionW@12 100f88c8     imm32:IMM32.dll
 0003:000078cc       __imp__ImmGetCompositionStringW@16 100f88cc     imm32:IMM32.dll
 0003:000078d0       __imp__ImmSetCompositionFontW@8 100f88d0     imm32:IMM32.dll
 0003:000078d4       __imp__ImmGetOpenStatus@4  100f88d4     imm32:IMM32.dll
 0003:000078d8       __imp__ImmNotifyIME@16     100f88d8     imm32:IMM32.dll
 0003:000078dc       __imp__ImmSetConversionStatus@12 100f88dc     imm32:IMM32.dll
 0003:000078e0       __imp__ImmGetConversionStatus@12 100f88e0     imm32:IMM32.dll
 0003:000078e4       __imp__ImmCreateContext@0  100f88e4     imm32:IMM32.dll
 0003:000078e8       \177IMM32_NULL_THUNK_DATA_DLA 100f88e8     imm32:IMM32.dll
 0003:000078ec       __imp__Shell_NotifyIconW@8 100f88ec     shell32:SHELL32.dll
 0003:000078f0       __imp__DragQueryFileW@16   100f88f0     shell32:SHELL32.dll
 0003:000078f4       __imp__SHGetFolderPathW@20 100f88f4     shell32:SHELL32.dll
 0003:000078f8       __imp__SHGetPathFromIDListW@8 100f88f8     shell32:SHELL32.dll
 0003:000078fc       __imp__SHGetSettings@8     100f88fc     shell32:SHELL32.dll
 0003:00007900       __imp__ShellExecuteW@24    100f8900     shell32:SHELL32.dll
 0003:00007904       \177SHELL32_NULL_THUNK_DATA_DLA 100f8904     shell32:SHELL32.dll
 0003:00007908       __imp__SHCreateStreamOnFileW@12 100f8908     shlwapi:SHLWAPI.dll
 0003:0000790c       \177SHLWAPI_NULL_THUNK_DATA_DLA 100f890c     shlwapi:SHLWAPI.dll
 0003:00007910       __imp__keybd_event@16      100f8910     user32:USER32.dll
 0003:00007914       __imp__GetScrollInfo@12    100f8914     user32:USER32.dll
 0003:00007918       __imp__GetWindowTextLengthW@4 100f8918     user32:USER32.dll
 0003:0000791c       __imp__GetWindowTextW@12   100f891c     user32:USER32.dll
 0003:00007920       __imp__CallWindowProcW@20  100f8920     user32:USER32.dll
 0003:00007924       __imp__IsClipboardFormatAvailable@4 100f8924     user32:USER32.dll
 0003:00007928       __imp__GetCaretPos@4       100f8928     user32:USER32.dll
 0003:0000792c       __imp__LoadKeyboardLayoutW@8 100f892c     user32:USER32.dll
 0003:00007930       __imp__ActivateKeyboardLayout@8 100f8930     user32:USER32.dll
 0003:00007934       __imp__PostQuitMessage@4   100f8934     user32:USER32.dll
 0003:00007938       __imp__DispatchMessageW@4  100f8938     user32:USER32.dll
 0003:0000793c       __imp__TranslateMessage@4  100f893c     user32:USER32.dll
 0003:00007940       __imp__SetTimer@16         100f8940     user32:USER32.dll
 0003:00007944       __imp__GetKeyboardState@4  100f8944     user32:USER32.dll
 0003:00007948       __imp__LoadIconW@8         100f8948     user32:USER32.dll
 0003:0000794c       __imp__LoadImageW@24       100f894c     user32:USER32.dll
 0003:00007950       __imp__EnumThreadWindows@12 100f8950     user32:USER32.dll
 0003:00007954       __imp__GetMessageW@16      100f8954     user32:USER32.dll
 0003:00007958       __imp__SendInput@12        100f8958     user32:USER32.dll
 0003:0000795c       __imp__KillTimer@8         100f895c     user32:USER32.dll
 0003:00007960       __imp__MessageBoxW@16      100f8960     user32:USER32.dll
 0003:00007964       __imp__DrawIconEx@36       100f8964     user32:USER32.dll
 0003:00007968       __imp__SetLayeredWindowAttributes@16 100f8968     user32:USER32.dll
 0003:0000796c       __imp__EqualRect@8         100f896c     user32:USER32.dll
 0003:00007970       __imp__GetFocus@0          100f8970     user32:USER32.dll
 0003:00007974       __imp__EnumChildWindows@12 100f8974     user32:USER32.dll
 0003:00007978       __imp__MonitorFromWindow@8 100f8978     user32:USER32.dll
 0003:0000797c       __imp__FlashWindowEx@4     100f897c     user32:USER32.dll
 0003:00007980       __imp__UpdateLayeredWindow@36 100f8980     user32:USER32.dll
 0003:00007984       __imp__RealGetWindowClassW@12 100f8984     user32:USER32.dll
 0003:00007988       __imp__GetClassInfoW@12    100f8988     user32:USER32.dll
 0003:0000798c       __imp__AnimateWindow@12    100f898c     user32:USER32.dll
 0003:00007990       __imp__GetIconInfo@8       100f8990     user32:USER32.dll
 0003:00007994       __imp__EnumDisplayDevicesW@16 100f8994     user32:USER32.dll
 0003:00007998       __imp__EnumDisplaySettingsW@12 100f8998     user32:USER32.dll
 0003:0000799c       __imp__ChangeDisplaySettingsExW@20 100f899c     user32:USER32.dll
 0003:000079a0       __imp__ChangeDisplaySettingsW@8 100f89a0     user32:USER32.dll
 0003:000079a4       __imp__GetCursor@0         100f89a4     user32:USER32.dll
 0003:000079a8       __imp__mouse_event@20      100f89a8     user32:USER32.dll
 0003:000079ac       __imp__SetFocus@4          100f89ac     user32:USER32.dll
 0003:000079b0       __imp__TrackPopupMenu@28   100f89b0     user32:USER32.dll
 0003:000079b4       __imp__CreatePopupMenu@0   100f89b4     user32:USER32.dll
 0003:000079b8       __imp__CheckMenuItem@12    100f89b8     user32:USER32.dll
 0003:000079bc       __imp__EnableMenuItem@12   100f89bc     user32:USER32.dll
 0003:000079c0       __imp__InsertMenuItemW@16  100f89c0     user32:USER32.dll
 0003:000079c4       __imp__GetMenuState@12     100f89c4     user32:USER32.dll
 0003:000079c8       __imp__LoadBitmapW@8       100f89c8     user32:USER32.dll
 0003:000079cc       __imp__RemoveMenu@12       100f89cc     user32:USER32.dll
 0003:000079d0       __imp__SetMenuItemInfoW@16 100f89d0     user32:USER32.dll
 0003:000079d4       __imp__CreateMenu@0        100f89d4     user32:USER32.dll
 0003:000079d8       __imp__DestroyMenu@4       100f89d8     user32:USER32.dll
 0003:000079dc       __imp__BeginPaint@8        100f89dc     user32:USER32.dll
 0003:000079e0       __imp__EndPaint@8          100f89e0     user32:USER32.dll
 0003:000079e4       __imp__GetKeyboardLayoutList@8 100f89e4     user32:USER32.dll
 0003:000079e8       __imp__ClientToScreen@8    100f89e8     user32:USER32.dll
 0003:000079ec       __imp__GetMenu@4           100f89ec     user32:USER32.dll
 0003:000079f0       __imp__SetMenu@8           100f89f0     user32:USER32.dll
 0003:000079f4       __imp__IsZoomed@4          100f89f4     user32:USER32.dll
 0003:000079f8       __imp__DrawMenuBar@4       100f89f8     user32:USER32.dll
 0003:000079fc       __imp__GetAncestor@8       100f89fc     user32:USER32.dll
 0003:00007a00       __imp__wsprintfW           100f8a00     user32:USER32.dll
 0003:00007a04       __imp__GetWindowDC@4       100f8a04     user32:USER32.dll
 0003:00007a08       __imp__GetClassLongW@8     100f8a08     user32:USER32.dll
 0003:00007a0c       __imp__SetClassLongW@12    100f8a0c     user32:USER32.dll
 0003:00007a10       __imp__SetWindowsHookExW@16 100f8a10     user32:USER32.dll
 0003:00007a14       __imp__IsIconic@4          100f8a14     user32:USER32.dll
 0003:00007a18       __imp__CallNextHookEx@16   100f8a18     user32:USER32.dll
 0003:00007a1c       __imp__GetSystemMenu@8     100f8a1c     user32:USER32.dll
 0003:00007a20       __imp__GetMenuItemInfoW@16 100f8a20     user32:USER32.dll
 0003:00007a24       __imp__DeleteMenu@12       100f8a24     user32:USER32.dll
 0003:00007a28       __imp__GetMenuItemCount@4  100f8a28     user32:USER32.dll
 0003:00007a2c       __imp__AppendMenuW@16      100f8a2c     user32:USER32.dll
 0003:00007a30       __imp__GetForegroundWindow@0 100f8a30     user32:USER32.dll
 0003:00007a34       __imp__BringWindowToTop@4  100f8a34     user32:USER32.dll
 0003:00007a38       __imp__SetForegroundWindow@4 100f8a38     user32:USER32.dll
 0003:00007a3c       __imp__UnhookWindowsHookEx@4 100f8a3c     user32:USER32.dll
 0003:00007a40       __imp__GetWindow@8         100f8a40     user32:USER32.dll
 0003:00007a44       __imp__MapWindowPoints@16  100f8a44     user32:USER32.dll
 0003:00007a48       __imp__RedrawWindow@16     100f8a48     user32:USER32.dll
 0003:00007a4c       __imp__MessageBeep@4       100f8a4c     user32:USER32.dll
 0003:00007a50       __imp__IsWindowEnabled@4   100f8a50     user32:USER32.dll
 0003:00007a54       __imp__GetClipboardFormatNameW@12 100f8a54     user32:USER32.dll
 0003:00007a58       __imp__RegisterClipboardFormatW@4 100f8a58     user32:USER32.dll
 0003:00007a5c       __imp__PeekMessageW@20     100f8a5c     user32:USER32.dll
 0003:00007a60       __imp__WaitMessage@0       100f8a60     user32:USER32.dll
 0003:00007a64       __imp__GetQueueStatus@4    100f8a64     user32:USER32.dll
 0003:00007a68       __imp__SetCursor@4         100f8a68     user32:USER32.dll
 0003:00007a6c       __imp__CreateIconIndirect@4 100f8a6c     user32:USER32.dll
 0003:00007a70       __imp__LoadCursorW@8       100f8a70     user32:USER32.dll
 0003:00007a74       __imp__DestroyIcon@4       100f8a74     user32:USER32.dll
 0003:00007a78       __imp__GetDoubleClickTime@0 100f8a78     user32:USER32.dll
 0003:00007a7c       __imp__RegisterWindowMessageW@4 100f8a7c     user32:USER32.dll
 0003:00007a80       __imp__GetDCEx@12          100f8a80     user32:USER32.dll
 0003:00007a84       __imp__ShowCursor@4        100f8a84     user32:USER32.dll
 0003:00007a88       __imp__SetScrollInfo@16    100f8a88     user32:USER32.dll
 0003:00007a8c       __imp__GetActiveWindow@0   100f8a8c     user32:USER32.dll
 0003:00007a90       __imp__RemovePropW@8       100f8a90     user32:USER32.dll
 0003:00007a94       __imp__GetDlgItem@8        100f8a94     user32:USER32.dll
 0003:00007a98       __imp__VkKeyScanW@4        100f8a98     user32:USER32.dll
 0003:00007a9c       __imp__SystemParametersInfoW@16 100f8a9c     user32:USER32.dll
 0003:00007aa0       __imp__DeferWindowPos@32   100f8aa0     user32:USER32.dll
 0003:00007aa4       __imp__GetCursorPos@4      100f8aa4     user32:USER32.dll
 0003:00007aa8       __imp__WindowFromPoint@8   100f8aa8     user32:USER32.dll
 0003:00007aac       __imp__GetParent@4         100f8aac     user32:USER32.dll
 0003:00007ab0       __imp__GetWindowThreadProcessId@8 100f8ab0     user32:USER32.dll
 0003:00007ab4       __imp__SetWindowRgn@12     100f8ab4     user32:USER32.dll
 0003:00007ab8       __imp__SetParent@8         100f8ab8     user32:USER32.dll
 0003:00007abc       __imp__EnableWindow@8      100f8abc     user32:USER32.dll
 0003:00007ac0       __imp__EndDeferWindowPos@4 100f8ac0     user32:USER32.dll
 0003:00007ac4       __imp__BeginDeferWindowPos@4 100f8ac4     user32:USER32.dll
 0003:00007ac8       __imp__ToUnicodeEx@28      100f8ac8     user32:USER32.dll
 0003:00007acc       __imp__GetKeyboardLayout@4 100f8acc     user32:USER32.dll
 0003:00007ad0       __imp__GetKeyboardType@4   100f8ad0     user32:USER32.dll
 0003:00007ad4       __imp__MapVirtualKeyExW@12 100f8ad4     user32:USER32.dll
 0003:00007ad8       __imp__ToAsciiEx@24        100f8ad8     user32:USER32.dll
 0003:00007adc       __imp__GetKeyState@4       100f8adc     user32:USER32.dll
 0003:00007ae0       __imp__MapVirtualKeyW@8    100f8ae0     user32:USER32.dll
 0003:00007ae4       __imp__SetPropW@12         100f8ae4     user32:USER32.dll
 0003:00007ae8       __imp__GetUpdateRgn@12     100f8ae8     user32:USER32.dll
 0003:00007aec       __imp__ValidateRgn@8       100f8aec     user32:USER32.dll
 0003:00007af0       __imp__UnionRect@12        100f8af0     user32:USER32.dll
 0003:00007af4       __imp__GetUpdateRect@12    100f8af4     user32:USER32.dll
 0003:00007af8       __imp__GetMessageTime@0    100f8af8     user32:USER32.dll
 0003:00007afc       __imp__GetWindowPlacement@8 100f8afc     user32:USER32.dll
 0003:00007b00       __imp__SetWindowPlacement@8 100f8b00     user32:USER32.dll
 0003:00007b04       __imp__ShowWindow@8        100f8b04     user32:USER32.dll
 0003:00007b08       __imp__UnregisterClassW@8  100f8b08     user32:USER32.dll
 0003:00007b0c       __imp__GetClassInfoExW@12  100f8b0c     user32:USER32.dll
 0003:00007b10       __imp__RegisterClassExW@4  100f8b10     user32:USER32.dll
 0003:00007b14       __imp__GetClipboardData@4  100f8b14     user32:USER32.dll
 0003:00007b18       __imp__CountClipboardFormats@0 100f8b18     user32:USER32.dll
 0003:00007b1c       __imp__EnumClipboardFormats@4 100f8b1c     user32:USER32.dll
 0003:00007b20       __imp__SetClipboardData@8  100f8b20     user32:USER32.dll
 0003:00007b24       __imp__GetOpenClipboardWindow@0 100f8b24     user32:USER32.dll
 0003:00007b28       __imp__CloseClipboard@0    100f8b28     user32:USER32.dll
 0003:00007b2c       __imp__OpenClipboard@4     100f8b2c     user32:USER32.dll
 0003:00007b30       __imp__ChangeClipboardChain@8 100f8b30     user32:USER32.dll
 0003:00007b34       __imp__SetClipboardViewer@4 100f8b34     user32:USER32.dll
 0003:00007b38       __imp__EmptyClipboard@0    100f8b38     user32:USER32.dll
 0003:00007b3c       __imp__GetComboBoxInfo@8   100f8b3c     user32:USER32.dll
 0003:00007b40       __imp__GetMessagePos@0     100f8b40     user32:USER32.dll
 0003:00007b44       __imp__GetCapture@0        100f8b44     user32:USER32.dll
 0003:00007b48       __imp__ReleaseCapture@0    100f8b48     user32:USER32.dll
 0003:00007b4c       __imp__SetCapture@4        100f8b4c     user32:USER32.dll
 0003:00007b50       __imp__SetWindowPos@28     100f8b50     user32:USER32.dll
 0003:00007b54       __imp__GetSystemMetrics@4  100f8b54     user32:USER32.dll
 0003:00007b58       __imp__ScreenToClient@8    100f8b58     user32:USER32.dll
 0003:00007b5c       __imp__InvalidateRect@12   100f8b5c     user32:USER32.dll
 0003:00007b60       __imp__UpdateWindow@4      100f8b60     user32:USER32.dll
 0003:00007b64       __imp__DrawFrameControl@16 100f8b64     user32:USER32.dll
 0003:00007b68       __imp__PtInRect@12         100f8b68     user32:USER32.dll
 0003:00007b6c       __imp__FillRect@12         100f8b6c     user32:USER32.dll
 0003:00007b70       __imp__DrawEdge@16         100f8b70     user32:USER32.dll
 0003:00007b74       __imp__CopyRect@8          100f8b74     user32:USER32.dll
 0003:00007b78       __imp__InflateRect@12      100f8b78     user32:USER32.dll
 0003:00007b7c       __imp__DrawFocusRect@8     100f8b7c     user32:USER32.dll
 0003:00007b80       __imp__GetSysColor@4       100f8b80     user32:USER32.dll
 0003:00007b84       __imp__SetWindowLongW@12   100f8b84     user32:USER32.dll
 0003:00007b88       __imp__GetWindowLongW@8    100f8b88     user32:USER32.dll
 0003:00007b8c       __imp__SetRectEmpty@4      100f8b8c     user32:USER32.dll
 0003:00007b90       __imp__GetPropW@8          100f8b90     user32:USER32.dll
 0003:00007b94       __imp__SendMessageW@16     100f8b94     user32:USER32.dll
 0003:00007b98       __imp__SetWindowTextW@8    100f8b98     user32:USER32.dll
 0003:00007b9c       __imp__GetDesktopWindow@0  100f8b9c     user32:USER32.dll
 0003:00007ba0       __imp__GetClientRect@8     100f8ba0     user32:USER32.dll
 0003:00007ba4       __imp__SetRect@20          100f8ba4     user32:USER32.dll
 0003:00007ba8       __imp__ScrollDC@28         100f8ba8     user32:USER32.dll
 0003:00007bac       __imp__OffsetRect@12       100f8bac     user32:USER32.dll
 0003:00007bb0       __imp__InvalidateRgn@12    100f8bb0     user32:USER32.dll
 0003:00007bb4       __imp__IsWindowVisible@4   100f8bb4     user32:USER32.dll
 0003:00007bb8       __imp__PostMessageW@16     100f8bb8     user32:USER32.dll
 0003:00007bbc       __imp__GetMonitorInfoW@8   100f8bbc     user32:USER32.dll
 0003:00007bc0       __imp__EnumDisplayMonitors@16 100f8bc0     user32:USER32.dll
 0003:00007bc4       __imp__IsWindow@4          100f8bc4     user32:USER32.dll
 0003:00007bc8       __imp__GetWindowRect@8     100f8bc8     user32:USER32.dll
 0003:00007bcc       __imp__GetDC@4             100f8bcc     user32:USER32.dll
 0003:00007bd0       __imp__DestroyWindow@4     100f8bd0     user32:USER32.dll
 0003:00007bd4       __imp__ReleaseDC@8         100f8bd4     user32:USER32.dll
 0003:00007bd8       __imp__DefWindowProcW@16   100f8bd8     user32:USER32.dll
 0003:00007bdc       __imp__RegisterClassW@4    100f8bdc     user32:USER32.dll
 0003:00007be0       __imp__ToAscii@20          100f8be0     user32:USER32.dll
 0003:00007be4       __imp__CreateWindowExW@48  100f8be4     user32:USER32.dll
 0003:00007be8       \177USER32_NULL_THUNK_DATA_DLA 100f8be8     user32:USER32.dll
 0003:00007bec       __imp__PlaySoundW@12       100f8bec     winmm:WINMM.dll
 0003:00007bf0       \177WINMM_NULL_THUNK_DATA_DLA 100f8bf0     winmm:WINMM.dll
 0003:00007bf4       __imp__OpenPrinterW@12     100f8bf4     winspool:WINSPOOL.DRV
 0003:00007bf8       __imp__FindNextPrinterChangeNotification@16 100f8bf8     winspool:WINSPOOL.DRV
 0003:00007bfc       __imp__ClosePrinter@4      100f8bfc     winspool:WINSPOOL.DRV
 0003:00007c00       __imp__DeviceCapabilitiesW@20 100f8c00     winspool:WINSPOOL.DRV
 0003:00007c04       __imp__EnumPrintersW@28    100f8c04     winspool:WINSPOOL.DRV
 0003:00007c08       __imp__FindClosePrinterChangeNotification@4 100f8c08     winspool:WINSPOOL.DRV
 0003:00007c0c       __imp__FindFirstPrinterChangeNotification@16 100f8c0c     winspool:WINSPOOL.DRV
 0003:00007c10       __imp__GetPrinterW@20      100f8c10     winspool:WINSPOOL.DRV
 0003:00007c14       __imp__EndDocPrinter@4     100f8c14     winspool:WINSPOOL.DRV
 0003:00007c18       __imp__StartPagePrinter@4  100f8c18     winspool:WINSPOOL.DRV
 0003:00007c1c       __imp__StartDocPrinterW@12 100f8c1c     winspool:WINSPOOL.DRV
 0003:00007c20       __imp__DocumentPropertiesW@24 100f8c20     winspool:WINSPOOL.DRV
 0003:00007c24       __imp__EndPagePrinter@4    100f8c24     winspool:WINSPOOL.DRV
 0003:00007c28       __imp__WritePrinter@16     100f8c28     winspool:WINSPOOL.DRV
 0003:00007c2c       \177WINSPOOL_NULL_THUNK_DATA_DLA 100f8c2c     winspool:WINSPOOL.DRV
 0003:00007c30       __imp__RevokeDragDrop@4    100f8c30     ole32:ole32.dll
 0003:00007c34       __imp__ReleaseStgMedium@4  100f8c34     ole32:ole32.dll
 0003:00007c38       __imp__CoGetCurrentProcess@0 100f8c38     ole32:ole32.dll
 0003:00007c3c       __imp__OleInitialize@4     100f8c3c     ole32:ole32.dll
 0003:00007c40       __imp__OleUninitialize@0   100f8c40     ole32:ole32.dll
 0003:00007c44       __imp__CoTaskMemFree@4     100f8c44     ole32:ole32.dll
 0003:00007c48       __imp__CoInitialize@4      100f8c48     ole32:ole32.dll
 0003:00007c4c       __imp__CoUninitialize@0    100f8c4c     ole32:ole32.dll
 0003:00007c50       __imp__DoDragDrop@16       100f8c50     ole32:ole32.dll
 0003:00007c54       __imp__CoFileTimeNow@4     100f8c54     ole32:ole32.dll
 0003:00007c58       __imp__GetHGlobalFromStream@8 100f8c58     ole32:ole32.dll
 0003:00007c5c       __imp__CreateStreamOnHGlobal@12 100f8c5c     ole32:ole32.dll
 0003:00007c60       __imp__CoCreateInstance@20 100f8c60     ole32:ole32.dll
 0003:00007c64       __imp__RegisterDragDrop@8  100f8c64     ole32:ole32.dll
 0003:00007c68       \177ole32_NULL_THUNK_DATA_DLA 100f8c68     ole32:ole32.dll
 0003:00008578       _start_timer               100f9578     awt_ImagingLib.obj
 0003:0000857c       _stop_timer                100f957c     awt_ImagingLib.obj
 0003:00008580       _std_odas_computed         100f9580     dither.obj
 0003:0000874c       _sharedContext             100f974c     WGLGraphicsConfig.obj
 0003:00008750       ?manager@GDIHashtable@@0VBatchDestructionManager@1@A 100f9750     GDIHashtable.obj
 0003:000087a0       ?g_hmpMonitors@@3PAPAUHMONITOR__@@A 100f97a0     Devices.obj
 0003:000087a4       ?g_nMonitorLimit@@3HA      100f97a4     Devices.obj
 0003:000087a8       ?g_nMonitorCounter@@3HA    100f97a8     Devices.obj
 0003:000087ac       ?theInstance@Devices@@0PAV1@A 100f97ac     Devices.obj
 0003:000087d0       ?forceD3DUsage@@3HA        100f97d0     WindowsFlags.obj
 0003:000087d8       ?disableRegistry@@3HA      100f97d8     WindowsFlags.obj
 0003:000087dc       ?g_offscreenSharing@@3EA   100f97dc     WindowsFlags.obj
 0003:000087e0       ?setHighDPIAware@@3HA      100f97e0     WindowsFlags.obj
 0003:000087e8       ?checkRegistry@@3HA        100f97e8     WindowsFlags.obj
 0003:000087ec       ?accelReset@@3HA           100f97ec     WindowsFlags.obj
 0003:000087f4       ?consumedID@AwtAWTEvent@@2PAU_jfieldID@@A 100f97f4     awt_AWTEvent.obj
 0003:000087f8       ?idID@AwtAWTEvent@@2PAU_jfieldID@@A 100f97f8     awt_AWTEvent.obj
 0003:000087fc       ?bdataID@AwtAWTEvent@@2PAU_jfieldID@@A 100f97fc     awt_AWTEvent.obj
 0003:00008800       ?cache@AwtBrush@@0VGDIHashtable@@A 100f9800     awt_Brush.obj
 0003:00008838       ?labelID@AwtButton@@2PAU_jfieldID@@A 100f9838     awt_Button.obj
 0003:0000883c       ?groupID@AwtCheckbox@@2PAU_jfieldID@@A 100f983c     awt_Checkbox.obj
 0003:00008840       ?stateID@AwtCheckbox@@2PAU_jfieldID@@A 100f9840     awt_Checkbox.obj
 0003:00008844       ?labelID@AwtCheckbox@@2PAU_jfieldID@@A 100f9844     awt_Checkbox.obj
 0003:00008848       ?mouseCapture@AwtChoice@@2HA 100f9848     awt_Choice.obj
 0003:0000884c       ?skipNextMouseUp@AwtChoice@@2HA 100f984c     awt_Choice.obj
 0003:00008850       ?sm_isMouseMoveInList@AwtChoice@@0HA 100f9850     awt_Choice.obj
 0003:00008854       ?theInstance@?1??GetInstance@ComCtl32Util@@SAAAV2@XZ@4V2@A 100f9854     awt_Choice.obj
 0003:00008858       ??_B?1??GetInstance@ComCtl32Util@@SAAAV1@XZ@51 100f9858     awt_Choice.obj
 0003:0000885c       ?lostSelectionOwnershipMID@AwtClipboard@@2PAU_jmethodID@@A 100f985c     awt_Clipboard.obj
 0003:00008860       ?theCurrentClipboard@AwtClipboard@@2PAV_jobject@@A 100f9860     awt_Clipboard.obj
 0003:00008864       ?handleContentsChangedMID@AwtClipboard@@0RAU_jmethodID@@A 100f9864     awt_Clipboard.obj
 0003:00008868       ?isGettingOwnership@AwtClipboard@@0HA 100f9868     awt_Clipboard.obj
 0003:0000886c       ?isClipboardViewerRegistered@AwtClipboard@@0HC 100f986c     awt_Clipboard.obj
 0003:00008870       ?hwndNextViewer@AwtClipboard@@0RAUHWND__@@A 100f9870     awt_Clipboard.obj
 0003:00008874       ?getRGBMID@AwtColor@@2PAU_jmethodID@@A 100f9874     awt_Color.obj
 0003:00008878       ?isEnabledMID@AwtComponent@@2PAU_jmethodID@@A 100f9878     awt_Component.obj
 0003:0000887c       ?getFontMID@AwtComponent@@2PAU_jmethodID@@A 100f987c     awt_Component.obj
 0003:00008880       ?appContextID@AwtComponent@@2PAU_jfieldID@@A 100f9880     awt_Component.obj
 0003:00008884       ?replaceSurfaceDataLaterMID@AwtComponent@@2PAU_jmethodID@@A 100f9884     awt_Component.obj
 0003:00008888       ?masks@AwtComponent@@2PAJA 100f9888     awt_Component.obj
 0003:0000888c       ?foregroundID@AwtComponent@@2PAU_jfieldID@@A 100f988c     awt_Component.obj
 0003:00009890       ?heightID@AwtComponent@@2PAU_jfieldID@@A 100fa890     awt_Component.obj
 0003:00009894       ?getToolkitMID@AwtComponent@@2PAU_jmethodID@@A 100fa894     awt_Component.obj
 0003:00009898       ?enabledID@AwtComponent@@2PAU_jfieldID@@A 100fa898     awt_Component.obj
 0003:0000989c       ?yID@AwtComponent@@2PAU_jfieldID@@A 100fa89c     awt_Component.obj
 0003:000098a0       ?hwndID@AwtComponent@@2PAU_jfieldID@@A 100fa8a0     awt_Component.obj
 0003:000098a4       ?backgroundID@AwtComponent@@2PAU_jfieldID@@A 100fa8a4     awt_Component.obj
 0003:000098a8       ?focusableID@AwtComponent@@2PAU_jfieldID@@A 100fa8a8     awt_Component.obj
 0003:000098ac       ?peerGCID@AwtComponent@@2PAU_jfieldID@@A 100fa8ac     awt_Component.obj
 0003:000098b0       ?peerID@AwtComponent@@2PAU_jfieldID@@A 100fa8b0     awt_Component.obj
 0003:000098b4       ?sm_cursorOn@AwtComponent@@0PAUHWND__@@A 100fa8b4     awt_Component.obj
 0003:000098b8       ?parentID@AwtComponent@@2PAU_jfieldID@@A 100fa8b8     awt_Component.obj
 0003:000098bc       ?getLocationOnScreenMID@AwtComponent@@2PAU_jmethodID@@A 100fa8bc     awt_Component.obj
 0003:000098c0       ?replaceSurfaceDataMID@AwtComponent@@2PAU_jmethodID@@A 100fa8c0     awt_Component.obj
 0003:000098c4       ?xID@AwtComponent@@2PAU_jfieldID@@A 100fa8c4     awt_Component.obj
 0003:000098c8       ?visibleID@AwtComponent@@2PAU_jfieldID@@A 100fa8c8     awt_Component.obj
 0003:000098cc       ?cursorID@AwtComponent@@2PAU_jfieldID@@A 100fa8cc     awt_Component.obj
 0003:000098d0       ?widthID@AwtComponent@@2PAU_jfieldID@@A 100fa8d0     awt_Component.obj
 0003:000098d4       ?graphicsConfigID@AwtComponent@@2PAU_jfieldID@@A 100fa8d4     awt_Component.obj
 0003:000098dc       _g_bUserHasChangedInputLang 100fa8dc     awt_Component.obj
 0003:000098e0       ?sm_suppressFocusAndActivation@AwtComponent@@1HA 100fa8e0     awt_Component.obj
 0003:000098e4       ?sm_restoreFocusAndActivation@AwtComponent@@1HA 100fa8e4     awt_Component.obj
 0003:000098e8       ?sm_focusOwner@AwtComponent@@2PAUHWND__@@A 100fa8e8     awt_Component.obj
 0003:000098ec       ?sm_focusedWindow@AwtComponent@@0PAUHWND__@@A 100fa8ec     awt_Component.obj
 0003:000098f0       ?sm_bMenuLoop@AwtComponent@@2HA 100fa8f0     awt_Component.obj
 0003:000098f4       ?sm_getComponentCache@AwtComponent@@0PAV1@A 100fa8f4     awt_Component.obj
 0003:000098f8       ?sm_inSynthesizeFocus@AwtComponent@@2HA 100fa8f8     awt_Component.obj
 0003:00009908       ?sm_PrimaryDynamicTableBuilt@AwtComponent@@0HA 100fa908     awt_Component.obj
 0003:0000990c       ?m_QueryNewPaletteCalled@AwtComponent@@0HA 100fa90c     awt_Component.obj
 0003:00009910       ?windowMoveLockHeld@@3HA   100fa910     awt_Component.obj
 0003:00009934       ?m_idLang@AwtComponent@@0GA 100fa934     awt_Component.obj
 0003:00009940       ?WmAwtIsComponent@AwtComponent@@2IB 100fa940     awt_Component.obj
 0003:00009944       ?m_CodePage@AwtComponent@@0IA 100fa944     awt_Component.obj
 0003:00009948       ?sm_rtlReadingOrder@AwtComponent@@0HA 100fa948     awt_Component.obj
 0003:00009954       ?sm_rtl@AwtComponent@@0HA  100fa954     awt_Component.obj
 0003:00009958       ?m_hkl@AwtComponent@@0PAUHKL__@@A 100fa958     awt_Component.obj
 0003:00009ae8       ?layoutMgrID@AwtContainer@@2PAU_jfieldID@@A 100faae8     awt_Container.obj
 0003:00009aec       ?findComponentAtMID@AwtContainer@@2PAU_jmethodID@@A 100faaec     awt_Container.obj
 0003:00009af0       ?updateCursorID@AwtCursor@@2PAU_jmethodID@@A 100faaf0     awt_Cursor.obj
 0003:00009af4       ?globalCursorManagerClass@AwtCursor@@2PAV_jclass@@A 100faaf4     awt_Cursor.obj
 0003:00009af8       ?mSetPDataID@AwtCursor@@2PAU_jmethodID@@A 100faaf8     awt_Cursor.obj
 0003:00009afc       ?typeID@AwtCursor@@2PAU_jfieldID@@A 100faafc     awt_Cursor.obj
 0003:00009b00       ?pDataID@AwtCursor@@2PAU_jfieldID@@A 100fab00     awt_Cursor.obj
 0003:00009b04       ?pointYID@AwtCursor@@2PAU_jfieldID@@A 100fab04     awt_Cursor.obj
 0003:00009b08       ?pointXID@AwtCursor@@2PAU_jfieldID@@A 100fab08     awt_Cursor.obj
 0003:00009b0c       ?customCursors@AwtCursor@@0VAwtObjectList@@A 100fab0c     awt_Cursor.obj
 0003:00009b44       ?heightID@AwtDimension@@2PAU_jfieldID@@A 100fab44     awt_Dimension.obj
 0003:00009b48       ?widthID@AwtDimension@@2PAU_jfieldID@@A 100fab48     awt_Dimension.obj
 0003:00009b4c       ?pDataID@AwtDesktopProperties@@2PAU_jfieldID@@A 100fab4c     awt_DesktopProperties.obj
 0003:00009b50       ?setBooleanPropertyID@AwtDesktopProperties@@2PAU_jmethodID@@A 100fab50     awt_DesktopProperties.obj
 0003:00009b54       ?setIntegerPropertyID@AwtDesktopProperties@@2PAU_jmethodID@@A 100fab54     awt_DesktopProperties.obj
 0003:00009b58       ?setStringPropertyID@AwtDesktopProperties@@2PAU_jmethodID@@A 100fab58     awt_DesktopProperties.obj
 0003:00009b5c       ?setColorPropertyID@AwtDesktopProperties@@2PAU_jmethodID@@A 100fab5c     awt_DesktopProperties.obj
 0003:00009b60       ?setFontPropertyID@AwtDesktopProperties@@2PAU_jmethodID@@A 100fab60     awt_DesktopProperties.obj
 0003:00009b64       ?setSoundPropertyID@AwtDesktopProperties@@2PAU_jmethodID@@A 100fab64     awt_DesktopProperties.obj
 0003:00009b6c       ?AWTModalHook@@3PAUHHOOK__@@A 100fab6c     awt_Dialog.obj
 0003:00009b70       ?AWTMouseHook@@3PAUHHOOK__@@A 100fab70     awt_Dialog.obj
 0003:00009b74       ?titleID@AwtDialog@@2PAU_jfieldID@@A 100fab74     awt_Dialog.obj
 0003:00009b78       ?undecoratedID@AwtDialog@@2PAU_jfieldID@@A 100fab78     awt_Dialog.obj
 0003:00009b7c       ?VisibleModalDialogsCount@@3HA 100fab7c     awt_Dialog.obj
 0003:00009b8c       ?jawtSDataID@@3PAU_jfieldID@@A 100fab8c     awt_DrawingSurface.obj
 0003:00009b90       ?jawtSMgrID@@3PAU_jfieldID@@A 100fab90     awt_DrawingSurface.obj
 0003:00009b94       ?jawtComponentClass@@3PAV_jclass@@A 100fab94     awt_DrawingSurface.obj
 0003:00009b98       ?jawtPDataID@@3PAU_jfieldID@@A 100fab98     awt_DrawingSurface.obj
 0003:00009b9c       ?jawtVImgClass@@3PAV_jclass@@A 100fab9c     awt_DrawingSurface.obj
 0003:00009ba0       ?checkFilenameFilterMID@AwtFileDialog@@2PAU_jmethodID@@A 100faba0     awt_FileDialog.obj
 0003:00009ba4       ?parentID@AwtFileDialog@@2PAU_jfieldID@@A 100faba4     awt_FileDialog.obj
 0003:00009ba8       ?setHWndMID@AwtFileDialog@@2PAU_jmethodID@@A 100faba8     awt_FileDialog.obj
 0003:00009bac       ?filterID@AwtFileDialog@@2PAU_jfieldID@@A 100fabac     awt_FileDialog.obj
 0003:00009bb0       ?dirID@AwtFileDialog@@2PAU_jfieldID@@A 100fabb0     awt_FileDialog.obj
 0003:00009bb4       ?fileFilterID@AwtFileDialog@@2PAU_jfieldID@@A 100fabb4     awt_FileDialog.obj
 0003:00009bb8       ?modeID@AwtFileDialog@@2PAU_jfieldID@@A 100fabb8     awt_FileDialog.obj
 0003:00009bbc       ?handleCancelMID@AwtFileDialog@@2PAU_jmethodID@@A 100fabbc     awt_FileDialog.obj
 0003:00009cc0       ?isMultipleModeMID@AwtFileDialog@@2PAU_jmethodID@@A 100facc0     awt_FileDialog.obj
 0003:00009cc4       ?handleSelectedMID@AwtFileDialog@@2PAU_jmethodID@@A 100facc4     awt_FileDialog.obj
 0003:00009cc8       ?fileID@AwtFileDialog@@2PAU_jfieldID@@A 100facc8     awt_FileDialog.obj
 0003:00009ccc       ?targetID@AwtEvent@@2PAU_jfieldID@@A 100faccc     awt_Event.obj
 0003:00009cd0       ?yID@AwtEvent@@2PAU_jfieldID@@A 100facd0     awt_Event.obj
 0003:00009cd4       ?xID@AwtEvent@@2PAU_jfieldID@@A 100facd4     awt_Event.obj
 0003:00009cd8       ?componentFontsID@AwtFont@@2PAU_jfieldID@@A 100facd8     awt_Font.obj
 0003:00009cdc       ?nativeNameID@AwtFont@@2PAU_jfieldID@@A 100facdc     awt_Font.obj
 0003:00009ce0       ?peerMID@AwtFont@@2PAU_jmethodID@@A 100face0     awt_Font.obj
 0003:00009ce4       ?useUnicodeID@AwtFont@@2PAU_jfieldID@@A 100face4     awt_Font.obj
 0003:00009ce8       ?maxHeightID@AwtFont@@2PAU_jfieldID@@A 100face8     awt_Font.obj
 0003:00009cec       ?descentID@AwtFont@@2PAU_jfieldID@@A 100facec     awt_Font.obj
 0003:00009cf0       ?maxDescentID@AwtFont@@2PAU_jfieldID@@A 100facf0     awt_Font.obj
 0003:00009cf4       ?maxAdvanceID@AwtFont@@2PAU_jfieldID@@A 100facf4     awt_Font.obj
 0003:00009cf8       ?fontNameID@AwtFont@@2PAU_jfieldID@@A 100facf8     awt_Font.obj
 0003:00009cfc       ?heightID@AwtFont@@2PAU_jfieldID@@A 100facfc     awt_Font.obj
 0003:00009d00       ?leadingID@AwtFont@@2PAU_jfieldID@@A 100fad00     awt_Font.obj
 0003:00009d04       ?fontID@AwtFont@@2PAU_jfieldID@@A 100fad04     awt_Font.obj
 0003:00009d08       ?pDataID@AwtFont@@2PAU_jfieldID@@A 100fad08     awt_Font.obj
 0003:00009d0c       ?getHeightMID@AwtFont@@2PAU_jmethodID@@A 100fad0c     awt_Font.obj
 0003:00009d10       ?makeConvertedMultiFontStringMID@AwtFont@@2PAU_jmethodID@@A 100fad10     awt_Font.obj
 0003:00009d14       ?fontConfigID@AwtFont@@2PAU_jfieldID@@A 100fad14     awt_Font.obj
 0003:00009d18       ?styleID@AwtFont@@2PAU_jfieldID@@A 100fad18     awt_Font.obj
 0003:00009d1c       ?sizeID@AwtFont@@2PAU_jfieldID@@A 100fad1c     awt_Font.obj
 0003:00009d20       ?maxAscentID@AwtFont@@2PAU_jfieldID@@A 100fad20     awt_Font.obj
 0003:00009d24       ?textComponentFontNameID@AwtFont@@2PAU_jfieldID@@A 100fad24     awt_Font.obj
 0003:00009d28       ?getFontMID@AwtFont@@2PAU_jmethodID@@A 100fad28     awt_Font.obj
 0003:00009d2c       ?widthsID@AwtFont@@2PAU_jfieldID@@A 100fad2c     awt_Font.obj
 0003:00009d30       ?nameID@AwtFont@@2PAU_jfieldID@@A 100fad30     awt_Font.obj
 0003:00009d34       ?ascentID@AwtFont@@2PAU_jfieldID@@A 100fad34     awt_Font.obj
 0003:00009d38       ?m_szCodePageSubkey@CCombinedSegTable@@0PADA 100fad38     awt_Font.obj
 0003:00009d48       ?m_szDefaultEUDCFile@CCombinedSegTable@@0PAGA 100fad48     awt_Font.obj
 0003:00009f50       ?g_segTableManager@@3VCSegTableManager@@A 100faf50     awt_Font.obj
 0003:00009f5c       ?fontCache@@3VAwtFontCache@@A 100faf5c     awt_Font.obj
 0003:00009f70       ?handleID@AwtFrame@@2PAU_jfieldID@@A 100faf70     awt_Frame.obj
 0003:00009f74       ?getExtendedStateMID@AwtFrame@@2PAU_jmethodID@@A 100faf74     awt_Frame.obj
 0003:00009f78       ?undecoratedID@AwtFrame@@2PAU_jfieldID@@A 100faf78     awt_Frame.obj
 0003:00009f7c       ?activateEmbeddingTopLevelMID@AwtFrame@@2PAU_jmethodID@@A 100faf7c     awt_Frame.obj
 0003:00009f80       ?setExtendedStateMID@AwtFrame@@2PAU_jmethodID@@A 100faf80     awt_Frame.obj
 0003:00009f84       ?sm_BlockedThreads@AwtFrame@@0VHashtable@@A 100faf84     awt_Frame.obj
 0003:00009fc4       ?numCurrentObjects@AwtGDIObject@@0HA 100fafc4     awt_GDIObject.obj
 0003:00009fc8       ?objectCounterLock@AwtGDIObject@@0PAVCriticalSection@@A 100fafc8     awt_GDIObject.obj
 0003:00009fcc       ?maxGDIObjects@AwtGDIObject@@0HA 100fafcc     awt_GDIObject.obj
 0003:00009fd0       ?modifiersID@AwtInputEvent@@2PAU_jfieldID@@A 100fafd0     awt_InputEvent.obj
 0003:00009fd4       ?leftID@AwtInsets@@2PAU_jfieldID@@A 100fafd4     awt_Insets.obj
 0003:00009fd8       ?topID@AwtInsets@@2PAU_jfieldID@@A 100fafd8     awt_Insets.obj
 0003:00009fdc       ?rightID@AwtInsets@@2PAU_jfieldID@@A 100fafdc     awt_Insets.obj
 0003:00009fe0       ?bottomID@AwtInsets@@2PAU_jfieldID@@A 100fafe0     awt_Insets.obj
 0003:00009fe4       ?extendedKeyCodeID@AwtKeyEvent@@2PAU_jfieldID@@A 100fafe4     awt_KeyEvent.obj
 0003:00009fe8       ?keyCodeID@AwtKeyEvent@@2PAU_jfieldID@@A 100fafe8     awt_KeyEvent.obj
 0003:00009fec       ?rawCodeID@AwtKeyEvent@@2PAU_jfieldID@@A 100fafec     awt_KeyEvent.obj
 0003:00009ff0       ?keyCharID@AwtKeyEvent@@2PAU_jfieldID@@A 100faff0     awt_KeyEvent.obj
 0003:00009ff4       ?primaryLevelUnicodeID@AwtKeyEvent@@2PAU_jfieldID@@A 100faff4     awt_KeyEvent.obj
 0003:00009ff8       ?scancodeID@AwtKeyEvent@@2PAU_jfieldID@@A 100faff8     awt_KeyEvent.obj
 0003:00009ffc       ?textID@AwtLabel@@2PAU_jfieldID@@A 100faffc     awt_Label.obj
 0003:0000a000       ?alignmentID@AwtLabel@@2PAU_jfieldID@@A 100fb000     awt_Label.obj
 0003:0000a004       ?getItemMID@AwtMenu@@2PAU_jmethodID@@A 100fb004     awt_Menu.obj
 0003:0000a008       ?countItemsMID@AwtMenu@@2PAU_jmethodID@@A 100fb008     awt_Menu.obj
 0003:0000a00c       ?getMenuMID@AwtMenuBar@@2PAU_jmethodID@@A 100fb00c     awt_MenuBar.obj
 0003:0000a010       ?getMenuCountMID@AwtMenuBar@@2PAU_jmethodID@@A 100fb010     awt_MenuBar.obj
 0003:0000a014       ?labelID@AwtMenuItem@@2PAU_jfieldID@@A 100fb014     awt_MenuItem.obj
 0003:0000a018       ?systemFont@AwtMenuItem@@2PAV_jobject@@A 100fb018     awt_MenuItem.obj
 0003:0000a01c       ?stateID@AwtMenuItem@@2PAU_jfieldID@@A 100fb01c     awt_MenuItem.obj
 0003:0000a020       ?isCheckboxID@AwtMenuItem@@2PAU_jfieldID@@A 100fb020     awt_MenuItem.obj
 0003:0000a024       ?bmpCheck@AwtMenuItem@@2PAUHBITMAP__@@A 100fb024     awt_MenuItem.obj
 0003:0000a028       ?enabledID@AwtMenuItem@@2PAU_jfieldID@@A 100fb028     awt_MenuItem.obj
 0003:0000a02c       ?shortcutLabelID@AwtMenuItem@@2PAU_jfieldID@@A 100fb02c     awt_MenuItem.obj
 0003:0000a030       ?fontID@AwtMenuItem@@2PAU_jfieldID@@A 100fb030     awt_MenuItem.obj
 0003:0000a034       ?appContextID@AwtMenuItem@@2PAU_jfieldID@@A 100fb034     awt_MenuItem.obj
 0003:0000a038       ?getDefaultFontMID@AwtMenuItem@@2PAU_jmethodID@@A 100fb038     awt_MenuItem.obj
 0003:0000a03c       ?sm_rtl@AwtMenuItem@@0HA   100fb03c     awt_MenuItem.obj
 0003:0000a040       ?sm_rtlReadingOrder@AwtMenuItem@@0HA 100fb040     awt_MenuItem.obj
 0003:0000a044       ?m_CodePage@AwtMenuItem@@0IA 100fb044     awt_MenuItem.obj
 0003:0000a048       ?m_idLang@AwtMenuItem@@0GA 100fb048     awt_MenuItem.obj
 0003:0000a050       ?yID@AwtMouseEvent@@2PAU_jfieldID@@A 100fb050     awt_MouseEvent.obj
 0003:0000a054       ?buttonID@AwtMouseEvent@@2PAU_jfieldID@@A 100fb054     awt_MouseEvent.obj
 0003:0000a058       ?xID@AwtMouseEvent@@2PAU_jfieldID@@A 100fb058     awt_MouseEvent.obj
 0003:0000a05c       ?targetID@AwtObject@@2PAU_jfieldID@@A 100fb05c     awt_Object.obj
 0003:0000a060       ?wObjectPeerClass@AwtObject@@2PAV_jclass@@A 100fb060     awt_Object.obj
 0003:0000a064       ?createErrorID@AwtObject@@2PAU_jfieldID@@A 100fb064     awt_Object.obj
 0003:0000a068       ?getPeerForTargetMID@AwtObject@@2PAU_jmethodID@@A 100fb068     awt_Object.obj
 0003:0000a06c       ?destroyedID@AwtObject@@2PAU_jfieldID@@A 100fb06c     awt_Object.obj
 0003:0000a070       ?pDataID@AwtObject@@2PAU_jfieldID@@A 100fb070     awt_Object.obj
 0003:0000a074       ?insets_ID@AwtPanel@@2PAU_jfieldID@@A 100fb074     awt_Panel.obj
 0003:0000a080       ?cache@AwtPen@@0VGDIHashtable@@A 100fb080     awt_Pen.obj
 0003:0000a0b8       ?setDevnamesID@AwtPrintControl@@2PAU_jmethodID@@A 100fb0b8     awt_PrintControl.obj
 0003:0000a0bc       ?getResID@AwtPrintControl@@2PAU_jmethodID@@A 100fb0bc     awt_PrintControl.obj
 0003:0000a0c0       ?getWin32MediaTrayID@AwtPrintControl@@2PAU_jmethodID@@A 100fb0c0     awt_PrintControl.obj
 0003:0000a0c4       ?getMinPageID@AwtPrintControl@@2PAU_jmethodID@@A 100fb0c4     awt_PrintControl.obj
 0003:0000a0c8       ?setPrintDCID@AwtPrintControl@@2PAU_jmethodID@@A 100fb0c8     awt_PrintControl.obj
 0003:0000a0cc       ?setRangeCopiesID@AwtPrintControl@@2PAU_jmethodID@@A 100fb0cc     awt_PrintControl.obj
 0003:0000a0d0       ?getPrintDCID@AwtPrintControl@@2PAU_jmethodID@@A 100fb0d0     awt_PrintControl.obj
 0003:0000a0d4       ?dialogOwnerPeerID@AwtPrintControl@@2PAU_jfieldID@@A 100fb0d4     awt_PrintControl.obj
 0003:0000a0d8       ?getFromPageID@AwtPrintControl@@2PAU_jmethodID@@A 100fb0d8     awt_PrintControl.obj
 0003:0000a0dc       ?getCopiesID@AwtPrintControl@@2PAU_jmethodID@@A 100fb0dc     awt_PrintControl.obj
 0003:0000a0e0       ?setWin32MediaID@AwtPrintControl@@2PAU_jmethodID@@A 100fb0e0     awt_PrintControl.obj
 0003:0000a0e4       ?getPrinterID@AwtPrintControl@@2PAU_jmethodID@@A 100fb0e4     awt_PrintControl.obj
 0003:0000a0e8       ?getDevmodeID@AwtPrintControl@@2PAU_jmethodID@@A 100fb0e8     awt_PrintControl.obj
 0003:0000a0ec       ?setDevmodeID@AwtPrintControl@@2PAU_jmethodID@@A 100fb0ec     awt_PrintControl.obj
 0003:0000a0f0       ?getPrintToFileEnabledID@AwtPrintControl@@2PAU_jmethodID@@A 100fb0f0     awt_PrintControl.obj
 0003:0000a0f4       ?getQualityID@AwtPrintControl@@2PAU_jmethodID@@A 100fb0f4     awt_PrintControl.obj
 0003:0000a0f8       ?driverDoesMultipleCopiesID@AwtPrintControl@@2PAU_jfieldID@@A 100fb0f8     awt_PrintControl.obj
 0003:0000a0fc       ?setResID@AwtPrintControl@@2PAU_jmethodID@@A 100fb0fc     awt_PrintControl.obj
 0003:0000a100       ?getCollateID@AwtPrintControl@@2PAU_jmethodID@@A 100fb100     awt_PrintControl.obj
 0003:0000a104       ?setPrinterID@AwtPrintControl@@2PAU_jmethodID@@A 100fb104     awt_PrintControl.obj
 0003:0000a108       ?getDialogID@AwtPrintControl@@2PAU_jmethodID@@A 100fb108     awt_PrintControl.obj
 0003:0000a10c       ?getMaxPageID@AwtPrintControl@@2PAU_jmethodID@@A 100fb10c     awt_PrintControl.obj
 0003:0000a110       ?setWin32MediaTrayID@AwtPrintControl@@2PAU_jmethodID@@A 100fb110     awt_PrintControl.obj
 0003:0000a114       ?getToPageID@AwtPrintControl@@2PAU_jmethodID@@A 100fb114     awt_PrintControl.obj
 0003:0000a118       ?getOrientID@AwtPrintControl@@2PAU_jmethodID@@A 100fb118     awt_PrintControl.obj
 0003:0000a11c       ?setNativeAttID@AwtPrintControl@@2PAU_jmethodID@@A 100fb11c     awt_PrintControl.obj
 0003:0000a120       ?getSelectID@AwtPrintControl@@2PAU_jmethodID@@A 100fb120     awt_PrintControl.obj
 0003:0000a124       ?getSidesID@AwtPrintControl@@2PAU_jmethodID@@A 100fb124     awt_PrintControl.obj
 0003:0000a128       ?driverDoesCollationID@AwtPrintControl@@2PAU_jfieldID@@A 100fb128     awt_PrintControl.obj
 0003:0000a12c       ?getWin32MediaID@AwtPrintControl@@2PAU_jmethodID@@A 100fb12c     awt_PrintControl.obj
 0003:0000a130       ?setToPageID@AwtPrintControl@@2PAU_jmethodID@@A 100fb130     awt_PrintControl.obj
 0003:0000a134       ?getDestID@AwtPrintControl@@2PAU_jmethodID@@A 100fb134     awt_PrintControl.obj
 0003:0000a138       ?getDevnamesID@AwtPrintControl@@2PAU_jmethodID@@A 100fb138     awt_PrintControl.obj
 0003:0000a13c       ?getColorID@AwtPrintControl@@2PAU_jmethodID@@A 100fb13c     awt_PrintControl.obj
 0003:0000a140       ?parentID@AwtPrintDialog@@2PAU_jfieldID@@A 100fb140     awt_PrintDialog.obj
 0003:0000a144       ?setHWndMID@AwtPrintDialog@@2PAU_jmethodID@@A 100fb144     awt_PrintDialog.obj
 0003:0000a148       ?controlID@AwtPrintDialog@@2PAU_jfieldID@@A 100fb148     awt_PrintDialog.obj
 0003:0000a14c       ?pageID@AwtPrintDialog@@2PAU_jfieldID@@A 100fb14c     awt_PrintJob.obj
 0003:0000a154       ?yID@AwtRectangle@@2PAU_jfieldID@@A 100fb154     awt_Rectangle.obj
 0003:0000a158       ?heightID@AwtRectangle@@2PAU_jfieldID@@A 100fb158     awt_Rectangle.obj
 0003:0000a15c       ?xID@AwtRectangle@@2PAU_jfieldID@@A 100fb15c     awt_Rectangle.obj
 0003:0000a160       ?widthID@AwtRectangle@@2PAU_jfieldID@@A 100fb160     awt_Rectangle.obj
 0003:0000a164       ?lineIncrementID@AwtScrollbar@@2PAU_jfieldID@@A 100fb164     awt_Scrollbar.obj
 0003:0000a168       ?orientationID@AwtScrollbar@@2PAU_jfieldID@@A 100fb168     awt_Scrollbar.obj
 0003:0000a16c       ?pageIncrementID@AwtScrollbar@@2PAU_jfieldID@@A 100fb16c     awt_Scrollbar.obj
 0003:0000a170       ?ms_hMouseFilter@AwtScrollbar@@0PAUHHOOK__@@A 100fb170     awt_Scrollbar.obj
 0003:0000a174       ?ms_isInsideMouseFilter@AwtScrollbar@@0HA 100fb174     awt_Scrollbar.obj
 0003:0000a178       ?ms_instanceCounter@AwtScrollbar@@0HA 100fb178     awt_Scrollbar.obj
 0003:0000a17c       ?vAdjustableID@AwtScrollPane@@2PAU_jfieldID@@A 100fb17c     awt_ScrollPane.obj
 0003:0000a180       ?blockIncrementID@AwtScrollPane@@2PAU_jfieldID@@A 100fb180     awt_ScrollPane.obj
 0003:0000a184       ?scrollbarDisplayPolicyID@AwtScrollPane@@2PAU_jfieldID@@A 100fb184     awt_ScrollPane.obj
 0003:0000a188       ?unitIncrementID@AwtScrollPane@@2PAU_jfieldID@@A 100fb188     awt_ScrollPane.obj
 0003:0000a18c       ?hAdjustableID@AwtScrollPane@@2PAU_jfieldID@@A 100fb18c     awt_ScrollPane.obj
 0003:0000a190       ?postScrollEventID@AwtScrollPane@@2PAU_jmethodID@@A 100fb190     awt_ScrollPane.obj
 0003:0000a19c       ?scrollbarVisibilityID@AwtTextArea@@2PAU_jfieldID@@A 100fb19c     awt_TextArea.obj
 0003:0000a1a0       ?sm_pDefWindowProc@AwtTextArea@@0P6GJPAUHWND__@@IIJ@ZA 100fb1a0     awt_TextArea.obj
 0003:0000a1ac       ?canAccessClipboardID@AwtTextComponent@@2PAU_jfieldID@@A 100fb1ac     awt_TextComponent.obj
 0003:0000a1b0       ?windowsSettingChangeMID@AwtToolkit@@2PAU_jmethodID@@A 100fb1b0     awt_Toolkit.obj
 0003:0000a1b4       ?getFontMetricsMID@AwtToolkit@@2PAU_jmethodID@@A 100fb1b4     awt_Toolkit.obj
 0003:0000a1b8       ?m_env@AwtToolkit@@0PAUJNIEnv_@@A 100fb1b8     awt_Toolkit.obj
 0003:0000a1bc       ?getDefaultToolkitMID@AwtToolkit@@2PAU_jmethodID@@A 100fb1bc     awt_Toolkit.obj
 0003:0000a1c0       ?m_threadId@AwtToolkit@@0KA 100fb1c0     awt_Toolkit.obj
 0003:0000a1c4       ?insetsMID@AwtToolkit@@2PAU_jmethodID@@A 100fb1c4     awt_Toolkit.obj
 0003:0000a1c8       ?displayChangeMID@AwtToolkit@@2PAU_jmethodID@@A 100fb1c8     awt_Toolkit.obj
 0003:0000a1cc       ?jvm@@3PAUJavaVM_@@A       100fb1cc     awt_Toolkit.obj
 0003:0000a1d0       ?theInstance@AwtToolkit@@0V1@A 100fb1d0     awt_Toolkit.obj
 0003:0000a508       ?windowTypeID@AwtWindow@@2PAU_jfieldID@@A 100fb508     awt_Window.obj
 0003:0000a50c       ?locationByPlatformID@AwtWindow@@2PAU_jfieldID@@A 100fb50c     awt_Window.obj
 0003:0000a510       ?securityWarningWidthID@AwtWindow@@2PAU_jfieldID@@A 100fb510     awt_Window.obj
 0003:0000a514       ?sysHID@AwtWindow@@2PAU_jfieldID@@A 100fb514     awt_Window.obj
 0003:0000a518       ?windowTYPES@@3PAJA        100fb518     awt_Window.obj
 0003:0000a530       ?autoRequestFocusID@AwtWindow@@2PAU_jfieldID@@A 100fb530     awt_Window.obj
 0003:0000a534       ?calculateSecurityWarningPositionMID@AwtWindow@@2PAU_jmethodID@@A 100fb534     awt_Window.obj
 0003:0000a538       ?securityWarningHeightID@AwtWindow@@2PAU_jfieldID@@A 100fb538     awt_Window.obj
 0003:0000a53c       ?sysXID@AwtWindow@@2PAU_jfieldID@@A 100fb53c     awt_Window.obj
 0003:0000a540       ?warningStringID@AwtWindow@@2PAU_jfieldID@@A 100fb540     awt_Window.obj
 0003:0000a544       ?getWarningStringMID@AwtWindow@@2PAU_jmethodID@@A 100fb544     awt_Window.obj
 0003:0000a548       ?sysWID@AwtWindow@@2PAU_jfieldID@@A 100fb548     awt_Window.obj
 0003:0000a54c       ?ms_hCBTFilter@AwtWindow@@0PAUHHOOK__@@A 100fb54c     awt_Window.obj
 0003:0000a550       ?windowTypeNameMID@AwtWindow@@2PAU_jmethodID@@A 100fb550     awt_Window.obj
 0003:0000a554       ?sysYID@AwtWindow@@2PAU_jfieldID@@A 100fb554     awt_Window.obj
 0003:0000a558       ?ms_instanceCounter@AwtWindow@@0HA 100fb558     awt_Window.obj
 0003:0000a55c       ?m_grabbedWindow@AwtWindow@@1PAV1@A 100fb55c     awt_Window.obj
 0003:0000a560       ?sm_resizing@AwtWindow@@0HA 100fb560     awt_Window.obj
 0003:0000a564       ?untrustedWindowsCounter@AwtWindow@@0IA 100fb564     awt_Window.obj
 0003:0000a598       ?indexCMcacheID@AwtWin32GraphicsDevice@@2PAU_jfieldID@@A 100fb598     awt_Win32GraphicsDevice.obj
 0003:0000a59c       ?indexCMClass@AwtWin32GraphicsDevice@@2PAV_jclass@@A 100fb59c     awt_Win32GraphicsDevice.obj
 0003:0000a5a0       ?paletteChangedMID@AwtWin32GraphicsDevice@@2PAU_jmethodID@@A 100fb5a0     awt_Win32GraphicsDevice.obj
 0003:0000a5a4       ?indexCMrgbID@AwtWin32GraphicsDevice@@2PAU_jfieldID@@A 100fb5a4     awt_Win32GraphicsDevice.obj
 0003:0000a5a8       _img_oda_alpha             100fb5a8     awt_Win32GraphicsDevice.obj
 0003:0000a5e8       ?primaryPalettized@AwtWin32GraphicsDevice@@2HA 100fb5e8     awt_Win32GraphicsDevice.obj
 0003:0000a5ec       ?wToolkitClass@AwtWin32GraphicsDevice@@2PAV_jclass@@A 100fb5ec     awt_Win32GraphicsDevice.obj
 0003:0000a5f0       ?dynamicColorModelID@AwtWin32GraphicsDevice@@2PAU_jfieldID@@A 100fb5f0     awt_Win32GraphicsDevice.obj
 0003:0000a5f4       ?primaryIndex@AwtWin32GraphicsDevice@@2HA 100fb5f4     awt_Win32GraphicsDevice.obj
 0003:0000a5f8       ?win32GCVisualID@AwtWin32GraphicsConfig@@2PAU_jfieldID@@A 100fb5f8     awt_Win32GraphicsConfig.obj
 0003:0000a5fc       ?sm_pCurrentDnDDataObject@AwtDropTarget@@0PAUIDataObject@@A 100fb5fc     awt_DnDDT.obj
 0003:0000a600       ?javaIOExceptionClazz@WDTCPIStreamWrapper@@0PAV_jclass@@A 100fb600     awt_DnDDT.obj
 0003:0000a62c       ?pHelper@PictureDragHelper@@0PAUIDragSourceHelper@@A 100fb62c     awt_DnDDS.obj
 0003:0000a630       ?CF_FILEGROUPDESCRIPTORW@@3GB 100fb630     awt_DnDDS.obj
 0003:0000a634       ?CF_PERFORMEDDROPEFFECT@@3GB 100fb634     awt_DnDDS.obj
 0003:0000a638       ?CF_FILECONTENTS@@3GB      100fb638     awt_DnDDS.obj
 0003:0000a63c       ?PROCESS_ID_FORMAT@AwtDragSource@@2IB 100fb63c     awt_DnDDS.obj
 0003:0000a640       ?CF_FILEGROUPDESCRIPTORA@@3GB 100fb640     awt_DnDDS.obj
 0003:0000a644       ?st@PictureDragHelper@@0V?$map@UtagFORMATETC@@UtagSTGMEDIUM@@U?$less@UtagFORMATETC@@@std@@V?$allocator@U?$pair@$$CBUtagFORMATETC@@UtagSTGMEDIUM@@@std@@@4@@std@@A 100fb644     awt_DnDDS.obj
 0003:0000a678       ?idID@AwtTrayIcon@@2PAU_jfieldID@@A 100fb678     awt_TrayIcon.obj
 0003:0000a67c       ?actionCommandID@AwtTrayIcon@@2PAU_jfieldID@@A 100fb67c     awt_TrayIcon.obj
 0003:0000a680       ?sm_msgWindow@AwtTrayIcon@@2PAUHWND__@@A 100fb680     awt_TrayIcon.obj
 0003:0000a684       ?sm_trayIconList@AwtTrayIcon@@2PAVTrayIconListItem@1@A 100fb684     awt_TrayIcon.obj
 0003:0000a688       ?sm_instCount@AwtTrayIcon@@2HA 100fb688     awt_TrayIcon.obj
 0003:0000a6e8       ?tx@@3U_D3DMATRIX@@A       100fb6e8     D3DContext.obj
 0003:0000a728       ?dwSrcBlendSt@@3KA         100fb728     D3DContext.obj
 0003:0000a72c       ?dwAlphaSt@@3KA            100fb72c     D3DContext.obj
 0003:0000a730       ?dwDestBlendSt@@3KA        100fb730     D3DContext.obj
 0003:0000a738       ?idTx@@3U_D3DMATRIX@@A     100fb738     D3DContext.obj
 0003:0000a7b8       ?pMgr@D3DPipelineManager@@0PAV1@A 100fb7b8     D3DPipelineManager.obj
 0003:0000a8f0       __hmod__USER32_dll         100fb8f0     user32:USER32.dll
 0003:0000a8f4       __hmod__GDI32_dll          100fb8f4     gdi32:GDI32.dll
 0003:0000a8f8       __hmod__WINSPOOL_DRV       100fb8f8     winspool:WINSPOOL.DRV
 0003:0000a8fc       __hmod__IMM32_dll          100fb8fc     imm32:IMM32.dll
 0003:0000a900       __hmod__ole32_dll          100fb900     ole32:ole32.dll
 0003:0000a904       __hmod__SHELL32_dll        100fb904     shell32:SHELL32.dll
 0003:0000a908       __hmod__COMDLG32_dll       100fb908     comdlg32:COMDLG32.dll
 0003:0000a90c       __hmod__WINMM_dll          100fb90c     winmm:WINMM.dll
 0003:0000a910       __hmod__COMCTL32_dll       100fb910     comctl32:COMCTL32.dll
 0003:0000a914       __hmod__SHLWAPI_dll        100fb914     shlwapi:SHLWAPI.dll
 0003:0000a918       ___puiHead                 100fb918     delayimp:delayhlp.obj
 0003:0000a91c       ___pfnDliFailureHook2      100fb91c     delayimp:delayhk1.obj
 0003:0000a920       ___pfnDliNotifyHook2       100fb920     delayimp:delayhk2.obj
 0003:0000ac4c       ?__type_info_root_node@@3U__type_info_node@@A 100fbc4c     MSVCRT:tncleanup.obj
 0003:0000ac54       _previousOp                100fbc54     <common>
 0003:0000ac58       _j2d_glReadPixels          100fbc58     <common>
 0003:0000ac5c       _j2d_glClearColor          100fbc5c     <common>
 0003:0000ac60       _j2d_glTranslatef          100fbc60     <common>
 0003:0000ac64       _j2d_glHint                100fbc64     <common>
 0003:0000ac68       _j2d_glTexSubImage1D       100fbc68     <common>
 0003:0000ac6c       _j2d_glIsEnabled           100fbc6c     <common>
 0003:0000ac70       _j2d_glTexSubImage2D       100fbc70     <common>
 0003:0000ac74       _j2d_glReadBuffer          100fbc74     <common>
 0003:0000ac78       _j2d_glClear               100fbc78     <common>
 0003:0000ac7c       _j2d_glColorMask           100fbc7c     <common>
 0003:0000ac80       _j2d_glGetUniformLocationARB 100fbc80     <common>
 0003:0000ac84       _j2d_glShaderSourceARB     100fbc84     <common>
 0003:0000ac88       _j2d_glLogicOp             100fbc88     <common>
 0003:0000ac8c       _j2d_glPopAttrib           100fbc8c     <common>
 0003:0000ac90       _j2d_glTexEnvi             100fbc90     <common>
 0003:0000ac94       _j2d_glPixelStorei         100fbc94     <common>
 0003:0000ac98       _j2d_glAreTexturesResident 100fbc98     <common>
 0003:0000ac9c       _j2d_glVertexPointer       100fbc9c     <common>
 0003:0000aca0       _j2d_glViewport            100fbca0     <common>
 0003:0000aca4       _j2d_wglShareLists         100fbca4     <common>
 0003:0000aca8       _j2d_glPushAttrib          100fbca8     <common>
 0003:0000acac       _j2d_glLoadIdentity        100fbcac     <common>
 0003:0000acb0       _j2d_glGenTextures         100fbcb0     <common>
 0003:0000acb4       _j2d_glCopyPixels          100fbcb4     <common>
 0003:0000acb8       _j2d_glGetTexLevelParameteriv 100fbcb8     <common>
 0003:0000acbc       _j2d_glRasterPos2i         100fbcbc     <common>
 0003:0000acc0       _j2d_wglDeleteContext      100fbcc0     <common>
 0003:0000acc4       _j2d_wglGetPixelFormatAttribivARB 100fbcc4     <common>
 0003:0000acc8       _j2d_glDisable             100fbcc8     <common>
 0003:0000accc       _j2d_glFlush               100fbccc     <common>
 0003:0000acd0       _j2d_glVertex2d            100fbcd0     <common>
 0003:0000acd4       _j2d_glDeleteFramebuffersEXT 100fbcd4     <common>
 0003:0000acd8       _j2d_wglChoosePixelFormatARB 100fbcd8     <common>
 0003:0000acdc       _j2d_glFramebufferRenderbufferEXT 100fbcdc     <common>
 0003:0000ace0       _j2d_glFramebufferTexture2DEXT 100fbce0     <common>
 0003:0000ace4       _j2d_glEnd                 100fbce4     <common>
 0003:0000ace8       _j2d_wglGetExtensionsStringARB 100fbce8     <common>
 0003:0000acec       _j2d_glTexGeni             100fbcec     <common>
 0003:0000acf0       _j2d_glGetObjectParameterivARB 100fbcf0     <common>
 0003:0000acf4       _j2d_glBlendFunc           100fbcf4     <common>
 0003:0000acf8       _j2d_glRecti               100fbcf8     <common>
 0003:0000acfc       _j2d_glBindFramebufferEXT  100fbcfc     <common>
 0003:0000ad00       _j2d_glGetBooleanv         100fbd00     <common>
 0003:0000ad04       _j2d_glUniform4fARB        100fbd04     <common>
 0003:0000ad08       _j2d_glTexGendv            100fbd08     <common>
 0003:0000ad0c       _j2d_glDrawArrays          100fbd0c     <common>
 0003:0000ad10       _j2d_glColor4ub            100fbd10     <common>
 0003:0000ad14       _j2d_glMatrixMode          100fbd14     <common>
 0003:0000ad18       _j2d_wglReleasePbufferDCARB 100fbd18     <common>
 0003:0000ad1c       _j2d_glUniform1iARB        100fbd1c     <common>
 0003:0000ad20       _j2d_wglCreateContext      100fbd20     <common>
 0003:0000ad24       _j2d_glUniform3fvARB       100fbd24     <common>
 0003:0000ad28       _j2d_glPixelTransferf      100fbd28     <common>
 0003:0000ad2c       _j2d_glPopMatrix           100fbd2c     <common>
 0003:0000ad30       _j2d_glTexParameteri       100fbd30     <common>
 0003:0000ad34       _j2d_glDisableClientState  100fbd34     <common>
 0003:0000ad38       _j2d_glDeleteTextures      100fbd38     <common>
 0003:0000ad3c       _j2d_glGetError            100fbd3c     <common>
 0003:0000ad40       _j2d_glFinish              100fbd40     <common>
 0003:0000ad44       _j2d_glScissor             100fbd44     <common>
 0003:0000ad48       _j2d_glInterleavedArrays   100fbd48     <common>
 0003:0000ad4c       _j2d_glPixelZoom           100fbd4c     <common>
 0003:0000ad50       _j2d_wglGetPbufferDCARB    100fbd50     <common>
 0003:0000ad54       _j2d_glDrawBuffer          100fbd54     <common>
 0003:0000ad58       _j2d_glEnableClientState   100fbd58     <common>
 0003:0000ad5c       _j2d_glVertex2f            100fbd5c     <common>
 0003:0000ad60       _j2d_glIsTexture           100fbd60     <common>
 0003:0000ad64       _j2d_glUniform3fARB        100fbd64     <common>
 0003:0000ad68       _j2d_glCreateShaderObjectARB 100fbd68     <common>
 0003:0000ad6c       _j2d_glEnable              100fbd6c     <common>
 0003:0000ad70       _j2d_glUniform1fvARB       100fbd70     <common>
 0003:0000ad74       _j2d_glGetString           100fbd74     <common>
 0003:0000ad78       _j2d_glClearDepth          100fbd78     <common>
 0003:0000ad7c       _j2d_glTexCoord2d          100fbd7c     <common>
 0003:0000ad80       _j2d_glAlphaFunc           100fbd80     <common>
 0003:0000ad84       _j2d_glOrtho               100fbd84     <common>
 0003:0000ad88       _j2d_glCopyTexSubImage2D   100fbd88     <common>
 0003:0000ad8c       _j2d_glVertex2i            100fbd8c     <common>
 0003:0000ad90       _j2d_glUniform2fARB        100fbd90     <common>
 0003:0000ad94       _j2d_glPopClientAttrib     100fbd94     <common>
 0003:0000ad98       _j2d_glBindRenderbufferEXT 100fbd98     <common>
 0003:0000ad9c       _j2d_glTexImage2D          100fbd9c     <common>
 0003:0000ada0       _j2d_glAttachObjectARB     100fbda0     <common>
 0003:0000ada4       _j2d_glPrioritizeTextures  100fbda4     <common>
 0003:0000ada8       _j2d_glBegin               100fbda8     <common>
 0003:0000adac       _j2d_glPushClientAttrib    100fbdac     <common>
 0003:0000adb0       _j2d_glTexCoordPointer     100fbdb0     <common>
 0003:0000adb4       _j2d_glCreateProgramObjectARB 100fbdb4     <common>
 0003:0000adb8       _j2d_glLoadMatrixd         100fbdb8     <common>
 0003:0000adbc       _j2d_glCheckFramebufferStatusEXT 100fbdbc     <common>
 0003:0000adc0       _j2d_wglQueryPbufferARB    100fbdc0     <common>
 0003:0000adc4       _j2d_glGetDoublev          100fbdc4     <common>
 0003:0000adc8       _j2d_glGenRenderbuffersEXT 100fbdc8     <common>
 0003:0000adcc       _j2d_glDeleteRenderbuffersEXT 100fbdcc     <common>
 0003:0000add0       _j2d_glActiveTextureARB    100fbdd0     <common>
 0003:0000add4       _j2d_wglDestroyPbufferARB  100fbdd4     <common>
 0003:0000add8       _j2d_glTexImage1D          100fbdd8     <common>
 0003:0000addc       _j2d_glLinkProgramARB      100fbddc     <common>
 0003:0000ade0       _j2d_wglMakeContextCurrentARB 100fbde0     <common>
 0003:0000ade4       _j2d_glUniform1fARB        100fbde4     <common>
 0003:0000ade8       _j2d_glGetProgramivARB     100fbde8     <common>
 0003:0000adec       _j2d_glPushMatrix          100fbdec     <common>
 0003:0000adf0       _j2d_wglMakeCurrent        100fbdf0     <common>
 0003:0000adf4       _j2d_glUseProgramObjectARB 100fbdf4     <common>
 0003:0000adf8       _j2d_glCompileShaderARB    100fbdf8     <common>
 0003:0000adfc       _j2d_glTexImage3D          100fbdfc     <common>
 0003:0000ae00       _j2d_glDeleteObjectARB     100fbe00     <common>
 0003:0000ae04       _j2d_glDrawPixels          100fbe04     <common>
 0003:0000ae08       _j2d_glUniform4fvARB       100fbe08     <common>
 0003:0000ae0c       _j2d_glGetInfoLogARB       100fbe0c     <common>
 0003:0000ae10       _j2d_wglCreatePbufferARB   100fbe10     <common>
 0003:0000ae14       _j2d_wglGetCurrentDC       100fbe14     <common>
 0003:0000ae18       _j2d_wglGetCurrentContext  100fbe18     <common>
 0003:0000ae1c       _j2d_glBitmap              100fbe1c     <common>
 0003:0000ae20       _j2d_glMultiTexCoord2fARB  100fbe20     <common>
 0003:0000ae24       _j2d_glColorPointer        100fbe24     <common>
 0003:0000ae28       _j2d_glScalef              100fbe28     <common>
 0003:0000ae2c       _j2d_wglGetProcAddress     100fbe2c     <common>
 0003:0000ae30       _j2d_glRenderbufferStorageEXT 100fbe30     <common>
 0003:0000ae34       _j2d_glGetIntegerv         100fbe34     <common>
 0003:0000ae38       _j2d_glPolygonOffset       100fbe38     <common>
 0003:0000ae3c       _j2d_glTexCoord2f          100fbe3c     <common>
 0003:0000ae40       _j2d_glDepthFunc           100fbe40     <common>
 0003:0000ae44       _j2d_glColor3ub            100fbe44     <common>
 0003:0000ae48       _j2d_glGenFramebuffersEXT  100fbe48     <common>
 0003:0000ae4c       _j2d_glBindTexture         100fbe4c     <common>
 0003:0000ae50       _j2d_glColor4f             100fbe50     <common>
 0003:0000ae54       _j2d_glGetFloatv           100fbe54     <common>
 0003:0000ae58       _g_SPPSMmaskOffID          100fbe58     <common>
 0003:0000ae5c       _g_SMSetPixelsMID          100fbe5c     <common>
 0003:0000ae60       _g_BImgGetRGBMID           100fbe60     <common>
 0003:0000ae64       _g_SPPSMmaskArrID          100fbe64     <common>
 0003:0000ae68       _g_ICRputDataMID           100fbe68     <common>
 0003:0000ae6c       _g_BCRbandoffsID           100fbe6c     <common>
 0003:0000ae70       _g_RasterBaseOriginXID     100fbe70     <common>
 0003:0000ae74       _g_RasterNumDataElementsID 100fbe74     <common>
 0003:0000ae78       _g_ICMrgbID                100fbe78     <common>
 0003:0000ae7c       _g_SCRscanstrID            100fbe7c     <common>
 0003:0000ae80       _g_ICRtypeID               100fbe80     <common>
 0003:0000ae84       _g_BCRscanstrID            100fbe84     <common>
 0003:0000ae88       _g_SMGetPixelsMID          100fbe88     <common>
 0003:0000ae8c       _g_ICRpixstrID             100fbe8c     <common>
 0003:0000ae90       _g_SMHeightID              100fbe90     <common>
 0003:0000ae94       _g_BPRscanstrID            100fbe94     <common>
 0003:0000ae98       _g_CSMScanStrideID         100fbe98     <common>
 0003:0000ae9c       _g_SMWidthID               100fbe9c     <common>
 0003:0000aea0       _g_KernelWidthID           100fbea0     <common>
 0003:0000aea4       _g_CMnBitsID               100fbea4     <common>
 0003:0000aea8       _g_RasterGetDataMID        100fbea8     <common>
 0003:0000aeac       _g_BCRdataOffsetsID        100fbeac     <common>
 0003:0000aeb0       _g_CSMBandOffsetsID        100fbeb0     <common>
 0003:0000aeb4       _g_ICMtransIdxID           100fbeb4     <common>
 0003:0000aeb8       _g_BPRdataBitOffsetID      100fbeb8     <common>
 0003:0000aebc       _g_BImgTypeID              100fbebc     <common>
 0003:0000aec0       _g_SCRdataOffsetsID        100fbec0     <common>
 0003:0000aec4       _g_SCRpixstrID             100fbec4     <common>
 0003:0000aec8       _g_RasterMinYID            100fbec8     <common>
 0003:0000aecc       _g_BCRtypeID               100fbecc     <common>
 0003:0000aed0       _g_BCRpixstrID             100fbed0     <common>
 0003:0000aed4       _g_RasterBaseOriginYID     100fbed4     <common>
 0003:0000aed8       _g_CMgetRGBdefaultMID      100fbed8     <common>
 0003:0000aedc       _g_CMcsTypeID              100fbedc     <common>
 0003:0000aee0       _g_CMcspaceID              100fbee0     <common>
 0003:0000aee4       _g_SCRdataID               100fbee4     <common>
 0003:0000aee8       _g_SPPSMnBitsID            100fbee8     <common>
 0003:0000aeec       _g_RasterWidthID           100fbeec     <common>
 0003:0000aef0       _g_RasterDataBufferID      100fbef0     <common>
 0003:0000aef4       _g_CMgetRGBMID             100fbef4     <common>
 0003:0000aef8       _g_SCRbandoffsID           100fbef8     <common>
 0003:0000aefc       _g_ICMmapSizeID            100fbefc     <common>
 0003:0000af00       _g_ICRbandoffsID           100fbf00     <common>
 0003:0000af04       _g_ICRscanstrID            100fbf04     <common>
 0003:0000af08       _g_KernelHeightID          100fbf08     <common>
 0003:0000af0c       _g_BImgSetRGBMID           100fbf0c     <common>
 0003:0000af10       _g_DataBufferIntPdataID    100fbf10     <common>
 0003:0000af14       _g_BPRtypeID               100fbf14     <common>
 0003:0000af18       _g_CMisAlphaPreID          100fbf18     <common>
 0003:0000af1c       _g_BPRpixstrID             100fbf1c     <common>
 0003:0000af20       _g_BPRdataID               100fbf20     <common>
 0003:0000af24       _g_BImgRasterID            100fbf24     <common>
 0003:0000af28       _g_CSMPixStrideID          100fbf28     <common>
 0003:0000af2c       _g_CMnumComponentsID       100fbf2c     <common>
 0003:0000af30       _g_KernelDataID            100fbf30     <common>
 0003:0000af34       _g_CMpDataID               100fbf34     <common>
 0003:0000af38       _g_RasterHeightID          100fbf38     <common>
 0003:0000af3c       _g_ICRdataOffsetsID        100fbf3c     <common>
 0003:0000af40       _g_BImgCMID                100fbf40     <common>
 0003:0000af44       _g_CMtransparencyID        100fbf44     <common>
 0003:0000af48       _g_SPPSMmaxBitID           100fbf48     <common>
 0003:0000af4c       _g_CMsuppAlphaID           100fbf4c     <common>
 0003:0000af50       _g_RasterSampleModelID     100fbf50     <common>
 0003:0000af54       _g_RasterMinXID            100fbf54     <common>
 0003:0000af58       _g_SCRtypeID               100fbf58     <common>
 0003:0000af5c       _g_CMis_sRGBID             100fbf5c     <common>
 0003:0000af60       _g_BCRdataID               100fbf60     <common>
 0003:0000af64       _g_RasterNumBandsID        100fbf64     <common>
 0003:0000af68       _g_ICRdataID               100fbf68     <common>
 0003:0000af80       _std_img_oda_green         100fbf80     <common>
 0003:0000afc0       _std_img_oda_blue          100fbfc0     <common>
 0003:0000b000       _std_img_oda_red           100fc000     <common>
 0003:0000b040       _validID                   100fc040     <common>
 0003:0000b044       _pCurIndexID               100fc044     <common>
 0003:0000b048       _pEndIndexID               100fc048     <common>
 0003:0000b04c       _pNumXbandsID              100fc04c     <common>
 0003:0000b050       _pRegionID                 100fc050     <common>
 0003:0000b054       _pBandsArrayID             100fc054     <common>
 0003:0000b060       _mul8table                 100fc060     <common>
 0003:0001b080       _div8table                 1010c080     <common>
 0003:0002b080       _sg2dStrokeHintID          1011c080     <common>
 0003:0002b084       _sunHints_INTVAL_STROKE_PURE 1011c084     <common>
 0003:0002b088       _path2DWindingRuleID       1011c088     <common>
 0003:0002b08c       _path2DNumTypesID          1011c08c     <common>
 0003:0002b090       _path2DTypesID             1011c090     <common>
 0003:0002b094       _path2DFloatCoordsID       1011c094     <common>
 0003:0002b098       ___native_startup_state    1011c098     <common>
 0003:0002b09c       ___native_startup_lock     1011c09c     <common>
 0003:0002b0a0       ___sse2_available          1011c0a0     <common>
 0003:0002b0a4       ___dyn_tls_init_callback   1011c0a4     <common>
 0003:0002b0a8       ___onexitend               1011c0a8     <common>
 0003:0002b0ac       ___onexitbegin             1011c0ac     <common>

 entry point at        0001:000b0321

 Static symbols

 0001:000001b0       _InitPrimTypes             100011b0 f   GraphicsPrimitiveMgr.obj
 0001:00000250       _InitSimpleTypes           10001250 f   GraphicsPrimitiveMgr.obj
 0001:00001210       _findpow2tilesize          10002210 f   ScaledBlit.obj
 0001:00001260       _refine                    10002260 f   ScaledBlit.obj
 0001:00003b50       _LineUtils_SetupBresenhamBig 10004b50 f   DrawLine.obj
 0001:00004d50       _RefineBounds              10005d50 f   DrawPolygons.obj
 0001:00004e20       _ProcessPoly               10005e20 f   DrawPolygons.obj
 0001:00005670       _processLine               10006670 f   DrawPath.obj
 0001:00005820       _processPoint              10006820 f   DrawPath.obj
 0001:00005bb0       _drawScanline              10006bb0 f   FillPath.obj
 0001:000065f0       _DrawMonotonicQuad         100075f0 f   ProcessPath.obj
 0001:00006860       _ProcessMonotonicQuad      10007860 f   ProcessPath.obj
 0001:00006b50       _ProcessFirstMonotonicPartOfQuad 10007b50 f   ProcessPath.obj
 0001:00006c20       _ProcessQuad               10007c20 f   ProcessPath.obj
 0001:00006de0       _DrawMonotonicCubic        10007de0 f   ProcessPath.obj
 0001:00007180       _ProcessMonotonicCubic     10008180 f   ProcessPath.obj
 0001:00007530       _ProcessFirstMonotonicPartOfCubic 10008530 f   ProcessPath.obj
 0001:00007670       _ProcessCubic              10008670 f   ProcessPath.obj
 0001:00007b10       _ProcessLine               10008b10 f   ProcessPath.obj
 0001:000093c0       _endSubPath                1000a3c0 f   ProcessPath.obj
 0001:00009b90       _fillAARect                1000ab90 f   MaskFill.obj
 0001:0000a000       _storeEdge                 1000b000 f   MaskFill.obj
 0001:0000a1d0       _storePgram                1000b1d0 f   MaskFill.obj
 0001:0000a310       _fillAAPgram               1000b310 f   MaskFill.obj
 0001:0000b880       _drawAAPgram               1000c880 f   MaskFill.obj
 0001:0000da40       _checkOverflow             1000ea40 f   TransformHelper.obj
 0001:0000dc70       _calculateEdges            1000ec70 f   TransformHelper.obj
 0001:0000de40       _Transform_SafeHelper      1000ee40 f   TransformHelper.obj
 0001:0000e120       _BilinearInterp            1000f120 f   TransformHelper.obj
 0001:0000e260       _init_bicubic_table        1000f260 f   TransformHelper.obj
 0001:0000e390       _BicubicInterp             1000f390 f   TransformHelper.obj
 0001:00047e00       _ptSegDistSq               10048e00 f   ShapeSpanIterator.obj
 0001:00047f20       _appendSegment             10048f20 f   ShapeSpanIterator.obj
 0001:00048130       _subdivideLine             10049130 f   ShapeSpanIterator.obj
 0001:00048230       _subdivideQuad             10049230 f   ShapeSpanIterator.obj
 0001:00048550       _subdivideCubic            10049550 f   ShapeSpanIterator.obj
 0001:00048a30       _sortSegmentsByLeadingY    10049a30 f   ShapeSpanIterator.obj
 0001:00048a80       _ShapeSIOpen               10049a80 f   ShapeSpanIterator.obj
 0001:00048ad0       _ShapeSIGetPathBox         10049ad0 f   ShapeSpanIterator.obj
 0001:00048b40       _ShapeSIIntersectClipBox   10049b40 f   ShapeSpanIterator.obj
 0001:00048b80       _initSegmentTable          10049b80 f   ShapeSpanIterator.obj
 0001:0004a460       _PCMoveTo                  1004b460 f   ShapeSpanIterator.obj
 0001:0004a5e0       _PCLineTo                  1004b5e0 f   ShapeSpanIterator.obj
 0001:0004a730       _PCQuadTo                  1004b730 f   ShapeSpanIterator.obj
 0001:0004a930       _PCCubicTo                 1004b930 f   ShapeSpanIterator.obj
 0001:0004abb0       _PCClosePath               1004bbb0 f   ShapeSpanIterator.obj
 0001:0004acf0       _PCPathDone                1004bcf0 f   ShapeSpanIterator.obj
 0001:0004ae40       _ShapeSINextSpan           1004be40 f   ShapeSpanIterator.obj
 0001:0004b0c0       _ShapeSISkipDownTo         1004c0c0 f   ShapeSpanIterator.obj
 0001:0004b100       _MakeSpanData              1004c100 f   ShapeSpanIterator.obj
 0001:0004b3af       _fill                      1004c3af f   SpanClipRenderer.obj
 0001:0004bab8       _GetSDOps                  1004cab8 f   SurfaceData.obj
 0001:0004c3a2       _BufImg_Dispose            1004d3a2 f   BufImgSurfaceData.obj
 0001:0004c3dd       _BufImg_GetRasInfo         1004d3dd f   BufImgSurfaceData.obj
 0001:0004c4a5       _BufImg_Release            1004d4a5 f   BufImgSurfaceData.obj
 0001:0004c4eb       _BufImg_SetupICM           1004d4eb f   BufImgSurfaceData.obj
 0001:0004c5ed       _BufImg_Lock               1004d5ed f   BufImgSurfaceData.obj
 0001:0004df70       _setHints                  1004ef70 f   awt_parseImage.obj
 0001:0004f2f9       _compareLUTs               100502f9 f   awt_ImageRep.obj
 0001:0004f780       _setImageHints             10050780 f   awt_ImagingLib.obj
 0001:0004fa30       _cvtCustomToDefault        10050a30 f   awt_ImagingLib.obj
 0001:0004fb30       _cvtDefaultToCustom        10050b30 f   awt_ImagingLib.obj
 0001:0004fc70       _freeDataArray             10050c70 f   awt_ImagingLib.obj
 0001:0004fcd0       _expandICM                 10050cd0 f   awt_ImagingLib.obj
 0001:0004fe70       _expandPackedBCR           10050e70 f   awt_ImagingLib.obj
 0001:00050140       _expandPackedBCRdefault    10051140 f   awt_ImagingLib.obj
 0001:00050440       _expandPackedSCR           10051440 f   awt_ImagingLib.obj
 0001:00050720       _expandPackedSCRdefault    10051720 f   awt_ImagingLib.obj
 0001:00050a40       _expandPackedICR           10051a40 f   awt_ImagingLib.obj
 0001:00050d20       _expandPackedICRdefault    10051d20 f   awt_ImagingLib.obj
 0001:00051050       _setPackedBCR              10052050 f   awt_ImagingLib.obj
 0001:000512b0       _setPackedSCR              100522b0 f   awt_ImagingLib.obj
 0001:00051500       _setPackedICR              10052500 f   awt_ImagingLib.obj
 0001:00051740       _setPackedBCRdefault       10052740 f   awt_ImagingLib.obj
 0001:00051a80       _setPackedSCRdefault       10052a80 f   awt_ImagingLib.obj
 0001:00051dd0       _setPackedICRdefault       10052dd0 f   awt_ImagingLib.obj
 0001:00052110       _colorMatch                10053110 f   awt_ImagingLib.obj
 0001:00052230       _allocateArray             10053230 f   awt_ImagingLib.obj
 0001:000524e0       _allocateRasterArray       100534e0 f   awt_ImagingLib.obj
 0001:000529a0       _freeArray                 100539a0 f   awt_ImagingLib.obj
 0001:00052a10       _storeRasterArray          10053a10 f   awt_ImagingLib.obj
 0001:00052a70       _storeICMarray             10053a70 f   awt_ImagingLib.obj
 0001:00053fe0       _storeImageArray           10054fe0 f   awt_ImagingLib.obj
 0001:000556cd       _recurseLevel              100566cd f   dither.obj
 0001:000565c0       _OGLBlitSurfaceToSurface   100575c0 f   OGLBlitLoops.obj
 0001:00056720       _OGLBlitTextureToSurface   10057720 f   OGLBlitLoops.obj
 0001:000568b0       _OGLBlitSwToSurface        100578b0 f   OGLBlitLoops.obj
 0001:00056a80       _OGLBlitToSurfaceViaTexture 10057a80 f   OGLBlitLoops.obj
 0001:00056f90       _OGLBlitSwToTexture        10057f90 f   OGLBlitLoops.obj
 0001:00057c10       _OGLBufImgOps_CreateConvolveProgram 10058c10 f   OGLBufImgOps.obj
 0001:00058010       _OGLBufImgOps_CreateRescaleProgram 10059010 f   OGLBufImgOps.obj
 0001:000581f0       _OGLBufImgOps_CreateLookupProgram 100591f0 f   OGLBufImgOps.obj
 0001:00058510       _OGLContext_SetViewport    10059510 f   OGLContext.obj
 0001:000585b0       _OGLContext_InitAlphaChannel 100595b0 f   OGLContext.obj
 0001:00058da0       _OGLContext_IsFBObjectExtensionAvailable 10059da0 f   OGLContext.obj
 0001:00058ee0       _OGLContext_IsLCDShaderSupportAvailable 10059ee0 f   OGLContext.obj
 0001:0005a680       _OGLPaints_InitGradientTexture 1005b680 f   OGLPaints.obj
 0001:0005aa70       _OGLPaints_InitMultiGradientTexture 1005ba70 f   OGLPaints.obj
 0001:0005ab10       _OGLPaints_CreateMultiGradProgram 1005bb10 f   OGLPaints.obj
 0001:0005acc0       _OGLPaints_SetMultiGradientPaint 1005bcc0 f   OGLPaints.obj
 0001:0005d8b1       _OGLSD_InitTextureObject   1005e8b1 f   OGLSurfaceData.obj
 0001:0005df20       _OGLTR_InitGlyphCache      1005ef20 f   OGLTextRenderer.obj
 0001:0005e020       _OGLTR_AddToGlyphCache     1005f020 f   OGLTextRenderer.obj
 0001:0005e0a0       _OGLTR_CreateLCDTextProgram 1005f0a0 f   OGLTextRenderer.obj
 0001:0005e140       _OGLTR_InitGammaLutTexture 1005f140 f   OGLTextRenderer.obj
 0001:0005e1d0       _OGLTR_UpdateLCDTextContrast 1005f1d0 f   OGLTextRenderer.obj
 0001:0005e400       _OGLTR_UpdateLCDTextColor  1005f400 f   OGLTextRenderer.obj
 0001:0005e4d0       _OGLTR_EnableLCDGlyphModeState 1005f4d0 f   OGLTextRenderer.obj
 0001:0005e6b0       _OGLTR_DisableGlyphModeState 1005f6b0 f   OGLTextRenderer.obj
 0001:0005e750       _OGLTR_DrawGrayscaleGlyphViaCache 1005f750 f   OGLTextRenderer.obj
 0001:0005e880       _OGLTR_UpdateCachedDestination 1005f880 f   OGLTextRenderer.obj
 0001:0005ea50       _OGLTR_DrawLCDGlyphViaCache 1005fa50 f   OGLTextRenderer.obj
 0001:0005ecf0       _OGLTR_DrawGrayscaleGlyphNoCache 1005fcf0 f   OGLTextRenderer.obj
 0001:0005ede0       _OGLTR_DrawLCDGlyphNoCache 1005fde0 f   OGLTextRenderer.obj
 0001:0005f800       _OGLVertexCache_InitMaskCache 10060800 f   OGLVertexCache.obj
 0001:0005fd60       _WGLGC_DestroyOGLContext   10060d60 f   WGLGraphicsConfig.obj
 0001:0005fed0       _WGLGC_GetPixelFormatForDC 10060ed0 f   WGLGraphicsConfig.obj
 0001:000600d0       _WGLGC_SetBasicPixelFormatForDC 100610d0 f   WGLGraphicsConfig.obj
 0001:00060160       _WGLGC_CreateContext       10061160 f   WGLGraphicsConfig.obj
 0001:00060260       _WGLGC_InitExtFuncs        10061260 f   WGLGraphicsConfig.obj
 0001:00060360       _WGLGC_InitOGLContext      10061360 f   WGLGraphicsConfig.obj
 0001:00060960       _WGLSD_MakeCurrentToScratch 10061960 f   WGLSurfaceData.obj
 0001:00062cc0       _AngleToCoord              10063cc0 f   GDIRenderer.obj
 0001:00062d10       _TransformPoly             10063d10 f   GDIRenderer.obj
 0001:00064618       __catch$_GDIWindowSurfaceData_GetComp@8$0 10065618 f   GDIWindowSurfaceData.obj
 0001:000646d0       ?GDIWinSD_Lock@@YAJPAUJNIEnv_@@PAU_SurfaceDataOps@@PAUSurfaceDataRasInfo@@J@Z 100656d0 f   GDIWindowSurfaceData.obj
 0001:000648b0       ?GDIWinSD_GetRasInfo@@YAXPAUJNIEnv_@@PAU_SurfaceDataOps@@PAUSurfaceDataRasInfo@@@Z 100658b0 f   GDIWindowSurfaceData.obj
 0001:00064c00       ?GDIWinSD_Unlock@@YAXPAUJNIEnv_@@PAU_SurfaceDataOps@@PAUSurfaceDataRasInfo@@@Z 10065c00 f   GDIWindowSurfaceData.obj
 0001:000651f0       ?GDIWinSD_ReleaseDC@@YAXPAUJNIEnv_@@PAU_GDIWinSDOps@@PAUHDC__@@@Z 100661f0 f   GDIWindowSurfaceData.obj
 0001:000651f0       _ShapeSIClose              100661f0 f   GDIWindowSurfaceData.obj
 0001:000651f0       _stubEndSubPath            100661f0 f   GDIWindowSurfaceData.obj
 0001:00065200       ?GDIWinSD_InvalidateSD@@YAXPAUJNIEnv_@@PAU_GDIWinSDOps@@@Z 10066200 f   GDIWindowSurfaceData.obj
 0001:00065400       ?GDIWinSD_Setup@@YAXPAUJNIEnv_@@PAU_SurfaceDataOps@@@Z 10066400 f   GDIWindowSurfaceData.obj
 0001:00065410       ?GDIWinSD_GetDC@@YAPAUHDC__@@PAUJNIEnv_@@PAU_GDIWinSDOps@@JPAJPAV_jobject@@3J@Z 10066410 f   GDIWindowSurfaceData.obj
 0001:00065480       ?GDIWinSD_Dispose@@YAXPAUJNIEnv_@@PAU_SurfaceDataOps@@@Z 10066480 f   GDIWindowSurfaceData.obj
 0001:000659f1       __catch$_Java_sun_print_Win32PrintServiceLookup_getDefaultPrinterName@8$0 100669f1 f   WPrinterJob.obj
 0001:00065a06       __catch$_Java_sun_print_Win32PrintServiceLookup_getDefaultPrinterName@8$1 10066a06 f   WPrinterJob.obj
 0001:00065b21       __catch$_Java_sun_print_Win32PrintServiceLookup_getAllPrinterNames@8$0 10066b21 f   WPrinterJob.obj
 0001:00065b33       __catch$_Java_sun_print_Win32PrintServiceLookup_getAllPrinterNames@8$2 10066b33 f   WPrinterJob.obj
 0001:00065b48       __catch$_Java_sun_print_Win32PrintServiceLookup_getAllPrinterNames@8$3 10066b48 f   WPrinterJob.obj
 0001:00065dc8       __catch$_Java_sun_print_Win32PrintService_getMediaPrintableArea@16$0 10066dc8 f   WPrinterJob.obj
 0001:00065dd8       __catch$_Java_sun_print_Win32PrintService_getMediaPrintableArea@16$1 10066dd8 f   WPrinterJob.obj
 0001:00065f2b       __catch$_Java_sun_print_Win32PrintService_getAllMediaIDs@16$0 10066f2b f   WPrinterJob.obj
 0001:00065f40       __catch$_Java_sun_print_Win32PrintService_getAllMediaIDs@16$1 10066f40 f   WPrinterJob.obj
 0001:00066091       __catch$_Java_sun_print_Win32PrintService_getAllMediaTrays@16$0 10067091 f   WPrinterJob.obj
 0001:000660a6       __catch$_Java_sun_print_Win32PrintService_getAllMediaTrays@16$1 100670a6 f   WPrinterJob.obj
 0001:0006620a       __catch$_Java_sun_print_Win32PrintService_getAllMediaSizes@16$0 1006720a f   WPrinterJob.obj
 0001:0006621f       __catch$_Java_sun_print_Win32PrintService_getAllMediaSizes@16$1 1006721f f   WPrinterJob.obj
 0001:000663b3       __catch$_getAllDCNames$0   100673b3 f   WPrinterJob.obj
 0001:000663c6       __catch$_getAllDCNames$1   100673c6 f   WPrinterJob.obj
 0001:00066604       __catch$_Java_sun_print_Win32PrintService_getAllResolutions@16$0 10067604 f   WPrinterJob.obj
 0001:00066619       __catch$_Java_sun_print_Win32PrintService_getAllResolutions@16$1 10067619 f   WPrinterJob.obj
 0001:0006661f       _IsDCPostscript            1006761f f   WPrinterJob.obj
 0001:00066751       __catch$_Java_sun_print_Win32PrintService_getPrinterPort@12$0 10067751 f   WPrinterJob.obj
 0001:00066b4a       __catch$_Java_sun_print_Win32PrintService_getDefaultSettings@16$0 10067b4a f   WPrinterJob.obj
 0001:00066b5f       __catch$_Java_sun_print_Win32PrintService_getDefaultSettings@16$1 10067b5f f   WPrinterJob.obj
 0001:00066c53       _getIdOfLongField          10067c53 f   WPrinterJob.obj
 0001:00066e04       __catch$_Java_sun_print_Win32PrintJob_printRawData@16$0 10067e04 f   WPrinterJob.obj
 0001:00066f65       __catch$_Java_java_awt_AWTEvent_initIDs@8$0 10067f65 f   awt_AWTEvent.obj
 0001:00066f72       __catch$_Java_java_awt_AWTEvent_initIDs@8$1 10067f72 f   awt_AWTEvent.obj
 0001:0006704c       __catch$_Java_java_awt_AWTEvent_nativeSetSource@12$0 1006804c f   awt_AWTEvent.obj
 0001:0006705c       __catch$_Java_java_awt_AWTEvent_nativeSetSource@12$1 1006805c f   awt_AWTEvent.obj
 0001:00067a55       __catch$?Create@AwtButton@@SAPAV1@PAV_jobject@@0@Z$4 10068a55 f   awt_Button.obj
 0001:00067d4e       __catch$_Java_sun_awt_windows_WButtonPeer_initIDs@8$0 10068d4e f   awt_Button.obj
 0001:00067d5b       __catch$_Java_sun_awt_windows_WButtonPeer_initIDs@8$1 10068d5b f   awt_Button.obj
 0001:00067e05       __catch$_Java_sun_awt_windows_WButtonPeer_setLabel@12$0 10068e05 f   awt_Button.obj
 0001:00067e15       __catch$_Java_sun_awt_windows_WButtonPeer_setLabel@12$1 10068e15 f   awt_Button.obj
 0001:00067eb7       __catch$_Java_sun_awt_windows_WButtonPeer_create@12$0 10068eb7 f   awt_Button.obj
 0001:00067ec4       __catch$_Java_sun_awt_windows_WButtonPeer_create@12$1 10068ec4 f   awt_Button.obj
 0001:000681d8       __catch$?Create@AwtCanvas@@SAPAV1@PAV_jobject@@0@Z$3 100691d8 f   awt_Canvas.obj
 0001:000681ed       __catch$?Create@AwtCanvas@@SAPAV1@PAV_jobject@@0@Z$5 100691ed f   awt_Canvas.obj
 0001:00068200       __catch$?Create@AwtCanvas@@SAPAV1@PAV_jobject@@0@Z$6 10069200 f   awt_Canvas.obj
 0001:000683ab       __catch$_Java_sun_awt_windows_WCanvasPeer_create@12$0 100693ab f   awt_Canvas.obj
 0001:000683b8       __catch$_Java_sun_awt_windows_WCanvasPeer_create@12$1 100693b8 f   awt_Canvas.obj
 0001:00068414       __catch$_Java_sun_awt_windows_WCanvasPeer_setNativeBackgroundErase@16$0 10069414 f   awt_Canvas.obj
 0001:00068421       __catch$_Java_sun_awt_windows_WCanvasPeer_setNativeBackgroundErase@16$1 10069421 f   awt_Canvas.obj
 0001:0006869b       __catch$?Create@AwtCheckbox@@SAPAV1@PAV_jobject@@0@Z$3 1006969b f   awt_Checkbox.obj
 0001:00068e9e       __catch$_Java_java_awt_Checkbox_initIDs@8$0 10069e9e f   awt_Checkbox.obj
 0001:00068eab       __catch$_Java_java_awt_Checkbox_initIDs@8$1 10069eab f   awt_Checkbox.obj
 0001:00068f07       __catch$_Java_sun_awt_windows_WCheckboxPeer_setState@12$0 10069f07 f   awt_Checkbox.obj
 0001:00068f14       __catch$_Java_sun_awt_windows_WCheckboxPeer_setState@12$1 10069f14 f   awt_Checkbox.obj
 0001:00068f70       __catch$_Java_sun_awt_windows_WCheckboxPeer_setCheckboxGroup@12$0 10069f70 f   awt_Checkbox.obj
 0001:00068f7d       __catch$_Java_sun_awt_windows_WCheckboxPeer_setCheckboxGroup@12$1 10069f7d f   awt_Checkbox.obj
 0001:00068fe3       __catch$_Java_sun_awt_windows_WCheckboxPeer_setLabel@12$0 10069fe3 f   awt_Checkbox.obj
 0001:00068ff0       __catch$_Java_sun_awt_windows_WCheckboxPeer_setLabel@12$1 10069ff0 f   awt_Checkbox.obj
 0001:00069092       __catch$_Java_sun_awt_windows_WCheckboxPeer_create@12$0 1006a092 f   awt_Checkbox.obj
 0001:0006909f       __catch$_Java_sun_awt_windows_WCheckboxPeer_create@12$1 1006a09f f   awt_Checkbox.obj
 0001:0006942b       __catch$?Create@AwtChoice@@SAPAV1@PAV_jobject@@0@Z$3 1006a42b f   awt_Choice.obj
 0001:00069e0a       __catch$_Java_sun_awt_windows_WChoicePeer_select@12$0 1006ae0a f   awt_Choice.obj
 0001:00069e17       __catch$_Java_sun_awt_windows_WChoicePeer_select@12$1 1006ae17 f   awt_Choice.obj
 0001:00069e6d       __catch$_Java_sun_awt_windows_WChoicePeer_remove@12$0 1006ae6d f   awt_Choice.obj
 0001:00069e7a       __catch$_Java_sun_awt_windows_WChoicePeer_remove@12$1 1006ae7a f   awt_Choice.obj
 0001:00069ebe       __catch$_Java_sun_awt_windows_WChoicePeer_removeAll@8$0 1006aebe f   awt_Choice.obj
 0001:00069ecb       __catch$_Java_sun_awt_windows_WChoicePeer_removeAll@8$1 1006aecb f   awt_Choice.obj
 0001:00069f2d       __catch$_Java_sun_awt_windows_WChoicePeer_addItems@16$0 1006af2d f   awt_Choice.obj
 0001:00069f3a       __catch$_Java_sun_awt_windows_WChoicePeer_addItems@16$1 1006af3a f   awt_Choice.obj
 0001:00069fa2       __catch$_Java_sun_awt_windows_WChoicePeer_reshape@24$0 1006afa2 f   awt_Choice.obj
 0001:00069faf       __catch$_Java_sun_awt_windows_WChoicePeer_reshape@24$1 1006afaf f   awt_Choice.obj
 0001:0006a051       __catch$_Java_sun_awt_windows_WChoicePeer_create@12$0 1006b051 f   awt_Choice.obj
 0001:0006a05e       __catch$_Java_sun_awt_windows_WChoicePeer_create@12$1 1006b05e f   awt_Choice.obj
 0001:0006a0a2       __catch$_Java_sun_awt_windows_WChoicePeer_closeList@8$0 1006b0a2 f   awt_Choice.obj
 0001:0006a0af       __catch$_Java_sun_awt_windows_WChoicePeer_closeList@8$1 1006b0af f   awt_Choice.obj
 0001:0006a1fd       __catch$?ListWindowProc@AwtChoice@@CGJPAUHWND__@@IIJ@Z$0 1006b1fd f   awt_Choice.obj
 0001:0006a212       __catch$?ListWindowProc@AwtChoice@@CGJPAUHWND__@@IIJ@Z$1 1006b212 f   awt_Choice.obj
 0001:0006a4c6       __catch$?UnregisterClipboardViewer@AwtClipboard@@SAXPAUJNIEnv_@@@Z$0 1006b4c6 f   awt_Clipboard.obj
 0001:0006a4d3       __catch$?UnregisterClipboardViewer@AwtClipboard@@SAXPAUJNIEnv_@@@Z$1 1006b4d3 f   awt_Clipboard.obj
 0001:0006a53a       __catch$_Java_sun_awt_windows_WClipboard_init@8$0 1006b53a f   awt_Clipboard.obj
 0001:0006a547       __catch$_Java_sun_awt_windows_WClipboard_init@8$1 1006b547 f   awt_Clipboard.obj
 0001:0006a5bf       __catch$_Java_sun_awt_windows_WClipboard_openClipboard@12$0 1006b5bf f   awt_Clipboard.obj
 0001:0006a5cc       __catch$_Java_sun_awt_windows_WClipboard_openClipboard@12$1 1006b5cc f   awt_Clipboard.obj
 0001:0006a60a       __catch$_Java_sun_awt_windows_WClipboard_closeClipboard@8$0 1006b60a f   awt_Clipboard.obj
 0001:0006a617       __catch$_Java_sun_awt_windows_WClipboard_closeClipboard@8$1 1006b617 f   awt_Clipboard.obj
 0001:0006a64c       __catch$_Java_sun_awt_windows_WClipboard_registerClipboardViewer@8$0 1006b64c f   awt_Clipboard.obj
 0001:0006a659       __catch$_Java_sun_awt_windows_WClipboard_registerClipboardViewer@8$1 1006b659 f   awt_Clipboard.obj
 0001:0006a87b       __catch$_Java_sun_awt_windows_WClipboard_publishClipboardData@20$0 1006b87b f   awt_Clipboard.obj
 0001:0006a88b       __catch$_Java_sun_awt_windows_WClipboard_publishClipboardData@20$1 1006b88b f   awt_Clipboard.obj
 0001:0006a92b       __catch$_Java_sun_awt_windows_WClipboard_getClipboardFormats@8$0 1006b92b f   awt_Clipboard.obj
 0001:0006a940       __catch$_Java_sun_awt_windows_WClipboard_getClipboardFormats@8$1 1006b940 f   awt_Clipboard.obj
 0001:0006aa6f       __catch$_Java_sun_awt_windows_WClipboard_getClipboardData@16$2 1006ba6f f   awt_Clipboard.obj
 0001:0006aa6f       __catch$_Java_sun_awt_windows_WClipboard_getClipboardData@16$0 1006ba6f f   awt_Clipboard.obj
 0001:0006ac3b       __catch$_Java_sun_awt_windows_WClipboard_getClipboardData@16$4 1006bc3b f   awt_Clipboard.obj
 0001:0006ac4b       __catch$_Java_sun_awt_windows_WClipboard_getClipboardData@16$5 1006bc4b f   awt_Clipboard.obj
 0001:0006ac91       __catch$_Java_java_awt_Color_initIDs@8$0 1006bc91 f   awt_Color.obj
 0001:0006ac9e       __catch$_Java_java_awt_Color_initIDs@8$1 1006bc9e f   awt_Color.obj
 0001:0006ad25       __catch$_Java_sun_awt_windows_WColor_getDefaultColor@12$0 1006bd25 f   awt_Color.obj
 0001:0006ad3a       __catch$_Java_sun_awt_windows_WColor_getDefaultColor@12$1 1006bd3a f   awt_Color.obj
 0001:0006b818       ?isKanaLockAvailable@@YAHXZ 1006c818 f   awt_Component.obj
 0001:0006ba82       ?resetKbdState@@YAXQAE@Z   1006ca82 f   awt_Component.obj
 0001:0006dcf2       __GetInsets                1006ecf2 f   awt_Component.obj
 0001:0006dde2       __catch$_AwtComponent_GetInsets$0 1006ede2 f   awt_Component.obj
 0001:0006ddef       __catch$_AwtComponent_GetInsets$1 1006edef f   awt_Component.obj
 0001:0006e0cc       __catch$_Java_java_awt_Component_initIDs@8$0 1006f0cc f   awt_Component.obj
 0001:0006e0d9       __catch$_Java_java_awt_Component_initIDs@8$1 1006f0d9 f   awt_Component.obj
 0001:0006e11d       __catch$_Java_sun_awt_windows_WComponentPeer_pShow@8$0 1006f11d f   awt_Component.obj
 0001:0006e12a       __catch$_Java_sun_awt_windows_WComponentPeer_pShow@8$1 1006f12a f   awt_Component.obj
 0001:0006e16e       __catch$_Java_sun_awt_windows_WComponentPeer_hide@8$0 1006f16e f   awt_Component.obj
 0001:0006e17b       __catch$_Java_sun_awt_windows_WComponentPeer_hide@8$1 1006f17b f   awt_Component.obj
 0001:0006e1bf       __catch$_Java_sun_awt_windows_WComponentPeer_enable@8$0 1006f1bf f   awt_Component.obj
 0001:0006e1cc       __catch$_Java_sun_awt_windows_WComponentPeer_enable@8$1 1006f1cc f   awt_Component.obj
 0001:0006e210       __catch$_Java_sun_awt_windows_WComponentPeer_disable@8$0 1006f210 f   awt_Component.obj
 0001:0006e21d       __catch$_Java_sun_awt_windows_WComponentPeer_disable@8$1 1006f21d f   awt_Component.obj
 0001:0006e273       __catch$_Java_sun_awt_windows_WComponentPeer_getLocationOnScreen@8$0 1006f273 f   awt_Component.obj
 0001:0006e288       __catch$_Java_sun_awt_windows_WComponentPeer_getLocationOnScreen@8$1 1006f288 f   awt_Component.obj
 0001:0006e2f0       __catch$_Java_sun_awt_windows_WComponentPeer_reshape@24$0 1006f2f0 f   awt_Component.obj
 0001:0006e2fd       __catch$_Java_sun_awt_windows_WComponentPeer_reshape@24$1 1006f2fd f   awt_Component.obj
 0001:0006e365       __catch$_Java_sun_awt_windows_WComponentPeer_reshapeNoCheck@24$0 1006f365 f   awt_Component.obj
 0001:0006e372       __catch$_Java_sun_awt_windows_WComponentPeer_reshapeNoCheck@24$1 1006f372 f   awt_Component.obj
 0001:0006e3c8       __catch$_Java_sun_awt_windows_WComponentPeer__1setForeground@12$0 1006f3c8 f   awt_Component.obj
 0001:0006e3d5       __catch$_Java_sun_awt_windows_WComponentPeer__1setForeground@12$1 1006f3d5 f   awt_Component.obj
 0001:0006e42b       __catch$_Java_sun_awt_windows_WComponentPeer__1setBackground@12$0 1006f42b f   awt_Component.obj
 0001:0006e438       __catch$_Java_sun_awt_windows_WComponentPeer__1setBackground@12$1 1006f438 f   awt_Component.obj
 0001:0006e496       __catch$_Java_sun_awt_windows_WComponentPeer__1setFont@12$0 1006f496 f   awt_Component.obj
 0001:0006e4a3       __catch$_Java_sun_awt_windows_WComponentPeer__1setFont@12$1 1006f4a3 f   awt_Component.obj
 0001:0006e4f9       __catch$_Java_sun_awt_windows_WComponentPeer_setFocus@12$0 1006f4f9 f   awt_Component.obj
 0001:0006e506       __catch$_Java_sun_awt_windows_WComponentPeer_setFocus@12$1 1006f506 f   awt_Component.obj
 0001:0006e54a       __catch$_Java_sun_awt_windows_WComponentPeer_start@8$0 1006f54a f   awt_Component.obj
 0001:0006e557       __catch$_Java_sun_awt_windows_WComponentPeer_start@8$1 1006f557 f   awt_Component.obj
 0001:0006e59b       __catch$_Java_sun_awt_windows_WComponentPeer_beginValidate@8$0 1006f59b f   awt_Component.obj
 0001:0006e5a8       __catch$_Java_sun_awt_windows_WComponentPeer_beginValidate@8$1 1006f5a8 f   awt_Component.obj
 0001:0006e5ec       __catch$_Java_sun_awt_windows_WComponentPeer_endValidate@8$0 1006f5ec f   awt_Component.obj
 0001:0006e5f9       __catch$_Java_sun_awt_windows_WComponentPeer_endValidate@8$1 1006f5f9 f   awt_Component.obj
 0001:0006e63d       __catch$_Java_sun_awt_windows_WComponentPeer_updateWindow@8$0 1006f63d f   awt_Component.obj
 0001:0006e64a       __catch$_Java_sun_awt_windows_WComponentPeer_updateWindow@8$1 1006f64a f   awt_Component.obj
 0001:0006e689       __catch$_Java_sun_awt_windows_WComponentPeer_addNativeDropTarget@8$0 1006f689 f   awt_Component.obj
 0001:0006e6a0       __catch$_Java_sun_awt_windows_WComponentPeer_addNativeDropTarget@8$1 1006f6a0 f   awt_Component.obj
 0001:0006e6e4       __catch$_Java_sun_awt_windows_WComponentPeer_removeNativeDropTarget@8$0 1006f6e4 f   awt_Component.obj
 0001:0006e6f1       __catch$_Java_sun_awt_windows_WComponentPeer_removeNativeDropTarget@8$1 1006f6f1 f   awt_Component.obj
 0001:0006e738       __catch$_Java_sun_awt_windows_WComponentPeer_getTargetGC@8$0 1006f738 f   awt_Component.obj
 0001:0006e74d       __catch$_Java_sun_awt_windows_WComponentPeer_getTargetGC@8$1 1006f74d f   awt_Component.obj
 0001:0006e7cd       __catch$_Java_sun_awt_windows_WComponentPeer_createPrintedPixels@28$0 1006f7cd f   awt_Component.obj
 0001:0006e7e2       __catch$_Java_sun_awt_windows_WComponentPeer_createPrintedPixels@28$1 1006f7e2 f   awt_Component.obj
 0001:0006e820       __catch$_Java_sun_awt_windows_WComponentPeer_nativeHandlesWheelScrolling@8$0 1006f820 f   awt_Component.obj
 0001:0006e835       __catch$_Java_sun_awt_windows_WComponentPeer_nativeHandlesWheelScrolling@8$1 1006f835 f   awt_Component.obj
 0001:0006e873       __catch$_Java_sun_awt_windows_WComponentPeer_isObscured@8$0 1006f873 f   awt_Component.obj
 0001:0006e888       __catch$_Java_sun_awt_windows_WComponentPeer_isObscured@8$1 1006f888 f   awt_Component.obj
 0001:0006e8fe       __catch$_Java_sun_awt_windows_WComponentPeer_pSetParent@12$0 1006f8fe f   awt_Component.obj
 0001:0006e90b       __catch$_Java_sun_awt_windows_WComponentPeer_pSetParent@12$1 1006f90b f   awt_Component.obj
 0001:0006e98a       __catch$_Java_sun_awt_windows_WComponentPeer_setRectangularShape@28$0 1006f98a f   awt_Component.obj
 0001:0006e997       __catch$_Java_sun_awt_windows_WComponentPeer_setRectangularShape@28$1 1006f997 f   awt_Component.obj
 0001:0006e9f3       __catch$_Java_sun_awt_windows_WComponentPeer_setZOrder@16$0 1006f9f3 f   awt_Component.obj
 0001:0006ea00       __catch$_Java_sun_awt_windows_WComponentPeer_setZOrder@16$1 1006fa00 f   awt_Component.obj
 0001:0006ecef       __catch$?WndProc@AwtComponent@@SGJPAUHWND__@@IIJ@Z$0 1006fcef f   awt_Component.obj
 0001:0006ed04       __catch$?WndProc@AwtComponent@@SGJPAUHWND__@@IIJ@Z$1 1006fd04 f   awt_Component.obj
 0001:00070dc5       __catch$_Java_sun_awt_windows_WComponentPeer_nativeHandleEvent@12$0 10071dc5 f   awt_Component.obj
 0001:00070dd2       __catch$_Java_sun_awt_windows_WComponentPeer_nativeHandleEvent@12$1 10071dd2 f   awt_Component.obj
 0001:00071f24       __catch$?WmImeComposition@AwtComponent@@UAE?AW4MsgRouting@@GJ@Z$0 10072f24 f   awt_Component.obj
 0001:00071fac       __catch$_Java_java_awt_Container_initIDs@8$0 10072fac f   awt_Container.obj
 0001:00071fb9       __catch$_Java_java_awt_Container_initIDs@8$1 10072fb9 f   awt_Container.obj
 0001:000723c2       __catch$_Java_java_awt_Cursor_initIDs@8$0 100733c2 f   awt_Cursor.obj
 0001:000723cf       __catch$_Java_java_awt_Cursor_initIDs@8$1 100733cf f   awt_Cursor.obj
 0001:000723fb       __catch$_Java_java_awt_Cursor_finalizeImpl@16$0 100733fb f   awt_Cursor.obj
 0001:00072408       __catch$_Java_java_awt_Cursor_finalizeImpl@16$1 10073408 f   awt_Cursor.obj
 0001:000725c0       __catch$_Java_sun_awt_windows_WCustomCursor_createCursorIndirect@36$0 100735c0 f   awt_Cursor.obj
 0001:000725f3       __catch$_Java_sun_awt_windows_WCustomCursor_createCursorIndirect@36$2 100735f3 f   awt_Cursor.obj
 0001:00072603       __catch$_Java_sun_awt_windows_WCustomCursor_createCursorIndirect@36$3 10073603 f   awt_Cursor.obj
 0001:0007262d       __catch$_Java_sun_awt_windows_WCustomCursor_getCursorWidth@8$0 1007362d f   awt_Cursor.obj
 0001:00072642       __catch$_Java_sun_awt_windows_WCustomCursor_getCursorWidth@8$1 10073642 f   awt_Cursor.obj
 0001:0007266c       __catch$_Java_sun_awt_windows_WCustomCursor_getCursorHeight@8$0 1007366c f   awt_Cursor.obj
 0001:00072681       __catch$_Java_sun_awt_windows_WCustomCursor_getCursorHeight@8$1 10073681 f   awt_Cursor.obj
 0001:000726e0       __catch$_Java_sun_awt_windows_WGlobalCursorManager_getCursorPos@12$0 100736e0 f   awt_Cursor.obj
 0001:000726ed       __catch$_Java_sun_awt_windows_WGlobalCursorManager_getCursorPos@12$1 100736ed f   awt_Cursor.obj
 0001:00072756       __catch$_Java_sun_awt_windows_WGlobalCursorManager_findHeavyweightUnderCursor@12$0 10073756 f   awt_Cursor.obj
 0001:0007276b       __catch$_Java_sun_awt_windows_WGlobalCursorManager_findHeavyweightUnderCursor@12$1 1007376b f   awt_Cursor.obj
 0001:000727c5       __catch$_Java_sun_awt_windows_WGlobalCursorManager_findComponentAt@20$0 100737c5 f   awt_Cursor.obj
 0001:000727d2       __catch$_Java_sun_awt_windows_WGlobalCursorManager_findComponentAt@20$1 100737d2 f   awt_Cursor.obj
 0001:00072825       __catch$_Java_sun_awt_windows_WGlobalCursorManager_getLocationOnScreen@12$0 10073825 f   awt_Cursor.obj
 0001:00072832       __catch$_Java_sun_awt_windows_WGlobalCursorManager_getLocationOnScreen@12$1 10073832 f   awt_Cursor.obj
 0001:00072a07       _GlobalSetCursor           10073a07 f   awt_Cursor.obj
 0001:00072b62       __catch$_Java_sun_awt_windows_WGlobalCursorManager_setCursor@20$0 10073b62 f   awt_Cursor.obj
 0001:00072b6f       __catch$_Java_sun_awt_windows_WGlobalCursorManager_setCursor@20$1 10073b6f f   awt_Cursor.obj
 0001:00072b75       ?get_dataTransfererClazz@@YAPAV_jclass@@PAUJNIEnv_@@@Z 10073b75 f   awt_DataTransferer.obj
 0001:00072f0b       ?IdleFunc@@YGXXZ           10073f0b f   awt_DataTransferer.obj
 0001:00072f1d       ?PeekMessageFunc@@YGHAAUtagMSG@@@Z 10073f1d f   awt_DataTransferer.obj
 0001:000730ec       __catch$_Java_sun_awt_windows_WDataTransferer_dragQueryFile@12$0 100740ec f   awt_DataTransferer.obj
 0001:00073111       __catch$_Java_sun_awt_windows_WDataTransferer_dragQueryFile@12$2 10074111 f   awt_DataTransferer.obj
 0001:00073126       __catch$_Java_sun_awt_windows_WDataTransferer_dragQueryFile@12$3 10074126 f   awt_DataTransferer.obj
 0001:0007359e       __catch$_Java_sun_awt_windows_WDataTransferer_platformImageBytesToImageData@20$0 1007459e f   awt_DataTransferer.obj
 0001:0007361f       __catch$_Java_sun_awt_windows_WDataTransferer_platformImageBytesToImageData@20$2 1007461f f   awt_DataTransferer.obj
 0001:0007362f       __catch$_Java_sun_awt_windows_WDataTransferer_platformImageBytesToImageData@20$3 1007462f f   awt_DataTransferer.obj
 0001:000738f2       __catch$_Java_sun_awt_windows_WDataTransferer_imageDataToPlatformImageBytes@28$0 100748f2 f   awt_DataTransferer.obj
 0001:00073ada       __catch$_Java_sun_awt_windows_WDataTransferer_imageDataToPlatformImageBytes@28$2 10074ada f   awt_DataTransferer.obj
 0001:00073b44       __catch$_Java_sun_awt_windows_WDataTransferer_imageDataToPlatformImageBytes@28$4 10074b44 f   awt_DataTransferer.obj
 0001:00073b59       __catch$_Java_sun_awt_windows_WDataTransferer_imageDataToPlatformImageBytes@28$5 10074b59 f   awt_DataTransferer.obj
 0001:00073bad       __catch$_Java_sun_awt_windows_WDataTransferer_registerClipboardFormat@12$0 10074bad f   awt_DataTransferer.obj
 0001:00073bc4       __catch$_Java_sun_awt_windows_WDataTransferer_registerClipboardFormat@12$1 10074bc4 f   awt_DataTransferer.obj
 0001:00073c41       __catch$_Java_sun_awt_windows_WDataTransferer_getClipboardFormatName@16$0 10074c41 f   awt_DataTransferer.obj
 0001:00073c56       __catch$_Java_sun_awt_windows_WDataTransferer_getClipboardFormatName@16$1 10074c56 f   awt_DataTransferer.obj
 0001:00073c83       __catch$_Java_sun_awt_windows_WToolkitThreadBlockedHandler_startSecondaryEventLoop@8$0 10074c83 f   awt_DataTransferer.obj
 0001:00073c90       __catch$_Java_sun_awt_windows_WToolkitThreadBlockedHandler_startSecondaryEventLoop@8$1 10074c90 f   awt_DataTransferer.obj
 0001:00073cee       __catch$_Java_java_awt_Dimension_initIDs@8$0 10074cee f   awt_Dimension.obj
 0001:00073cfb       __catch$_Java_java_awt_Dimension_initIDs@8$1 10074cfb f   awt_Dimension.obj
 0001:00073e1a       ?resolveShellDialogFont@@YAPAGPAGPAUHKEY__@@@Z 10074e1a f   awt_DesktopProperties.obj
 0001:00073e7d       ?resolveShellDialogFont@@YAPAGXZ 10074e7d f   awt_DesktopProperties.obj
 0001:00073ed9       ?getWindowsPropFromReg@@YAPAGPAG0PAK@Z 10074ed9 f   awt_DesktopProperties.obj
 0001:00073fb9       ?getXPStylePropFromReg@@YAPAGPAG@Z 10074fb9 f   awt_DesktopProperties.obj
 0001:00074895       __catch$_Java_sun_awt_windows_WDesktopProperties_initIDs@8$0 10075895 f   awt_DesktopProperties.obj
 0001:000748a2       __catch$_Java_sun_awt_windows_WDesktopProperties_initIDs@8$1 100758a2 f   awt_DesktopProperties.obj
 0001:000748e7       __catch$_Java_sun_awt_windows_WDesktopProperties_init@8$0 100758e7 f   awt_DesktopProperties.obj
 0001:000748f4       __catch$_Java_sun_awt_windows_WDesktopProperties_init@8$1 100758f4 f   awt_DesktopProperties.obj
 0001:0007495d       __catch$_Java_sun_awt_windows_WDesktopProperties_playWindowsSound@12$0 1007595d f   awt_DesktopProperties.obj
 0001:0007496a       __catch$_Java_sun_awt_windows_WDesktopProperties_playWindowsSound@12$1 1007596a f   awt_DesktopProperties.obj
 0001:0007537f       __catch$_Java_sun_awt_windows_WDesktopProperties_getWindowsParameters@8$0 1007637f f   awt_DesktopProperties.obj
 0001:0007538c       __catch$_Java_sun_awt_windows_WDesktopProperties_getWindowsParameters@8$1 1007638c f   awt_DesktopProperties.obj
 0001:00075d14       __catch$_Java_java_awt_Dialog_initIDs@8$0 10076d14 f   awt_Dialog.obj
 0001:00075d21       __catch$_Java_java_awt_Dialog_initIDs@8$1 10076d21 f   awt_Dialog.obj
 0001:00075d65       __catch$_Java_sun_awt_windows_WDialogPeer_showModal@8$0 10076d65 f   awt_Dialog.obj
 0001:00075d72       __catch$_Java_sun_awt_windows_WDialogPeer_showModal@8$1 10076d72 f   awt_Dialog.obj
 0001:00075db6       __catch$_Java_sun_awt_windows_WDialogPeer_endModal@8$0 10076db6 f   awt_Dialog.obj
 0001:00075dc3       __catch$_Java_sun_awt_windows_WDialogPeer_endModal@8$1 10076dc3 f   awt_Dialog.obj
 0001:00075e1f       __catch$_Java_sun_awt_windows_WDialogPeer_pSetIMMOption@12$0 10076e1f f   awt_Dialog.obj
 0001:00075e2c       __catch$_Java_sun_awt_windows_WDialogPeer_pSetIMMOption@12$1 10076e2c f   awt_Dialog.obj
 0001:000760d1       __catch$?Create@AwtDialog@@SAPAV1@PAV_jobject@@0@Z$3 100770d1 f   awt_Dialog.obj
 0001:000761fe       __catch$_Java_sun_awt_windows_WDialogPeer_createAwtDialog@12$0 100771fe f   awt_Dialog.obj
 0001:0007620b       __catch$_Java_sun_awt_windows_WDialogPeer_createAwtDialog@12$1 1007720b f   awt_Dialog.obj
 0001:000765c1       __catch$?Init@JAWTDrawingSurfaceInfo@@QAEJPAVJAWTDrawingSurface@@@Z$0 100775c1 f   awt_DrawingSurface.obj
 0001:000765cc       __catch$?Init@JAWTDrawingSurfaceInfo@@QAEJPAVJAWTDrawingSurface@@@Z$1 100775cc f   awt_DrawingSurface.obj
 0001:0007660c       __catch$??1JAWTDrawingSurface@@UAE@XZ$0 1007760c f   awt_DrawingSurface.obj
 0001:00076619       __catch$??1JAWTDrawingSurface@@UAE@XZ$1 10077619 f   awt_DrawingSurface.obj
 0001:0007664c       __catch$?GetDSI@JAWTDrawingSurface@@SGPAUjawt_DrawingSurfaceInfo@@PAUjawt_DrawingSurface@@@Z$0 1007764c f   awt_DrawingSurface.obj
 0001:00076661       __catch$?GetDSI@JAWTDrawingSurface@@SGPAUjawt_DrawingSurfaceInfo@@PAUjawt_DrawingSurface@@@Z$1 10077661 f   awt_DrawingSurface.obj
 0001:0007669d       __catch$?FreeDSI@JAWTDrawingSurface@@SGXPAUjawt_DrawingSurfaceInfo@@@Z$0 1007769d f   awt_DrawingSurface.obj
 0001:000766aa       __catch$?FreeDSI@JAWTDrawingSurface@@SGXPAUjawt_DrawingSurfaceInfo@@@Z$1 100776aa f   awt_DrawingSurface.obj
 0001:00076701       __catch$?LockSurface@JAWTDrawingSurface@@SGJPAUjawt_DrawingSurface@@@Z$0 10077701 f   awt_DrawingSurface.obj
 0001:0007670c       __catch$?LockSurface@JAWTDrawingSurface@@SGJPAUjawt_DrawingSurface@@@Z$1 1007770c f   awt_DrawingSurface.obj
 0001:00076739       __catch$?UnlockSurface@JAWTDrawingSurface@@SGXPAUjawt_DrawingSurface@@@Z$0 10077739 f   awt_DrawingSurface.obj
 0001:00076746       __catch$?UnlockSurface@JAWTDrawingSurface@@SGXPAUjawt_DrawingSurface@@@Z$1 10077746 f   awt_DrawingSurface.obj
 0001:00076781       __catch$_DSFreeDrawingSurface@4$0 10077781 f   awt_DrawingSurface.obj
 0001:0007678e       __catch$_DSFreeDrawingSurface@4$1 1007778e f   awt_DrawingSurface.obj
 0001:0007680d       __catch$??0JAWTDrawingSurface@@QAE@PAUJNIEnv_@@PAV_jobject@@@Z$0 1007780d f   awt_DrawingSurface.obj
 0001:00076825       __catch$??0JAWTDrawingSurface@@QAE@PAUJNIEnv_@@PAV_jobject@@@Z$1 10077825 f   awt_DrawingSurface.obj
 0001:00076889       __catch$_DSGetDrawingSurface@8$0 10077889 f   awt_DrawingSurface.obj
 0001:0007689e       __catch$_DSGetDrawingSurface@8$1 1007789e f   awt_DrawingSurface.obj
 0001:00076b4f       __catch$_Java_sun_awt_windows_WFileDialogPeer_initIDs@8$0 10077b4f f   awt_FileDialog.obj
 0001:00076b5c       __catch$_Java_sun_awt_windows_WFileDialogPeer_initIDs@8$1 10077b5c f   awt_FileDialog.obj
 0001:00076b91       __catch$_Java_sun_awt_windows_WFileDialogPeer_setFilterString@12$0 10077b91 f   awt_FileDialog.obj
 0001:00076b9e       __catch$_Java_sun_awt_windows_WFileDialogPeer_setFilterString@12$1 10077b9e f   awt_FileDialog.obj
 0001:00076bdd       __catch$_Java_sun_awt_windows_WFileDialogPeer__1dispose@8$0 10077bdd f   awt_FileDialog.obj
 0001:00076bea       __catch$_Java_sun_awt_windows_WFileDialogPeer__1dispose@8$1 10077bea f   awt_FileDialog.obj
 0001:00076c2e       __catch$_Java_sun_awt_windows_WFileDialogPeer__1hide@8$0 10077c2e f   awt_FileDialog.obj
 0001:00076c3b       __catch$_Java_sun_awt_windows_WFileDialogPeer__1hide@8$1 10077c3b f   awt_FileDialog.obj
 0001:00076c7f       __catch$_Java_sun_awt_windows_WFileDialogPeer_toFront@8$0 10077c7f f   awt_FileDialog.obj
 0001:00076c7f       __catch$_Java_sun_awt_windows_WPrintDialogPeer_toFront@8$0 10077c7f f   awt_FileDialog.obj
 0001:00076c8c       __catch$_Java_sun_awt_windows_WPrintDialogPeer_toFront@8$1 10077c8c f   awt_FileDialog.obj
 0001:00076c8c       __catch$_Java_sun_awt_windows_WFileDialogPeer_toFront@8$1 10077c8c f   awt_FileDialog.obj
 0001:00076cd0       __catch$_Java_sun_awt_windows_WPrintDialogPeer_toBack@8$0 10077cd0 f   awt_FileDialog.obj
 0001:00076cd0       __catch$_Java_sun_awt_windows_WFileDialogPeer_toBack@8$0 10077cd0 f   awt_FileDialog.obj
 0001:00076cdd       __catch$_Java_sun_awt_windows_WPrintDialogPeer_toBack@8$1 10077cdd f   awt_FileDialog.obj
 0001:00076cdd       __catch$_Java_sun_awt_windows_WFileDialogPeer_toBack@8$1 10077cdd f   awt_FileDialog.obj
 0001:00076d59       ?FileDialogHookProc@@YGIPAUHWND__@@IIJ@Z 10077d59 f   awt_FileDialog.obj
 0001:0007701f       __catch$?FileDialogHookProc@@YGIPAUHWND__@@IIJ@Z$0 1007801f f   awt_FileDialog.obj
 0001:0007702a       __catch$?FileDialogHookProc@@YGIPAUHWND__@@IIJ@Z$1 1007802a f   awt_FileDialog.obj
 0001:000773f5       __catch$?Show@AwtFileDialog@@SAXPAX@Z$0 100783f5 f   awt_FileDialog.obj
 0001:000774af       __catch$_Java_sun_awt_windows_WFileDialogPeer__1show@8$0 100784af f   awt_FileDialog.obj
 0001:000774bc       __catch$_Java_sun_awt_windows_WFileDialogPeer__1show@8$1 100784bc f   awt_FileDialog.obj
 0001:00077535       __catch$_Java_java_awt_Event_initIDs@8$0 10078535 f   awt_Event.obj
 0001:00077542       __catch$_Java_java_awt_Event_initIDs@8$1 10078542 f   awt_Event.obj
 0001:000776bc       ?pDataDisposeMethod@@YAXPAUJNIEnv_@@_J@Z 100786bc f   awt_Font.obj
 0001:000776e0       __catch$?pDataDisposeMethod@@YAXPAUJNIEnv_@@_J@Z$0 100786e0 f   awt_Font.obj
 0001:000776ed       __catch$?pDataDisposeMethod@@YAXPAUJNIEnv_@@_J@Z$1 100786ed f   awt_Font.obj
 0001:000776f3       ?GetNativeCharset@@YAHPBG@Z 100786f3 f   awt_Font.obj
 0001:00077895       ?strip_tail@@YAXPAG0@Z     10078895 f   awt_Font.obj
 0001:000778f1       ?CreateHFont_sub@@YAPAUHFONT__@@PBGHHHM@Z 100788f1 f   awt_Font.obj
 0001:00077c7c       __catch$_Java_sun_awt_windows_WFontMetrics_bytesWidth@20$0 10078c7c f   awt_Font.obj
 0001:00077c85       __catch$_Java_sun_awt_windows_WFontMetrics_bytesWidth@20$2 10078c85 f   awt_Font.obj
 0001:00077cb4       __catch$_Java_sun_awt_windows_WFontMetrics_bytesWidth@20$4 10078cb4 f   awt_Font.obj
 0001:00077cc4       __catch$_Java_sun_awt_windows_WFontMetrics_bytesWidth@20$5 10078cc4 f   awt_Font.obj
 0001:00077db8       __catch$_Java_sun_awt_windows_WFontMetrics_initIDs@8$0 10078db8 f   awt_Font.obj
 0001:00077dc5       __catch$_Java_sun_awt_windows_WFontMetrics_initIDs@8$1 10078dc5 f   awt_Font.obj
 0001:00077e86       __catch$_Java_java_awt_Font_initIDs@8$0 10078e86 f   awt_Font.obj
 0001:00077e93       __catch$_Java_java_awt_Font_initIDs@8$1 10078e93 f   awt_Font.obj
 0001:00077ef4       __catch$_Java_java_awt_FontMetrics_initIDs@8$0 10078ef4 f   awt_Font.obj
 0001:00077f01       __catch$_Java_java_awt_FontMetrics_initIDs@8$1 10078f01 f   awt_Font.obj
 0001:00077f62       __catch$_Java_sun_awt_FontDescriptor_initIDs@8$0 10078f62 f   awt_Font.obj
 0001:00077f6f       __catch$_Java_sun_awt_FontDescriptor_initIDs@8$1 10078f6f f   awt_Font.obj
 0001:00077feb       __catch$_Java_sun_awt_PlatformFont_initIDs@8$0 10078feb f   awt_Font.obj
 0001:00077ff8       __catch$_Java_sun_awt_PlatformFont_initIDs@8$1 10078ff8 f   awt_Font.obj
 0001:0007803e       __catch$_Java_sun_awt_windows_WFontPeer_initIDs@8$0 1007903e f   awt_Font.obj
 0001:0007804b       __catch$_Java_sun_awt_windows_WFontPeer_initIDs@8$1 1007904b f   awt_Font.obj
 0001:00078786       __catch$_Java_sun_awt_windows_WDefaultFontCharset_initIDs@8$0 10079786 f   awt_Font.obj
 0001:00078793       __catch$_Java_sun_awt_windows_WDefaultFontCharset_initIDs@8$1 10079793 f   awt_Font.obj
 0001:00078a43       __catch$?MakeTable@CSegTable@@IAEXXZ$0 10079a43 f   awt_Font.obj
 0001:00078e48       __catch$_Java_sun_awt_windows_WDefaultFontCharset_canConvert@12$0 10079e48 f   awt_Font.obj
 0001:00078e5d       __catch$_Java_sun_awt_windows_WDefaultFontCharset_canConvert@12$1 10079e5d f   awt_Font.obj
 0001:000791d3       __catch$?Create@AwtFont@@SAPAV1@PAUJNIEnv_@@PAV_jobject@@JM@Z$0 1007a1d3 f   awt_Font.obj
 0001:0007987a       __catch$?DrawStringSize_sub@AwtFont@@SA?AUtagSIZE@@PAV_jstring@@PAUHDC__@@PAV_jobject@@JJHI@Z$0 1007a87a f   awt_Font.obj
 0001:000798e7       __catch$_Java_sun_awt_windows_WFontMetrics_init@8$0 1007a8e7 f   awt_Font.obj
 0001:000798f4       __catch$_Java_sun_awt_windows_WFontMetrics_init@8$1 1007a8f4 f   awt_Font.obj
 0001:0007996e       __catch$_Java_sun_awt_windows_WFontMetrics_stringWidth@12$0 1007a96e f   awt_Font.obj
 0001:0007997b       __catch$_Java_sun_awt_windows_WFontMetrics_stringWidth@12$1 1007a97b f   awt_Font.obj
 0001:00079a3a       __catch$_Java_sun_awt_windows_WFontMetrics_charsWidth@20$0 1007aa3a f   awt_Font.obj
 0001:00079a4a       __catch$_Java_sun_awt_windows_WFontMetrics_charsWidth@20$1 1007aa4a f   awt_Font.obj
 0001:00079f37       __catch$?Create@AwtFrame@@SAPAV1@PAV_jobject@@0@Z$3 1007af37 f   awt_Frame.obj
 0001:0007a9d6       ?keepOnMinimize@@YAHPAV_jobject@@@Z 1007b9d6 f   awt_Frame.obj
 0001:0007b249       __catch$_Java_java_awt_Frame_initIDs@8$0 1007c249 f   awt_Frame.obj
 0001:0007b256       __catch$_Java_java_awt_Frame_initIDs@8$1 1007c256 f   awt_Frame.obj
 0001:0007b2b7       __catch$_Java_sun_awt_windows_WFramePeer_initIDs@8$0 1007c2b7 f   awt_Frame.obj
 0001:0007b2c4       __catch$_Java_sun_awt_windows_WFramePeer_initIDs@8$1 1007c2c4 f   awt_Frame.obj
 0001:0007b31a       __catch$_Java_sun_awt_windows_WFramePeer_setState@12$0 1007c31a f   awt_Frame.obj
 0001:0007b327       __catch$_Java_sun_awt_windows_WFramePeer_setState@12$1 1007c327 f   awt_Frame.obj
 0001:0007b365       __catch$_Java_sun_awt_windows_WFramePeer_getState@8$0 1007c365 f   awt_Frame.obj
 0001:0007b37a       __catch$_Java_sun_awt_windows_WFramePeer_getState@8$1 1007c37a f   awt_Frame.obj
 0001:0007b3e2       __catch$_Java_sun_awt_windows_WFramePeer_setMaximizedBounds@24$0 1007c3e2 f   awt_Frame.obj
 0001:0007b3ef       __catch$_Java_sun_awt_windows_WFramePeer_setMaximizedBounds@24$1 1007c3ef f   awt_Frame.obj
 0001:0007b433       __catch$_Java_sun_awt_windows_WFramePeer_clearMaximizedBounds@8$0 1007c433 f   awt_Frame.obj
 0001:0007b440       __catch$_Java_sun_awt_windows_WFramePeer_clearMaximizedBounds@8$1 1007c440 f   awt_Frame.obj
 0001:0007b49c       __catch$_Java_sun_awt_windows_WFramePeer_setMenuBar0@12$0 1007c49c f   awt_Frame.obj
 0001:0007b4a9       __catch$_Java_sun_awt_windows_WFramePeer_setMenuBar0@12$1 1007c4a9 f   awt_Frame.obj
 0001:0007b504       __catch$_Java_sun_awt_windows_WFramePeer_createAwtFrame@12$0 1007c504 f   awt_Frame.obj
 0001:0007b511       __catch$_Java_sun_awt_windows_WFramePeer_createAwtFrame@12$1 1007c511 f   awt_Frame.obj
 0001:0007b53b       __catch$_Java_sun_awt_windows_WFramePeer_getSysMenuHeight@8$0 1007c53b f   awt_Frame.obj
 0001:0007b550       __catch$_Java_sun_awt_windows_WFramePeer_getSysMenuHeight@8$1 1007c550 f   awt_Frame.obj
 0001:0007b5ac       __catch$_Java_sun_awt_windows_WFramePeer_pSetIMMOption@12$0 1007c5ac f   awt_Frame.obj
 0001:0007b5b9       __catch$_Java_sun_awt_windows_WFramePeer_pSetIMMOption@12$1 1007c5b9 f   awt_Frame.obj
 0001:0007b611       __catch$_Java_sun_awt_EmbeddedFrame_setPeer@12$0 1007c611 f   awt_Frame.obj
 0001:0007b61e       __catch$_Java_sun_awt_EmbeddedFrame_setPeer@12$1 1007c61e f   awt_Frame.obj
 0001:0007b67f       __catch$_Java_sun_awt_windows_WEmbeddedFrame_initIDs@8$0 1007c67f f   awt_Frame.obj
 0001:0007b68c       __catch$_Java_sun_awt_windows_WEmbeddedFrame_initIDs@8$1 1007c68c f   awt_Frame.obj
 0001:0007b6f6       __catch$_Java_sun_awt_windows_WEmbeddedFramePeer_create@12$0 1007c6f6 f   awt_Frame.obj
 0001:0007b703       __catch$_Java_sun_awt_windows_WEmbeddedFramePeer_create@12$1 1007c703 f   awt_Frame.obj
 0001:0007b759       __catch$_Java_sun_awt_windows_WEmbeddedFramePeer_getBoundsPrivate@8$0 1007c759 f   awt_Frame.obj
 0001:0007b76e       __catch$_Java_sun_awt_windows_WEmbeddedFramePeer_getBoundsPrivate@8$1 1007c76e f   awt_Frame.obj
 0001:0007b7d4       __catch$_Java_sun_awt_windows_WEmbeddedFramePeer_synthesizeWmActivate@12$0 1007c7d4 f   awt_Frame.obj
 0001:0007b7e1       __catch$_Java_sun_awt_windows_WEmbeddedFramePeer_synthesizeWmActivate@12$1 1007c7e1 f   awt_Frame.obj
 0001:0007bc1c       __catch$_Java_sun_awt_windows_WEmbeddedFrame_notifyModalBlockedImpl@20$0 1007cc1c f   awt_Frame.obj
 0001:0007bc29       __catch$_Java_sun_awt_windows_WEmbeddedFrame_notifyModalBlockedImpl@20$1 1007cc29 f   awt_Frame.obj
 0001:0007bf5b       __catch$_Java_sun_awt_windows_WInputMethod_createNativeContext@8$0 1007cf5b f   awt_InputMethod.obj
 0001:0007bf70       __catch$_Java_sun_awt_windows_WInputMethod_createNativeContext@8$1 1007cf70 f   awt_InputMethod.obj
 0001:0007bfb1       __catch$_Java_sun_awt_windows_WInputMethod_destroyNativeContext@12$0 1007cfb1 f   awt_InputMethod.obj
 0001:0007bfbe       __catch$_Java_sun_awt_windows_WInputMethod_destroyNativeContext@12$1 1007cfbe f   awt_InputMethod.obj
 0001:0007c034       __catch$_Java_sun_awt_windows_WInputMethod_enableNativeIME@20$0 1007d034 f   awt_InputMethod.obj
 0001:0007c041       __catch$_Java_sun_awt_windows_WInputMethod_enableNativeIME@20$1 1007d041 f   awt_InputMethod.obj
 0001:0007c0a2       __catch$_Java_sun_awt_windows_WInputMethod_disableNativeIME@12$0 1007d0a2 f   awt_InputMethod.obj
 0001:0007c0af       __catch$_Java_sun_awt_windows_WInputMethod_disableNativeIME@12$1 1007d0af f   awt_InputMethod.obj
 0001:0007c1e4       __catch$_Java_sun_awt_windows_WInputMethod_handleNativeIMEEvent@16$0 1007d1e4 f   awt_InputMethod.obj
 0001:0007c1f4       __catch$_Java_sun_awt_windows_WInputMethod_handleNativeIMEEvent@16$1 1007d1f4 f   awt_InputMethod.obj
 0001:0007c237       __catch$_Java_sun_awt_windows_WInputMethod_endCompositionNative@16$0 1007d237 f   awt_InputMethod.obj
 0001:0007c244       __catch$_Java_sun_awt_windows_WInputMethod_endCompositionNative@16$1 1007d244 f   awt_InputMethod.obj
 0001:0007c283       __catch$_Java_sun_awt_windows_WInputMethod_setConversionStatus@16$0 1007d283 f   awt_InputMethod.obj
 0001:0007c290       __catch$_Java_sun_awt_windows_WInputMethod_setConversionStatus@16$1 1007d290 f   awt_InputMethod.obj
 0001:0007c2d0       __catch$_Java_sun_awt_windows_WInputMethod_getConversionStatus@12$0 1007d2d0 f   awt_InputMethod.obj
 0001:0007c2e5       __catch$_Java_sun_awt_windows_WInputMethod_getConversionStatus@12$1 1007d2e5 f   awt_InputMethod.obj
 0001:0007c324       __catch$_Java_sun_awt_windows_WInputMethod_setOpenStatus@16$0 1007d324 f   awt_InputMethod.obj
 0001:0007c331       __catch$_Java_sun_awt_windows_WInputMethod_setOpenStatus@16$1 1007d331 f   awt_InputMethod.obj
 0001:0007c375       __catch$_Java_sun_awt_windows_WInputMethod_getOpenStatus@12$0 1007d375 f   awt_InputMethod.obj
 0001:0007c38a       __catch$_Java_sun_awt_windows_WInputMethod_getOpenStatus@12$1 1007d38a f   awt_InputMethod.obj
 0001:0007c485       __catch$_Java_sun_awt_windows_WInputMethod_openCandidateWindow@20$0 1007d485 f   awt_InputMethod.obj
 0001:0007c492       __catch$_Java_sun_awt_windows_WInputMethod_openCandidateWindow@20$1 1007d492 f   awt_InputMethod.obj
 0001:0007c508       __catch$_Java_sun_awt_windows_WInputMethod_getNativeIMMDescription@8$0 1007d508 f   awt_InputMethod.obj
 0001:0007c51d       __catch$_Java_sun_awt_windows_WInputMethod_getNativeIMMDescription@8$1 1007d51d f   awt_InputMethod.obj
 0001:0007c579       __catch$_CreateLocaleObject$0 1007d579 f   awt_InputMethod.obj
 0001:0007c58c       __catch$_CreateLocaleObject$1 1007d58c f   awt_InputMethod.obj
 0001:0007c661       __catch$_Java_sun_awt_windows_WInputMethod_getNativeLocale@8$0 1007d661 f   awt_InputMethod.obj
 0001:0007c676       __catch$_Java_sun_awt_windows_WInputMethod_getNativeLocale@8$1 1007d676 f   awt_InputMethod.obj
 0001:0007c79c       __catch$_Java_sun_awt_windows_WInputMethod_setNativeLocale@16$0 1007d79c f   awt_InputMethod.obj
 0001:0007c7b1       __catch$_Java_sun_awt_windows_WInputMethod_setNativeLocale@16$1 1007d7b1 f   awt_InputMethod.obj
 0001:0007c8c7       __catch$_Java_sun_awt_windows_WInputMethodDescriptor_getNativeAvailableLocales@8$0 1007d8c7 f   awt_InputMethod.obj
 0001:0007c8dc       __catch$_Java_sun_awt_windows_WInputMethodDescriptor_getNativeAvailableLocales@8$1 1007d8dc f   awt_InputMethod.obj
 0001:0007cd6b       __catch$?GetClauseInfor@AwtInputTextInfor@@QAEHAAPAHAAPAPAV_jstring@@@Z$2 1007dd6b f   awt_InputTextInfor.obj
 0001:0007cf0f       __catch$?GetClauseInfor@AwtInputTextInfor@@QAEHAAPAHAAPAPAV_jstring@@@Z$4 1007df0f f   awt_InputTextInfor.obj
 0001:0007cf35       __catch$?GetClauseInfor@AwtInputTextInfor@@QAEHAAPAHAAPAPAV_jstring@@@Z$0 1007df35 f   awt_InputTextInfor.obj
 0001:0007d0b9       __catch$?GetAttributeInfor@AwtInputTextInfor@@QAEHAAPAHAAPAE@Z$2 1007e0b9 f   awt_InputTextInfor.obj
 0001:0007d0d9       __catch$?GetAttributeInfor@AwtInputTextInfor@@QAEHAAPAHAAPAE@Z$0 1007e0d9 f   awt_InputTextInfor.obj
 0001:0007d187       __catch$_Java_java_awt_Insets_initIDs@8$0 1007e187 f   awt_Insets.obj
 0001:0007d194       __catch$_Java_java_awt_Insets_initIDs@8$1 1007e194 f   awt_Insets.obj
 0001:0007d24d       __catch$_Java_java_awt_event_KeyEvent_initIDs@8$0 1007e24d f   awt_KeyEvent.obj
 0001:0007d25a       __catch$_Java_java_awt_event_KeyEvent_initIDs@8$1 1007e25a f   awt_KeyEvent.obj
 0001:0007d260       ?getNativeFocusState@@YAPAV_jobject@@PAUJNIEnv_@@P6APAXXZ@Z 1007e260 f   awt_KeyboardFocusManager.obj
 0001:0007d2cd       __catch$_Java_sun_awt_windows_WKeyboardFocusManagerPeer_setNativeFocusOwner@12$0 1007e2cd f   awt_KeyboardFocusManager.obj
 0001:0007d2da       __catch$_Java_sun_awt_windows_WKeyboardFocusManagerPeer_setNativeFocusOwner@12$1 1007e2da f   awt_KeyboardFocusManager.obj
 0001:0007d30a       __catch$_Java_sun_awt_windows_WKeyboardFocusManagerPeer_getNativeFocusOwner@8$0 1007e30a f   awt_KeyboardFocusManager.obj
 0001:0007d31f       __catch$_Java_sun_awt_windows_WKeyboardFocusManagerPeer_getNativeFocusOwner@8$1 1007e31f f   awt_KeyboardFocusManager.obj
 0001:0007d34f       __catch$_Java_sun_awt_windows_WKeyboardFocusManagerPeer_getNativeFocusedWindow@8$0 1007e34f f   awt_KeyboardFocusManager.obj
 0001:0007d364       __catch$_Java_sun_awt_windows_WKeyboardFocusManagerPeer_getNativeFocusedWindow@8$1 1007e364 f   awt_KeyboardFocusManager.obj
 0001:0007d523       __catch$?Create@AwtLabel@@SAPAV1@PAV_jobject@@0@Z$4 1007e523 f   awt_Label.obj
 0001:0007da75       __catch$_Java_java_awt_Label_initIDs@8$0 1007ea75 f   awt_Label.obj
 0001:0007da82       __catch$_Java_java_awt_Label_initIDs@8$1 1007ea82 f   awt_Label.obj
 0001:0007dade       __catch$_Java_sun_awt_windows_WLabelPeer_setText@12$0 1007eade f   awt_Label.obj
 0001:0007daeb       __catch$_Java_sun_awt_windows_WLabelPeer_setText@12$1 1007eaeb f   awt_Label.obj
 0001:0007db41       __catch$_Java_sun_awt_windows_WLabelPeer_setAlignment@12$0 1007eb41 f   awt_Label.obj
 0001:0007db4e       __catch$_Java_sun_awt_windows_WLabelPeer_setAlignment@12$1 1007eb4e f   awt_Label.obj
 0001:0007dbf0       __catch$_Java_sun_awt_windows_WLabelPeer_create@12$0 1007ebf0 f   awt_Label.obj
 0001:0007dbfd       __catch$_Java_sun_awt_windows_WLabelPeer_create@12$1 1007ebfd f   awt_Label.obj
 0001:0007dc41       __catch$_Java_sun_awt_windows_WLabelPeer_lazyPaint@8$0 1007ec41 f   awt_Label.obj
 0001:0007dc4e       __catch$_Java_sun_awt_windows_WLabelPeer_lazyPaint@8$1 1007ec4e f   awt_Label.obj
 0001:0007de3b       __catch$?Create@AwtList@@SAPAV1@PAV_jobject@@0@Z$4 1007ee3b f   awt_List.obj
 0001:0007e262       __catch$_Java_sun_awt_windows_WListPeer_getMaxWidth@8$0 1007f262 f   awt_List.obj
 0001:0007e277       __catch$_Java_sun_awt_windows_WListPeer_getMaxWidth@8$1 1007f277 f   awt_List.obj
 0001:0007e2cd       __catch$_Java_sun_awt_windows_WListPeer_setMultipleSelections@12$0 1007f2cd f   awt_List.obj
 0001:0007e2da       __catch$_Java_sun_awt_windows_WListPeer_setMultipleSelections@12$1 1007f2da f   awt_List.obj
 0001:0007e37c       __catch$_Java_sun_awt_windows_WListPeer_create@12$0 1007f37c f   awt_List.obj
 0001:0007e389       __catch$_Java_sun_awt_windows_WListPeer_create@12$1 1007f389 f   awt_List.obj
 0001:0007e62c       __catch$_Java_sun_awt_windows_WListPeer_makeVisible@12$0 1007f62c f   awt_List.obj
 0001:0007e639       __catch$_Java_sun_awt_windows_WListPeer_makeVisible@12$1 1007f639 f   awt_List.obj
 0001:0007e798       __catch$?SetMultiSelect@AwtList@@QAEXH@Z$0 1007f798 f   awt_List.obj
 0001:0007f06a       __catch$_Java_sun_awt_windows_WListPeer_updateMaxItemWidth@8$0 1008006a f   awt_List.obj
 0001:0007f077       __catch$_Java_sun_awt_windows_WListPeer_updateMaxItemWidth@8$1 10080077 f   awt_List.obj
 0001:0007f0df       __catch$_Java_sun_awt_windows_WListPeer_addItems@20$0 100800df f   awt_List.obj
 0001:0007f0ec       __catch$_Java_sun_awt_windows_WListPeer_addItems@20$1 100800ec f   awt_List.obj
 0001:0007f148       __catch$_Java_sun_awt_windows_WListPeer_delItems@16$0 10080148 f   awt_List.obj
 0001:0007f155       __catch$_Java_sun_awt_windows_WListPeer_delItems@16$1 10080155 f   awt_List.obj
 0001:0007f1ab       __catch$_Java_sun_awt_windows_WListPeer_select@12$0 100801ab f   awt_List.obj
 0001:0007f1b8       __catch$_Java_sun_awt_windows_WListPeer_select@12$1 100801b8 f   awt_List.obj
 0001:0007f255       __catch$_Java_sun_awt_windows_WListPeer_deselect@12$0 10080255 f   awt_List.obj
 0001:0007f262       __catch$_Java_sun_awt_windows_WListPeer_deselect@12$1 10080262 f   awt_List.obj
 0001:0007f2b2       __catch$_Java_sun_awt_windows_WListPeer_isSelected@12$0 100802b2 f   awt_List.obj
 0001:0007f2c7       __catch$_Java_sun_awt_windows_WListPeer_isSelected@12$1 100802c7 f   awt_List.obj
 0001:0007f405       __catch$?Create@AwtMenu@@SAPAV1@PAV_jobject@@PAV1@@Z$1 10080405 f   awt_Menu.obj
 0001:0007f80d       __catch$_Java_java_awt_Menu_initIDs@8$0 1008080d f   awt_Menu.obj
 0001:0007f81a       __catch$_Java_java_awt_Menu_initIDs@8$1 1008081a f   awt_Menu.obj
 0001:0007f89e       __catch$_Java_sun_awt_windows_WMenuPeer_addSeparator@8$0 1008089e f   awt_Menu.obj
 0001:0007f8ab       __catch$_Java_sun_awt_windows_WMenuPeer_addSeparator@8$1 100808ab f   awt_Menu.obj
 0001:0007f931       __catch$_Java_sun_awt_windows_WMenuPeer_delItem@12$0 10080931 f   awt_Menu.obj
 0001:0007f93e       __catch$_Java_sun_awt_windows_WMenuPeer_delItem@12$1 1008093e f   awt_Menu.obj
 0001:0007f9e1       __catch$_Java_sun_awt_windows_WMenuPeer_createSubMenu@12$0 100809e1 f   awt_Menu.obj
 0001:0007f9e1       __catch$_Java_sun_awt_windows_WMenuPeer_createMenu@12$0 100809e1 f   awt_Menu.obj
 0001:0007f9ee       __catch$_Java_sun_awt_windows_WMenuPeer_createMenu@12$1 100809ee f   awt_Menu.obj
 0001:0007f9ee       __catch$_Java_sun_awt_windows_WMenuPeer_createSubMenu@12$1 100809ee f   awt_Menu.obj
 0001:0007fb6d       __catch$?Create@AwtMenuBar@@SAPAV1@PAV_jobject@@0@Z$3 10080b6d f   awt_MenuBar.obj
 0001:0007fe06       __catch$_Java_java_awt_MenuBar_initIDs@8$0 10080e06 f   awt_MenuBar.obj
 0001:0007fe13       __catch$_Java_java_awt_MenuBar_initIDs@8$1 10080e13 f   awt_MenuBar.obj
 0001:0007fe6f       __catch$_Java_sun_awt_windows_WMenuBarPeer_addMenu@12$0 10080e6f f   awt_MenuBar.obj
 0001:0007fe7c       __catch$_Java_sun_awt_windows_WMenuBarPeer_addMenu@12$1 10080e7c f   awt_MenuBar.obj
 0001:0007ff02       __catch$_Java_sun_awt_windows_WMenuBarPeer_delMenu@12$0 10080f02 f   awt_MenuBar.obj
 0001:0007ff0f       __catch$_Java_sun_awt_windows_WMenuBarPeer_delMenu@12$1 10080f0f f   awt_MenuBar.obj
 0001:0007ff6a       __catch$_Java_sun_awt_windows_WMenuBarPeer_create@12$0 10080f6a f   awt_MenuBar.obj
 0001:0007ff77       __catch$_Java_sun_awt_windows_WMenuBarPeer_create@12$1 10080f77 f   awt_MenuBar.obj
 0001:000802a6       __catch$?Create@AwtMenuItem@@SAPAV1@PAV_jobject@@0@Z$0 100812a6 f   awt_MenuItem.obj
 0001:0008087a       __catch$_Java_java_awt_MenuComponent_initIDs@8$0 1008187a f   awt_MenuItem.obj
 0001:00080887       __catch$_Java_java_awt_MenuComponent_initIDs@8$1 10081887 f   awt_MenuItem.obj
 0001:000808e8       __catch$_Java_java_awt_MenuItem_initIDs@8$0 100818e8 f   awt_MenuItem.obj
 0001:000808f5       __catch$_Java_java_awt_MenuItem_initIDs@8$1 100818f5 f   awt_MenuItem.obj
 0001:0008093b       __catch$_Java_java_awt_CheckboxMenuItem_initIDs@8$0 1008193b f   awt_MenuItem.obj
 0001:00080948       __catch$_Java_java_awt_CheckboxMenuItem_initIDs@8$1 10081948 f   awt_MenuItem.obj
 0001:000809c4       __catch$_Java_sun_awt_windows_WMenuItemPeer_initIDs@8$0 100819c4 f   awt_MenuItem.obj
 0001:000809d1       __catch$_Java_sun_awt_windows_WMenuItemPeer_initIDs@8$1 100819d1 f   awt_MenuItem.obj
 0001:00080a37       __catch$_Java_sun_awt_windows_WMenuItemPeer__1setLabel@12$0 10081a37 f   awt_MenuItem.obj
 0001:00080a44       __catch$_Java_sun_awt_windows_WMenuItemPeer__1setLabel@12$1 10081a44 f   awt_MenuItem.obj
 0001:00080ab3       __catch$_Java_sun_awt_windows_WMenuItemPeer_create@12$0 10081ab3 f   awt_MenuItem.obj
 0001:00080ac0       __catch$_Java_sun_awt_windows_WMenuItemPeer_create@12$1 10081ac0 f   awt_MenuItem.obj
 0001:00080b48       __catch$_Java_sun_awt_windows_WMenuItemPeer_enable@12$0 10081b48 f   awt_MenuItem.obj
 0001:00080b55       __catch$_Java_sun_awt_windows_WMenuItemPeer_enable@12$1 10081b55 f   awt_MenuItem.obj
 0001:00080b86       __catch$_Java_sun_awt_windows_WMenuItemPeer__1dispose@8$0 10081b86 f   awt_MenuItem.obj
 0001:00080b86       __catch$_Java_sun_awt_windows_WComponentPeer__1dispose@8$0 10081b86 f   awt_MenuItem.obj
 0001:00080b93       __catch$_Java_sun_awt_windows_WMenuItemPeer__1dispose@8$1 10081b93 f   awt_MenuItem.obj
 0001:00080b93       __catch$_Java_sun_awt_windows_WComponentPeer__1dispose@8$1 10081b93 f   awt_MenuItem.obj
 0001:00080c1b       __catch$_Java_sun_awt_windows_WCheckboxMenuItemPeer_setState@12$0 10081c1b f   awt_MenuItem.obj
 0001:00080c28       __catch$_Java_sun_awt_windows_WCheckboxMenuItemPeer_setState@12$1 10081c28 f   awt_MenuItem.obj
 0001:000812ea       __catch$_Java_java_awt_event_MouseEvent_initIDs@8$0 100822ea f   awt_MouseEvent.obj
 0001:000812f7       __catch$_Java_java_awt_event_MouseEvent_initIDs@8$1 100822f7 f   awt_MouseEvent.obj
 0001:000813dd       __catch$?_Dispose@AwtObject@@SAXPAV_jobject@@@Z$0 100823dd f   awt_Object.obj
 0001:000813ea       __catch$?_Dispose@AwtObject@@SAXPAV_jobject@@@Z$1 100823ea f   awt_Object.obj
 0001:00081441       __catch$?_Dispose@AwtObject@@SAXPAV1@@Z$0 10082441 f   awt_Object.obj
 0001:0008144e       __catch$?_Dispose@AwtObject@@SAXPAV1@@Z$1 1008244e f   awt_Object.obj
 0001:00081643       __catch$_Java_sun_awt_windows_WObjectPeer_initIDs@8$0 10082643 f   awt_Object.obj
 0001:00081650       __catch$_Java_sun_awt_windows_WObjectPeer_initIDs@8$1 10082650 f   awt_Object.obj
 0001:00081b98       __catch$_Java_sun_awt_windows_WPanelPeer_initIDs@8$0 10082b98 f   awt_Panel.obj
 0001:00081ba5       __catch$_Java_sun_awt_windows_WPanelPeer_initIDs@8$1 10082ba5 f   awt_Panel.obj
 0001:00081cb7       __catch$?Create@AwtPopupMenu@@SAPAV1@PAV_jobject@@PAVAwtComponent@@@Z$1 10082cb7 f   awt_PopupMenu.obj
 0001:000821a3       __catch$_Java_sun_awt_windows_WPopupMenuPeer_createMenu@12$0 100831a3 f   awt_PopupMenu.obj
 0001:000821b0       __catch$_Java_sun_awt_windows_WPopupMenuPeer_createMenu@12$1 100831b0 f   awt_PopupMenu.obj
 0001:0008221c       __catch$_Java_sun_awt_windows_WPopupMenuPeer__1show@12$0 1008321c f   awt_PopupMenu.obj
 0001:00082229       __catch$_Java_sun_awt_windows_WPopupMenuPeer__1show@12$1 10083229 f   awt_PopupMenu.obj
 0001:0008265f       __catch$?FindPrinter@AwtPrintControl@@SAHPAV_jstring@@PAEPAKPAPAG3@Z$0 1008365f f   awt_PrintControl.obj
 0001:00082a19       __catch$?initIDs@AwtPrintControl@@SAXPAUJNIEnv_@@PAV_jclass@@@Z$0 10083a19 f   awt_PrintControl.obj
 0001:00082a26       __catch$?initIDs@AwtPrintControl@@SAXPAUJNIEnv_@@PAV_jclass@@@Z$1 10083a26 f   awt_PrintControl.obj
 0001:00082a62       __catch$?PrintDlgHook@@YGHPAUHWND__@@IIJ@Z$0 10083a62 f   awt_PrintControl.obj
 0001:00082a72       __catch$?PrintDlgHook@@YGHPAUHWND__@@IIJ@Z$1 10083a72 f   awt_PrintControl.obj
 0001:00082c8d       __catch$?CreateDevModeAndDevNames@AwtPrintControl@@SAHPAUtagPDW@@PAG1@Z$3 10083c8d f   awt_PrintControl.obj
 0001:000837a0       __catch$_Java_sun_awt_windows_WPrintDialog_initIDs@8$0 100847a0 f   awt_PrintDialog.obj
 0001:000837ad       __catch$_Java_sun_awt_windows_WPrintDialog_initIDs@8$1 100847ad f   awt_PrintDialog.obj
 0001:000837ed       __catch$_Java_sun_awt_windows_WPrintDialog_setPeer@12$0 100847ed f   awt_PrintDialog.obj
 0001:000837fa       __catch$_Java_sun_awt_windows_WPrintDialog_setPeer@12$1 100847fa f   awt_PrintDialog.obj
 0001:0008385b       __catch$_Java_sun_awt_windows_WPrintDialogPeer_initIDs@8$0 1008485b f   awt_PrintDialog.obj
 0001:00083868       __catch$_Java_sun_awt_windows_WPrintDialogPeer_initIDs@8$1 10084868 f   awt_PrintDialog.obj
 0001:000838eb       ?PrintDialogHookProc@@YGIPAUHWND__@@IIJ@Z 100848eb f   awt_PrintDialog.obj
 0001:00083a1a       __catch$?PrintDialogHookProc@@YGIPAUHWND__@@IIJ@Z$0 10084a1a f   awt_PrintDialog.obj
 0001:00083a2a       __catch$?PrintDialogHookProc@@YGIPAUHWND__@@IIJ@Z$1 10084a2a f   awt_PrintDialog.obj
 0001:00083b89       __catch$_Java_sun_awt_windows_WPrintDialogPeer__1show@8$0 10084b89 f   awt_PrintDialog.obj
 0001:00083b9e       __catch$_Java_sun_awt_windows_WPrintDialogPeer__1show@8$1 10084b9e f   awt_PrintDialog.obj
 0001:00083bff       __catch$_Java_sun_awt_windows_WPageDialog_initIDs@8$0 10084bff f   awt_PrintJob.obj
 0001:00083c0c       __catch$_Java_sun_awt_windows_WPageDialog_initIDs@8$1 10084c0c f   awt_PrintJob.obj
 0001:00083c59       _GetPrinterPort            10084c59 f   awt_PrintJob.obj
 0001:00083e3e       __catch$_Java_sun_awt_windows_WPrinterJob_endDoc@8$0 10084e3e f   awt_PrintJob.obj
 0001:00083e4b       __catch$_Java_sun_awt_windows_WPrinterJob_endDoc@8$1 10084e4b f   awt_PrintJob.obj
 0001:00083e8b       __catch$_Java_sun_awt_windows_WPrinterJob_abortDoc@8$0 10084e8b f   awt_PrintJob.obj
 0001:00083e98       __catch$_Java_sun_awt_windows_WPrinterJob_abortDoc@8$1 10084e98 f   awt_PrintJob.obj
 0001:00083e9e       _DeletePrintDC             10084e9e f   awt_PrintJob.obj
 0001:00083f31       __catch$_Java_sun_awt_windows_WPrinterJob_deleteDC@32$0 10084f31 f   awt_PrintJob.obj
 0001:00083f3e       __catch$_Java_sun_awt_windows_WPrinterJob_deleteDC@32$1 10084f3e f   awt_PrintJob.obj
 0001:00083fa3       __catch$_Java_sun_awt_windows_WPrinterJob_deviceEndPage@20$0 10084fa3 f   awt_PrintJob.obj
 0001:00083fb0       __catch$_Java_sun_awt_windows_WPrinterJob_deviceEndPage@20$1 10084fb0 f   awt_PrintJob.obj
 0001:000840e3       __catch$_Java_sun_awt_windows_WEmbeddedFrame_printBand@56$0 100850e3 f   awt_PrintJob.obj
 0001:000840ec       __catch$_Java_sun_awt_windows_WEmbeddedFrame_printBand@56$2 100850ec f   awt_PrintJob.obj
 0001:000840f9       __catch$_Java_sun_awt_windows_WEmbeddedFrame_printBand@56$3 100850f9 f   awt_PrintJob.obj
 0001:0008412a       __catch$_Java_sun_awt_windows_WPrinterJob_beginPath@16$0 1008512a f   awt_PrintJob.obj
 0001:00084137       __catch$_Java_sun_awt_windows_WPrinterJob_beginPath@16$1 10085137 f   awt_PrintJob.obj
 0001:00084168       __catch$_Java_sun_awt_windows_WPrinterJob_endPath@16$0 10085168 f   awt_PrintJob.obj
 0001:00084175       __catch$_Java_sun_awt_windows_WPrinterJob_endPath@16$1 10085175 f   awt_PrintJob.obj
 0001:000841a6       __catch$_Java_sun_awt_windows_WPrinterJob_fillPath@16$0 100851a6 f   awt_PrintJob.obj
 0001:000841b3       __catch$_Java_sun_awt_windows_WPrinterJob_fillPath@16$1 100851b3 f   awt_PrintJob.obj
 0001:000841e4       __catch$_Java_sun_awt_windows_WPrinterJob_closeFigure@16$0 100851e4 f   awt_PrintJob.obj
 0001:000841f1       __catch$_Java_sun_awt_windows_WPrinterJob_closeFigure@16$1 100851f1 f   awt_PrintJob.obj
 0001:0008425a       __catch$_Java_sun_awt_windows_WPrinterJob_lineTo@24$0 1008525a f   awt_PrintJob.obj
 0001:00084267       __catch$_Java_sun_awt_windows_WPrinterJob_lineTo@24$1 10085267 f   awt_PrintJob.obj
 0001:000842d2       __catch$_Java_sun_awt_windows_WPrinterJob_moveTo@24$0 100852d2 f   awt_PrintJob.obj
 0001:000842df       __catch$_Java_sun_awt_windows_WPrinterJob_moveTo@24$1 100852df f   awt_PrintJob.obj
 0001:000843bd       __catch$_Java_sun_awt_windows_WPrinterJob_polyBezierTo@40$0 100853bd f   awt_PrintJob.obj
 0001:000843ca       __catch$_Java_sun_awt_windows_WPrinterJob_polyBezierTo@40$1 100853ca f   awt_PrintJob.obj
 0001:000843fe       __catch$_Java_sun_awt_windows_WPrinterJob_setPolyFillMode@20$0 100853fe f   awt_PrintJob.obj
 0001:0008440b       __catch$_Java_sun_awt_windows_WPrinterJob_setPolyFillMode@20$1 1008540b f   awt_PrintJob.obj
 0001:00084461       __catch$_Java_sun_awt_windows_WPrinterJob_selectSolidBrush@28$0 10085461 f   awt_PrintJob.obj
 0001:0008446e       __catch$_Java_sun_awt_windows_WPrinterJob_selectSolidBrush@28$1 1008546e f   awt_PrintJob.obj
 0001:000844a0       __catch$_Java_sun_awt_windows_WPrinterJob_getPenX@16$0 100854a0 f   awt_PrintJob.obj
 0001:000844b5       __catch$_Java_sun_awt_windows_WPrinterJob_getPenX@16$1 100854b5 f   awt_PrintJob.obj
 0001:000844e7       __catch$_Java_sun_awt_windows_WPrinterJob_getPenY@16$0 100854e7 f   awt_PrintJob.obj
 0001:000844fc       __catch$_Java_sun_awt_windows_WPrinterJob_getPenY@16$1 100854fc f   awt_PrintJob.obj
 0001:0008452f       __catch$_Java_sun_awt_windows_WPrinterJob_selectClipPath@16$0 1008552f f   awt_PrintJob.obj
 0001:0008453c       __catch$_Java_sun_awt_windows_WPrinterJob_selectClipPath@16$1 1008553c f   awt_PrintJob.obj
 0001:0008467c       __catch$_Java_sun_awt_windows_WPrinterJob_frameRect@32$0 1008567c f   awt_PrintJob.obj
 0001:00084689       __catch$_Java_sun_awt_windows_WPrinterJob_frameRect@32$1 10085689 f   awt_PrintJob.obj
 0001:00084762       __catch$_Java_sun_awt_windows_WPrinterJob_fillRect@44$0 10085762 f   awt_PrintJob.obj
 0001:0008476f       __catch$_Java_sun_awt_windows_WPrinterJob_fillRect@44$1 1008576f f   awt_PrintJob.obj
 0001:000847eb       __catch$_Java_sun_awt_windows_WPrinterJob_selectPen@32$0 100857eb f   awt_PrintJob.obj
 0001:000847f8       __catch$_Java_sun_awt_windows_WPrinterJob_selectPen@32$1 100857f8 f   awt_PrintJob.obj
 0001:000848aa       __catch$_Java_sun_awt_windows_WPrinterJob_selectStylePen@48$0 100858aa f   awt_PrintJob.obj
 0001:000848bf       __catch$_Java_sun_awt_windows_WPrinterJob_selectStylePen@48$1 100858bf f   awt_PrintJob.obj
 0001:000848c5       _fontEnumProcW@16          100858c5 f   awt_PrintJob.obj
 0001:00084b78       _reverseDIB                10085b78 f   awt_PrintJob.obj
 0001:00084f16       __catch$_Java_sun_awt_windows_WPrinterJob_drawDIBImage@60$0 10085f16 f   awt_PrintJob.obj
 0001:00084f29       _bitsToDevice              10085f29 f   awt_PrintJob.obj
 0001:000850d8       _getOrientationFromDevMode2 100860d8 f   awt_PrintJob.obj
 0001:00085101       _getPaper                  10086101 f   awt_PrintJob.obj
 0001:00085130       _setPaper                  10086130 f   awt_PrintJob.obj
 0001:00085163       _setPageFormatOrientation  10086163 f   awt_PrintJob.obj
 0001:00085196       _getPaperValues            10086196 f   awt_PrintJob.obj
 0001:0008531c       _convertFromPoints         1008631c f   awt_PrintJob.obj
 0001:00085354       _convertToPoints           10086354 f   awt_PrintJob.obj
 0001:0008537e       _getIdOfIntField           1008637e f   awt_PrintJob.obj
 0001:0008539d       _setBooleanField           1008639d f   awt_PrintJob.obj
 0001:000853cd       _throwPrinterException     100863cd f   awt_PrintJob.obj
 0001:00085458       _matchPaperSize            10086458 f   awt_PrintJob.obj
 0001:0008582d       _SetPrinterDevice          1008682d f   awt_PrintJob.obj
 0001:00085ad6       __catch$_Java_sun_awt_windows_WPrinterJob_getNativePrintService@8$0 10086ad6 f   awt_PrintJob.obj
 0001:00085aeb       __catch$_Java_sun_awt_windows_WPrinterJob_getNativePrintService@8$1 10086aeb f   awt_PrintJob.obj
 0001:00085af1       _getPrintableArea          10086af1 f   awt_PrintJob.obj
 0001:00085c1a       __catch$_Java_sun_awt_windows_WPrinterJob_initIDs@8$0 10086c1a f   awt_PrintJob.obj
 0001:00085c27       __catch$_Java_sun_awt_windows_WPrinterJob_initIDs@8$1 10086c27 f   awt_PrintJob.obj
 0001:00085c2d       _jFontToWFontW             10086c2d f   awt_PrintJob.obj
 0001:00085e11       _doPrintBand               10086e11 f   awt_PrintJob.obj
 0001:00085f89       __catch$_doPrintBand$0     10086f89 f   awt_PrintJob.obj
 0001:00085f92       __catch$_doPrintBand$2     10086f92 f   awt_PrintJob.obj
 0001:00085f9f       __catch$_doPrintBand$3     10086f9f f   awt_PrintJob.obj
 0001:00086022       _pageDlgHook@16            10087022 f   awt_PrintJob.obj
 0001:0008613c       __catch$_pageDlgHook@16$0  1008713c f   awt_PrintJob.obj
 0001:0008614c       __catch$_pageDlgHook@16$1  1008714c f   awt_PrintJob.obj
 0001:00086152       _getDefaultPrinterDC       10087152 f   awt_PrintJob.obj
 0001:000862fe       _retrievePaperInfo         100872fe f   awt_PrintJob.obj
 0001:0008644d       _setPaperValues            1008744d f   awt_PrintJob.obj
 0001:00086516       _getIntField               10087516 f   awt_PrintJob.obj
 0001:00086538       _setIntField               10087538 f   awt_PrintJob.obj
 0001:0008655e       _setPrintReqAttribute      1008755e f   awt_PrintJob.obj
 0001:00086a73       __catch$_Java_sun_awt_windows_WPrinterJob_setNativePrintService@12$0 10087a73 f   awt_PrintJob.obj
 0001:00086a80       __catch$_Java_sun_awt_windows_WPrinterJob_setNativePrintService@12$1 10087a80 f   awt_PrintJob.obj
 0001:00086e8c       __catch$_Java_sun_awt_windows_WPrinterJob_validatePaper@16$0 10087e8c f   awt_PrintJob.obj
 0001:00086e99       __catch$_Java_sun_awt_windows_WPrinterJob_validatePaper@16$1 10087e99 f   awt_PrintJob.obj
 0001:00086e9f       _initPrinter               10087e9f f   awt_PrintJob.obj
 0001:00086fcd       __catch$_Java_sun_awt_windows_WPrinterJob_initPrinter@8$0 10087fcd f   awt_PrintJob.obj
 0001:00086fda       __catch$_Java_sun_awt_windows_WPrinterJob_initPrinter@8$1 10087fda f   awt_PrintJob.obj
 0001:00087203       __catch$_Java_sun_awt_windows_WPrinterJob__1startDoc@16$0 10088203 f   awt_PrintJob.obj
 0001:00087235       __catch$_Java_sun_awt_windows_WPrinterJob__1startDoc@16$1 10088235 f   awt_PrintJob.obj
 0001:0008745d       __catch$_Java_sun_awt_windows_WPrinterJob_deviceStartPage@24$0 1008845d f   awt_PrintJob.obj
 0001:0008746a       __catch$_Java_sun_awt_windows_WPrinterJob_deviceStartPage@24$1 1008846a f   awt_PrintJob.obj
 0001:00087470       _pageFormatToSetup         10088470 f   awt_PrintJob.obj
 0001:00087a4c       __catch$_Java_sun_awt_windows_WPageDialogPeer__1show@8$0 10088a4c f   awt_PrintJob.obj
 0001:00087a78       __catch$_Java_sun_awt_windows_WPageDialogPeer__1show@8$1 10088a78 f   awt_PrintJob.obj
 0001:00087ccb       __catch$_Java_sun_awt_windows_WPrinterJob_getDefaultPage@12$0 10088ccb f   awt_PrintJob.obj
 0001:00087cdb       __catch$_Java_sun_awt_windows_WPrinterJob_getDefaultPage@12$1 10088cdb f   awt_PrintJob.obj
 0001:00087d62       __catch$_Java_java_awt_Rectangle_initIDs@8$0 10088d62 f   awt_Rectangle.obj
 0001:00087d6f       __catch$_Java_java_awt_Rectangle_initIDs@8$1 10088d6f f   awt_Rectangle.obj
 0001:00088298       __catch$_Java_sun_awt_windows_WRobotPeer_create@8$0 10089298 f   awt_Robot.obj
 0001:000882a5       __catch$_Java_sun_awt_windows_WRobotPeer_create@8$1 100892a5 f   awt_Robot.obj
 0001:000882d1       __catch$_Java_sun_awt_windows_WRobotPeer__1dispose@8$0 100892d1 f   awt_Robot.obj
 0001:000882de       __catch$_Java_sun_awt_windows_WRobotPeer__1dispose@8$1 100892de f   awt_Robot.obj
 0001:0008831c       __catch$_Java_sun_awt_windows_WRobotPeer_mouseMoveImpl@16$0 1008931c f   awt_Robot.obj
 0001:00088329       __catch$_Java_sun_awt_windows_WRobotPeer_mouseMoveImpl@16$1 10089329 f   awt_Robot.obj
 0001:00088364       __catch$_Java_sun_awt_windows_WRobotPeer_mousePress@12$0 10089364 f   awt_Robot.obj
 0001:00088371       __catch$_Java_sun_awt_windows_WRobotPeer_mousePress@12$1 10089371 f   awt_Robot.obj
 0001:000883ac       __catch$_Java_sun_awt_windows_WRobotPeer_mouseRelease@12$0 100893ac f   awt_Robot.obj
 0001:000883b9       __catch$_Java_sun_awt_windows_WRobotPeer_mouseRelease@12$1 100893b9 f   awt_Robot.obj
 0001:000883f4       __catch$_Java_sun_awt_windows_WRobotPeer_mouseWheel@12$0 100893f4 f   awt_Robot.obj
 0001:00088401       __catch$_Java_sun_awt_windows_WRobotPeer_mouseWheel@12$1 10089401 f   awt_Robot.obj
 0001:00088439       __catch$_Java_sun_awt_windows_WRobotPeer_getRGBPixelImpl@16$0 10089439 f   awt_Robot.obj
 0001:0008844e       __catch$_Java_sun_awt_windows_WRobotPeer_getRGBPixelImpl@16$1 1008944e f   awt_Robot.obj
 0001:00088495       __catch$_Java_sun_awt_windows_WRobotPeer_getRGBPixels@28$0 10089495 f   awt_Robot.obj
 0001:000884a2       __catch$_Java_sun_awt_windows_WRobotPeer_getRGBPixels@28$1 100894a2 f   awt_Robot.obj
 0001:00088501       __catch$_Java_sun_awt_windows_WRobotPeer_keyPress@12$0 10089501 f   awt_Robot.obj
 0001:0008850e       __catch$_Java_sun_awt_windows_WRobotPeer_keyPress@12$1 1008950e f   awt_Robot.obj
 0001:0008854b       __catch$_Java_sun_awt_windows_WRobotPeer_keyRelease@12$0 1008954b f   awt_Robot.obj
 0001:00088558       __catch$_Java_sun_awt_windows_WRobotPeer_keyRelease@12$1 10089558 f   awt_Robot.obj
 0001:00088a92       __catch$_Java_java_awt_Scrollbar_initIDs@8$0 10089a92 f   awt_Scrollbar.obj
 0001:00088a9f       __catch$_Java_java_awt_Scrollbar_initIDs@8$1 10089a9f f   awt_Scrollbar.obj
 0001:00088b07       __catch$_Java_sun_awt_windows_WScrollbarPeer_setValues@24$0 10089b07 f   awt_Scrollbar.obj
 0001:00088b14       __catch$_Java_sun_awt_windows_WScrollbarPeer_setValues@24$1 10089b14 f   awt_Scrollbar.obj
 0001:00088b94       __catch$_Java_sun_awt_windows_WScrollbarPeer_setLineIncrement@12$0 10089b94 f   awt_Scrollbar.obj
 0001:00088ba1       __catch$_Java_sun_awt_windows_WScrollbarPeer_setLineIncrement@12$1 10089ba1 f   awt_Scrollbar.obj
 0001:00088c21       __catch$_Java_sun_awt_windows_WScrollbarPeer_setPageIncrement@12$0 10089c21 f   awt_Scrollbar.obj
 0001:00088c2e       __catch$_Java_sun_awt_windows_WScrollbarPeer_setPageIncrement@12$1 10089c2e f   awt_Scrollbar.obj
 0001:00088ebd       __catch$?Create@AwtScrollbar@@SAPAV1@PAV_jobject@@0@Z$4 10089ebd f   awt_Scrollbar.obj
 0001:00088fb8       __catch$_Java_sun_awt_windows_WScrollbarPeer_create@12$0 10089fb8 f   awt_Scrollbar.obj
 0001:00088fc5       __catch$_Java_sun_awt_windows_WScrollbarPeer_create@12$1 10089fc5 f   awt_Scrollbar.obj
 0001:000891bf       __catch$?Create@AwtScrollPane@@SAPAV1@PAV_jobject@@0@Z$4 1008a1bf f   awt_ScrollPane.obj
 0001:00089740       __catch$_Java_java_awt_ScrollPane_initIDs@8$0 1008a740 f   awt_ScrollPane.obj
 0001:0008974d       __catch$_Java_java_awt_ScrollPane_initIDs@8$1 1008a74d f   awt_ScrollPane.obj
 0001:000897ab       __catch$_Java_java_awt_ScrollPaneAdjustable_initIDs@8$0 1008a7ab f   awt_ScrollPane.obj
 0001:000897b8       __catch$_Java_java_awt_ScrollPaneAdjustable_initIDs@8$1 1008a7b8 f   awt_ScrollPane.obj
 0001:000897fe       __catch$_Java_sun_awt_windows_WScrollPanePeer_initIDs@8$0 1008a7fe f   awt_ScrollPane.obj
 0001:0008980b       __catch$_Java_sun_awt_windows_WScrollPanePeer_initIDs@8$1 1008a80b f   awt_ScrollPane.obj
 0001:000898ad       __catch$_Java_sun_awt_windows_WScrollPanePeer_create@12$0 1008a8ad f   awt_ScrollPane.obj
 0001:000898ba       __catch$_Java_sun_awt_windows_WScrollPanePeer_create@12$1 1008a8ba f   awt_ScrollPane.obj
 0001:0008990a       __catch$_Java_sun_awt_windows_WScrollPanePeer_getOffset@12$0 1008a90a f   awt_ScrollPane.obj
 0001:0008991f       __catch$_Java_sun_awt_windows_WScrollPanePeer_getOffset@12$1 1008a91f f   awt_ScrollPane.obj
 0001:00089963       __catch$_Java_sun_awt_windows_WScrollPanePeer_setInsets@8$0 1008a963 f   awt_ScrollPane.obj
 0001:00089970       __catch$_Java_sun_awt_windows_WScrollPanePeer_setInsets@8$1 1008a970 f   awt_ScrollPane.obj
 0001:000899cc       __catch$_Java_sun_awt_windows_WScrollPanePeer_setScrollPosition@16$0 1008a9cc f   awt_ScrollPane.obj
 0001:000899d9       __catch$_Java_sun_awt_windows_WScrollPanePeer_setScrollPosition@16$1 1008a9d9 f   awt_ScrollPane.obj
 0001:00089a03       __catch$_Java_sun_awt_windows_WScrollPanePeer__1getHScrollbarHeight@8$0 1008aa03 f   awt_ScrollPane.obj
 0001:00089a18       __catch$_Java_sun_awt_windows_WScrollPanePeer__1getHScrollbarHeight@8$1 1008aa18 f   awt_ScrollPane.obj
 0001:00089a42       __catch$_Java_sun_awt_windows_WScrollPanePeer__1getVScrollbarWidth@8$0 1008aa42 f   awt_ScrollPane.obj
 0001:00089a57       __catch$_Java_sun_awt_windows_WScrollPanePeer__1getVScrollbarWidth@8$1 1008aa57 f   awt_ScrollPane.obj
 0001:00089f35       __catch$_Java_sun_awt_windows_WScrollPanePeer_setSpans@24$0 1008af35 f   awt_ScrollPane.obj
 0001:00089f42       __catch$_Java_sun_awt_windows_WScrollPanePeer_setSpans@24$1 1008af42 f   awt_ScrollPane.obj
 0001:0008acdc       __catch$_Java_java_awt_TextArea_initIDs@8$0 1008bcdc f   awt_TextArea.obj
 0001:0008ace9       __catch$_Java_java_awt_TextArea_initIDs@8$1 1008bce9 f   awt_TextArea.obj
 0001:0008ad53       __catch$_Java_sun_awt_windows_WTextAreaPeer_replaceText@20$0 1008bd53 f   awt_TextArea.obj
 0001:0008ad60       __catch$_Java_sun_awt_windows_WTextAreaPeer_replaceText@20$1 1008bd60 f   awt_TextArea.obj
 0001:0008adec       __catch$?QueryInterface@OleCallback@AwtTextArea@@UAGJABU_GUID@@PAPAX@Z$0 1008bdec f   awt_TextArea.obj
 0001:0008adfe       __catch$?QueryInterface@OleCallback@AwtTextArea@@UAGJABU_GUID@@PAPAX@Z$1 1008bdfe f   awt_TextArea.obj
 0001:0008b14b       __catch$?Create@AwtTextArea@@SAPAV1@PAV_jobject@@0@Z$4 1008c14b f   awt_TextArea.obj
 0001:0008b1fd       __catch$_Java_sun_awt_windows_WTextAreaPeer_create@12$0 1008c1fd f   awt_TextArea.obj
 0001:0008b20a       __catch$_Java_sun_awt_windows_WTextAreaPeer_create@12$1 1008c20a f   awt_TextArea.obj
 0001:0008bb6d       __catch$_Java_sun_awt_windows_WTextComponentPeer_getText@8$0 1008cb6d f   awt_TextComponent.obj
 0001:0008bb82       __catch$_Java_sun_awt_windows_WTextComponentPeer_getText@8$1 1008cb82 f   awt_TextComponent.obj
 0001:0008bbde       __catch$_Java_sun_awt_windows_WTextComponentPeer_setText@12$0 1008cbde f   awt_TextComponent.obj
 0001:0008bbeb       __catch$_Java_sun_awt_windows_WTextComponentPeer_setText@12$1 1008cbeb f   awt_TextComponent.obj
 0001:0008bc29       __catch$_Java_sun_awt_windows_WTextComponentPeer_getSelectionStart@8$0 1008cc29 f   awt_TextComponent.obj
 0001:0008bc3e       __catch$_Java_sun_awt_windows_WTextComponentPeer_getSelectionStart@8$1 1008cc3e f   awt_TextComponent.obj
 0001:0008bc7c       __catch$_Java_sun_awt_windows_WTextComponentPeer_getSelectionEnd@8$0 1008cc7c f   awt_TextComponent.obj
 0001:0008bc91       __catch$_Java_sun_awt_windows_WTextComponentPeer_getSelectionEnd@8$1 1008cc91 f   awt_TextComponent.obj
 0001:0008bced       __catch$_Java_sun_awt_windows_WTextComponentPeer_select@16$0 1008cced f   awt_TextComponent.obj
 0001:0008bcfa       __catch$_Java_sun_awt_windows_WTextComponentPeer_select@16$1 1008ccfa f   awt_TextComponent.obj
 0001:0008bd50       __catch$_Java_sun_awt_windows_WTextComponentPeer_enableEditing@12$0 1008cd50 f   awt_TextComponent.obj
 0001:0008bd5d       __catch$_Java_sun_awt_windows_WTextComponentPeer_enableEditing@12$1 1008cd5d f   awt_TextComponent.obj
 0001:0008bdb0       __catch$_Java_sun_awt_windows_WTextComponentPeer_initIDs@8$0 1008cdb0 f   awt_TextComponent.obj
 0001:0008bdbd       __catch$_Java_sun_awt_windows_WTextComponentPeer_initIDs@8$1 1008cdbd f   awt_TextComponent.obj
 0001:0008c217       __catch$_Java_sun_awt_windows_WTextFieldPeer_setEchoCharacter@12$0 1008d217 f   awt_TextField.obj
 0001:0008c224       __catch$_Java_sun_awt_windows_WTextFieldPeer_setEchoCharacter@12$1 1008d224 f   awt_TextField.obj
 0001:0008c423       __catch$?Create@AwtTextField@@SAPAV1@PAV_jobject@@0@Z$4 1008d423 f   awt_TextField.obj
 0001:0008c4f8       __catch$_Java_sun_awt_windows_WTextFieldPeer_create@12$0 1008d4f8 f   awt_TextField.obj
 0001:0008c505       __catch$_Java_sun_awt_windows_WTextFieldPeer_create@12$1 1008d505 f   awt_TextField.obj
 0001:0008cb00       ?DoQuitMessageLoop@@YAXPAX@Z 1008db00 f   awt_Toolkit.obj
 0001:0008d1bc       __catch$?hang_if_shutdown@@YAXXZ$0 1008e1bc f   awt_Toolkit.obj
 0001:0008d388       __catch$?GetWindowRect@AwtToolkit@@SAXPAUHWND__@@PAUtagRECT@@@Z$0 1008e388 f   awt_Toolkit.obj
 0001:0008d5f2       __catch$_Java_java_awt_Toolkit_initIDs@8$0 1008e5f2 f   awt_Toolkit.obj
 0001:0008d611       __catch$_Java_java_awt_Toolkit_initIDs@8$1 1008e611 f   awt_Toolkit.obj
 0001:0008d75b       __catch$_Java_sun_awt_windows_WToolkit_initIDs@8$0 1008e75b f   awt_Toolkit.obj
 0001:0008d77a       __catch$_Java_sun_awt_windows_WToolkit_initIDs@8$1 1008e77a f   awt_Toolkit.obj
 0001:0008d822       __catch$_Java_sun_awt_windows_WToolkit_makeColorModel@8$0 1008e822 f   awt_Toolkit.obj
 0001:0008d843       __catch$_Java_sun_awt_windows_WToolkit_makeColorModel@8$1 1008e843 f   awt_Toolkit.obj
 0001:0008d957       __catch$_Java_sun_awt_windows_WToolkit_getMaximumCursorColors@8$0 1008e957 f   awt_Toolkit.obj
 0001:0008d978       __catch$_Java_sun_awt_windows_WToolkit_getMaximumCursorColors@8$1 1008e978 f   awt_Toolkit.obj
 0001:0008da06       __catch$_Java_sun_awt_windows_WToolkit_getScreenWidth@8$0 1008ea06 f   awt_Toolkit.obj
 0001:0008da27       __catch$_Java_sun_awt_windows_WToolkit_getScreenWidth@8$1 1008ea27 f   awt_Toolkit.obj
 0001:0008da86       __catch$_Java_sun_awt_windows_WToolkit_getScreenHeight@8$0 1008ea86 f   awt_Toolkit.obj
 0001:0008daa7       __catch$_Java_sun_awt_windows_WToolkit_getScreenHeight@8$1 1008eaa7 f   awt_Toolkit.obj
 0001:0008db56       __catch$_Java_sun_awt_windows_WToolkit_getScreenInsets@12$0 1008eb56 f   awt_Toolkit.obj
 0001:0008db77       __catch$_Java_sun_awt_windows_WToolkit_getScreenInsets@12$1 1008eb77 f   awt_Toolkit.obj
 0001:0008dbd4       __catch$_Java_sun_awt_windows_WToolkit_nativeSync@8$0 1008ebd4 f   awt_Toolkit.obj
 0001:0008dbf3       __catch$_Java_sun_awt_windows_WToolkit_nativeSync@8$1 1008ebf3 f   awt_Toolkit.obj
 0001:0008dc56       __catch$_Java_sun_awt_windows_WToolkit_beep@8$0 1008ec56 f   awt_Toolkit.obj
 0001:0008dc75       __catch$_Java_sun_awt_windows_WToolkit_beep@8$1 1008ec75 f   awt_Toolkit.obj
 0001:0008dd64       __catch$_Java_sun_awt_windows_WToolkit_getLockingKeyStateNative@12$0 1008ed64 f   awt_Toolkit.obj
 0001:0008dd71       __catch$_Java_sun_awt_windows_WToolkit_getLockingKeyStateNative@12$1 1008ed71 f   awt_Toolkit.obj
 0001:0008de87       __catch$_Java_sun_awt_windows_WToolkit_setLockingKeyStateNative@16$0 1008ee87 f   awt_Toolkit.obj
 0001:0008de97       __catch$_Java_sun_awt_windows_WToolkit_setLockingKeyStateNative@16$1 1008ee97 f   awt_Toolkit.obj
 0001:0008df26       __catch$_DSGetComponent@8$0 1008ef26 f   awt_Toolkit.obj
 0001:0008df47       __catch$_DSGetComponent@8$1 1008ef47 f   awt_Toolkit.obj
 0001:0008dfb7       __catch$_Java_sun_awt_windows_WToolkit_setDynamicLayoutNative@12$0 1008efb7 f   awt_Toolkit.obj
 0001:0008dfd6       __catch$_Java_sun_awt_windows_WToolkit_setDynamicLayoutNative@12$1 1008efd6 f   awt_Toolkit.obj
 0001:0008e061       __catch$_Java_sun_awt_windows_WToolkit_isDynamicLayoutSupportedNative@8$0 1008f061 f   awt_Toolkit.obj
 0001:0008e082       __catch$_Java_sun_awt_windows_WToolkit_isDynamicLayoutSupportedNative@8$1 1008f082 f   awt_Toolkit.obj
 0001:0008e196       __catch$_Java_sun_awt_windows_WToolkit_getWindowsVersion@8$0 1008f196 f   awt_Toolkit.obj
 0001:0008e1c1       __catch$_Java_sun_awt_windows_WToolkit_getWindowsVersion@8$1 1008f1c1 f   awt_Toolkit.obj
 0001:0008e2bb       __catch$_JNI_OnLoad@8$0    1008f2bb f   awt_Toolkit.obj
 0001:0008e2dc       __catch$_JNI_OnLoad@8$1    1008f2dc f   awt_Toolkit.obj
 0001:0008e34d       __catch$_DllMain@12$0      1008f34d f   awt_Toolkit.obj
 0001:0008e36e       __catch$_DllMain@12$1      1008f36e f   awt_Toolkit.obj
 0001:0008e6f5       __catch$?MouseLowLevelHook@AwtToolkit@@SGJHIJ@Z$0 1008f6f5 f   awt_Toolkit.obj
 0001:0008e716       __catch$?MouseLowLevelHook@AwtToolkit@@SGJHIJ@Z$1 1008f716 f   awt_Toolkit.obj
 0001:0008e7e0       ?CancelAllThreadWindows@@YGHPAUHWND__@@J@Z 1008f7e0 f   awt_Toolkit.obj
 0001:0008e850       __catch$?CancelAllThreadWindows@@YGHPAUHWND__@@J@Z$0 1008f850 f   awt_Toolkit.obj
 0001:0008e871       __catch$?CancelAllThreadWindows@@YGHPAUHWND__@@J@Z$1 1008f871 f   awt_Toolkit.obj
 0001:0008ed9c       __catch$_Java_sun_awt_windows_WToolkit_shutdown@8$0 1008fd9c f   awt_Toolkit.obj
 0001:0008edbb       __catch$_Java_sun_awt_windows_WToolkit_shutdown@8$1 1008fdbb f   awt_Toolkit.obj
 0001:0008ee32       __catch$_Java_sun_awt_windows_WToolkit_startSecondaryEventLoop@8$0 1008fe32 f   awt_Toolkit.obj
 0001:0008ee51       __catch$_Java_sun_awt_windows_WToolkit_startSecondaryEventLoop@8$1 1008fe51 f   awt_Toolkit.obj
 0001:0008ef2d       __catch$_Java_sun_awt_windows_WToolkit_quitSecondaryEventLoop@8$0 1008ff2d f   awt_Toolkit.obj
 0001:0008ef4c       __catch$_Java_sun_awt_windows_WToolkit_quitSecondaryEventLoop@8$1 1008ff4c f   awt_Toolkit.obj
 0001:0008f031       __catch$_Java_sun_awt_windows_WToolkit_loadSystemColors@12$0 10090031 f   awt_Toolkit.obj
 0001:0008f03a       __catch$_Java_sun_awt_windows_WToolkit_loadSystemColors@12$2 1009003a f   awt_Toolkit.obj
 0001:0008f059       __catch$_Java_sun_awt_windows_WToolkit_loadSystemColors@12$3 10090059 f   awt_Toolkit.obj
 0001:0008f0b7       __catch$_Java_sun_awt_windows_WToolkit_setExtraMouseButtonsEnabledNative@12$0 100900b7 f   awt_Toolkit.obj
 0001:0008f0d6       __catch$_Java_sun_awt_windows_WToolkit_setExtraMouseButtonsEnabledNative@12$1 100900d6 f   awt_Toolkit.obj
 0001:0008fae7       __catch$?WndProc@AwtToolkit@@SGJPAUHWND__@@IIJ@Z$0 10090ae7 f   awt_Toolkit.obj
 0001:0008faf7       __catch$?WndProc@AwtToolkit@@SGJPAUHWND__@@IIJ@Z$1 10090af7 f   awt_Toolkit.obj
 0001:0008fce5       __catch$?GetMessageFilter@AwtToolkit@@SGJHIJ@Z$0 10090ce5 f   awt_Toolkit.obj
 0001:0008fd06       __catch$?GetMessageFilter@AwtToolkit@@SGJHIJ@Z$1 10090d06 f   awt_Toolkit.obj
 0001:0008fe76       __catch$_Java_sun_awt_windows_WToolkit_embeddedDispose@8$0 10090e76 f   awt_Toolkit.obj
 0001:0008fe97       __catch$_Java_sun_awt_windows_WToolkit_embeddedDispose@8$1 10090e97 f   awt_Toolkit.obj
 0001:0008ff20       __catch$_Java_sun_awt_windows_WToolkit_eventLoop@8$0 10090f20 f   awt_Toolkit.obj
 0001:0008ff3f       __catch$_Java_sun_awt_windows_WToolkit_eventLoop@8$1 10090f3f f   awt_Toolkit.obj
 0001:000902e6       __catch$_Java_sun_awt_windows_WToolkit_embeddedInit@8$0 100912e6 f   awt_Toolkit.obj
 0001:00090307       __catch$_Java_sun_awt_windows_WToolkit_embeddedInit@8$1 10091307 f   awt_Toolkit.obj
 0001:000903b7       __catch$_Java_sun_awt_windows_WToolkit_init@8$0 100913b7 f   awt_Toolkit.obj
 0001:000903d8       __catch$_Java_sun_awt_windows_WToolkit_init@8$1 100913d8 f   awt_Toolkit.obj
 0001:00091862       __catch$?InvalidateChildRect@@YGHPAUHWND__@@J@Z$0 10092862 f   awt_Window.obj
 0001:00091877       __catch$?InvalidateChildRect@@YGHPAUHWND__@@J@Z$1 10092877 f   awt_Window.obj
 0001:00092366       __catch$?CreateIconFromRaster@@YAPAUHICON__@@PAUJNIEnv_@@PAV_jintArray@@JJ@Z$1 10093366 f   awt_Window.obj
 0001:000923bb       ?CreateBitmapFromRaster@@YAPAUHBITMAP__@@PAUJNIEnv_@@PAV_jintArray@@JJ@Z 100933bb f   awt_Window.obj
 0001:00092431       __catch$?CreateBitmapFromRaster@@YAPAUHBITMAP__@@PAUJNIEnv_@@PAV_jintArray@@JJ@Z$1 10093431 f   awt_Window.obj
 0001:00092b87       __catch$_Java_java_awt_Window_initIDs@8$0 10093b87 f   awt_Window.obj
 0001:00092b94       __catch$_Java_java_awt_Window_initIDs@8$1 10093b94 f   awt_Window.obj
 0001:00092c34       __catch$_Java_sun_awt_windows_WWindowPeer_initIDs@8$0 10093c34 f   awt_Window.obj
 0001:00092c41       __catch$_Java_sun_awt_windows_WWindowPeer_initIDs@8$1 10093c41 f   awt_Window.obj
 0001:00092c85       __catch$_Java_sun_awt_windows_WWindowPeer__1toFront@8$0 10093c85 f   awt_Window.obj
 0001:00092c92       __catch$_Java_sun_awt_windows_WWindowPeer__1toFront@8$1 10093c92 f   awt_Window.obj
 0001:00092cd6       __catch$_Java_sun_awt_windows_WWindowPeer_toBack@8$0 10093cd6 f   awt_Window.obj
 0001:00092ce3       __catch$_Java_sun_awt_windows_WWindowPeer_toBack@8$1 10093ce3 f   awt_Window.obj
 0001:00092d39       __catch$_Java_sun_awt_windows_WWindowPeer_setAlwaysOnTopNative@12$0 10093d39 f   awt_Window.obj
 0001:00092d46       __catch$_Java_sun_awt_windows_WWindowPeer_setAlwaysOnTopNative@12$1 10093d46 f   awt_Window.obj
 0001:00092da2       __catch$_Java_sun_awt_windows_WWindowPeer__1setTitle@12$0 10093da2 f   awt_Window.obj
 0001:00092daf       __catch$_Java_sun_awt_windows_WWindowPeer__1setTitle@12$1 10093daf f   awt_Window.obj
 0001:00092e05       __catch$_Java_sun_awt_windows_WWindowPeer__1setResizable@12$0 10093e05 f   awt_Window.obj
 0001:00092e12       __catch$_Java_sun_awt_windows_WWindowPeer__1setResizable@12$1 10093e12 f   awt_Window.obj
 0001:00092e6e       __catch$_Java_sun_awt_windows_WWindowPeer_updateInsets@12$0 10093e6e f   awt_Window.obj
 0001:00092e7b       __catch$_Java_sun_awt_windows_WWindowPeer_updateInsets@12$1 10093e7b f   awt_Window.obj
 0001:00092ee3       __catch$_Java_sun_awt_windows_WWindowPeer_reshapeFrame@24$0 10093ee3 f   awt_Window.obj
 0001:00092ef0       __catch$_Java_sun_awt_windows_WWindowPeer_reshapeFrame@24$1 10093ef0 f   awt_Window.obj
 0001:00092f1a       __catch$_Java_sun_awt_windows_WWindowPeer_getSysMinWidth@8$0 10093f1a f   awt_Window.obj
 0001:00092f2f       __catch$_Java_sun_awt_windows_WWindowPeer_getSysMinWidth@8$1 10093f2f f   awt_Window.obj
 0001:00092f59       __catch$_Java_sun_awt_windows_WWindowPeer_getSysMinHeight@8$0 10093f59 f   awt_Window.obj
 0001:00092f6e       __catch$_Java_sun_awt_windows_WWindowPeer_getSysMinHeight@8$1 10093f6e f   awt_Window.obj
 0001:00092f98       __catch$_Java_sun_awt_windows_WWindowPeer_getSysIconHeight@8$0 10093f98 f   awt_Window.obj
 0001:00092fad       __catch$_Java_sun_awt_windows_WWindowPeer_getSysIconHeight@8$1 10093fad f   awt_Window.obj
 0001:00092fd7       __catch$_Java_sun_awt_windows_WWindowPeer_getSysIconWidth@8$0 10093fd7 f   awt_Window.obj
 0001:00092fec       __catch$_Java_sun_awt_windows_WWindowPeer_getSysIconWidth@8$1 10093fec f   awt_Window.obj
 0001:00093016       __catch$_Java_sun_awt_windows_WWindowPeer_getSysSmIconHeight@8$0 10094016 f   awt_Window.obj
 0001:0009302b       __catch$_Java_sun_awt_windows_WWindowPeer_getSysSmIconHeight@8$1 1009402b f   awt_Window.obj
 0001:00093055       __catch$_Java_sun_awt_windows_WWindowPeer_getSysSmIconWidth@8$0 10094055 f   awt_Window.obj
 0001:0009306a       __catch$_Java_sun_awt_windows_WWindowPeer_getSysSmIconWidth@8$1 1009406a f   awt_Window.obj
 0001:000930ea       __catch$_Java_sun_awt_windows_WWindowPeer_setIconImagesData@32$0 100940ea f   awt_Window.obj
 0001:000930f7       __catch$_Java_sun_awt_windows_WWindowPeer_setIconImagesData@32$1 100940f7 f   awt_Window.obj
 0001:00093153       __catch$_Java_sun_awt_windows_WWindowPeer_setMinSize@16$0 10094153 f   awt_Window.obj
 0001:00093160       __catch$_Java_sun_awt_windows_WWindowPeer_setMinSize@16$1 10094160 f   awt_Window.obj
 0001:0009319e       __catch$_Java_sun_awt_windows_WWindowPeer_getScreenImOn@8$0 1009419e f   awt_Window.obj
 0001:000931ae       __catch$_Java_sun_awt_windows_WWindowPeer_getScreenImOn@8$1 100941ae f   awt_Window.obj
 0001:00093214       __catch$_Java_sun_awt_windows_WWindowPeer_modalDisable@20$0 10094214 f   awt_Window.obj
 0001:00093221       __catch$_Java_sun_awt_windows_WWindowPeer_modalDisable@20$1 10094221 f   awt_Window.obj
 0001:00093265       __catch$_Java_sun_awt_windows_WWindowPeer_modalEnable@12$0 10094265 f   awt_Window.obj
 0001:00093272       __catch$_Java_sun_awt_windows_WWindowPeer_modalEnable@12$1 10094272 f   awt_Window.obj
 0001:000932c8       __catch$_Java_sun_awt_windows_WWindowPeer_setFocusableWindow@12$0 100942c8 f   awt_Window.obj
 0001:000932d5       __catch$_Java_sun_awt_windows_WWindowPeer_setFocusableWindow@12$1 100942d5 f   awt_Window.obj
 0001:00093319       __catch$_Java_sun_awt_windows_WWindowPeer_nativeGrab@8$0 10094319 f   awt_Window.obj
 0001:00093326       __catch$_Java_sun_awt_windows_WWindowPeer_nativeGrab@8$1 10094326 f   awt_Window.obj
 0001:0009336a       __catch$_Java_sun_awt_windows_WWindowPeer_nativeUngrab@8$0 1009436a f   awt_Window.obj
 0001:00093377       __catch$_Java_sun_awt_windows_WWindowPeer_nativeUngrab@8$1 10094377 f   awt_Window.obj
 0001:000933f2       __catch$_Java_sun_awt_windows_WWindowPeer_updateWindowImpl@20$0 100943f2 f   awt_Window.obj
 0001:000933ff       __catch$_Java_sun_awt_windows_WWindowPeer_updateWindowImpl@20$1 100943ff f   awt_Window.obj
 0001:00093472       __catch$_AwtWindow_UpdateWindow$0 10094472 f   awt_Window.obj
 0001:0009347f       __catch$_AwtWindow_UpdateWindow$1 1009447f f   awt_Window.obj
 0001:000934cf       __catch$_Java_sun_awt_windows_WWindowPeer_requestWindowFocus@12$0 100944cf f   awt_Window.obj
 0001:000934e4       __catch$_Java_sun_awt_windows_WWindowPeer_requestWindowFocus@12$1 100944e4 f   awt_Window.obj
 0001:00093c46       __catch$_Java_sun_awt_windows_WWindowPeer_setFullScreenExclusiveModeState@12$0 10094c46 f   awt_Window.obj
 0001:00093c53       __catch$_Java_sun_awt_windows_WWindowPeer_setFullScreenExclusiveModeState@12$1 10094c53 f   awt_Window.obj
 0001:00093ca9       __catch$_Java_sun_awt_windows_WWindowPeer_setOpacity@12$0 10094ca9 f   awt_Window.obj
 0001:00093cb6       __catch$_Java_sun_awt_windows_WWindowPeer_setOpacity@12$1 10094cb6 f   awt_Window.obj
 0001:00093d0c       __catch$_Java_sun_awt_windows_WWindowPeer_setOpaqueImpl@12$0 10094d0c f   awt_Window.obj
 0001:00093d19       __catch$_Java_sun_awt_windows_WWindowPeer_setOpaqueImpl@12$1 10094d19 f   awt_Window.obj
 0001:00093d79       __catch$_Java_sun_awt_windows_WWindowPeer_repositionSecurityWarning@8$0 10094d79 f   awt_Window.obj
 0001:00093d86       __catch$_Java_sun_awt_windows_WWindowPeer_repositionSecurityWarning@8$1 10094d86 f   awt_Window.obj
 0001:00094177       __catch$?Create@AwtWindow@@SAPAV1@PAV_jobject@@0@Z$3 10095177 f   awt_Window.obj
 0001:0009430a       __catch$_Java_sun_awt_windows_WWindowPeer_createAwtWindow@12$0 1009530a f   awt_Window.obj
 0001:00094317       __catch$_Java_sun_awt_windows_WWindowPeer_createAwtWindow@12$1 10095317 f   awt_Window.obj
 0001:000949c2       _swprintf                  100959c2 f   awt_Win32GraphicsEnv.obj
 0001:000949c2       _swprintf                  100959c2 f   awt_Win32GraphicsEnv.obj
 0001:00094a42       __catch$?DWMIsCompositionEnabled@@YAHXZ$0 10095a42 f   awt_Win32GraphicsEnv.obj
 0001:00094d8f       __catch$_Java_sun_awt_Win32GraphicsEnvironment_getXResolution@8$0 10095d8f f   awt_Win32GraphicsEnv.obj
 0001:00094da4       __catch$_Java_sun_awt_Win32GraphicsEnvironment_getXResolution@8$1 10095da4 f   awt_Win32GraphicsEnv.obj
 0001:00094dec       __catch$_Java_sun_awt_Win32GraphicsEnvironment_getYResolution@8$0 10095dec f   awt_Win32GraphicsEnv.obj
 0001:00094e01       __catch$_Java_sun_awt_Win32GraphicsEnvironment_getYResolution@8$1 10095e01 f   awt_Win32GraphicsEnv.obj
 0001:00094fec       __catch$?Initialize@AwtWin32GraphicsDevice@@QAEXXZ$0 10095fec f   awt_Win32GraphicsDevice.obj
 0001:0009545c       __catch$?GetColorModel@AwtWin32GraphicsDevice@@QAEPAV_jobject@@PAUJNIEnv_@@E@Z$0 1009645c f   awt_Win32GraphicsDevice.obj
 0001:00095b19       __catch$_Java_sun_awt_Win32GraphicsDevice_initIDs@8$0 10096b19 f   awt_Win32GraphicsDevice.obj
 0001:00095b26       __catch$_Java_sun_awt_Win32GraphicsDevice_initIDs@8$1 10096b26 f   awt_Win32GraphicsDevice.obj
 0001:00095b77       __catch$_Java_sun_awt_Win32GraphicsDevice_getMaxConfigsImpl@12$0 10096b77 f   awt_Win32GraphicsDevice.obj
 0001:00095b8c       __catch$_Java_sun_awt_Win32GraphicsDevice_getMaxConfigsImpl@12$1 10096b8c f   awt_Win32GraphicsDevice.obj
 0001:00095c06       __catch$_Java_sun_awt_Win32GraphicsDevice_isPixFmtSupported@16$0 10096c06 f   awt_Win32GraphicsDevice.obj
 0001:00095c1b       __catch$_Java_sun_awt_Win32GraphicsDevice_isPixFmtSupported@16$1 10096c1b f   awt_Win32GraphicsDevice.obj
 0001:00095cd0       __catch$_Java_sun_awt_Win32GraphicsDevice_getDefaultPixIDImpl@12$0 10096cd0 f   awt_Win32GraphicsDevice.obj
 0001:00095cdd       __catch$_Java_sun_awt_Win32GraphicsDevice_getDefaultPixIDImpl@12$1 10096cdd f   awt_Win32GraphicsDevice.obj
 0001:00095d68       __catch$_Java_sun_awt_Win32GraphicsDevice_enterFullScreenExclusive@16$0 10096d68 f   awt_Win32GraphicsDevice.obj
 0001:00095d75       __catch$_Java_sun_awt_Win32GraphicsDevice_enterFullScreenExclusive@16$1 10096d75 f   awt_Win32GraphicsDevice.obj
 0001:00095e46       __catch$_Java_sun_awt_Win32GraphicsDevice_exitFullScreenExclusive@16$0 10096e46 f   awt_Win32GraphicsDevice.obj
 0001:00095e56       __catch$_Java_sun_awt_Win32GraphicsDevice_exitFullScreenExclusive@16$1 10096e56 f   awt_Win32GraphicsDevice.obj
 0001:00095ed5       __catch$?CreateDisplayMode@@YAPAV_jobject@@PAUJNIEnv_@@JJJJ@Z$0 10096ed5 f   awt_Win32GraphicsDevice.obj
 0001:00095ee2       __catch$?CreateDisplayMode@@YAPAV_jobject@@PAUJNIEnv_@@JJJJ@Z$1 10096ee2 f   awt_Win32GraphicsDevice.obj
 0001:00095ee8       ?GetAttachedDisplayDevice@@YAHHPAU_DISPLAY_DEVICEW@@@Z 10096ee8 f   awt_Win32GraphicsDevice.obj
 0001:00095ffa       __catch$_Java_sun_awt_Win32GraphicsDevice_getCurrentDisplayMode@12$0 10096ffa f   awt_Win32GraphicsDevice.obj
 0001:0009600f       __catch$_Java_sun_awt_Win32GraphicsDevice_getCurrentDisplayMode@12$1 1009700f f   awt_Win32GraphicsDevice.obj
 0001:000960c9       __catch$_Java_sun_awt_Win32GraphicsDevice_configDisplayMode@32$0 100970c9 f   awt_Win32GraphicsDevice.obj
 0001:000960d6       __catch$_Java_sun_awt_Win32GraphicsDevice_configDisplayMode@32$1 100970d6 f   awt_Win32GraphicsDevice.obj
 0001:00096168       __catch$?addDisplayMode@@YAXPAUJNIEnv_@@PAV_jobject@@JJJJ@Z$0 10097168 f   awt_Win32GraphicsDevice.obj
 0001:00096175       __catch$?addDisplayMode@@YAXPAUJNIEnv_@@PAV_jobject@@JJJJ@Z$1 10097175 f   awt_Win32GraphicsDevice.obj
 0001:0009621c       __catch$_Java_sun_awt_Win32GraphicsDevice_enumDisplayModes@16$0 1009721c f   awt_Win32GraphicsDevice.obj
 0001:0009622f       __catch$_Java_sun_awt_Win32GraphicsDevice_enumDisplayModes@16$1 1009722f f   awt_Win32GraphicsDevice.obj
 0001:00096394       __catch$_Java_sun_awt_Win32GraphicsConfig_initIDs@8$0 10097394 f   awt_Win32GraphicsConfig.obj
 0001:000963a1       __catch$_Java_sun_awt_Win32GraphicsConfig_initIDs@8$1 100973a1 f   awt_Win32GraphicsConfig.obj
 0001:0009678e       ?get_dTCClazz@@YAPAV_jclass@@PAUJNIEnv_@@@Z 1009778e f   awt_DnDDT.obj
 0001:00096e6a       __catch$_Java_sun_awt_windows_WDropTargetContextPeer_getData@24$0 10097e6a f   awt_DnDDT.obj
 0001:00096e7f       __catch$_Java_sun_awt_windows_WDropTargetContextPeer_getData@24$1 10097e7f f   awt_DnDDT.obj
 0001:00096eb5       __catch$_Java_sun_awt_windows_WDropTargetContextPeer_dropDone@24$0 10097eb5 f   awt_DnDDT.obj
 0001:00096ec2       __catch$_Java_sun_awt_windows_WDropTargetContextPeer_dropDone@24$1 10097ec2 f   awt_DnDDT.obj
 0001:00096efd       __catch$_Java_sun_awt_windows_WDropTargetContextPeerFileStream_freeStgMedium@16$0 10097efd f   awt_DnDDT.obj
 0001:00096f0a       __catch$_Java_sun_awt_windows_WDropTargetContextPeerFileStream_freeStgMedium@16$1 10097f0a f   awt_DnDDT.obj
 0001:000972f9       __catch$?DragEnter@AwtDropTarget@@UAGJPAUIDataObject@@KU_POINTL@@PAK@Z$0 100982f9 f   awt_DnDDT.obj
 0001:00097310       __catch$?DragEnter@AwtDropTarget@@UAGJPAUIDataObject@@KU_POINTL@@PAK@Z$2 10098310 f   awt_DnDDT.obj
 0001:00097325       __catch$?DragEnter@AwtDropTarget@@UAGJPAUIDataObject@@KU_POINTL@@PAK@Z$3 10098325 f   awt_DnDDT.obj
 0001:0009748e       __catch$?DragOver@AwtDropTarget@@UAGJKU_POINTL@@PAK@Z$0 1009848e f   awt_DnDDT.obj
 0001:000974a5       __catch$?DragOver@AwtDropTarget@@UAGJKU_POINTL@@PAK@Z$2 100984a5 f   awt_DnDDT.obj
 0001:000974ba       __catch$?DragOver@AwtDropTarget@@UAGJKU_POINTL@@PAK@Z$3 100984ba f   awt_DnDDT.obj
 0001:000975b1       __catch$?DragLeave@AwtDropTarget@@UAGJXZ$0 100985b1 f   awt_DnDDT.obj
 0001:000975c5       __catch$?DragLeave@AwtDropTarget@@UAGJXZ$2 100985c5 f   awt_DnDDT.obj
 0001:000975d7       __catch$?DragLeave@AwtDropTarget@@UAGJXZ$3 100985d7 f   awt_DnDDT.obj
 0001:0009777f       __catch$?Drop@AwtDropTarget@@UAGJPAUIDataObject@@KU_POINTL@@PAK@Z$0 1009877f f   awt_DnDDT.obj
 0001:000977b5       __catch$?Drop@AwtDropTarget@@UAGJPAUIDataObject@@KU_POINTL@@PAK@Z$2 100987b5 f   awt_DnDDT.obj
 0001:000977ca       __catch$?Drop@AwtDropTarget@@UAGJPAUIDataObject@@KU_POINTL@@PAK@Z$3 100987ca f   awt_DnDDT.obj
 0001:000978d6       __catch$?RegisterTarget@AwtDropTarget@@UAEXG@Z$0 100988d6 f   awt_DnDDT.obj
 0001:00097b09       __catch$?ConvertNativeData@AwtDropTarget@@MAEPAV_jobject@@PAUJNIEnv_@@_JPAUtagSTGMEDIUM@@@Z$6 10098b09 f   awt_DnDDT.obj
 0001:00097bc0       __catch$?ConvertNativeData@AwtDropTarget@@MAEPAV_jobject@@PAUJNIEnv_@@_JPAUtagSTGMEDIUM@@@Z$8 10098bc0 f   awt_DnDDT.obj
 0001:00097c78       __catch$?ConvertNativeData@AwtDropTarget@@MAEPAV_jobject@@PAUJNIEnv_@@_JPAUtagSTGMEDIUM@@@Z$4 10098c78 f   awt_DnDDT.obj
 0001:00097d1f       __catch$?ConvertNativeData@AwtDropTarget@@MAEPAV_jobject@@PAUJNIEnv_@@_JPAUtagSTGMEDIUM@@@Z$2 10098d1f f   awt_DnDDT.obj
 0001:00097d9e       __catch$?ConvertNativeData@AwtDropTarget@@MAEPAV_jobject@@PAUJNIEnv_@@_JPAUtagSTGMEDIUM@@@Z$0 10098d9e f   awt_DnDDT.obj
 0001:00098027       __catch$?GetData@AwtDropTarget@@MAEPAV_jobject@@_J@Z$0 10099027 f   awt_DnDDT.obj
 0001:0009804c       __catch$?GetData@AwtDropTarget@@MAEPAV_jobject@@_J@Z$1 1009904c f   awt_DnDDT.obj
 0001:00098064       __catch$?GetData@AwtDropTarget@@MAEPAV_jobject@@_J@Z$3 10099064 f   awt_DnDDT.obj
 0001:00098430       __catch$_Java_sun_awt_windows_WDropTargetContextPeerIStream_Available@16$0 10099430 f   awt_DnDDT.obj
 0001:00098445       __catch$_Java_sun_awt_windows_WDropTargetContextPeerIStream_Available@16$1 10099445 f   awt_DnDDT.obj
 0001:00098470       __catch$_Java_sun_awt_windows_WDropTargetContextPeerIStream_Read@16$0 10099470 f   awt_DnDDT.obj
 0001:00098485       __catch$_Java_sun_awt_windows_WDropTargetContextPeerIStream_Read@16$1 10099485 f   awt_DnDDT.obj
 0001:000984bb       __catch$_Java_sun_awt_windows_WDropTargetContextPeerIStream_ReadBytes@28$0 100994bb f   awt_DnDDT.obj
 0001:000984d0       __catch$_Java_sun_awt_windows_WDropTargetContextPeerIStream_ReadBytes@28$1 100994d0 f   awt_DnDDT.obj
 0001:000984fc       __catch$_Java_sun_awt_windows_WDropTargetContextPeerIStream_Close@16$0 100994fc f   awt_DnDDT.obj
 0001:00098509       __catch$_Java_sun_awt_windows_WDropTargetContextPeerIStream_Close@16$1 10099509 f   awt_DnDDT.obj
 0001:00098800       __catch$?SaveIndexToFile@AwtDropTarget@@MAEJPBGI@Z$0 10099800 f   awt_DnDDT.obj
 0001:00098823       __catch$?SaveIndexToFile@AwtDropTarget@@MAEJPBGI@Z$2 10099823 f   awt_DnDDT.obj
 0001:00098bfc       __catch$?GetTempPathWithSlash@@YAJPAUJNIEnv_@@AAV_bstr_t@@@Z$0 10099bfc f   awt_DnDDT.obj
 0001:00098ef4       __catch$?ConvertMemoryMappedData@AwtDropTarget@@MAEPAV_jobject@@PAUJNIEnv_@@_JPAUtagSTGMEDIUM@@@Z$0 10099ef4 f   awt_DnDDT.obj
 0001:00098f2b       __catch$?ConvertMemoryMappedData@AwtDropTarget@@MAEPAV_jobject@@PAUJNIEnv_@@_JPAUtagSTGMEDIUM@@@Z$1 10099f2b f   awt_DnDDT.obj
 0001:00098f43       __catch$?ConvertMemoryMappedData@AwtDropTarget@@MAEPAV_jobject@@PAUJNIEnv_@@_JPAUtagSTGMEDIUM@@@Z$3 10099f43 f   awt_DnDDT.obj
 0001:000991b4       __catch$?QueryInterface@AwtDragSource@@UAGJABU_GUID@@PAPAX@Z$0 1009a1b4 f   awt_DnDDS.obj
 0001:000991c6       __catch$?QueryInterface@AwtDragSource@@UAGJABU_GUID@@PAPAX@Z$1 1009a1c6 f   awt_DnDDS.obj
 0001:000992b1       ?get_dSCClazz@@YAPAV_jclass@@PAUJNIEnv_@@@Z 1009a2b1 f   awt_DnDDS.obj
 0001:000996fd       __catch$?QueryInterface@ADSIEnumFormatEtc@AwtDragSource@@UAGJABU_GUID@@PAPAX@Z$0 1009a6fd f   awt_DnDDS.obj
 0001:0009970f       __catch$?QueryInterface@ADSIEnumFormatEtc@AwtDragSource@@UAGJABU_GUID@@PAPAX@Z$1 1009a70f f   awt_DnDDS.obj
 0001:000997ae       __catch$?Next@ADSIEnumFormatEtc@AwtDragSource@@UAGJKPAUtagFORMATETC@@PAK@Z$0 1009a7ae f   awt_DnDDS.obj
 0001:000997c0       __catch$?Next@ADSIEnumFormatEtc@AwtDragSource@@UAGJKPAUtagFORMATETC@@PAK@Z$1 1009a7c0 f   awt_DnDDS.obj
 0001:00099812       __catch$?Skip@ADSIEnumFormatEtc@AwtDragSource@@UAGJK@Z$0 1009a812 f   awt_DnDDS.obj
 0001:00099824       __catch$?Skip@ADSIEnumFormatEtc@AwtDragSource@@UAGJK@Z$1 1009a824 f   awt_DnDDS.obj
 0001:00099919       __catch$?QueryInterface@ADSIStreamProxy@AwtDragSource@@UAGJABU_GUID@@PAPAX@Z$0 1009a919 f   awt_DnDDS.obj
 0001:0009992b       __catch$?QueryInterface@ADSIStreamProxy@AwtDragSource@@UAGJABU_GUID@@PAPAX@Z$1 1009a92b f   awt_DnDDS.obj
 0001:000999d0       __catch$?Read@ADSIStreamProxy@AwtDragSource@@UAGJPAXKPAK@Z$0 1009a9d0 f   awt_DnDDS.obj
 0001:000999e2       __catch$?Read@ADSIStreamProxy@AwtDragSource@@UAGJPAXKPAK@Z$1 1009a9e2 f   awt_DnDDS.obj
 0001:00099a2c       __catch$?Write@ADSIStreamProxy@AwtDragSource@@UAGJPBXKPAK@Z$0 1009aa2c f   awt_DnDDS.obj
 0001:00099a3e       __catch$?Write@ADSIStreamProxy@AwtDragSource@@UAGJPBXKPAK@Z$1 1009aa3e f   awt_DnDDS.obj
 0001:00099ae5       __catch$?Seek@ADSIStreamProxy@AwtDragSource@@UAGJT_LARGE_INTEGER@@KPAT_ULARGE_INTEGER@@@Z$0 1009aae5 f   awt_DnDDS.obj
 0001:00099af7       __catch$?Seek@ADSIStreamProxy@AwtDragSource@@UAGJT_LARGE_INTEGER@@KPAT_ULARGE_INTEGER@@@Z$1 1009aaf7 f   awt_DnDDS.obj
 0001:00099b8b       __catch$?CopyTo@ADSIStreamProxy@AwtDragSource@@UAGJPAUIStream@@T_ULARGE_INTEGER@@PAT4@2@Z$0 1009ab8b f   awt_DnDDS.obj
 0001:00099b9d       __catch$?CopyTo@ADSIStreamProxy@AwtDragSource@@UAGJPAUIStream@@T_ULARGE_INTEGER@@PAT4@2@Z$1 1009ab9d f   awt_DnDDS.obj
 0001:00099bfd       __catch$?Stat@ADSIStreamProxy@AwtDragSource@@UAGJPAUtagSTATSTG@@K@Z$0 1009abfd f   awt_DnDDS.obj
 0001:00099c0f       __catch$?Stat@ADSIStreamProxy@AwtDragSource@@UAGJPAUtagSTATSTG@@K@Z$1 1009ac0f f   awt_DnDDS.obj
 0001:00099c46       __catch$_Java_sun_awt_windows_WDragSourceContextPeer_setNativeCursor@24$0 1009ac46 f   awt_DnDDS.obj
 0001:00099c53       __catch$_Java_sun_awt_windows_WDragSourceContextPeer_setNativeCursor@24$1 1009ac53 f   awt_DnDDS.obj
 0001:00099efd       __catch$?Create@PictureDragHelper@@SAJPAUJNIEnv_@@PAV_jintArray@@HHHHPAUIDataObject@@@Z$0 1009aefd f i awt_DnDDS.obj
 0001:0009a190       __catch$?LoadCache@AwtDragSource@@AAEXPAV_jlongArray@@@Z$0 1009b190 f   awt_DnDDS.obj
 0001:0009a2ad       __catch$?QueryContinueDrag@AwtDragSource@@UAGJHK@Z$0 1009b2ad f   awt_DnDDS.obj
 0001:0009a2bf       __catch$?QueryContinueDrag@AwtDragSource@@UAGJHK@Z$1 1009b2bf f   awt_DnDDS.obj
 0001:0009a42a       __catch$?GiveFeedback@AwtDragSource@@UAGJK@Z$0 1009b42a f   awt_DnDDS.obj
 0001:0009a43c       __catch$?GiveFeedback@AwtDragSource@@UAGJK@Z$1 1009b43c f   awt_DnDDS.obj
 0001:0009a52d       __catch$?Clone@ADSIEnumFormatEtc@AwtDragSource@@UAGJPAPAUIEnumFORMATETC@@@Z$0 1009b52d f   awt_DnDDS.obj
 0001:0009a53f       __catch$?Clone@ADSIEnumFormatEtc@AwtDragSource@@UAGJPAPAUIEnumFORMATETC@@@Z$1 1009b53f f   awt_DnDDS.obj
 0001:0009a64f       __catch$?Clone@ADSIStreamProxy@AwtDragSource@@UAGJPAPAUIStream@@@Z$0 1009b64f f   awt_DnDDS.obj
 0001:0009a661       __catch$?Clone@ADSIStreamProxy@AwtDragSource@@UAGJPAPAUIStream@@@Z$1 1009b661 f   awt_DnDDS.obj
 0001:0009a8d1       __catch$?EnumFormatEtc@AwtDragSource@@UAGJKPAPAUIEnumFORMATETC@@@Z$0 1009b8d1 f   awt_DnDDS.obj
 0001:0009a8e3       __catch$?EnumFormatEtc@AwtDragSource@@UAGJKPAPAUIEnumFORMATETC@@@Z$1 1009b8e3 f   awt_DnDDS.obj
 0001:0009aa5c       __catch$_Java_sun_awt_windows_WDragSourceContextPeer_createDragSource@32$0 1009ba5c f   awt_DnDDS.obj
 0001:0009aa69       __catch$_Java_sun_awt_windows_WDragSourceContextPeer_createDragSource@32$1 1009ba69 f   awt_DnDDS.obj
 0001:0009b46b       __catch$?MatchFormatEtc@AwtDragSource@@IAGJPAUtagFORMATETC@@0@Z$0 1009c46b f   awt_DnDDS.obj
 0001:0009b480       __catch$?MatchFormatEtc@AwtDragSource@@IAGJPAUtagFORMATETC@@0@Z$1 1009c480 f   awt_DnDDS.obj
 0001:0009b833       __catch$?GetData@AwtDragSource@@UAGJPAUtagFORMATETC@@PAUtagSTGMEDIUM@@@Z$0 1009c833 f   awt_DnDDS.obj
 0001:0009b83e       __catch$?GetData@AwtDragSource@@UAGJPAUtagFORMATETC@@PAUtagSTGMEDIUM@@@Z$1 1009c83e f   awt_DnDDS.obj
 0001:0009ba19       __catch$?GetDataHere@AwtDragSource@@UAGJPAUtagFORMATETC@@PAUtagSTGMEDIUM@@@Z$0 1009ca19 f   awt_DnDDS.obj
 0001:0009ba24       __catch$?GetDataHere@AwtDragSource@@UAGJPAUtagFORMATETC@@PAUtagSTGMEDIUM@@@Z$1 1009ca24 f   awt_DnDDS.obj
 0001:0009ba57       __catch$?QueryGetData@AwtDragSource@@UAGJPAUtagFORMATETC@@@Z$0 1009ca57 f   awt_DnDDS.obj
 0001:0009ba69       __catch$?QueryGetData@AwtDragSource@@UAGJPAUtagFORMATETC@@@Z$1 1009ca69 f   awt_DnDDS.obj
 0001:0009babd       __catch$?GetCanonicalFormatEtc@AwtDragSource@@UAGJPAUtagFORMATETC@@0@Z$0 1009cabd f   awt_DnDDS.obj
 0001:0009bacf       __catch$?GetCanonicalFormatEtc@AwtDragSource@@UAGJPAUtagFORMATETC@@0@Z$1 1009cacf f   awt_DnDDS.obj
 0001:0009bc63       __catch$_Java_sun_awt_windows_WDragSourceContextPeer_doDragDrop@40$0 1009cc63 f   awt_DnDDS.obj
 0001:0009bc70       __catch$_Java_sun_awt_windows_WDragSourceContextPeer_doDragDrop@40$1 1009cc70 f   awt_DnDDS.obj
 0001:0009cc48       __catch$_Java_java_awt_TrayIcon_initIDs@8$0 1009dc48 f   awt_TrayIcon.obj
 0001:0009cc55       __catch$_Java_java_awt_TrayIcon_initIDs@8$1 1009dc55 f   awt_TrayIcon.obj
 0001:0009cc86       __catch$_Java_sun_awt_windows_WTrayIconPeer__1dispose@8$0 1009dc86 f   awt_TrayIcon.obj
 0001:0009cc93       __catch$_Java_sun_awt_windows_WTrayIconPeer__1dispose@8$1 1009dc93 f   awt_TrayIcon.obj
 0001:0009ccfa       __catch$_Java_sun_awt_windows_WTrayIconPeer_setToolTip@12$0 1009dcfa f   awt_TrayIcon.obj
 0001:0009cd07       __catch$_Java_sun_awt_windows_WTrayIconPeer_setToolTip@12$1 1009dd07 f   awt_TrayIcon.obj
 0001:0009ce2a       __catch$_Java_sun_awt_windows_WTrayIconPeer_setNativeIcon@28$0 1009de2a f   awt_TrayIcon.obj
 0001:0009ce3c       __catch$_Java_sun_awt_windows_WTrayIconPeer_setNativeIcon@28$2 1009de3c f   awt_TrayIcon.obj
 0001:0009ce49       __catch$_Java_sun_awt_windows_WTrayIconPeer_setNativeIcon@28$3 1009de49 f   awt_TrayIcon.obj
 0001:0009ce9f       __catch$_Java_sun_awt_windows_WTrayIconPeer_updateNativeIcon@12$0 1009de9f f   awt_TrayIcon.obj
 0001:0009ceac       __catch$_Java_sun_awt_windows_WTrayIconPeer_updateNativeIcon@12$1 1009deac f   awt_TrayIcon.obj
 0001:0009cf20       __catch$_Java_sun_awt_windows_WTrayIconPeer__1displayMessage@20$0 1009df20 f   awt_TrayIcon.obj
 0001:0009cf2d       __catch$_Java_sun_awt_windows_WTrayIconPeer__1displayMessage@20$1 1009df2d f   awt_TrayIcon.obj
 0001:0009d64b       __catch$_Java_sun_awt_windows_WTrayIconPeer_create@8$0 1009e64b f   awt_TrayIcon.obj
 0001:0009d658       __catch$_Java_sun_awt_windows_WTrayIconPeer_create@8$1 1009e658 f   awt_TrayIcon.obj
 0001:0009e1a0       ?D3DDrawTextureWithHint@@YAJPAVD3DContext@@W4_D3DTEXTUREFILTERTYPE@@JJMMJJJJMMMMMMMM@Z 1009f1a0 f   D3DBlitLoops.obj
 0001:0009e3d0       ?D3DBlitTextureToSurface@@YAJPAVD3DContext@@PAU_D3DSDOps@@1EW4_D3DTEXTUREFILTERTYPE@@JJJJMMMM@Z 1009f3d0 f   D3DBlitLoops.obj
 0001:0009ffe0       ?D3DContext_DisposeShader@@YAX_J@Z 100a0fe0 f   D3DContext.obj
 0001:000a24e0       ?D3DGlyphCache_FlushGlyphVertexCache@@YAXXZ 100a34e0 f   D3DGlyphCache.obj
 0001:000a5370       ?D3DPaints_SetMultiGradientPaint@@YAJPAVD3DContext@@EJPAX1@Z 100a6370 f   D3DPaints.obj
 0001:000a8ce0       ?D3DTR_UpdateLCDTextContrast@@YAJPAVD3DContext@@J@Z 100a9ce0 f   D3DTextRenderer.obj
 0001:000a8d80       ?D3DTR_UpdateLCDTextColor@@YAJPAVD3DContext@@J@Z 100a9d80 f   D3DTextRenderer.obj
 0001:000a8e90       ?D3DTR_EnableLCDGlyphModeState@@YAJPAVD3DContext@@PAU_D3DSDOps@@EJ@Z 100a9e90 f   D3DTextRenderer.obj
 0001:000a9000       ?D3DTR_DisableGlyphModeState@@YAJPAVD3DContext@@@Z 100aa000 f   D3DTextRenderer.obj
 0001:000a9040       ?D3DTR_DrawGrayscaleGlyphViaCache@@YAJPAVD3DContext@@PAUGlyphInfo@@JJ@Z 100aa040 f   D3DTextRenderer.obj
 0001:000a9160       ?D3DTR_UpdateCachedDestination@@YAJPAVD3DContext@@PAU_D3DSDOps@@PAUGlyphInfo@@JJJJJJJJ@Z 100aa160 f   D3DTextRenderer.obj
 0001:000a94b0       ?D3DTR_DrawLCDGlyphViaCache@@YAJPAVD3DContext@@PAU_D3DSDOps@@PAUGlyphInfo@@JJJJEJ@Z 100aa4b0 f   D3DTextRenderer.obj
 0001:000a96a0       ?D3DTR_DrawGrayscaleGlyphNoCache@@YAJPAVD3DContext@@PAUGlyphInfo@@JJ@Z 100aa6a0 f   D3DTextRenderer.obj
 0001:000a97c0       ?D3DTR_DrawLCDGlyphNoCache@@YAJPAVD3DContext@@PAU_D3DSDOps@@PAUGlyphInfo@@JJJEJ@Z 100aa7c0 f   D3DTextRenderer.obj
 0001:000ac778       _initShellProcs            100ad778 f   ShellFolder2.obj
 0001:000ac8b3       _jstringFromSTRRET         100ad8b3 f   ShellFolder2.obj
 0001:000ad5a1       _CreateColumnInfo          100ae5a1 f   ShellFolder2.obj
 0001:000adb1c       ?copyDIBToBufferedImage@@YAXPAH0HHHH@Z 100aeb1c f   ThemeReader.obj
 0001:000ae495       __catch$?SharedWindowProc@ComCtl32Util@@CGJPAUHWND__@@IIJIK@Z$0 100af495 f   ComCtl32Util.obj
 0001:000ae4aa       __catch$?SharedWindowProc@ComCtl32Util@@CGJPAUHWND__@@IIJIK@Z$1 100af4aa f   ComCtl32Util.obj
 0001:000affb3       _pre_c_init                100b0fb3 f   MSVCRT:crtdll.obj
 0001:000b020b       ___DllMainCRTStartup       100b120b f   MSVCRT:crtdll.obj
 0001:000b0b10       __unwindfunclet$?put@Hashtable@@UAEPAXPAX0@Z$0 100b1b10 f   CmdIDList.obj
 0001:000b0b10       __unwindfunclet$?flushAll@List@GDIHashtable@@QAEXXZ$0 100b1b10 f   CmdIDList.obj
 0001:000b0b10       __unwindfunclet$?get@Hashtable@@QAEPAXPAX@Z$0 100b1b10 f   CmdIDList.obj
 0001:000b0b10       __unwindfunclet$?ReleaseInCache@AwtBrush@@MAEXXZ$0 100b1b10 f   CmdIDList.obj
 0001:000b0b10       __unwindfunclet$?Lookup@AwtCmdIDList@@QAEPAVAwtObject@@I@Z$0 100b1b10 f   CmdIDList.obj
 0001:000b0b10       __unwindfunclet$?clear@List@GDIHashtable@@AAEXXZ$0 100b1b10 f   CmdIDList.obj
 0001:000b0b10       __unwindfunclet$?Cleanup@AwtObjectList@@SAXXZ$0 100b1b10 f   CmdIDList.obj
 0001:000b0b10       __unwindfunclet$?Add@AwtCmdIDList@@QAEIPAVAwtObject@@@Z$0 100b1b10 f   CmdIDList.obj
 0001:000b0b10       __unwindfunclet$?add@List@GDIHashtable@@QAEXPAV2@@Z$0 100b1b10 f   CmdIDList.obj
 0001:000b0b10       __unwindfunclet$?Add@AwtObjectList@@QAEXPAVAwtObject@@@Z$0 100b1b10 f   CmdIDList.obj
 0001:000b0b10       __unwindfunclet$?ReleaseInCache@AwtPen@@MAEXXZ$0 100b1b10 f   CmdIDList.obj
 0001:000b0b10       __unwindfunclet$?remove@List@GDIHashtable@@QAEXPAV2@@Z$0 100b1b10 f   CmdIDList.obj
 0001:000b0b10       __unwindfunclet$?Remove@AwtObjectList@@QAEHPAVAwtObject@@@Z$0 100b1b10 f   CmdIDList.obj
 0001:000b0b10       __unwindfunclet$?remove@Hashtable@@QAEPAXPAX@Z$0 100b1b10 f   CmdIDList.obj
 0001:000b0b18       __ehhandler$?Remove@AwtObjectList@@QAEHPAVAwtObject@@@Z 100b1b18 f   CmdIDList.obj
 0001:000b0b18       __ehhandler$?ReleaseInCache@AwtBrush@@MAEXXZ 100b1b18 f   CmdIDList.obj
 0001:000b0b18       __ehhandler$?remove@List@GDIHashtable@@QAEXPAV2@@Z 100b1b18 f   CmdIDList.obj
 0001:000b0b18       __ehhandler$?remove@Hashtable@@QAEPAXPAX@Z 100b1b18 f   CmdIDList.obj
 0001:000b0b18       __ehhandler$?ReleaseInCache@AwtPen@@MAEXXZ 100b1b18 f   CmdIDList.obj
 0001:000b0b18       __ehhandler$?add@List@GDIHashtable@@QAEXPAV2@@Z 100b1b18 f   CmdIDList.obj
 0001:000b0b18       __ehhandler$?clear@List@GDIHashtable@@AAEXXZ 100b1b18 f   CmdIDList.obj
 0001:000b0b18       __ehhandler$?put@Hashtable@@UAEPAXPAX0@Z 100b1b18 f   CmdIDList.obj
 0001:000b0b18       __ehhandler$?Add@AwtCmdIDList@@QAEIPAVAwtObject@@@Z 100b1b18 f   CmdIDList.obj
 0001:000b0b18       __ehhandler$?get@Hashtable@@QAEPAXPAX@Z 100b1b18 f   CmdIDList.obj
 0001:000b0b18       __ehhandler$?Lookup@AwtCmdIDList@@QAEPAVAwtObject@@I@Z 100b1b18 f   CmdIDList.obj
 0001:000b0b18       __ehhandler$?Add@AwtObjectList@@QAEXPAVAwtObject@@@Z 100b1b18 f   CmdIDList.obj
 0001:000b0b18       __ehhandler$?Cleanup@AwtObjectList@@SAXXZ 100b1b18 f   CmdIDList.obj
 0001:000b0b18       __ehhandler$?flushAll@List@GDIHashtable@@QAEXXZ 100b1b18 f   CmdIDList.obj
 0001:000b0b33       __unwindfunclet$??0AwtCmdIDList@@QAE@XZ$0 100b1b33 f   CmdIDList.obj
 0001:000b0b3b       __ehhandler$??0AwtCmdIDList@@QAE@XZ 100b1b3b f   CmdIDList.obj
 0001:000b0b56       __unwindfunclet$??0Hashtable@@QAE@PBDP6AXPAX@ZHM@Z$0 100b1b56 f   Hashtable.obj
 0001:000b0b56       __unwindfunclet$??1Hashtable@@UAE@XZ$0 100b1b56 f   Hashtable.obj
 0001:000b0b61       __ehhandler$??1Hashtable@@UAE@XZ 100b1b61 f   Hashtable.obj
 0001:000b0b61       __ehhandler$??0Hashtable@@QAE@PBDP6AXPAX@ZHM@Z 100b1b61 f   Hashtable.obj
 0001:000b0b7c       __unwindfunclet$?clear@Hashtable@@QAEXXZ$0 100b1b7c f   Hashtable.obj
 0001:000b0b84       __ehhandler$?clear@Hashtable@@QAEXXZ 100b1b84 f   Hashtable.obj
 0001:000b0b9f       __unwindfunclet$?flush@GDIHashtable@@QAEXXZ$0 100b1b9f f   GDIHashtable.obj
 0001:000b0ba7       __ehhandler$?flush@GDIHashtable@@QAEXXZ 100b1ba7 f   GDIHashtable.obj
 0001:000b0bc2       __unwindfunclet$??1List@GDIHashtable@@QAE@XZ$0 100b1bc2 f   GDIHashtable.obj
 0001:000b0bcd       __ehhandler$??1List@GDIHashtable@@QAE@XZ 100b1bcd f   GDIHashtable.obj
 0001:000b0bf0       __unwindfunclet$?GetInstance@Devices@@SAPAV1@XZ$0 100b1bf0 f   Devices.obj
 0001:000b0bf0       __unwindfunclet$?InvokeAndTerminate@PreloadThread@AwtToolkit@@QAE_NP6AXPAX@Z0@Z$0 100b1bf0 f   Devices.obj
 0001:000b0bf0       __unwindfunclet$?Terminate@PreloadThread@AwtToolkit@@QAE_N_N@Z$0 100b1bf0 f   Devices.obj
 0001:000b0bf0       __unwindfunclet$?SyncCall@AwtToolkit@@QAEXP6AXPAX@Z0@Z$0 100b1bf0 f   Devices.obj
 0001:000b0bf8       __ehhandler$?GetInstance@Devices@@SAPAV1@XZ 100b1bf8 f   Devices.obj
 0001:000b0bf8       __ehhandler$?SyncCall@AwtToolkit@@QAEXP6AXPAX@Z0@Z 100b1bf8 f   Devices.obj
 0001:000b0bf8       __ehhandler$?InvokeAndTerminate@PreloadThread@AwtToolkit@@QAE_NP6AXPAX@Z0@Z 100b1bf8 f   Devices.obj
 0001:000b0bf8       __ehhandler$?Terminate@PreloadThread@AwtToolkit@@QAE_N_N@Z 100b1bf8 f   Devices.obj
 0001:000b0c20       __unwindfunclet$?AddAction@PreloadThread@AwtToolkit@@QAE_NPAVPreloadAction@2@@Z$0 100b1c20 f   Devices.obj
 0001:000b0c20       __unwindfunclet$?Clean@PreloadAction@AwtToolkit@@QAE_NXZ$1 100b1c20 f   Devices.obj
 0001:000b0c20       __unwindfunclet$?Release@Devices@@QAEHXZ$0 100b1c20 f   Devices.obj
 0001:000b0c28       __ehhandler$?Release@Devices@@QAEHXZ 100b1c28 f   Devices.obj
 0001:000b0c28       __ehhandler$?Clean@PreloadAction@AwtToolkit@@QAE_NXZ 100b1c28 f   Devices.obj
 0001:000b0c28       __ehhandler$?AddAction@PreloadThread@AwtToolkit@@QAE_NPAVPreloadAction@2@@Z 100b1c28 f   Devices.obj
 0001:000b0c50       __unwindfunclet$?UpdateInstance@Devices@@SAHPAUJNIEnv_@@@Z$0 100b1c50 f   Devices.obj
 0001:000b0c5b       __unwindfunclet$?UpdateInstance@Devices@@SAHPAUJNIEnv_@@@Z$1 100b1c5b f   Devices.obj
 0001:000b0c66       __unwindfunclet$?UpdateInstance@Devices@@SAHPAUJNIEnv_@@@Z$2 100b1c66 f   Devices.obj
 0001:000b0c6e       __ehhandler$?UpdateInstance@Devices@@SAHPAUJNIEnv_@@@Z 100b1c6e f   Devices.obj
 0001:000b0c90       __ehhandler$_GDIWindowSurfaceData_GetComp@8 100b1c90 f   GDIWindowSurfaceData.obj
 0001:000b0cab       __ehhandler$_Java_sun_print_Win32PrintServiceLookup_getDefaultPrinterName@8 100b1cab f   WPrinterJob.obj
 0001:000b0cd3       __ehhandler$_Java_sun_print_Win32PrintServiceLookup_getAllPrinterNames@8 100b1cd3 f   WPrinterJob.obj
 0001:000b0cee       __ehhandler$_Java_sun_print_Win32PrintService_getMediaPrintableArea@16 100b1cee f   WPrinterJob.obj
 0001:000b0d09       __ehhandler$_Java_sun_print_Win32PrintService_getAllMediaIDs@16 100b1d09 f   WPrinterJob.obj
 0001:000b0d24       __ehhandler$_Java_sun_print_Win32PrintService_getAllMediaTrays@16 100b1d24 f   WPrinterJob.obj
 0001:000b0d3f       __ehhandler$_Java_sun_print_Win32PrintService_getAllMediaSizes@16 100b1d3f f   WPrinterJob.obj
 0001:000b0d5a       __ehhandler$_getAllDCNames 100b1d5a f   WPrinterJob.obj
 0001:000b0d75       __ehhandler$_Java_sun_print_Win32PrintService_getAllResolutions@16 100b1d75 f   WPrinterJob.obj
 0001:000b0d90       __ehhandler$_Java_sun_print_Win32PrintService_getPrinterPort@12 100b1d90 f   WPrinterJob.obj
 0001:000b0dab       __ehhandler$_Java_sun_print_Win32PrintService_getDefaultSettings@16 100b1dab f   WPrinterJob.obj
 0001:000b0dc6       __ehhandler$_Java_sun_print_Win32PrintJob_printRawData@16 100b1dc6 f   WPrinterJob.obj
 0001:000b0de1       __ehhandler$_Java_java_awt_AWTEvent_initIDs@8 100b1de1 f   awt_AWTEvent.obj
 0001:000b0dfc       __ehhandler$_Java_java_awt_AWTEvent_nativeSetSource@12 100b1dfc f   awt_AWTEvent.obj
 0001:000b0e17       __unwindfunclet$??1GDIHashtable@@UAE@XZ$0 100b1e17 f   awt_Brush.obj
 0001:000b0e1f       __ehhandler$??1GDIHashtable@@UAE@XZ 100b1e1f f   awt_Brush.obj
 0001:000b0e3a       __unwindfunclet$??0AwtBrush@@AAE@K@Z$0 100b1e3a f   awt_Brush.obj
 0001:000b0e3a       __unwindfunclet$??0AwtPen@@AAE@K@Z$0 100b1e3a f   awt_Brush.obj
 0001:000b0e42       __ehhandler$??0AwtPen@@AAE@K@Z 100b1e42 f   awt_Brush.obj
 0001:000b0e42       __ehhandler$??0AwtBrush@@AAE@K@Z 100b1e42 f   awt_Brush.obj
 0001:000b0e5d       __unwindfunclet$??__E?cache@AwtBrush@@0VGDIHashtable@@A@@YAXXZ$0 100b1e5d f   awt_Brush.obj
 0001:000b0e67       __ehhandler$??__E?cache@AwtBrush@@0VGDIHashtable@@A@@YAXXZ 100b1e67 f   awt_Brush.obj
 0001:000b0e82       __unwindfunclet$?Create@AwtButton@@SAPAV1@PAV_jobject@@0@Z$6 100b1e82 f   awt_Button.obj
 0001:000b0e8c       __ehhandler$?Create@AwtButton@@SAPAV1@PAV_jobject@@0@Z 100b1e8c f   awt_Button.obj
 0001:000b0ea7       __ehhandler$_Java_sun_awt_windows_WButtonPeer_initIDs@8 100b1ea7 f   awt_Button.obj
 0001:000b0ec2       __ehhandler$_Java_sun_awt_windows_WButtonPeer_setLabel@12 100b1ec2 f   awt_Button.obj
 0001:000b0edd       __ehhandler$_Java_sun_awt_windows_WButtonPeer_create@12 100b1edd f   awt_Button.obj
 0001:000b0ef8       __unwindfunclet$?Create@AwtCanvas@@SAPAV1@PAV_jobject@@0@Z$8 100b1ef8 f   awt_Canvas.obj
 0001:000b0f02       __ehhandler$?Create@AwtCanvas@@SAPAV1@PAV_jobject@@0@Z 100b1f02 f   awt_Canvas.obj
 0001:000b0f27       __ehhandler$_Java_sun_awt_windows_WCanvasPeer_create@12 100b1f27 f   awt_Canvas.obj
 0001:000b0f42       __ehhandler$_Java_sun_awt_windows_WCanvasPeer_setNativeBackgroundErase@16 100b1f42 f   awt_Canvas.obj
 0001:000b0f5d       __unwindfunclet$?Create@AwtCheckbox@@SAPAV1@PAV_jobject@@0@Z$5 100b1f5d f   awt_Checkbox.obj
 0001:000b0f67       __ehhandler$?Create@AwtCheckbox@@SAPAV1@PAV_jobject@@0@Z 100b1f67 f   awt_Checkbox.obj
 0001:000b0f82       __ehhandler$_Java_java_awt_Checkbox_initIDs@8 100b1f82 f   awt_Checkbox.obj
 0001:000b0f9d       __ehhandler$_Java_sun_awt_windows_WCheckboxPeer_setState@12 100b1f9d f   awt_Checkbox.obj
 0001:000b0fb8       __ehhandler$_Java_sun_awt_windows_WCheckboxPeer_setCheckboxGroup@12 100b1fb8 f   awt_Checkbox.obj
 0001:000b0fd3       __ehhandler$_Java_sun_awt_windows_WCheckboxPeer_setLabel@12 100b1fd3 f   awt_Checkbox.obj
 0001:000b0fee       __ehhandler$_Java_sun_awt_windows_WCheckboxPeer_create@12 100b1fee f   awt_Checkbox.obj
 0001:000b1009       __unwindfunclet$?Create@AwtChoice@@SAPAV1@PAV_jobject@@0@Z$5 100b2009 f   awt_Choice.obj
 0001:000b1013       __ehhandler$?Create@AwtChoice@@SAPAV1@PAV_jobject@@0@Z 100b2013 f   awt_Choice.obj
 0001:000b1038       __ehhandler$_Java_sun_awt_windows_WChoicePeer_select@12 100b2038 f   awt_Choice.obj
 0001:000b1053       __ehhandler$_Java_sun_awt_windows_WChoicePeer_remove@12 100b2053 f   awt_Choice.obj
 0001:000b106e       __ehhandler$_Java_sun_awt_windows_WChoicePeer_removeAll@8 100b206e f   awt_Choice.obj
 0001:000b1089       __ehhandler$_Java_sun_awt_windows_WChoicePeer_addItems@16 100b2089 f   awt_Choice.obj
 0001:000b10a4       __ehhandler$_Java_sun_awt_windows_WChoicePeer_reshape@24 100b20a4 f   awt_Choice.obj
 0001:000b10bf       __ehhandler$_Java_sun_awt_windows_WChoicePeer_create@12 100b20bf f   awt_Choice.obj
 0001:000b10da       __ehhandler$_Java_sun_awt_windows_WChoicePeer_closeList@8 100b20da f   awt_Choice.obj
 0001:000b10f5       __unwindfunclet$?GetInstance@ComCtl32Util@@SAAAV1@XZ$0 100b20f5 f   awt_Choice.obj
 0001:000b1103       __ehhandler$?GetInstance@ComCtl32Util@@SAAAV1@XZ 100b2103 f   awt_Choice.obj
 0001:000b111e       __ehhandler$?ListWindowProc@AwtChoice@@CGJPAUHWND__@@IIJ@Z 100b211e f   awt_Choice.obj
 0001:000b1143       __ehhandler$?UnregisterClipboardViewer@AwtClipboard@@SAXPAUJNIEnv_@@@Z 100b2143 f   awt_Clipboard.obj
 0001:000b115e       __ehhandler$_Java_sun_awt_windows_WClipboard_init@8 100b215e f   awt_Clipboard.obj
 0001:000b1179       __ehhandler$_Java_sun_awt_windows_WClipboard_openClipboard@12 100b2179 f   awt_Clipboard.obj
 0001:000b1194       __ehhandler$_Java_sun_awt_windows_WClipboard_closeClipboard@8 100b2194 f   awt_Clipboard.obj
 0001:000b11af       __ehhandler$_Java_sun_awt_windows_WClipboard_registerClipboardViewer@8 100b21af f   awt_Clipboard.obj
 0001:000b11ca       __ehhandler$_Java_sun_awt_windows_WClipboard_publishClipboardData@20 100b21ca f   awt_Clipboard.obj
 0001:000b11e5       __ehhandler$_Java_sun_awt_windows_WClipboard_getClipboardFormats@8 100b21e5 f   awt_Clipboard.obj
 0001:000b1200       __ehhandler$_Java_sun_awt_windows_WClipboard_getClipboardData@16 100b2200 f   awt_Clipboard.obj
 0001:000b121b       __ehhandler$_Java_java_awt_Color_initIDs@8 100b221b f   awt_Color.obj
 0001:000b1236       __ehhandler$_Java_sun_awt_windows_WColor_getDefaultColor@12 100b2236 f   awt_Color.obj
 0001:000b1251       __unwindfunclet$?SendKeyEvent@AwtComponent@@QAEXJ_JJJJJ0PAUtagMSG@@@Z$0 100b2251 f   awt_Component.obj
 0001:000b1259       __ehhandler$?SendKeyEvent@AwtComponent@@QAEXJ_JJJJJ0PAUtagMSG@@@Z 100b2259 f   awt_Component.obj
 0001:000b1274       __unwindfunclet$?SendMouseEvent@AwtComponent@@QAEXJ_JJJJJEJPAUtagMSG@@@Z$0 100b2274 f   awt_Component.obj
 0001:000b127c       __ehhandler$?SendMouseEvent@AwtComponent@@QAEXJ_JJJJJEJPAUtagMSG@@@Z 100b227c f   awt_Component.obj
 0001:000b12a1       __unwindfunclet$?SendMouseWheelEvent@AwtComponent@@QAEXJ_JJJJJEJJJNPAUtagMSG@@@Z$0 100b22a1 f   awt_Component.obj
 0001:000b12a9       __ehhandler$?SendMouseWheelEvent@AwtComponent@@QAEXJ_JJJJJEJJJNPAUtagMSG@@@Z 100b22a9 f   awt_Component.obj
 0001:000b12ce       __ehhandler$_AwtComponent_GetInsets 100b22ce f   awt_Component.obj
 0001:000b12e9       __ehhandler$_Java_java_awt_Component_initIDs@8 100b22e9 f   awt_Component.obj
 0001:000b1304       __ehhandler$_Java_sun_awt_windows_WComponentPeer_pShow@8 100b2304 f   awt_Component.obj
 0001:000b131f       __ehhandler$_Java_sun_awt_windows_WComponentPeer_hide@8 100b231f f   awt_Component.obj
 0001:000b133a       __ehhandler$_Java_sun_awt_windows_WComponentPeer_enable@8 100b233a f   awt_Component.obj
 0001:000b1355       __ehhandler$_Java_sun_awt_windows_WComponentPeer_disable@8 100b2355 f   awt_Component.obj
 0001:000b1370       __ehhandler$_Java_sun_awt_windows_WComponentPeer_getLocationOnScreen@8 100b2370 f   awt_Component.obj
 0001:000b138b       __ehhandler$_Java_sun_awt_windows_WComponentPeer_reshape@24 100b238b f   awt_Component.obj
 0001:000b13a6       __ehhandler$_Java_sun_awt_windows_WComponentPeer_reshapeNoCheck@24 100b23a6 f   awt_Component.obj
 0001:000b13c1       __ehhandler$_Java_sun_awt_windows_WComponentPeer__1setForeground@12 100b23c1 f   awt_Component.obj
 0001:000b13dc       __ehhandler$_Java_sun_awt_windows_WComponentPeer__1setBackground@12 100b23dc f   awt_Component.obj
 0001:000b13f7       __ehhandler$_Java_sun_awt_windows_WComponentPeer__1setFont@12 100b23f7 f   awt_Component.obj
 0001:000b1412       __ehhandler$_Java_sun_awt_windows_WComponentPeer_setFocus@12 100b2412 f   awt_Component.obj
 0001:000b142d       __ehhandler$_Java_sun_awt_windows_WComponentPeer_start@8 100b242d f   awt_Component.obj
 0001:000b1448       __ehhandler$_Java_sun_awt_windows_WComponentPeer_beginValidate@8 100b2448 f   awt_Component.obj
 0001:000b1463       __ehhandler$_Java_sun_awt_windows_WComponentPeer_endValidate@8 100b2463 f   awt_Component.obj
 0001:000b147e       __ehhandler$_Java_sun_awt_windows_WComponentPeer_updateWindow@8 100b247e f   awt_Component.obj
 0001:000b1499       __ehhandler$_Java_sun_awt_windows_WComponentPeer_addNativeDropTarget@8 100b2499 f   awt_Component.obj
 0001:000b14b4       __ehhandler$_Java_sun_awt_windows_WComponentPeer_removeNativeDropTarget@8 100b24b4 f   awt_Component.obj
 0001:000b14cf       __ehhandler$_Java_sun_awt_windows_WComponentPeer_getTargetGC@8 100b24cf f   awt_Component.obj
 0001:000b14ea       __ehhandler$_Java_sun_awt_windows_WComponentPeer_createPrintedPixels@28 100b24ea f   awt_Component.obj
 0001:000b1505       __ehhandler$_Java_sun_awt_windows_WComponentPeer_nativeHandlesWheelScrolling@8 100b2505 f   awt_Component.obj
 0001:000b1520       __ehhandler$_Java_sun_awt_windows_WComponentPeer_isObscured@8 100b2520 f   awt_Component.obj
 0001:000b153b       __ehhandler$_Java_sun_awt_windows_WComponentPeer_pSetParent@12 100b253b f   awt_Component.obj
 0001:000b1556       __ehhandler$_Java_sun_awt_windows_WComponentPeer_setRectangularShape@28 100b2556 f   awt_Component.obj
 0001:000b1571       __ehhandler$_Java_sun_awt_windows_WComponentPeer_setZOrder@16 100b2571 f   awt_Component.obj
 0001:000b158c       __unwindfunclet$??0AwtTrayIcon@@QAE@XZ$0 100b258c f   awt_Component.obj
 0001:000b158c       __unwindfunclet$??0AwtCursor@@QAE@PAUJNIEnv_@@PAUHICON__@@PAV_jobject@@HHHHHPAHPAE@Z$0 100b258c f   awt_Component.obj
 0001:000b158c       __unwindfunclet$??1AwtComponent@@UAE@XZ$0 100b258c f   awt_Component.obj
 0001:000b158c       __unwindfunclet$??0AwtRobot@@QAE@PAV_jobject@@@Z$0 100b258c f   awt_Component.obj
 0001:000b158c       __unwindfunclet$??0AwtCursor@@QAE@PAUJNIEnv_@@PAUHICON__@@PAV_jobject@@@Z$0 100b258c f   awt_Component.obj
 0001:000b158c       __unwindfunclet$??0AwtFont@@QAE@HPAUJNIEnv_@@PAV_jobject@@@Z$0 100b258c f   awt_Component.obj
 0001:000b158c       __unwindfunclet$??0AwtComponent@@QAE@XZ$0 100b258c f   awt_Component.obj
 0001:000b1594       __ehhandler$??0AwtCursor@@QAE@PAUJNIEnv_@@PAUHICON__@@PAV_jobject@@@Z 100b2594 f   awt_Component.obj
 0001:000b1594       __ehhandler$??1AwtComponent@@UAE@XZ 100b2594 f   awt_Component.obj
 0001:000b1594       __ehhandler$??0AwtCursor@@QAE@PAUJNIEnv_@@PAUHICON__@@PAV_jobject@@HHHHHPAHPAE@Z 100b2594 f   awt_Component.obj
 0001:000b1594       __ehhandler$??0AwtComponent@@QAE@XZ 100b2594 f   awt_Component.obj
 0001:000b1594       __ehhandler$??0AwtRobot@@QAE@PAV_jobject@@@Z 100b2594 f   awt_Component.obj
 0001:000b1594       __ehhandler$??0AwtFont@@QAE@HPAUJNIEnv_@@PAV_jobject@@@Z 100b2594 f   awt_Component.obj
 0001:000b1594       __ehhandler$??0AwtTrayIcon@@QAE@XZ 100b2594 f   awt_Component.obj
 0001:000b15af       __ehhandler$?WndProc@AwtComponent@@SGJPAUHWND__@@IIJ@Z 100b25af f   awt_Component.obj
 0001:000b15ca       __unwindfunclet$?WindowsKeyToJavaChar@AwtComponent@@QAEIIIW4TransOps@1@@Z$0 100b25ca f   awt_Component.obj
 0001:000b15d8       __ehhandler$?WindowsKeyToJavaChar@AwtComponent@@QAEIIIW4TransOps@1@@Z 100b25d8 f   awt_Component.obj
 0001:000b1600       __ehhandler$_Java_sun_awt_windows_WComponentPeer_nativeHandleEvent@12 100b2600 f   awt_Component.obj
 0001:000b161b       __unwindfunclet$?WindowProc@AwtComponent@@UAEJIIJ@Z$0 100b261b f   awt_Component.obj
 0001:000b1623       __unwindfunclet$?WindowProc@AwtComponent@@UAEJIIJ@Z$1 100b2623 f   awt_Component.obj
 0001:000b162b       __ehhandler$?WindowProc@AwtComponent@@UAEJIIJ@Z 100b262b f   awt_Component.obj
 0001:000b1650       __unwindfunclet$?WmImeComposition@AwtComponent@@UAE?AW4MsgRouting@@GJ@Z$2 100b2650 f   awt_Component.obj
 0001:000b165a       __ehhandler$?WmImeComposition@AwtComponent@@UAE?AW4MsgRouting@@GJ@Z 100b265a f   awt_Component.obj
 0001:000b1675       __ehhandler$_Java_java_awt_Container_initIDs@8 100b2675 f   awt_Container.obj
 0001:000b1690       __unwindfunclet$?CreateSystemCursor@AwtCursor@@SAPAV1@PAV_jobject@@@Z$0 100b2690 f   awt_Cursor.obj
 0001:000b169a       __ehhandler$?CreateSystemCursor@AwtCursor@@SAPAV1@PAV_jobject@@@Z 100b269a f   awt_Cursor.obj
 0001:000b16b5       __ehhandler$_Java_java_awt_Cursor_initIDs@8 100b26b5 f   awt_Cursor.obj
 0001:000b16d0       __ehhandler$_Java_java_awt_Cursor_finalizeImpl@16 100b26d0 f   awt_Cursor.obj
 0001:000b16eb       __unwindfunclet$_Java_sun_awt_windows_WCustomCursor_createCursorIndirect@36$5 100b26eb f   awt_Cursor.obj
 0001:000b16f5       __ehhandler$_Java_sun_awt_windows_WCustomCursor_createCursorIndirect@36 100b26f5 f   awt_Cursor.obj
 0001:000b1710       __ehhandler$_Java_sun_awt_windows_WCustomCursor_getCursorWidth@8 100b2710 f   awt_Cursor.obj
 0001:000b172b       __ehhandler$_Java_sun_awt_windows_WCustomCursor_getCursorHeight@8 100b272b f   awt_Cursor.obj
 0001:000b1746       __ehhandler$_Java_sun_awt_windows_WGlobalCursorManager_getCursorPos@12 100b2746 f   awt_Cursor.obj
 0001:000b1761       __ehhandler$_Java_sun_awt_windows_WGlobalCursorManager_findHeavyweightUnderCursor@12 100b2761 f   awt_Cursor.obj
 0001:000b177c       __ehhandler$_Java_sun_awt_windows_WGlobalCursorManager_findComponentAt@20 100b277c f   awt_Cursor.obj
 0001:000b1797       __ehhandler$_Java_sun_awt_windows_WGlobalCursorManager_getLocationOnScreen@12 100b2797 f   awt_Cursor.obj
 0001:000b17b2       __ehhandler$_Java_sun_awt_windows_WGlobalCursorManager_setCursor@20 100b27b2 f   awt_Cursor.obj
 0001:000b17cd       __ehhandler$_Java_sun_awt_windows_WDataTransferer_dragQueryFile@12 100b27cd f   awt_DataTransferer.obj
 0001:000b17e8       __ehhandler$_Java_sun_awt_windows_WDataTransferer_platformImageBytesToImageData@20 100b27e8 f   awt_DataTransferer.obj
 0001:000b180d       __ehhandler$_Java_sun_awt_windows_WDataTransferer_imageDataToPlatformImageBytes@28 100b280d f   awt_DataTransferer.obj
 0001:000b1832       __ehhandler$_Java_sun_awt_windows_WDataTransferer_registerClipboardFormat@12 100b2832 f   awt_DataTransferer.obj
 0001:000b184d       __ehhandler$_Java_sun_awt_windows_WDataTransferer_getClipboardFormatName@16 100b284d f   awt_DataTransferer.obj
 0001:000b1868       __ehhandler$_Java_sun_awt_windows_WToolkitThreadBlockedHandler_startSecondaryEventLoop@8 100b2868 f   awt_DataTransferer.obj
 0001:000b1883       __ehhandler$_Java_java_awt_Dimension_initIDs@8 100b2883 f   awt_Dimension.obj
 0001:000b189e       __ehhandler$_Java_sun_awt_windows_WDesktopProperties_initIDs@8 100b289e f   awt_DesktopProperties.obj
 0001:000b18b9       __unwindfunclet$_Java_sun_awt_windows_WDesktopProperties_init@8$3 100b28b9 f   awt_DesktopProperties.obj
 0001:000b18c3       __ehhandler$_Java_sun_awt_windows_WDesktopProperties_init@8 100b28c3 f   awt_DesktopProperties.obj
 0001:000b18de       __ehhandler$_Java_sun_awt_windows_WDesktopProperties_playWindowsSound@12 100b28de f   awt_DesktopProperties.obj
 0001:000b18f9       __ehhandler$_Java_sun_awt_windows_WDesktopProperties_getWindowsParameters@8 100b28f9 f   awt_DesktopProperties.obj
 0001:000b1914       __ehhandler$_Java_java_awt_Dialog_initIDs@8 100b2914 f   awt_Dialog.obj
 0001:000b192f       __ehhandler$_Java_sun_awt_windows_WDialogPeer_showModal@8 100b292f f   awt_Dialog.obj
 0001:000b194a       __ehhandler$_Java_sun_awt_windows_WDialogPeer_endModal@8 100b294a f   awt_Dialog.obj
 0001:000b1965       __ehhandler$_Java_sun_awt_windows_WDialogPeer_pSetIMMOption@12 100b2965 f   awt_Dialog.obj
 0001:000b1980       __unwindfunclet$?Create@AwtDialog@@SAPAV1@PAV_jobject@@0@Z$5 100b2980 f   awt_Dialog.obj
 0001:000b198a       __ehhandler$?Create@AwtDialog@@SAPAV1@PAV_jobject@@0@Z 100b298a f   awt_Dialog.obj
 0001:000b19a5       __ehhandler$_Java_sun_awt_windows_WDialogPeer_createAwtDialog@12 100b29a5 f   awt_Dialog.obj
 0001:000b19c0       __ehhandler$?Init@JAWTDrawingSurfaceInfo@@QAEJPAVJAWTDrawingSurface@@@Z 100b29c0 f   awt_DrawingSurface.obj
 0001:000b19db       __ehhandler$??1JAWTDrawingSurface@@UAE@XZ 100b29db f   awt_DrawingSurface.obj
 0001:000b19f6       __ehhandler$?GetDSI@JAWTDrawingSurface@@SGPAUjawt_DrawingSurfaceInfo@@PAUjawt_DrawingSurface@@@Z 100b29f6 f   awt_DrawingSurface.obj
 0001:000b1a11       __ehhandler$?FreeDSI@JAWTDrawingSurface@@SGXPAUjawt_DrawingSurfaceInfo@@@Z 100b2a11 f   awt_DrawingSurface.obj
 0001:000b1a2c       __ehhandler$?LockSurface@JAWTDrawingSurface@@SGJPAUjawt_DrawingSurface@@@Z 100b2a2c f   awt_DrawingSurface.obj
 0001:000b1a47       __ehhandler$?UnlockSurface@JAWTDrawingSurface@@SGXPAUjawt_DrawingSurface@@@Z 100b2a47 f   awt_DrawingSurface.obj
 0001:000b1a62       __ehhandler$_DSFreeDrawingSurface@4 100b2a62 f   awt_DrawingSurface.obj
 0001:000b1a7d       __ehhandler$??0JAWTDrawingSurface@@QAE@PAUJNIEnv_@@PAV_jobject@@@Z 100b2a7d f   awt_DrawingSurface.obj
 0001:000b1a98       __unwindfunclet$_DSGetDrawingSurface@8$3 100b2a98 f   awt_DrawingSurface.obj
 0001:000b1aa2       __ehhandler$_DSGetDrawingSurface@8 100b2aa2 f   awt_DrawingSurface.obj
 0001:000b1abd       __ehhandler$_Java_sun_awt_windows_WFileDialogPeer_initIDs@8 100b2abd f   awt_FileDialog.obj
 0001:000b1ad8       __ehhandler$_Java_sun_awt_windows_WFileDialogPeer_setFilterString@12 100b2ad8 f   awt_FileDialog.obj
 0001:000b1af3       __ehhandler$_Java_sun_awt_windows_WFileDialogPeer__1dispose@8 100b2af3 f   awt_FileDialog.obj
 0001:000b1b0e       __ehhandler$_Java_sun_awt_windows_WFileDialogPeer__1hide@8 100b2b0e f   awt_FileDialog.obj
 0001:000b1b29       __ehhandler$_Java_sun_awt_windows_WPrintDialogPeer_toFront@8 100b2b29 f   awt_FileDialog.obj
 0001:000b1b29       __ehhandler$_Java_sun_awt_windows_WFileDialogPeer_toFront@8 100b2b29 f   awt_FileDialog.obj
 0001:000b1b44       __ehhandler$_Java_sun_awt_windows_WPrintDialogPeer_toBack@8 100b2b44 f   awt_FileDialog.obj
 0001:000b1b44       __ehhandler$_Java_sun_awt_windows_WFileDialogPeer_toBack@8 100b2b44 f   awt_FileDialog.obj
 0001:000b1b5f       __ehhandler$?FileDialogHookProc@@YGIPAUHWND__@@IIJ@Z 100b2b5f f   awt_FileDialog.obj
 0001:000b1b87       __unwindfunclet$?Show@AwtFileDialog@@SAXPAX@Z$2 100b2b87 f   awt_FileDialog.obj
 0001:000b1b8f       __unwindfunclet$?Show@AwtFileDialog@@SAXPAX@Z$3 100b2b8f f   awt_FileDialog.obj
 0001:000b1b97       __ehhandler$?Show@AwtFileDialog@@SAXPAX@Z 100b2b97 f   awt_FileDialog.obj
 0001:000b1bb2       __ehhandler$_Java_sun_awt_windows_WFileDialogPeer__1show@8 100b2bb2 f   awt_FileDialog.obj
 0001:000b1bcd       __ehhandler$_Java_java_awt_Event_initIDs@8 100b2bcd f   awt_Event.obj
 0001:000b1be8       __ehhandler$?pDataDisposeMethod@@YAXPAUJNIEnv_@@_J@Z 100b2be8 f   awt_Font.obj
 0001:000b1c03       __ehhandler$_Java_sun_awt_windows_WFontMetrics_bytesWidth@20 100b2c03 f   awt_Font.obj
 0001:000b1c1e       __ehhandler$_Java_sun_awt_windows_WFontMetrics_initIDs@8 100b2c1e f   awt_Font.obj
 0001:000b1c39       __ehhandler$_Java_java_awt_Font_initIDs@8 100b2c39 f   awt_Font.obj
 0001:000b1c54       __ehhandler$_Java_java_awt_FontMetrics_initIDs@8 100b2c54 f   awt_Font.obj
 0001:000b1c6f       __ehhandler$_Java_sun_awt_FontDescriptor_initIDs@8 100b2c6f f   awt_Font.obj
 0001:000b1c8a       __ehhandler$_Java_sun_awt_PlatformFont_initIDs@8 100b2c8a f   awt_Font.obj
 0001:000b1ca5       __ehhandler$_Java_sun_awt_windows_WFontPeer_initIDs@8 100b2ca5 f   awt_Font.obj
 0001:000b1cc0       __unwindfunclet$??1CSegTable@@UAE@XZ$0 100b2cc0 f   awt_Font.obj
 0001:000b1cc8       __ehhandler$??1CSegTable@@UAE@XZ 100b2cc8 f   awt_Font.obj
 0001:000b1ce3       __ehhandler$_Java_sun_awt_windows_WDefaultFontCharset_initIDs@8 100b2ce3 f   awt_Font.obj
 0001:000b1cfe       __ehhandler$?MakeTable@CSegTable@@IAEXXZ 100b2cfe f   awt_Font.obj
 0001:000b1d23       __unwindfunclet$_Java_sun_awt_windows_WDefaultFontCharset_canConvert@12$3 100b2d23 f   awt_Font.obj
 0001:000b1d31       __ehhandler$_Java_sun_awt_windows_WDefaultFontCharset_canConvert@12 100b2d31 f   awt_Font.obj
 0001:000b1d4c       __unwindfunclet$?Create@AwtFont@@SAPAV1@PAUJNIEnv_@@PAV_jobject@@JM@Z$2 100b2d4c f   awt_Font.obj
 0001:000b1d56       __ehhandler$?Create@AwtFont@@SAPAV1@PAUJNIEnv_@@PAV_jobject@@JM@Z 100b2d56 f   awt_Font.obj
 0001:000b1d71       __ehhandler$?DrawStringSize_sub@AwtFont@@SA?AUtagSIZE@@PAV_jstring@@PAUHDC__@@PAV_jobject@@JJHI@Z 100b2d71 f   awt_Font.obj
 0001:000b1d8c       __ehhandler$_Java_sun_awt_windows_WFontMetrics_init@8 100b2d8c f   awt_Font.obj
 0001:000b1da7       __ehhandler$_Java_sun_awt_windows_WFontMetrics_stringWidth@12 100b2da7 f   awt_Font.obj
 0001:000b1dc2       __ehhandler$_Java_sun_awt_windows_WFontMetrics_charsWidth@20 100b2dc2 f   awt_Font.obj
 0001:000b1ddd       __unwindfunclet$?Create@AwtFrame@@SAPAV1@PAV_jobject@@0@Z$5 100b2ddd f   awt_Frame.obj
 0001:000b1de7       __ehhandler$?Create@AwtFrame@@SAPAV1@PAV_jobject@@0@Z 100b2de7 f   awt_Frame.obj
 0001:000b1e0c       __ehhandler$_Java_java_awt_Frame_initIDs@8 100b2e0c f   awt_Frame.obj
 0001:000b1e27       __ehhandler$_Java_sun_awt_windows_WFramePeer_initIDs@8 100b2e27 f   awt_Frame.obj
 0001:000b1e42       __ehhandler$_Java_sun_awt_windows_WFramePeer_setState@12 100b2e42 f   awt_Frame.obj
 0001:000b1e5d       __ehhandler$_Java_sun_awt_windows_WFramePeer_getState@8 100b2e5d f   awt_Frame.obj
 0001:000b1e78       __ehhandler$_Java_sun_awt_windows_WFramePeer_setMaximizedBounds@24 100b2e78 f   awt_Frame.obj
 0001:000b1e93       __ehhandler$_Java_sun_awt_windows_WFramePeer_clearMaximizedBounds@8 100b2e93 f   awt_Frame.obj
 0001:000b1eae       __ehhandler$_Java_sun_awt_windows_WFramePeer_setMenuBar0@12 100b2eae f   awt_Frame.obj
 0001:000b1ec9       __ehhandler$_Java_sun_awt_windows_WFramePeer_createAwtFrame@12 100b2ec9 f   awt_Frame.obj
 0001:000b1ee4       __ehhandler$_Java_sun_awt_windows_WFramePeer_getSysMenuHeight@8 100b2ee4 f   awt_Frame.obj
 0001:000b1eff       __ehhandler$_Java_sun_awt_windows_WFramePeer_pSetIMMOption@12 100b2eff f   awt_Frame.obj
 0001:000b1f1a       __ehhandler$_Java_sun_awt_EmbeddedFrame_setPeer@12 100b2f1a f   awt_Frame.obj
 0001:000b1f35       __ehhandler$_Java_sun_awt_windows_WEmbeddedFrame_initIDs@8 100b2f35 f   awt_Frame.obj
 0001:000b1f50       __ehhandler$_Java_sun_awt_windows_WEmbeddedFramePeer_create@12 100b2f50 f   awt_Frame.obj
 0001:000b1f6b       __ehhandler$_Java_sun_awt_windows_WEmbeddedFramePeer_getBoundsPrivate@8 100b2f6b f   awt_Frame.obj
 0001:000b1f86       __ehhandler$_Java_sun_awt_windows_WEmbeddedFramePeer_synthesizeWmActivate@12 100b2f86 f   awt_Frame.obj
 0001:000b1fa1       __ehhandler$_Java_sun_awt_windows_WEmbeddedFrame_notifyModalBlockedImpl@20 100b2fa1 f   awt_Frame.obj
 0001:000b1fbc       __ehhandler$_Java_sun_awt_windows_WInputMethod_createNativeContext@8 100b2fbc f   awt_InputMethod.obj
 0001:000b1fd7       __ehhandler$_Java_sun_awt_windows_WInputMethod_destroyNativeContext@12 100b2fd7 f   awt_InputMethod.obj
 0001:000b1ff2       __ehhandler$_Java_sun_awt_windows_WInputMethod_enableNativeIME@20 100b2ff2 f   awt_InputMethod.obj
 0001:000b200d       __ehhandler$_Java_sun_awt_windows_WInputMethod_disableNativeIME@12 100b300d f   awt_InputMethod.obj
 0001:000b2028       __ehhandler$_Java_sun_awt_windows_WInputMethod_handleNativeIMEEvent@16 100b3028 f   awt_InputMethod.obj
 0001:000b2043       __ehhandler$_Java_sun_awt_windows_WInputMethod_endCompositionNative@16 100b3043 f   awt_InputMethod.obj
 0001:000b205e       __ehhandler$_Java_sun_awt_windows_WInputMethod_setConversionStatus@16 100b305e f   awt_InputMethod.obj
 0001:000b2079       __ehhandler$_Java_sun_awt_windows_WInputMethod_getConversionStatus@12 100b3079 f   awt_InputMethod.obj
 0001:000b2094       __ehhandler$_Java_sun_awt_windows_WInputMethod_setOpenStatus@16 100b3094 f   awt_InputMethod.obj
 0001:000b20af       __ehhandler$_Java_sun_awt_windows_WInputMethod_getOpenStatus@12 100b30af f   awt_InputMethod.obj
 0001:000b20ca       __ehhandler$_Java_sun_awt_windows_WInputMethod_openCandidateWindow@20 100b30ca f   awt_InputMethod.obj
 0001:000b20e5       __ehhandler$_Java_sun_awt_windows_WInputMethod_getNativeIMMDescription@8 100b30e5 f   awt_InputMethod.obj
 0001:000b2100       __ehhandler$_CreateLocaleObject 100b3100 f   awt_InputMethod.obj
 0001:000b211b       __ehhandler$_Java_sun_awt_windows_WInputMethod_getNativeLocale@8 100b311b f   awt_InputMethod.obj
 0001:000b2136       __ehhandler$_Java_sun_awt_windows_WInputMethod_setNativeLocale@16 100b3136 f   awt_InputMethod.obj
 0001:000b2151       __ehhandler$_Java_sun_awt_windows_WInputMethodDescriptor_getNativeAvailableLocales@8 100b3151 f   awt_InputMethod.obj
 0001:000b216c       __ehhandler$?GetClauseInfor@AwtInputTextInfor@@QAEHAAPAHAAPAPAV_jstring@@@Z 100b316c f   awt_InputTextInfor.obj
 0001:000b2187       __ehhandler$?GetAttributeInfor@AwtInputTextInfor@@QAEHAAPAHAAPAE@Z 100b3187 f   awt_InputTextInfor.obj
 0001:000b21a2       __ehhandler$_Java_java_awt_Insets_initIDs@8 100b31a2 f   awt_Insets.obj
 0001:000b21bd       __ehhandler$_Java_java_awt_event_KeyEvent_initIDs@8 100b31bd f   awt_KeyEvent.obj
 0001:000b21d8       __ehhandler$_Java_sun_awt_windows_WKeyboardFocusManagerPeer_setNativeFocusOwner@12 100b31d8 f   awt_KeyboardFocusManager.obj
 0001:000b21f3       __ehhandler$_Java_sun_awt_windows_WKeyboardFocusManagerPeer_getNativeFocusOwner@8 100b31f3 f   awt_KeyboardFocusManager.obj
 0001:000b220e       __ehhandler$_Java_sun_awt_windows_WKeyboardFocusManagerPeer_getNativeFocusedWindow@8 100b320e f   awt_KeyboardFocusManager.obj
 0001:000b2229       __unwindfunclet$?Create@AwtLabel@@SAPAV1@PAV_jobject@@0@Z$6 100b3229 f   awt_Label.obj
 0001:000b2233       __ehhandler$?Create@AwtLabel@@SAPAV1@PAV_jobject@@0@Z 100b3233 f   awt_Label.obj
 0001:000b224e       __ehhandler$_Java_java_awt_Label_initIDs@8 100b324e f   awt_Label.obj
 0001:000b2269       __ehhandler$_Java_sun_awt_windows_WLabelPeer_setText@12 100b3269 f   awt_Label.obj
 0001:000b2284       __ehhandler$_Java_sun_awt_windows_WLabelPeer_setAlignment@12 100b3284 f   awt_Label.obj
 0001:000b229f       __ehhandler$_Java_sun_awt_windows_WLabelPeer_create@12 100b329f f   awt_Label.obj
 0001:000b22ba       __ehhandler$_Java_sun_awt_windows_WLabelPeer_lazyPaint@8 100b32ba f   awt_Label.obj
 0001:000b22d5       __unwindfunclet$?Create@AwtList@@SAPAV1@PAV_jobject@@0@Z$6 100b32d5 f   awt_List.obj
 0001:000b22df       __ehhandler$?Create@AwtList@@SAPAV1@PAV_jobject@@0@Z 100b32df f   awt_List.obj
 0001:000b22fa       __ehhandler$_Java_sun_awt_windows_WListPeer_getMaxWidth@8 100b32fa f   awt_List.obj
 0001:000b2315       __ehhandler$_Java_sun_awt_windows_WListPeer_setMultipleSelections@12 100b3315 f   awt_List.obj
 0001:000b2330       __ehhandler$_Java_sun_awt_windows_WListPeer_create@12 100b3330 f   awt_List.obj
 0001:000b234b       __ehhandler$_Java_sun_awt_windows_WListPeer_makeVisible@12 100b334b f   awt_List.obj
 0001:000b2366       __ehhandler$?SetMultiSelect@AwtList@@QAEXH@Z 100b3366 f   awt_List.obj
 0001:000b238b       __ehhandler$_Java_sun_awt_windows_WListPeer_updateMaxItemWidth@8 100b338b f   awt_List.obj
 0001:000b23a6       __ehhandler$_Java_sun_awt_windows_WListPeer_addItems@20 100b33a6 f   awt_List.obj
 0001:000b23c1       __ehhandler$_Java_sun_awt_windows_WListPeer_delItems@16 100b33c1 f   awt_List.obj
 0001:000b23dc       __ehhandler$_Java_sun_awt_windows_WListPeer_select@12 100b33dc f   awt_List.obj
 0001:000b23f7       __ehhandler$_Java_sun_awt_windows_WListPeer_deselect@12 100b33f7 f   awt_List.obj
 0001:000b2412       __ehhandler$_Java_sun_awt_windows_WListPeer_isSelected@12 100b3412 f   awt_List.obj
 0001:000b242d       __unwindfunclet$?Create@AwtMenu@@SAPAV1@PAV_jobject@@PAV1@@Z$3 100b342d f   awt_Menu.obj
 0001:000b2437       __ehhandler$?Create@AwtMenu@@SAPAV1@PAV_jobject@@PAV1@@Z 100b3437 f   awt_Menu.obj
 0001:000b2452       __ehhandler$_Java_java_awt_Menu_initIDs@8 100b3452 f   awt_Menu.obj
 0001:000b246d       __ehhandler$_Java_sun_awt_windows_WMenuPeer_addSeparator@8 100b346d f   awt_Menu.obj
 0001:000b2488       __ehhandler$_Java_sun_awt_windows_WMenuPeer_delItem@12 100b3488 f   awt_Menu.obj
 0001:000b24a3       __ehhandler$_Java_sun_awt_windows_WMenuPeer_createSubMenu@12 100b34a3 f   awt_Menu.obj
 0001:000b24a3       __ehhandler$_Java_sun_awt_windows_WMenuPeer_createMenu@12 100b34a3 f   awt_Menu.obj
 0001:000b24be       __unwindfunclet$?Create@AwtMenuBar@@SAPAV1@PAV_jobject@@0@Z$5 100b34be f   awt_MenuBar.obj
 0001:000b24c8       __ehhandler$?Create@AwtMenuBar@@SAPAV1@PAV_jobject@@0@Z 100b34c8 f   awt_MenuBar.obj
 0001:000b24e3       __ehhandler$_Java_java_awt_MenuBar_initIDs@8 100b34e3 f   awt_MenuBar.obj
 0001:000b24fe       __ehhandler$_Java_sun_awt_windows_WMenuBarPeer_addMenu@12 100b34fe f   awt_MenuBar.obj
 0001:000b2519       __ehhandler$_Java_sun_awt_windows_WMenuBarPeer_delMenu@12 100b3519 f   awt_MenuBar.obj
 0001:000b2534       __ehhandler$_Java_sun_awt_windows_WMenuBarPeer_create@12 100b3534 f   awt_MenuBar.obj
 0001:000b254f       __unwindfunclet$?Create@AwtMenuItem@@SAPAV1@PAV_jobject@@0@Z$2 100b354f f   awt_MenuItem.obj
 0001:000b2559       __ehhandler$?Create@AwtMenuItem@@SAPAV1@PAV_jobject@@0@Z 100b3559 f   awt_MenuItem.obj
 0001:000b2574       __ehhandler$_Java_java_awt_MenuComponent_initIDs@8 100b3574 f   awt_MenuItem.obj
 0001:000b258f       __ehhandler$_Java_java_awt_MenuItem_initIDs@8 100b358f f   awt_MenuItem.obj
 0001:000b25aa       __ehhandler$_Java_java_awt_CheckboxMenuItem_initIDs@8 100b35aa f   awt_MenuItem.obj
 0001:000b25c5       __ehhandler$_Java_sun_awt_windows_WMenuItemPeer_initIDs@8 100b35c5 f   awt_MenuItem.obj
 0001:000b25e0       __ehhandler$_Java_sun_awt_windows_WMenuItemPeer__1setLabel@12 100b35e0 f   awt_MenuItem.obj
 0001:000b25fb       __ehhandler$_Java_sun_awt_windows_WMenuItemPeer_create@12 100b35fb f   awt_MenuItem.obj
 0001:000b2616       __ehhandler$_Java_sun_awt_windows_WMenuItemPeer_enable@12 100b3616 f   awt_MenuItem.obj
 0001:000b2631       __ehhandler$_Java_sun_awt_windows_WComponentPeer__1dispose@8 100b3631 f   awt_MenuItem.obj
 0001:000b2631       __ehhandler$_Java_sun_awt_windows_WMenuItemPeer__1dispose@8 100b3631 f   awt_MenuItem.obj
 0001:000b264c       __ehhandler$_Java_sun_awt_windows_WCheckboxMenuItemPeer_setState@12 100b364c f   awt_MenuItem.obj
 0001:000b2667       __ehhandler$_Java_java_awt_event_MouseEvent_initIDs@8 100b3667 f   awt_MouseEvent.obj
 0001:000b2682       __unwindfunclet$??0AwtObject@@QAE@XZ$0 100b3682 f   awt_Object.obj
 0001:000b268d       __ehhandler$??0AwtObject@@QAE@XZ 100b368d f   awt_Object.obj
 0001:000b26a8       __unwindfunclet$?_Dispose@AwtObject@@SAXPAV_jobject@@@Z$3 100b36a8 f   awt_Object.obj
 0001:000b26b0       __ehhandler$?_Dispose@AwtObject@@SAXPAV_jobject@@@Z 100b36b0 f   awt_Object.obj
 0001:000b26cb       __ehhandler$?_Dispose@AwtObject@@SAXPAV1@@Z 100b36cb f   awt_Object.obj
 0001:000b26e6       __ehhandler$_Java_sun_awt_windows_WObjectPeer_initIDs@8 100b36e6 f   awt_Object.obj
 0001:000b2701       __ehhandler$_Java_sun_awt_windows_WPanelPeer_initIDs@8 100b3701 f   awt_Panel.obj
 0001:000b271c       __unwindfunclet$?Create@AwtPopupMenu@@SAPAV1@PAV_jobject@@PAVAwtComponent@@@Z$3 100b371c f   awt_PopupMenu.obj
 0001:000b2726       __ehhandler$?Create@AwtPopupMenu@@SAPAV1@PAV_jobject@@PAVAwtComponent@@@Z 100b3726 f   awt_PopupMenu.obj
 0001:000b2741       __ehhandler$_Java_sun_awt_windows_WPopupMenuPeer_createMenu@12 100b3741 f   awt_PopupMenu.obj
 0001:000b275c       __ehhandler$_Java_sun_awt_windows_WPopupMenuPeer__1show@12 100b375c f   awt_PopupMenu.obj
 0001:000b2777       __unwindfunclet$?Get@AwtBrush@@SAPAV1@K@Z$0 100b3777 f   awt_Pen.obj
 0001:000b2777       __unwindfunclet$?Get@AwtPen@@SAPAV1@K@Z$0 100b3777 f   awt_Pen.obj
 0001:000b277f       __unwindfunclet$?Get@AwtPen@@SAPAV1@K@Z$1 100b377f f   awt_Pen.obj
 0001:000b277f       __unwindfunclet$?Get@AwtBrush@@SAPAV1@K@Z$1 100b377f f   awt_Pen.obj
 0001:000b2789       __ehhandler$?Get@AwtBrush@@SAPAV1@K@Z 100b3789 f   awt_Pen.obj
 0001:000b2789       __ehhandler$?Get@AwtPen@@SAPAV1@K@Z 100b3789 f   awt_Pen.obj
 0001:000b27a4       __unwindfunclet$??__E?cache@AwtPen@@0VGDIHashtable@@A@@YAXXZ$0 100b37a4 f   awt_Pen.obj
 0001:000b27ae       __ehhandler$??__E?cache@AwtPen@@0VGDIHashtable@@A@@YAXXZ 100b37ae f   awt_Pen.obj
 0001:000b27c9       __unwindfunclet$?FindPrinter@AwtPrintControl@@SAHPAV_jstring@@PAEPAKPAPAG3@Z$2 100b37c9 f   awt_PrintControl.obj
 0001:000b27d1       __ehhandler$?FindPrinter@AwtPrintControl@@SAHPAV_jstring@@PAEPAKPAPAG3@Z 100b37d1 f   awt_PrintControl.obj
 0001:000b27ec       __ehhandler$?initIDs@AwtPrintControl@@SAXPAUJNIEnv_@@PAV_jclass@@@Z 100b37ec f   awt_PrintControl.obj
 0001:000b2807       __ehhandler$?PrintDlgHook@@YGHPAUHWND__@@IIJ@Z 100b3807 f   awt_PrintControl.obj
 0001:000b2822       __ehhandler$?CreateDevModeAndDevNames@AwtPrintControl@@SAHPAUtagPDW@@PAG1@Z 100b3822 f   awt_PrintControl.obj
 0001:000b283d       __ehhandler$_Java_sun_awt_windows_WPrintDialog_initIDs@8 100b383d f   awt_PrintDialog.obj
 0001:000b2858       __ehhandler$_Java_sun_awt_windows_WPrintDialog_setPeer@12 100b3858 f   awt_PrintDialog.obj
 0001:000b2873       __ehhandler$_Java_sun_awt_windows_WPrintDialogPeer_initIDs@8 100b3873 f   awt_PrintDialog.obj
 0001:000b288e       __ehhandler$?PrintDialogHookProc@@YGIPAUHWND__@@IIJ@Z 100b388e f   awt_PrintDialog.obj
 0001:000b28a9       __ehhandler$_Java_sun_awt_windows_WPrintDialogPeer__1show@8 100b38a9 f   awt_PrintDialog.obj
 0001:000b28c4       __ehhandler$_Java_sun_awt_windows_WPageDialog_initIDs@8 100b38c4 f   awt_PrintJob.obj
 0001:000b28df       __ehhandler$_Java_sun_awt_windows_WPrinterJob_endDoc@8 100b38df f   awt_PrintJob.obj
 0001:000b28fa       __ehhandler$_Java_sun_awt_windows_WPrinterJob_abortDoc@8 100b38fa f   awt_PrintJob.obj
 0001:000b2915       __ehhandler$_Java_sun_awt_windows_WPrinterJob_deleteDC@32 100b3915 f   awt_PrintJob.obj
 0001:000b2930       __ehhandler$_Java_sun_awt_windows_WPrinterJob_deviceEndPage@20 100b3930 f   awt_PrintJob.obj
 0001:000b294b       __ehhandler$_Java_sun_awt_windows_WEmbeddedFrame_printBand@56 100b394b f   awt_PrintJob.obj
 0001:000b2970       __ehhandler$_Java_sun_awt_windows_WPrinterJob_beginPath@16 100b3970 f   awt_PrintJob.obj
 0001:000b298b       __ehhandler$_Java_sun_awt_windows_WPrinterJob_endPath@16 100b398b f   awt_PrintJob.obj
 0001:000b29a6       __ehhandler$_Java_sun_awt_windows_WPrinterJob_fillPath@16 100b39a6 f   awt_PrintJob.obj
 0001:000b29c1       __ehhandler$_Java_sun_awt_windows_WPrinterJob_closeFigure@16 100b39c1 f   awt_PrintJob.obj
 0001:000b29dc       __ehhandler$_Java_sun_awt_windows_WPrinterJob_lineTo@24 100b39dc f   awt_PrintJob.obj
 0001:000b29f7       __ehhandler$_Java_sun_awt_windows_WPrinterJob_moveTo@24 100b39f7 f   awt_PrintJob.obj
 0001:000b2a12       __ehhandler$_Java_sun_awt_windows_WPrinterJob_polyBezierTo@40 100b3a12 f   awt_PrintJob.obj
 0001:000b2a37       __ehhandler$_Java_sun_awt_windows_WPrinterJob_setPolyFillMode@20 100b3a37 f   awt_PrintJob.obj
 0001:000b2a52       __ehhandler$_Java_sun_awt_windows_WPrinterJob_selectSolidBrush@28 100b3a52 f   awt_PrintJob.obj
 0001:000b2a6d       __ehhandler$_Java_sun_awt_windows_WPrinterJob_getPenX@16 100b3a6d f   awt_PrintJob.obj
 0001:000b2a88       __ehhandler$_Java_sun_awt_windows_WPrinterJob_getPenY@16 100b3a88 f   awt_PrintJob.obj
 0001:000b2aa3       __ehhandler$_Java_sun_awt_windows_WPrinterJob_selectClipPath@16 100b3aa3 f   awt_PrintJob.obj
 0001:000b2abe       __ehhandler$_Java_sun_awt_windows_WPrinterJob_frameRect@32 100b3abe f   awt_PrintJob.obj
 0001:000b2ae3       __ehhandler$_Java_sun_awt_windows_WPrinterJob_fillRect@44 100b3ae3 f   awt_PrintJob.obj
 0001:000b2b08       __ehhandler$_Java_sun_awt_windows_WPrinterJob_selectPen@32 100b3b08 f   awt_PrintJob.obj
 0001:000b2b23       __ehhandler$_Java_sun_awt_windows_WPrinterJob_selectStylePen@48 100b3b23 f   awt_PrintJob.obj
 0001:000b2b48       __ehhandler$_Java_sun_awt_windows_WPrinterJob_drawDIBImage@60 100b3b48 f   awt_PrintJob.obj
 0001:000b2b70       __ehhandler$_Java_sun_awt_windows_WPrinterJob_getNativePrintService@8 100b3b70 f   awt_PrintJob.obj
 0001:000b2b8b       __ehhandler$_Java_sun_awt_windows_WPrinterJob_initIDs@8 100b3b8b f   awt_PrintJob.obj
 0001:000b2ba6       __ehhandler$_doPrintBand   100b3ba6 f   awt_PrintJob.obj
 0001:000b2bc1       __ehhandler$_pageDlgHook@16 100b3bc1 f   awt_PrintJob.obj
 0001:000b2bdc       __ehhandler$_Java_sun_awt_windows_WPrinterJob_setNativePrintService@12 100b3bdc f   awt_PrintJob.obj
 0001:000b2bf7       __ehhandler$_Java_sun_awt_windows_WPrinterJob_validatePaper@16 100b3bf7 f   awt_PrintJob.obj
 0001:000b2c12       __ehhandler$_Java_sun_awt_windows_WPrinterJob_initPrinter@8 100b3c12 f   awt_PrintJob.obj
 0001:000b2c2d       __ehhandler$_Java_sun_awt_windows_WPrinterJob__1startDoc@16 100b3c2d f   awt_PrintJob.obj
 0001:000b2c55       __ehhandler$_Java_sun_awt_windows_WPrinterJob_deviceStartPage@24 100b3c55 f   awt_PrintJob.obj
 0001:000b2c70       __ehhandler$_Java_sun_awt_windows_WPageDialogPeer__1show@8 100b3c70 f   awt_PrintJob.obj
 0001:000b2c95       __ehhandler$_Java_sun_awt_windows_WPrinterJob_getDefaultPage@12 100b3c95 f   awt_PrintJob.obj
 0001:000b2cb0       __ehhandler$_Java_java_awt_Rectangle_initIDs@8 100b3cb0 f   awt_Rectangle.obj
 0001:000b2ccb       __unwindfunclet$_Java_sun_awt_windows_WRobotPeer_create@8$3 100b3ccb f   awt_Robot.obj
 0001:000b2cd5       __ehhandler$_Java_sun_awt_windows_WRobotPeer_create@8 100b3cd5 f   awt_Robot.obj
 0001:000b2cf0       __ehhandler$_Java_sun_awt_windows_WRobotPeer__1dispose@8 100b3cf0 f   awt_Robot.obj
 0001:000b2d0b       __ehhandler$_Java_sun_awt_windows_WRobotPeer_mouseMoveImpl@16 100b3d0b f   awt_Robot.obj
 0001:000b2d26       __ehhandler$_Java_sun_awt_windows_WRobotPeer_mousePress@12 100b3d26 f   awt_Robot.obj
 0001:000b2d41       __ehhandler$_Java_sun_awt_windows_WRobotPeer_mouseRelease@12 100b3d41 f   awt_Robot.obj
 0001:000b2d5c       __ehhandler$_Java_sun_awt_windows_WRobotPeer_mouseWheel@12 100b3d5c f   awt_Robot.obj
 0001:000b2d77       __ehhandler$_Java_sun_awt_windows_WRobotPeer_getRGBPixelImpl@16 100b3d77 f   awt_Robot.obj
 0001:000b2d92       __ehhandler$_Java_sun_awt_windows_WRobotPeer_getRGBPixels@28 100b3d92 f   awt_Robot.obj
 0001:000b2dad       __ehhandler$_Java_sun_awt_windows_WRobotPeer_keyPress@12 100b3dad f   awt_Robot.obj
 0001:000b2dc8       __ehhandler$_Java_sun_awt_windows_WRobotPeer_keyRelease@12 100b3dc8 f   awt_Robot.obj
 0001:000b2de3       __ehhandler$_Java_java_awt_Scrollbar_initIDs@8 100b3de3 f   awt_Scrollbar.obj
 0001:000b2dfe       __ehhandler$_Java_sun_awt_windows_WScrollbarPeer_setValues@24 100b3dfe f   awt_Scrollbar.obj
 0001:000b2e19       __ehhandler$_Java_sun_awt_windows_WScrollbarPeer_setLineIncrement@12 100b3e19 f   awt_Scrollbar.obj
 0001:000b2e34       __ehhandler$_Java_sun_awt_windows_WScrollbarPeer_setPageIncrement@12 100b3e34 f   awt_Scrollbar.obj
 0001:000b2e4f       __unwindfunclet$?Create@AwtScrollbar@@SAPAV1@PAV_jobject@@0@Z$6 100b3e4f f   awt_Scrollbar.obj
 0001:000b2e59       __ehhandler$?Create@AwtScrollbar@@SAPAV1@PAV_jobject@@0@Z 100b3e59 f   awt_Scrollbar.obj
 0001:000b2e74       __ehhandler$_Java_sun_awt_windows_WScrollbarPeer_create@12 100b3e74 f   awt_Scrollbar.obj
 0001:000b2e8f       __unwindfunclet$?Create@AwtScrollPane@@SAPAV1@PAV_jobject@@0@Z$6 100b3e8f f   awt_ScrollPane.obj
 0001:000b2e99       __ehhandler$?Create@AwtScrollPane@@SAPAV1@PAV_jobject@@0@Z 100b3e99 f   awt_ScrollPane.obj
 0001:000b2eb4       __ehhandler$_Java_java_awt_ScrollPane_initIDs@8 100b3eb4 f   awt_ScrollPane.obj
 0001:000b2ecf       __ehhandler$_Java_java_awt_ScrollPaneAdjustable_initIDs@8 100b3ecf f   awt_ScrollPane.obj
 0001:000b2eea       __ehhandler$_Java_sun_awt_windows_WScrollPanePeer_initIDs@8 100b3eea f   awt_ScrollPane.obj
 0001:000b2f05       __ehhandler$_Java_sun_awt_windows_WScrollPanePeer_create@12 100b3f05 f   awt_ScrollPane.obj
 0001:000b2f20       __ehhandler$_Java_sun_awt_windows_WScrollPanePeer_getOffset@12 100b3f20 f   awt_ScrollPane.obj
 0001:000b2f3b       __ehhandler$_Java_sun_awt_windows_WScrollPanePeer_setInsets@8 100b3f3b f   awt_ScrollPane.obj
 0001:000b2f56       __ehhandler$_Java_sun_awt_windows_WScrollPanePeer_setScrollPosition@16 100b3f56 f   awt_ScrollPane.obj
 0001:000b2f71       __ehhandler$_Java_sun_awt_windows_WScrollPanePeer__1getHScrollbarHeight@8 100b3f71 f   awt_ScrollPane.obj
 0001:000b2f8c       __ehhandler$_Java_sun_awt_windows_WScrollPanePeer__1getVScrollbarWidth@8 100b3f8c f   awt_ScrollPane.obj
 0001:000b2fa7       __ehhandler$_Java_sun_awt_windows_WScrollPanePeer_setSpans@24 100b3fa7 f   awt_ScrollPane.obj
 0001:000b2fc2       __ehhandler$_Java_java_awt_TextArea_initIDs@8 100b3fc2 f   awt_TextArea.obj
 0001:000b2fdd       __ehhandler$_Java_sun_awt_windows_WTextAreaPeer_replaceText@20 100b3fdd f   awt_TextArea.obj
 0001:000b2ff8       __ehhandler$?QueryInterface@OleCallback@AwtTextArea@@UAGJABU_GUID@@PAPAX@Z 100b3ff8 f   awt_TextArea.obj
 0001:000b3013       __unwindfunclet$?Create@AwtTextArea@@SAPAV1@PAV_jobject@@0@Z$6 100b4013 f   awt_TextArea.obj
 0001:000b301d       __ehhandler$?Create@AwtTextArea@@SAPAV1@PAV_jobject@@0@Z 100b401d f   awt_TextArea.obj
 0001:000b3038       __ehhandler$_Java_sun_awt_windows_WTextAreaPeer_create@12 100b4038 f   awt_TextArea.obj
 0001:000b3053       __ehhandler$_Java_sun_awt_windows_WTextComponentPeer_getText@8 100b4053 f   awt_TextComponent.obj
 0001:000b306e       __ehhandler$_Java_sun_awt_windows_WTextComponentPeer_setText@12 100b406e f   awt_TextComponent.obj
 0001:000b3089       __ehhandler$_Java_sun_awt_windows_WTextComponentPeer_getSelectionStart@8 100b4089 f   awt_TextComponent.obj
 0001:000b30a4       __ehhandler$_Java_sun_awt_windows_WTextComponentPeer_getSelectionEnd@8 100b40a4 f   awt_TextComponent.obj
 0001:000b30bf       __ehhandler$_Java_sun_awt_windows_WTextComponentPeer_select@16 100b40bf f   awt_TextComponent.obj
 0001:000b30da       __ehhandler$_Java_sun_awt_windows_WTextComponentPeer_enableEditing@12 100b40da f   awt_TextComponent.obj
 0001:000b30f5       __ehhandler$_Java_sun_awt_windows_WTextComponentPeer_initIDs@8 100b40f5 f   awt_TextComponent.obj
 0001:000b3110       __ehhandler$_Java_sun_awt_windows_WTextFieldPeer_setEchoCharacter@12 100b4110 f   awt_TextField.obj
 0001:000b312b       __unwindfunclet$?Create@AwtTextField@@SAPAV1@PAV_jobject@@0@Z$6 100b412b f   awt_TextField.obj
 0001:000b3135       __ehhandler$?Create@AwtTextField@@SAPAV1@PAV_jobject@@0@Z 100b4135 f   awt_TextField.obj
 0001:000b3150       __ehhandler$_Java_sun_awt_windows_WTextFieldPeer_create@12 100b4150 f   awt_TextField.obj
 0001:000b3170       __unwindfunclet$?SyncCall@AwtToolkit@@QAEPAXP6APAXXZ@Z$0 100b4170 f   awt_Toolkit.obj
 0001:000b3170       __unwindfunclet$?SyncCall@AwtToolkit@@QAEPAXP6APAXPAX@Z0@Z$0 100b4170 f   awt_Toolkit.obj
 0001:000b3178       __ehhandler$?SyncCall@AwtToolkit@@QAEPAXP6APAXXZ@Z 100b4178 f   awt_Toolkit.obj
 0001:000b3178       __ehhandler$?SyncCall@AwtToolkit@@QAEPAXP6APAXPAX@Z0@Z 100b4178 f   awt_Toolkit.obj
 0001:000b31a0       __ehhandler$?hang_if_shutdown@@YAXXZ 100b41a0 f   awt_Toolkit.obj
 0001:000b31c0       __ehhandler$?GetWindowRect@AwtToolkit@@SAXPAUHWND__@@PAUtagRECT@@@Z 100b41c0 f   awt_Toolkit.obj
 0001:000b31e0       __ehhandler$_Java_java_awt_Toolkit_initIDs@8 100b41e0 f   awt_Toolkit.obj
 0001:000b3200       __ehhandler$_Java_sun_awt_windows_WToolkit_initIDs@8 100b4200 f   awt_Toolkit.obj
 0001:000b3220       __ehhandler$_Java_sun_awt_windows_WToolkit_makeColorModel@8 100b4220 f   awt_Toolkit.obj
 0001:000b3240       __ehhandler$_Java_sun_awt_windows_WToolkit_getMaximumCursorColors@8 100b4240 f   awt_Toolkit.obj
 0001:000b3260       __ehhandler$_Java_sun_awt_windows_WToolkit_getScreenWidth@8 100b4260 f   awt_Toolkit.obj
 0001:000b3280       __ehhandler$_Java_sun_awt_windows_WToolkit_getScreenHeight@8 100b4280 f   awt_Toolkit.obj
 0001:000b32a0       __ehhandler$_Java_sun_awt_windows_WToolkit_getScreenInsets@12 100b42a0 f   awt_Toolkit.obj
 0001:000b32c0       __ehhandler$_Java_sun_awt_windows_WToolkit_nativeSync@8 100b42c0 f   awt_Toolkit.obj
 0001:000b32e0       __ehhandler$_Java_sun_awt_windows_WToolkit_beep@8 100b42e0 f   awt_Toolkit.obj
 0001:000b3300       __ehhandler$_Java_sun_awt_windows_WToolkit_getLockingKeyStateNative@12 100b4300 f   awt_Toolkit.obj
 0001:000b3330       __ehhandler$_Java_sun_awt_windows_WToolkit_setLockingKeyStateNative@16 100b4330 f   awt_Toolkit.obj
 0001:000b3360       __ehhandler$_DSGetComponent@8 100b4360 f   awt_Toolkit.obj
 0001:000b3380       __ehhandler$_Java_sun_awt_windows_WToolkit_setDynamicLayoutNative@12 100b4380 f   awt_Toolkit.obj
 0001:000b33a0       __ehhandler$_Java_sun_awt_windows_WToolkit_isDynamicLayoutSupportedNative@8 100b43a0 f   awt_Toolkit.obj
 0001:000b33c0       __ehhandler$_Java_sun_awt_windows_WToolkit_getWindowsVersion@8 100b43c0 f   awt_Toolkit.obj
 0001:000b33f0       __ehhandler$_JNI_OnLoad@8  100b43f0 f   awt_Toolkit.obj
 0001:000b3410       __ehhandler$_DllMain@12    100b4410 f   awt_Toolkit.obj
 0001:000b3430       __unwindfunclet$??0AwtToolkit@@QAE@XZ$0 100b4430 f   awt_Toolkit.obj
 0001:000b343e       __unwindfunclet$??0AwtToolkit@@QAE@XZ$1 100b443e f   awt_Toolkit.obj
 0001:000b344c       __unwindfunclet$??0AwtToolkit@@QAE@XZ$2 100b444c f   awt_Toolkit.obj
 0001:000b345a       __unwindfunclet$??0AwtToolkit@@QAE@XZ$3 100b445a f   awt_Toolkit.obj
 0001:000b3465       __ehhandler$??0AwtToolkit@@QAE@XZ 100b4465 f   awt_Toolkit.obj
 0001:000b3480       __ehhandler$?MouseLowLevelHook@AwtToolkit@@SGJHIJ@Z 100b4480 f   awt_Toolkit.obj
 0001:000b34a0       __ehhandler$?CancelAllThreadWindows@@YGHPAUHWND__@@J@Z 100b44a0 f   awt_Toolkit.obj
 0001:000b34c0       __unwindfunclet$?InitWrapper@PreloadAction@AwtToolkit@@CAXPAX@Z$0 100b44c0 f   awt_Toolkit.obj
 0001:000b34c8       __ehhandler$?InitWrapper@PreloadAction@AwtToolkit@@CAXPAX@Z 100b44c8 f   awt_Toolkit.obj
 0001:000b34f0       __unwindfunclet$?ThreadProc@PreloadThread@AwtToolkit@@AAEIXZ$0 100b44f0 f   awt_Toolkit.obj
 0001:000b34f8       __unwindfunclet$?ThreadProc@PreloadThread@AwtToolkit@@AAEIXZ$4 100b44f8 f   awt_Toolkit.obj
 0001:000b3500       __unwindfunclet$?ThreadProc@PreloadThread@AwtToolkit@@AAEIXZ$7 100b4500 f   awt_Toolkit.obj
 0001:000b3508       __ehhandler$?ThreadProc@PreloadThread@AwtToolkit@@AAEIXZ 100b4508 f   awt_Toolkit.obj
 0001:000b3530       __ehhandler$_Java_sun_awt_windows_WToolkit_shutdown@8 100b4530 f   awt_Toolkit.obj
 0001:000b3550       __ehhandler$_Java_sun_awt_windows_WToolkit_startSecondaryEventLoop@8 100b4550 f   awt_Toolkit.obj
 0001:000b3570       __ehhandler$_Java_sun_awt_windows_WToolkit_quitSecondaryEventLoop@8 100b4570 f   awt_Toolkit.obj
 0001:000b3590       __ehhandler$_Java_sun_awt_windows_WToolkit_loadSystemColors@12 100b4590 f   awt_Toolkit.obj
 0001:000b35b0       __ehhandler$_Java_sun_awt_windows_WToolkit_setExtraMouseButtonsEnabledNative@12 100b45b0 f   awt_Toolkit.obj
 0001:000b35d0       __unwindfunclet$?WndProc@AwtToolkit@@SGJPAUHWND__@@IIJ@Z$3 100b45d0 f   awt_Toolkit.obj
 0001:000b35d8       __ehhandler$?WndProc@AwtToolkit@@SGJPAUHWND__@@IIJ@Z 100b45d8 f   awt_Toolkit.obj
 0001:000b3600       __ehhandler$?GetMessageFilter@AwtToolkit@@SGJHIJ@Z 100b4600 f   awt_Toolkit.obj
 0001:000b3620       __ehhandler$_Java_sun_awt_windows_WToolkit_embeddedDispose@8 100b4620 f   awt_Toolkit.obj
 0001:000b3640       __ehhandler$_Java_sun_awt_windows_WToolkit_eventLoop@8 100b4640 f   awt_Toolkit.obj
 0001:000b3660       __unwindfunclet$?Initialize@AwtToolkit@@QAEHH@Z$0 100b4660 f   awt_Toolkit.obj
 0001:000b366e       __ehhandler$?Initialize@AwtToolkit@@QAEHH@Z 100b466e f   awt_Toolkit.obj
 0001:000b3690       __ehhandler$_Java_sun_awt_windows_WToolkit_embeddedInit@8 100b4690 f   awt_Toolkit.obj
 0001:000b36b0       __ehhandler$_Java_sun_awt_windows_WToolkit_init@8 100b46b0 f   awt_Toolkit.obj
 0001:000b36cb       __ehhandler$?InvalidateChildRect@@YGHPAUHWND__@@J@Z 100b46cb f   awt_Window.obj
 0001:000b36e6       __ehhandler$?CreateIconFromRaster@@YAPAUHICON__@@PAUJNIEnv_@@PAV_jintArray@@JJ@Z 100b46e6 f   awt_Window.obj
 0001:000b3701       __ehhandler$?CreateBitmapFromRaster@@YAPAUHBITMAP__@@PAUJNIEnv_@@PAV_jintArray@@JJ@Z 100b4701 f   awt_Window.obj
 0001:000b371c       __ehhandler$_Java_java_awt_Window_initIDs@8 100b471c f   awt_Window.obj
 0001:000b3737       __ehhandler$_Java_sun_awt_windows_WWindowPeer_initIDs@8 100b4737 f   awt_Window.obj
 0001:000b3752       __ehhandler$_Java_sun_awt_windows_WWindowPeer__1toFront@8 100b4752 f   awt_Window.obj
 0001:000b376d       __ehhandler$_Java_sun_awt_windows_WWindowPeer_toBack@8 100b476d f   awt_Window.obj
 0001:000b3788       __ehhandler$_Java_sun_awt_windows_WWindowPeer_setAlwaysOnTopNative@12 100b4788 f   awt_Window.obj
 0001:000b37a3       __ehhandler$_Java_sun_awt_windows_WWindowPeer__1setTitle@12 100b47a3 f   awt_Window.obj
 0001:000b37be       __ehhandler$_Java_sun_awt_windows_WWindowPeer__1setResizable@12 100b47be f   awt_Window.obj
 0001:000b37d9       __ehhandler$_Java_sun_awt_windows_WWindowPeer_updateInsets@12 100b47d9 f   awt_Window.obj
 0001:000b37f4       __ehhandler$_Java_sun_awt_windows_WWindowPeer_reshapeFrame@24 100b47f4 f   awt_Window.obj
 0001:000b380f       __ehhandler$_Java_sun_awt_windows_WWindowPeer_getSysMinWidth@8 100b480f f   awt_Window.obj
 0001:000b382a       __ehhandler$_Java_sun_awt_windows_WWindowPeer_getSysMinHeight@8 100b482a f   awt_Window.obj
 0001:000b3845       __ehhandler$_Java_sun_awt_windows_WWindowPeer_getSysIconHeight@8 100b4845 f   awt_Window.obj
 0001:000b3860       __ehhandler$_Java_sun_awt_windows_WWindowPeer_getSysIconWidth@8 100b4860 f   awt_Window.obj
 0001:000b387b       __ehhandler$_Java_sun_awt_windows_WWindowPeer_getSysSmIconHeight@8 100b487b f   awt_Window.obj
 0001:000b3896       __ehhandler$_Java_sun_awt_windows_WWindowPeer_getSysSmIconWidth@8 100b4896 f   awt_Window.obj
 0001:000b38b1       __ehhandler$_Java_sun_awt_windows_WWindowPeer_setIconImagesData@32 100b48b1 f   awt_Window.obj
 0001:000b38cc       __ehhandler$_Java_sun_awt_windows_WWindowPeer_setMinSize@16 100b48cc f   awt_Window.obj
 0001:000b38e7       __ehhandler$_Java_sun_awt_windows_WWindowPeer_getScreenImOn@8 100b48e7 f   awt_Window.obj
 0001:000b3902       __ehhandler$_Java_sun_awt_windows_WWindowPeer_modalDisable@20 100b4902 f   awt_Window.obj
 0001:000b391d       __ehhandler$_Java_sun_awt_windows_WWindowPeer_modalEnable@12 100b491d f   awt_Window.obj
 0001:000b3938       __ehhandler$_Java_sun_awt_windows_WWindowPeer_setFocusableWindow@12 100b4938 f   awt_Window.obj
 0001:000b3953       __ehhandler$_Java_sun_awt_windows_WWindowPeer_nativeGrab@8 100b4953 f   awt_Window.obj
 0001:000b396e       __ehhandler$_Java_sun_awt_windows_WWindowPeer_nativeUngrab@8 100b496e f   awt_Window.obj
 0001:000b3989       __ehhandler$_Java_sun_awt_windows_WWindowPeer_updateWindowImpl@20 100b4989 f   awt_Window.obj
 0001:000b39a4       __ehhandler$_AwtWindow_UpdateWindow 100b49a4 f   awt_Window.obj
 0001:000b39bf       __ehhandler$_Java_sun_awt_windows_WWindowPeer_requestWindowFocus@12 100b49bf f   awt_Window.obj
 0001:000b39da       __unwindfunclet$??1AwtWindow@@UAE@XZ$0 100b49da f   awt_Window.obj
 0001:000b39e2       __ehhandler$??1AwtWindow@@UAE@XZ 100b49e2 f   awt_Window.obj
 0001:000b39fd       __ehhandler$_Java_sun_awt_windows_WWindowPeer_setFullScreenExclusiveModeState@12 100b49fd f   awt_Window.obj
 0001:000b3a18       __ehhandler$_Java_sun_awt_windows_WWindowPeer_setOpacity@12 100b4a18 f   awt_Window.obj
 0001:000b3a33       __ehhandler$_Java_sun_awt_windows_WWindowPeer_setOpaqueImpl@12 100b4a33 f   awt_Window.obj
 0001:000b3a4e       __ehhandler$_Java_sun_awt_windows_WWindowPeer_repositionSecurityWarning@8 100b4a4e f   awt_Window.obj
 0001:000b3a69       __unwindfunclet$?Create@AwtWindow@@SAPAV1@PAV_jobject@@0@Z$5 100b4a69 f   awt_Window.obj
 0001:000b3a73       __ehhandler$?Create@AwtWindow@@SAPAV1@PAV_jobject@@0@Z 100b4a73 f   awt_Window.obj
 0001:000b3a8e       __ehhandler$_Java_sun_awt_windows_WWindowPeer_createAwtWindow@12 100b4a8e f   awt_Window.obj
 0001:000b3aa9       __ehhandler$?DWMIsCompositionEnabled@@YAHXZ 100b4aa9 f   awt_Win32GraphicsEnv.obj
 0001:000b3ac4       __ehhandler$_Java_sun_awt_Win32GraphicsEnvironment_getXResolution@8 100b4ac4 f   awt_Win32GraphicsEnv.obj
 0001:000b3adf       __ehhandler$_Java_sun_awt_Win32GraphicsEnvironment_getYResolution@8 100b4adf f   awt_Win32GraphicsEnv.obj
 0001:000b3afa       __unwindfunclet$?Initialize@AwtWin32GraphicsDevice@@QAEXXZ$2 100b4afa f   awt_Win32GraphicsDevice.obj
 0001:000b3b04       __ehhandler$?Initialize@AwtWin32GraphicsDevice@@QAEXXZ 100b4b04 f   awt_Win32GraphicsDevice.obj
 0001:000b3b1f       __unwindfunclet$?GetColorModel@AwtWin32GraphicsDevice@@QAEPAV_jobject@@PAUJNIEnv_@@E@Z$2 100b4b1f f   awt_Win32GraphicsDevice.obj
 0001:000b3b29       __ehhandler$?GetColorModel@AwtWin32GraphicsDevice@@QAEPAV_jobject@@PAUJNIEnv_@@E@Z 100b4b29 f   awt_Win32GraphicsDevice.obj
 0001:000b3b4e       __unwindfunclet$?UpdateDynamicColorModel@AwtWin32GraphicsDevice@@SAXH@Z$0 100b4b4e f   awt_Win32GraphicsDevice.obj
 0001:000b3b4e       __unwindfunclet$?GetDCFromScreen@AwtWin32GraphicsDevice@@SAPAUHDC__@@H@Z$0 100b4b4e f   awt_Win32GraphicsDevice.obj
 0001:000b3b4e       __unwindfunclet$?GetPalette@AwtWin32GraphicsDevice@@SAPAUHPALETTE__@@H@Z$0 100b4b4e f   awt_Win32GraphicsDevice.obj
 0001:000b3b4e       __unwindfunclet$?GetColorModel@AwtWin32GraphicsDevice@@SAPAV_jobject@@PAUJNIEnv_@@EH@Z$0 100b4b4e f   awt_Win32GraphicsDevice.obj
 0001:000b3b4e       __unwindfunclet$?GetScreenFromHMONITOR@AwtWin32GraphicsDevice@@SAHPAUHMONITOR__@@@Z$0 100b4b4e f   awt_Win32GraphicsDevice.obj
 0001:000b3b4e       __unwindfunclet$?GetGrayness@AwtWin32GraphicsDevice@@SAHH@Z$0 100b4b4e f   awt_Win32GraphicsDevice.obj
 0001:000b3b4e       __unwindfunclet$?GetMonitorInfoW@AwtWin32GraphicsDevice@@SAPAUtagMONITORINFO@@H@Z$0 100b4b4e f   awt_Win32GraphicsDevice.obj
 0001:000b3b4e       __unwindfunclet$?RealizePalette@AwtWin32GraphicsDevice@@SAXPAUHDC__@@H@Z$0 100b4b4e f   awt_Win32GraphicsDevice.obj
 0001:000b3b4e       __unwindfunclet$?SelectPalette@AwtWin32GraphicsDevice@@SAPAUHPALETTE__@@PAUHDC__@@H@Z$0 100b4b4e f   awt_Win32GraphicsDevice.obj
 0001:000b3b4e       __unwindfunclet$?GetMonitor@AwtWin32GraphicsDevice@@SAPAUHMONITOR__@@H@Z$0 100b4b4e f   awt_Win32GraphicsDevice.obj
 0001:000b3b4e       __unwindfunclet$?UpdateSystemPalette@AwtWin32GraphicsDevice@@SAHH@Z$0 100b4b4e f   awt_Win32GraphicsDevice.obj
 0001:000b3b56       __ehhandler$?GetGrayness@AwtWin32GraphicsDevice@@SAHH@Z 100b4b56 f   awt_Win32GraphicsDevice.obj
 0001:000b3b56       __ehhandler$?GetDCFromScreen@AwtWin32GraphicsDevice@@SAPAUHDC__@@H@Z 100b4b56 f   awt_Win32GraphicsDevice.obj
 0001:000b3b56       __ehhandler$?GetColorModel@AwtWin32GraphicsDevice@@SAPAV_jobject@@PAUJNIEnv_@@EH@Z 100b4b56 f   awt_Win32GraphicsDevice.obj
 0001:000b3b56       __ehhandler$?GetMonitor@AwtWin32GraphicsDevice@@SAPAUHMONITOR__@@H@Z 100b4b56 f   awt_Win32GraphicsDevice.obj
 0001:000b3b56       __ehhandler$?GetPalette@AwtWin32GraphicsDevice@@SAPAUHPALETTE__@@H@Z 100b4b56 f   awt_Win32GraphicsDevice.obj
 0001:000b3b56       __ehhandler$?RealizePalette@AwtWin32GraphicsDevice@@SAXPAUHDC__@@H@Z 100b4b56 f   awt_Win32GraphicsDevice.obj
 0001:000b3b56       __ehhandler$?UpdateDynamicColorModel@AwtWin32GraphicsDevice@@SAXH@Z 100b4b56 f   awt_Win32GraphicsDevice.obj
 0001:000b3b56       __ehhandler$?UpdateSystemPalette@AwtWin32GraphicsDevice@@SAHH@Z 100b4b56 f   awt_Win32GraphicsDevice.obj
 0001:000b3b56       __ehhandler$?GetMonitorInfoW@AwtWin32GraphicsDevice@@SAPAUtagMONITORINFO@@H@Z 100b4b56 f   awt_Win32GraphicsDevice.obj
 0001:000b3b56       __ehhandler$?SelectPalette@AwtWin32GraphicsDevice@@SAPAUHPALETTE__@@PAUHDC__@@H@Z 100b4b56 f   awt_Win32GraphicsDevice.obj
 0001:000b3b56       __ehhandler$?GetScreenFromHMONITOR@AwtWin32GraphicsDevice@@SAHPAUHMONITOR__@@@Z 100b4b56 f   awt_Win32GraphicsDevice.obj
 0001:000b3b71       __unwindfunclet$?GetAttachedDisplayDevice@@YAHHPAU_DISPLAY_DEVICEW@@@Z$0 100b4b71 f   awt_Win32GraphicsDevice.obj
 0001:000b3b71       __unwindfunclet$?ResetAllMonitorInfo@AwtWin32GraphicsDevice@@SAXXZ$0 100b4b71 f   awt_Win32GraphicsDevice.obj
 0001:000b3b79       __ehhandler$?ResetAllMonitorInfo@AwtWin32GraphicsDevice@@SAXXZ 100b4b79 f   awt_Win32GraphicsDevice.obj
 0001:000b3b79       __ehhandler$?GetAttachedDisplayDevice@@YAHHPAU_DISPLAY_DEVICEW@@@Z 100b4b79 f   awt_Win32GraphicsDevice.obj
 0001:000b3b94       __ehhandler$_Java_sun_awt_Win32GraphicsDevice_initIDs@8 100b4b94 f   awt_Win32GraphicsDevice.obj
 0001:000b3baf       __ehhandler$_Java_sun_awt_Win32GraphicsDevice_getMaxConfigsImpl@12 100b4baf f   awt_Win32GraphicsDevice.obj
 0001:000b3bd4       __ehhandler$_Java_sun_awt_Win32GraphicsDevice_isPixFmtSupported@16 100b4bd4 f   awt_Win32GraphicsDevice.obj
 0001:000b3bf9       __ehhandler$_Java_sun_awt_Win32GraphicsDevice_getDefaultPixIDImpl@12 100b4bf9 f   awt_Win32GraphicsDevice.obj
 0001:000b3c1e       __ehhandler$_Java_sun_awt_Win32GraphicsDevice_enterFullScreenExclusive@16 100b4c1e f   awt_Win32GraphicsDevice.obj
 0001:000b3c39       __ehhandler$_Java_sun_awt_Win32GraphicsDevice_exitFullScreenExclusive@16 100b4c39 f   awt_Win32GraphicsDevice.obj
 0001:000b3c54       __ehhandler$?CreateDisplayMode@@YAPAV_jobject@@PAUJNIEnv_@@JJJJ@Z 100b4c54 f   awt_Win32GraphicsDevice.obj
 0001:000b3c6f       __ehhandler$_Java_sun_awt_Win32GraphicsDevice_getCurrentDisplayMode@12 100b4c6f f   awt_Win32GraphicsDevice.obj
 0001:000b3c97       __ehhandler$_Java_sun_awt_Win32GraphicsDevice_configDisplayMode@32 100b4c97 f   awt_Win32GraphicsDevice.obj
 0001:000b3cbf       __ehhandler$?addDisplayMode@@YAXPAUJNIEnv_@@PAV_jobject@@JJJJ@Z 100b4cbf f   awt_Win32GraphicsDevice.obj
 0001:000b3cda       __ehhandler$_Java_sun_awt_Win32GraphicsDevice_enumDisplayModes@16 100b4cda f   awt_Win32GraphicsDevice.obj
 0001:000b3d02       __ehhandler$_Java_sun_awt_Win32GraphicsConfig_initIDs@8 100b4d02 f   awt_Win32GraphicsConfig.obj
 0001:000b3d1d       __ehhandler$_Java_sun_awt_windows_WDropTargetContextPeer_getData@24 100b4d1d f   awt_DnDDT.obj
 0001:000b3d38       __ehhandler$_Java_sun_awt_windows_WDropTargetContextPeer_dropDone@24 100b4d38 f   awt_DnDDT.obj
 0001:000b3d53       __ehhandler$_Java_sun_awt_windows_WDropTargetContextPeerFileStream_freeStgMedium@16 100b4d53 f   awt_DnDDT.obj
 0001:000b3d6e       __unwindfunclet$?DragEnter@AwtDropTarget@@UAGJPAUIDataObject@@KU_POINTL@@PAK@Z$5 100b4d6e f   awt_DnDDT.obj
 0001:000b3d76       __ehhandler$?DragEnter@AwtDropTarget@@UAGJPAUIDataObject@@KU_POINTL@@PAK@Z 100b4d76 f   awt_DnDDT.obj
 0001:000b3d9b       __unwindfunclet$?DragOver@AwtDropTarget@@UAGJKU_POINTL@@PAK@Z$5 100b4d9b f   awt_DnDDT.obj
 0001:000b3da3       __ehhandler$?DragOver@AwtDropTarget@@UAGJKU_POINTL@@PAK@Z 100b4da3 f   awt_DnDDT.obj
 0001:000b3dc8       __unwindfunclet$?DragLeave@AwtDropTarget@@UAGJXZ$5 100b4dc8 f   awt_DnDDT.obj
 0001:000b3dd0       __ehhandler$?DragLeave@AwtDropTarget@@UAGJXZ 100b4dd0 f   awt_DnDDT.obj
 0001:000b3deb       __unwindfunclet$?Drop@AwtDropTarget@@UAGJPAUIDataObject@@KU_POINTL@@PAK@Z$5 100b4deb f   awt_DnDDT.obj
 0001:000b3df3       __ehhandler$?Drop@AwtDropTarget@@UAGJPAUIDataObject@@KU_POINTL@@PAK@Z 100b4df3 f   awt_DnDDT.obj
 0001:000b3e18       __ehhandler$?RegisterTarget@AwtDropTarget@@UAEXG@Z 100b4e18 f   awt_DnDDT.obj
 0001:000b3e33       __unwindfunclet$?ConvertNativeData@AwtDropTarget@@MAEPAV_jobject@@PAUJNIEnv_@@_JPAUtagSTGMEDIUM@@@Z$10 100b4e33 f   awt_DnDDT.obj
 0001:000b3e3d       __ehhandler$?ConvertNativeData@AwtDropTarget@@MAEPAV_jobject@@PAUJNIEnv_@@_JPAUtagSTGMEDIUM@@@Z 100b4e3d f   awt_DnDDT.obj
 0001:000b3e58       __ehhandler$?GetData@AwtDropTarget@@MAEPAV_jobject@@_J@Z 100b4e58 f   awt_DnDDT.obj
 0001:000b3e73       __ehhandler$_Java_sun_awt_windows_WDropTargetContextPeerIStream_Available@16 100b4e73 f   awt_DnDDT.obj
 0001:000b3e8e       __ehhandler$_Java_sun_awt_windows_WDropTargetContextPeerIStream_Read@16 100b4e8e f   awt_DnDDT.obj
 0001:000b3ea9       __ehhandler$_Java_sun_awt_windows_WDropTargetContextPeerIStream_ReadBytes@28 100b4ea9 f   awt_DnDDT.obj
 0001:000b3ec4       __ehhandler$_Java_sun_awt_windows_WDropTargetContextPeerIStream_Close@16 100b4ec4 f   awt_DnDDT.obj
 0001:000b3edf       __unwindfunclet$?SaveIndexToFile@AwtDropTarget@@MAEJPBGI@Z$4 100b4edf f   awt_DnDDT.obj
 0001:000b3ee7       __unwindfunclet$?SaveIndexToFile@AwtDropTarget@@MAEJPBGI@Z$5 100b4ee7 f   awt_DnDDT.obj
 0001:000b3eef       __ehhandler$?SaveIndexToFile@AwtDropTarget@@MAEJPBGI@Z 100b4eef f   awt_DnDDT.obj
 0001:000b3f14       __unwindfunclet$??Y_bstr_t@@QAEAAV0@ABV0@@Z$0 100b4f14 f   awt_DnDDT.obj
 0001:000b3f14       __unwindfunclet$??0_bstr_t@@QAE@PBD@Z$0 100b4f14 f   awt_DnDDT.obj
 0001:000b3f14       __unwindfunclet$??0_bstr_t@@QAE@PBG@Z$0 100b4f14 f   awt_DnDDT.obj
 0001:000b3f14       __unwindfunclet$??4_bstr_t@@QAEAAV0@PBG@Z$0 100b4f14 f   awt_DnDDT.obj
 0001:000b3f14       __unwindfunclet$?CreateDropTarget@AwtComponent@@UAEPAVAwtDropTarget@@PAUJNIEnv_@@@Z$0 100b4f14 f   awt_DnDDT.obj
 0001:000b3f14       __unwindfunclet$?Create@AwtTrayIcon@@SAPAV1@PAV_jobject@@0@Z$0 100b4f14 f   awt_DnDDT.obj
 0001:000b3f1e       __ehhandler$??0_bstr_t@@QAE@PBD@Z 100b4f1e f   awt_DnDDT.obj
 0001:000b3f1e       __ehhandler$??4_bstr_t@@QAEAAV0@PBG@Z 100b4f1e f   awt_DnDDT.obj
 0001:000b3f1e       __ehhandler$??0_bstr_t@@QAE@PBG@Z 100b4f1e f   awt_DnDDT.obj
 0001:000b3f1e       __ehhandler$??Y_bstr_t@@QAEAAV0@ABV0@@Z 100b4f1e f   awt_DnDDT.obj
 0001:000b3f1e       __ehhandler$?CreateDropTarget@AwtComponent@@UAEPAVAwtDropTarget@@PAUJNIEnv_@@@Z 100b4f1e f   awt_DnDDT.obj
 0001:000b3f1e       __ehhandler$?Create@AwtTrayIcon@@SAPAV1@PAV_jobject@@0@Z 100b4f1e f   awt_DnDDT.obj
 0001:000b3f39       __unwindfunclet$?GetTempPathWithSlash@@YAJPAUJNIEnv_@@AAV_bstr_t@@@Z$3 100b4f39 f   awt_DnDDT.obj
 0001:000b3f41       __unwindfunclet$?GetTempPathWithSlash@@YAJPAUJNIEnv_@@AAV_bstr_t@@@Z$4 100b4f41 f   awt_DnDDT.obj
 0001:000b3f49       __unwindfunclet$?GetTempPathWithSlash@@YAJPAUJNIEnv_@@AAV_bstr_t@@@Z$5 100b4f49 f   awt_DnDDT.obj
 0001:000b3f51       __unwindfunclet$?GetTempPathWithSlash@@YAJPAUJNIEnv_@@AAV_bstr_t@@@Z$6 100b4f51 f   awt_DnDDT.obj
 0001:000b3f59       __ehhandler$?GetTempPathWithSlash@@YAJPAUJNIEnv_@@AAV_bstr_t@@@Z 100b4f59 f   awt_DnDDT.obj
 0001:000b3f81       __unwindfunclet$?ConvertMemoryMappedData@AwtDropTarget@@MAEPAV_jobject@@PAUJNIEnv_@@_JPAUtagSTGMEDIUM@@@Z$5 100b4f81 f   awt_DnDDT.obj
 0001:000b3f89       __unwindfunclet$?ConvertMemoryMappedData@AwtDropTarget@@MAEPAV_jobject@@PAUJNIEnv_@@_JPAUtagSTGMEDIUM@@@Z$6 100b4f89 f   awt_DnDDT.obj
 0001:000b3f91       __unwindfunclet$?ConvertMemoryMappedData@AwtDropTarget@@MAEPAV_jobject@@PAUJNIEnv_@@_JPAUtagSTGMEDIUM@@@Z$7 100b4f91 f   awt_DnDDT.obj
 0001:000b3f99       __unwindfunclet$?ConvertMemoryMappedData@AwtDropTarget@@MAEPAV_jobject@@PAUJNIEnv_@@_JPAUtagSTGMEDIUM@@@Z$8 100b4f99 f   awt_DnDDT.obj
 0001:000b3fa1       __unwindfunclet$?ConvertMemoryMappedData@AwtDropTarget@@MAEPAV_jobject@@PAUJNIEnv_@@_JPAUtagSTGMEDIUM@@@Z$9 100b4fa1 f   awt_DnDDT.obj
 0001:000b3fa9       __ehhandler$?ConvertMemoryMappedData@AwtDropTarget@@MAEPAV_jobject@@PAUJNIEnv_@@_JPAUtagSTGMEDIUM@@@Z 100b4fa9 f   awt_DnDDT.obj
 0001:000b3fce       __ehhandler$?QueryInterface@AwtDragSource@@UAGJABU_GUID@@PAPAX@Z 100b4fce f   awt_DnDDS.obj
 0001:000b3fe9       __ehhandler$?QueryInterface@ADSIEnumFormatEtc@AwtDragSource@@UAGJABU_GUID@@PAPAX@Z 100b4fe9 f   awt_DnDDS.obj
 0001:000b4004       __ehhandler$?Next@ADSIEnumFormatEtc@AwtDragSource@@UAGJKPAUtagFORMATETC@@PAK@Z 100b5004 f   awt_DnDDS.obj
 0001:000b401f       __ehhandler$?Skip@ADSIEnumFormatEtc@AwtDragSource@@UAGJK@Z 100b501f f   awt_DnDDS.obj
 0001:000b403a       __ehhandler$?QueryInterface@ADSIStreamProxy@AwtDragSource@@UAGJABU_GUID@@PAPAX@Z 100b503a f   awt_DnDDS.obj
 0001:000b4055       __ehhandler$?Read@ADSIStreamProxy@AwtDragSource@@UAGJPAXKPAK@Z 100b5055 f   awt_DnDDS.obj
 0001:000b4070       __ehhandler$?Write@ADSIStreamProxy@AwtDragSource@@UAGJPBXKPAK@Z 100b5070 f   awt_DnDDS.obj
 0001:000b408b       __ehhandler$?Seek@ADSIStreamProxy@AwtDragSource@@UAGJT_LARGE_INTEGER@@KPAT_ULARGE_INTEGER@@@Z 100b508b f   awt_DnDDS.obj
 0001:000b40a6       __ehhandler$?CopyTo@ADSIStreamProxy@AwtDragSource@@UAGJPAUIStream@@T_ULARGE_INTEGER@@PAT4@2@Z 100b50a6 f   awt_DnDDS.obj
 0001:000b40c1       __ehhandler$?Stat@ADSIStreamProxy@AwtDragSource@@UAGJPAUtagSTATSTG@@K@Z 100b50c1 f   awt_DnDDS.obj
 0001:000b40dc       __ehhandler$_Java_sun_awt_windows_WDragSourceContextPeer_setNativeCursor@24 100b50dc f   awt_DnDDS.obj
 0001:000b40f7       __unwindfunclet$?Create@PictureDragHelper@@SAJPAUJNIEnv_@@PAV_jintArray@@HHHHPAUIDataObject@@@Z$2 100b50f7 f   awt_DnDDS.obj
 0001:000b40ff       __ehhandler$?Create@PictureDragHelper@@SAJPAUJNIEnv_@@PAV_jintArray@@HHHHPAUIDataObject@@@Z 100b50ff f   awt_DnDDS.obj
 0001:000b411a       __ehhandler$?LoadCache@AwtDragSource@@AAEXPAV_jlongArray@@@Z 100b511a f   awt_DnDDS.obj
 0001:000b4135       __ehhandler$?QueryContinueDrag@AwtDragSource@@UAGJHK@Z 100b5135 f   awt_DnDDS.obj
 0001:000b4150       __ehhandler$?GiveFeedback@AwtDragSource@@UAGJK@Z 100b5150 f   awt_DnDDS.obj
 0001:000b4175       __unwindfunclet$?Clone@ADSIEnumFormatEtc@AwtDragSource@@UAGJPAPAUIEnumFORMATETC@@@Z$3 100b5175 f   awt_DnDDS.obj
 0001:000b417f       __ehhandler$?Clone@ADSIEnumFormatEtc@AwtDragSource@@UAGJPAPAUIEnumFORMATETC@@@Z 100b517f f   awt_DnDDS.obj
 0001:000b419a       __unwindfunclet$?Clone@ADSIStreamProxy@AwtDragSource@@UAGJPAPAUIStream@@@Z$3 100b519a f   awt_DnDDS.obj
 0001:000b41a4       __ehhandler$?Clone@ADSIStreamProxy@AwtDragSource@@UAGJPAPAUIStream@@@Z 100b51a4 f   awt_DnDDS.obj
 0001:000b41bf       __unwindfunclet$?EnumFormatEtc@AwtDragSource@@UAGJKPAPAUIEnumFORMATETC@@@Z$3 100b51bf f   awt_DnDDS.obj
 0001:000b41c9       __ehhandler$?EnumFormatEtc@AwtDragSource@@UAGJKPAPAUIEnumFORMATETC@@@Z 100b51c9 f   awt_DnDDS.obj
 0001:000b41e4       __unwindfunclet$_Java_sun_awt_windows_WDragSourceContextPeer_createDragSource@32$3 100b51e4 f   awt_DnDDS.obj
 0001:000b41ee       __ehhandler$_Java_sun_awt_windows_WDragSourceContextPeer_createDragSource@32 100b51ee f   awt_DnDDS.obj
 0001:000b4209       __ehhandler$?MatchFormatEtc@AwtDragSource@@IAGJPAUtagFORMATETC@@0@Z 100b5209 f   awt_DnDDS.obj
 0001:000b4224       __unwindfunclet$?GetData@AwtDragSource@@UAGJPAUtagFORMATETC@@PAUtagSTGMEDIUM@@@Z$3 100b5224 f   awt_DnDDS.obj
 0001:000b422e       __ehhandler$?GetData@AwtDragSource@@UAGJPAUtagFORMATETC@@PAUtagSTGMEDIUM@@@Z 100b522e f   awt_DnDDS.obj
 0001:000b4249       __ehhandler$?GetDataHere@AwtDragSource@@UAGJPAUtagFORMATETC@@PAUtagSTGMEDIUM@@@Z 100b5249 f   awt_DnDDS.obj
 0001:000b4264       __ehhandler$?QueryGetData@AwtDragSource@@UAGJPAUtagFORMATETC@@@Z 100b5264 f   awt_DnDDS.obj
 0001:000b427f       __ehhandler$?GetCanonicalFormatEtc@AwtDragSource@@UAGJPAUtagFORMATETC@@0@Z 100b527f f   awt_DnDDS.obj
 0001:000b429a       __ehhandler$_Java_sun_awt_windows_WDragSourceContextPeer_doDragDrop@40 100b529a f   awt_DnDDS.obj
 0001:000b42b5       __unwindfunclet$??1?$_Tree@V?$_Tmap_traits@UtagFORMATETC@@UtagSTGMEDIUM@@U?$less@UtagFORMATETC@@@std@@V?$allocator@U?$pair@$$CBUtagFORMATETC@@UtagSTGMEDIUM@@@std@@@4@$0A@@std@@@std@@QAE@XZ$0 100b52b5 f   awt_DnDDS.obj
 0001:000b42bd       __ehhandler$??1?$_Tree@V?$_Tmap_traits@UtagFORMATETC@@UtagSTGMEDIUM@@U?$less@UtagFORMATETC@@@std@@V?$allocator@U?$pair@$$CBUtagFORMATETC@@UtagSTGMEDIUM@@@std@@@4@$0A@@std@@@std@@QAE@XZ 100b52bd f   awt_DnDDS.obj
 0001:000b42d8       __ehhandler$_Java_java_awt_TrayIcon_initIDs@8 100b52d8 f   awt_TrayIcon.obj
 0001:000b42f3       __ehhandler$_Java_sun_awt_windows_WTrayIconPeer__1dispose@8 100b52f3 f   awt_TrayIcon.obj
 0001:000b430e       __ehhandler$_Java_sun_awt_windows_WTrayIconPeer_setToolTip@12 100b530e f   awt_TrayIcon.obj
 0001:000b4329       __ehhandler$_Java_sun_awt_windows_WTrayIconPeer_setNativeIcon@28 100b5329 f   awt_TrayIcon.obj
 0001:000b4344       __ehhandler$_Java_sun_awt_windows_WTrayIconPeer_updateNativeIcon@12 100b5344 f   awt_TrayIcon.obj
 0001:000b435f       __ehhandler$_Java_sun_awt_windows_WTrayIconPeer__1displayMessage@20 100b535f f   awt_TrayIcon.obj
 0001:000b437a       __ehhandler$_Java_sun_awt_windows_WTrayIconPeer_create@8 100b537a f   awt_TrayIcon.obj
 0001:000b43a0       __unwindfunclet$??_GD3DInitializer@@EAEPAXI@Z$0 100b53a0 f   D3DPipelineManager.obj
 0001:000b43a8       __ehhandler$??_GD3DInitializer@@EAEPAXI@Z 100b53a8 f   D3DPipelineManager.obj
 0001:000b43d0       __unwindfunclet$?InitImpl@D3DInitializer@@MAEXXZ$0 100b53d0 f   D3DPipelineManager.obj
 0001:000b43db       __ehhandler$?InitImpl@D3DInitializer@@MAEXXZ 100b53db f   D3DPipelineManager.obj
 0001:000b4400       __unwindfunclet$??__F?theInstance@D3DInitializer@@0V1@A@@YAXXZ$0 100b5400 f   D3DPipelineManager.obj
 0001:000b440a       __ehhandler$??__F?theInstance@D3DInitializer@@0V1@A@@YAXXZ 100b540a f   D3DPipelineManager.obj
 0001:000b4430       __unwindfunclet$??0D3DResource@@QAE@PAUIDirect3DResource9@@@Z$0 100b5430 f   D3DResourceManager.obj
 0001:000b4430       __unwindfunclet$??_GD3DResource@@MAEPAXI@Z$0 100b5430 f   D3DResourceManager.obj
 0001:000b4438       __ehhandler$??0D3DResource@@QAE@PAUIDirect3DResource9@@@Z 100b5438 f   D3DResourceManager.obj
 0001:000b4438       __ehhandler$??_GD3DResource@@MAEPAXI@Z 100b5438 f   D3DResourceManager.obj
 0001:000b4460       __unwindfunclet$??0D3DResource@@QAE@PAUIDirect3DSwapChain9@@@Z$0 100b5460 f   D3DResourceManager.obj
 0001:000b4468       __ehhandler$??0D3DResource@@QAE@PAUIDirect3DSwapChain9@@@Z 100b5468 f   D3DResourceManager.obj
 0001:000b4490       __unwindfunclet$?CreateTexture@D3DResourceManager@@QAEJIIHHPAW4_D3DFORMAT@@KPAPAVD3DResource@@@Z$0 100b5490 f   D3DResourceManager.obj
 0001:000b449b       __unwindfunclet$?CreateTexture@D3DResourceManager@@QAEJIIHHPAW4_D3DFORMAT@@KPAPAVD3DResource@@@Z$1 100b549b f   D3DResourceManager.obj
 0001:000b44a3       __ehhandler$?CreateTexture@D3DResourceManager@@QAEJIIHHPAW4_D3DFORMAT@@KPAPAVD3DResource@@@Z 100b54a3 f   D3DResourceManager.obj
 0001:000b44c0       __unwindfunclet$?CreateRTSurface@D3DResourceManager@@QAEJIIHHPAW4_D3DFORMAT@@PAPAVD3DResource@@@Z$0 100b54c0 f   D3DResourceManager.obj
 0001:000b44cb       __ehhandler$?CreateRTSurface@D3DResourceManager@@QAEJIIHHPAW4_D3DFORMAT@@PAPAVD3DResource@@@Z 100b54cb f   D3DResourceManager.obj
 0001:000b44f0       __unwindfunclet$?CreateOSPSurface@D3DResourceManager@@AAEJIIW4_D3DFORMAT@@PAPAVD3DResource@@@Z$0 100b54f0 f   D3DResourceManager.obj
 0001:000b44fb       __ehhandler$?CreateOSPSurface@D3DResourceManager@@AAEJIIW4_D3DFORMAT@@PAPAVD3DResource@@@Z 100b54fb f   D3DResourceManager.obj
 0001:000b4520       __unwindfunclet$?CreateSwapChain@D3DResourceManager@@QAEJPAUHWND__@@IIIW4_D3DSWAPEFFECT@@IPAPAVD3DResource@@@Z$0 100b5520 f   D3DResourceManager.obj
 0001:000b452b       __ehhandler$?CreateSwapChain@D3DResourceManager@@QAEJPAUHWND__@@IIIW4_D3DSWAPEFFECT@@IPAPAVD3DResource@@@Z 100b552b f   D3DResourceManager.obj
 0001:000b4546       __ehhandler$?SharedWindowProc@ComCtl32Util@@CGJPAUHWND__@@IIJIK@Z 100b5546 f   ComCtl32Util.obj
 0001:000b4570       ??__E?manager@GDIHashtable@@0VBatchDestructionManager@1@A@@YAXXZ 100b5570 f   GDIHashtable.obj
 0001:000b4590       ??__E?arrayLock@Devices@@0VCriticalSection@@A@@YAXXZ 100b5590 f   Devices.obj
 0001:000b45a7       ??__EtheAwtObjectList@@YAXXZ 100b55a7 f   ObjectList.obj
 0001:000b45c5       ??__E?cache@AwtBrush@@0VGDIHashtable@@A@@YAXXZ 100b55c5 f   awt_Brush.obj
 0001:000b461e       ??__E?WmAwtIsComponent@AwtComponent@@2IB@@YAXXZ 100b561e f   awt_Component.obj
 0001:000b4630       ??__EactiveDCList@@YAXXZ   100b5630 f   awt_Component.obj
 0001:000b464e       ??__EpassiveDCList@@YAXXZ  100b564e f   awt_Component.obj
 0001:000b466c       ??__E?m_hkl@AwtComponent@@0PAUHKL__@@A@@YAXXZ 100b566c f   awt_Component.obj
 0001:000b467a       ??__E?m_idLang@AwtComponent@@0GA@@YAXXZ 100b567a f   awt_Component.obj
 0001:000b4689       ??__E?m_CodePage@AwtComponent@@0IA@@YAXXZ 100b5689 f   awt_Component.obj
 0001:000b469d       ??__E?sm_rtl@AwtComponent@@0HA@@YAXXZ 100b569d f   awt_Component.obj
 0001:000b46c4       ??__E?sm_rtlReadingOrder@AwtComponent@@0HA@@YAXXZ 100b56c4 f   awt_Component.obj
 0001:000b46de       ??__EwindowMoveLock@@YAXXZ 100b56de f   awt_Component.obj
 0001:000b46f5       ??__EmultiClickTime@@YAXXZ 100b56f5 f   awt_Component.obj
 0001:000b4708       ??__EmultiClickMaxX@@YAXXZ 100b5708 f   awt_Component.obj
 0001:000b4716       ??__EmultiClickMaxY@@YAXXZ 100b5716 f   awt_Component.obj
 0001:000b4724       ??__E?customCursors@AwtCursor@@0VAwtObjectList@@A@@YAXXZ 100b5724 f   awt_Cursor.obj
 0001:000b473a       ??__Eg_segTableManager@@YAXXZ 100b573a f   awt_Font.obj
 0001:000b4750       ??__E?sm_BlockedThreads@AwtFrame@@0VHashtable@@A@@YAXXZ 100b5750 f   awt_Frame.obj
 0001:000b4779       ??__E?maxGDIObjects@AwtGDIObject@@0HA@@YAXXZ 100b5779 f   awt_GDIObject.obj
 0001:000b4784       ??__E?m_idLang@AwtMenuItem@@0GA@@YAXXZ 100b5784 f   awt_MenuItem.obj
 0001:000b4793       ??__E?m_CodePage@AwtMenuItem@@0IA@@YAXXZ 100b5793 f   awt_MenuItem.obj
 0001:000b47a7       ??__E?sm_rtl@AwtMenuItem@@0HA@@YAXXZ 100b57a7 f   awt_MenuItem.obj
 0001:000b47ce       ??__E?sm_rtlReadingOrder@AwtMenuItem@@0HA@@YAXXZ 100b57ce f   awt_MenuItem.obj
 0001:000b47e8       ??__E?cache@AwtPen@@0VGDIHashtable@@A@@YAXXZ 100b57e8 f   awt_Pen.obj
 0001:000b4850       ??__E?theInstance@AwtToolkit@@0V1@A@@YAXXZ 100b5850 f   awt_Toolkit.obj
 0001:000b4866       ??__E?st@PictureDragHelper@@0V?$map@UtagFORMATETC@@UtagSTGMEDIUM@@U?$less@UtagFORMATETC@@@std@@V?$allocator@U?$pair@$$CBUtagFORMATETC@@UtagSTGMEDIUM@@@std@@@4@@std@@A@@YAXXZ 100b5866 f   awt_DnDDS.obj
 0001:000b488d       ??__ECF_PERFORMEDDROPEFFECT@@YAXXZ 100b588d f   awt_DnDDS.obj
 0001:000b489f       ??__ECF_FILEGROUPDESCRIPTORW@@YAXXZ 100b589f f   awt_DnDDS.obj
 0001:000b48b1       ??__ECF_FILEGROUPDESCRIPTORA@@YAXXZ 100b58b1 f   awt_DnDDS.obj
 0001:000b48c3       ??__ECF_FILECONTENTS@@YAXXZ 100b58c3 f   awt_DnDDS.obj
 0001:000b48d5       ??__E?PROCESS_ID_FORMAT@AwtDragSource@@2IB@@YAXXZ 100b58d5 f   awt_DnDDS.obj
 0001:000b48e6       ??__EmultiClickTime@@YAXXZ 100b58e6 f   awt_TrayIcon.obj
 0001:000b48f9       ??__EmultiClickMaxX@@YAXXZ 100b58f9 f   awt_TrayIcon.obj
 0001:000b4907       ??__EmultiClickMaxY@@YAXXZ 100b5907 f   awt_TrayIcon.obj
 0001:000b4920       ??__EbNoHwCheck@@YAXXZ     100b5920 f   D3DPipelineManager.obj
 0001:000b4940       ??__E?theInstance@D3DInitializer@@0V1@A@@YAXXZ 100b5940 f   D3DPipelineManager.obj
 0001:000b4980       ??__EvtMissing@@YAXXZ      100b5980 f   comsupp:comutil.obj
 0001:000b4990       ??__F?manager@GDIHashtable@@0VBatchDestructionManager@1@A@@YAXXZ 100b5990 f   GDIHashtable.obj
 0001:000b49a0       ??__F?arrayLock@Devices@@0VCriticalSection@@A@@YAXXZ 100b59a0 f   Devices.obj
 0001:000b49b6       ??__FtheAwtObjectList@@YAXXZ 100b59b6 f   ObjectList.obj
 0001:000b49cc       ??__F?cache@AwtBrush@@0VGDIHashtable@@A@@YAXXZ 100b59cc f   awt_Brush.obj
 0001:000b49e0       ??__FpassiveDCList@@YAXXZ  100b59e0 f   awt_Component.obj
 0001:000b49f6       ??__FwindowMoveLock@@YAXXZ 100b59f6 f   awt_Component.obj
 0001:000b4a0c       ??__FtransTable@?1??WindowsKeyToJavaChar@AwtComponent@@QAEIIIW4TransOps@1@@Z@YAXXZ 100b5a0c f   awt_Component.obj
 0001:000b4a16       ??__FactiveDCList@@YAXXZ   100b5a16 f   awt_Component.obj
 0001:000b4a2c       ??__F?customCursors@AwtCursor@@0VAwtObjectList@@A@@YAXXZ 100b5a2c f   awt_Cursor.obj
 0001:000b4a42       ??__Fg_segTableManager@@YAXXZ 100b5a42 f   awt_Font.obj
 0001:000b4a4c       ??__FtableManager@?2??Java_sun_awt_windows_WDefaultFontCharset_canConvert@@9@12@YAXXZ 100b5a4c f   awt_Font.obj
 0001:000b4a56       ??__F?sm_BlockedThreads@AwtFrame@@0VHashtable@@A@@YAXXZ 100b5a56 f   awt_Frame.obj
 0001:000b4a60       ??__F?cache@AwtPen@@0VGDIHashtable@@A@@YAXXZ 100b5a60 f   awt_Pen.obj
 0001:000b4a70       ??__F?theInstance@AwtToolkit@@0V1@A@@YAXXZ 100b5a70 f   awt_Toolkit.obj
 0001:000b4a7a       ??__F_bsPath@?1??GetTempPathWithSlash@@YAJPAUJNIEnv_@@AAV_bstr_t@@@Z@YAXXZ 100b5a7a f   awt_DnDDT.obj
 0001:000b4a91       ??__F?st@PictureDragHelper@@0V?$map@UtagFORMATETC@@UtagSTGMEDIUM@@U?$less@UtagFORMATETC@@@std@@V?$allocator@U?$pair@$$CBUtagFORMATETC@@UtagSTGMEDIUM@@@std@@@4@@std@@A@@YAXXZ 100b5a91 f   awt_DnDDS.obj
 0001:000b4aa0       ??__F?theInstance@D3DInitializer@@0V1@A@@YAXXZ 100b5aa0 f   D3DPipelineManager.obj
 0001:000b4b27       ??__Fdll@?1??GetInstance@DwmAPI@@CAAAV1@XZ@YAXXZ 100b5b27 f   DllUtil.obj
 0001:000b4b40       ??__FvtMissing@@YAXXZ      100b5b40 f   comsupp:comutil.obj
