 instrument

 Timestamp is 4dff5ddb (Mon Jun 20 07:48:59 2011)

 Preferred load address is 10000000

 Start         Length     Name                   Class
 0001:00000000 00011391H .text                   CODE
 0002:00000000 00000130H .idata$5                DATA
 0002:00000130 00000004H .CRT$XCA                DATA
 0002:00000134 00000004H .CRT$XCZ                DATA
 0002:00000138 00000004H .CRT$XIA                DATA
 0002:0000013c 00000010H .CRT$XIC                DATA
 0002:0000014c 00000004H .CRT$XIZ                DATA
 0002:00000150 00000004H .CRT$XPA                DATA
 0002:00000154 00000004H .CRT$XPX                DATA
 0002:00000158 00000004H .CRT$XPXA               DATA
 0002:0000015c 00000004H .CRT$XPZ                DATA
 0002:00000160 00000004H .CRT$XTA                DATA
 0002:00000164 00000004H .CRT$XTZ                DATA
 0002:00000170 00005768H .rdata                  DATA
 0002:000058d8 00000079H .rdata$debug            DATA
 0002:00005960 0000000cH .rdata$sxdata           DATA
 0002:0000596c 00000004H .rtc$IAA                DATA
 0002:00005970 00000004H .rtc$IZZ                DATA
 0002:00005974 00000004H .rtc$TAA                DATA
 0002:00005978 00000004H .rtc$TZZ                DATA
 0002:00005980 0000037cH .xdata$x                DATA
 0002:00005cfc 00000014H .idata$2                DATA
 0002:00005d10 00000014H .idata$3                DATA
 0002:00005d24 00000130H .idata$4                DATA
 0002:00005e54 0000055eH .idata$6                DATA
 0002:000063c0 00000388H .edata                  DATA
 0003:00000000 00000ec0H .data                   DATA
 0003:00000ec0 00001e04H .bss                    DATA
 0004:00000000 00000058H .rsrc$01                DATA
 0004:00000060 00000310H .rsrc$02                DATA

  Address         Publics by Value              Rva+Base       Lib:Object

 0000:00000000       __except_list              00000000     <absolute>
 0000:00000003       ___safe_se_handler_count   00000003     <absolute>
 0000:00000000       ___ImageBase               10000000     <linker-defined>
 0001:00000000       _modifiedUtf8LengthOfUtf8  10001000 f   EncodingSupport.obj
 0001:00000106       _convertUtf8ToModifiedUtf8 10001106 f   EncodingSupport.obj
 0001:0000022f       _convertUft8ToPlatformString 1000122f f   EncodingSupport_md.obj
 0001:0000031c       _basePath                  1000131c f   FileSystemSupport_md.obj
 0001:000004ea       _normalize                 100014ea f   FileSystemSupport_md.obj
 0001:0000054e       _resolve                   1000154e f   FileSystemSupport_md.obj
 0001:00000650       _isAbsolute                10001650 f   FileSystemSupport_md.obj
 0001:000006ae       _fromURIPath               100016ae f   FileSystemSupport_md.obj
 0001:0000071e       _Java_sun_instrument_InstrumentationImpl_isModifiableClass0@20 1000171e f   InstrumentationImplNativeMethods.obj
 0001:00000735       _Java_sun_instrument_InstrumentationImpl_isRetransformClassesSupported0@16 10001735 f   InstrumentationImplNativeMethods.obj
 0001:00000747       _Java_sun_instrument_InstrumentationImpl_setHasRetransformableTransformers@20 10001747 f   InstrumentationImplNativeMethods.obj
 0001:0000075e       _Java_sun_instrument_InstrumentationImpl_retransformClasses0@20 1000175e f   InstrumentationImplNativeMethods.obj
 0001:00000775       _Java_sun_instrument_InstrumentationImpl_redefineClasses0@20 10001775 f   InstrumentationImplNativeMethods.obj
 0001:0000078c       _Java_sun_instrument_InstrumentationImpl_getAllLoadedClasses0@16 1000178c f   InstrumentationImplNativeMethods.obj
 0001:0000079e       _Java_sun_instrument_InstrumentationImpl_getInitiatedClasses0@20 1000179e f   InstrumentationImplNativeMethods.obj
 0001:000007b5       _Java_sun_instrument_InstrumentationImpl_getObjectSize0@20 100017b5 f   InstrumentationImplNativeMethods.obj
 0001:000007cc       _Java_sun_instrument_InstrumentationImpl_appendToClassLoaderSearch0@24 100017cc f   InstrumentationImplNativeMethods.obj
 0001:000007e7       _Java_sun_instrument_InstrumentationImpl_setNativeMethodPrefixes@24 100017e7 f   InstrumentationImplNativeMethods.obj
 0001:00000892       _getBooleanAttribute       10001892 f   InvocationAdapter.obj
 0001:000008bb       _convertCapabilityAtrributes 100018bb f   InvocationAdapter.obj
 0001:00000928       _Agent_OnUnload@4          10001928 f   InvocationAdapter.obj
 0001:0000092b       _eventHandlerVMInit@12     1000192b f   InvocationAdapter.obj
 0001:0000097b       _eventHandlerClassFileLoadHook@40 1000197b f   InvocationAdapter.obj
 0001:00000ef6       _Agent_OnLoad@12           10001ef6 f   InvocationAdapter.obj
 0001:0000110d       _Agent_OnAttach@12         1000210d f   InvocationAdapter.obj
 0001:00001466       _freeAttributes            10002466 f   JarFacade.obj
 0001:00001494       _getAttribute              10002494 f   JarFacade.obj
 0001:000014bc       _readAttributes            100024bc f   JarFacade.obj
 0001:000014f3       _getJPLISEnvironment       100024f3 f   JPLISAgent.obj
 0001:0000157c       _allocateJPLISAgent        1000257c f   JPLISAgent.obj
 0001:0000158a       _recordCommandLineData     1000258a f   JPLISAgent.obj
 0001:00001634       _deallocateCommandLineData 10002634 f   JPLISAgent.obj
 0001:0000165c       _createInstrumentationImpl 1000265c f   JPLISAgent.obj
 0001:000018cf       _commandStringIntoJavaStrings 100028cf f   JPLISAgent.obj
 0001:00001985       _invokeJavaAgentMainMethod 10002985 f   JPLISAgent.obj
 0001:000019f4       _setLivePhaseEventHandlers 100029f4 f   JPLISAgent.obj
 0001:00001add       _checkCapabilities         10002add f   JPLISAgent.obj
 0001:00001b62       _enableNativeMethodPrefixCapability 10002b62 f   JPLISAgent.obj
 0001:00001be4       _addNativeMethodPrefixCapability 10002be4 f   JPLISAgent.obj
 0001:00001c12       _addOriginalMethodOrderCapability 10002c12 f   JPLISAgent.obj
 0001:00001c9a       _addRedefineClassesCapability 10002c9a f   JPLISAgent.obj
 0001:00001d43       _transformClassFile        10002d43 f   JPLISAgent.obj
 0001:00001fe2       _redefineClassMapper       10002fe2 f   JPLISAgent.obj
 0001:0000209c       _getObjectArrayFromClasses 1000309c f   JPLISAgent.obj
 0001:0000215d       _retransformableEnvironment 1000315d f   JPLISAgent.obj
 0001:000022c8       _isModifiableClass         100032c8 f   JPLISAgent.obj
 0001:00002313       _isRetransformClassesSupported 10003313 f   JPLISAgent.obj
 0001:0000231b       _setHasRetransformableTransformers 1000331b f   JPLISAgent.obj
 0001:0000237b       _retransformClasses        1000337b f   JPLISAgent.obj
 0001:0000254c       _redefineClasses           1000354c f   JPLISAgent.obj
 0001:000028cc       _commonGetClassList        100038cc f   JPLISAgent.obj
 0001:00002997       _getAllLoadedClassesClassListFetcher 10003997 f   JPLISAgent.obj
 0001:000029ad       _getAllLoadedClasses       100039ad f   JPLISAgent.obj
 0001:000029c5       _getInitiatedClassesClassListFetcher 100039c5 f   JPLISAgent.obj
 0001:000029df       _getInitiatedClasses       100039df f   JPLISAgent.obj
 0001:000029f9       _getObjectSize             100039f9 f   JPLISAgent.obj
 0001:00002a71       _appendToClassLoaderSearch 10003a71 f   JPLISAgent.obj
 0001:00002b72       _setNativeMethodPrefixes   10003b72 f   JPLISAgent.obj
 0001:00002ddf       _initializeJPLISAgent      10003ddf f   JPLISAgent.obj
 0001:00002f48       _startJavaAgent            10003f48 f   JPLISAgent.obj
 0001:00002f8e       _createNewJPLISAgent       10003f8e f   JPLISAgent.obj
 0001:00003023       _processJavaStart          10004023 f   JPLISAgent.obj
 0001:000030ce       _JPLISAssertCondition      100040ce f   JPLISAssert.obj
 0001:000030f8       _JPLISAssertConditionWithMessage 100040f8 f   JPLISAssert.obj
 0001:00003125       _forceFallback             10004125 f   JavaExceptions.obj
 0001:00003133       _checkForThrowable         10004133 f   JavaExceptions.obj
 0001:00003141       _isSafeForJNICalls         10004141 f   JavaExceptions.obj
 0001:00003156       _logThrowable              10004156 f   JavaExceptions.obj
 0001:0000316e       _isUnchecked               1000416e f   JavaExceptions.obj
 0001:000031ef       _preserveThrowable         100041ef f   JavaExceptions.obj
 0001:0000320c       _throwThrowable            1000420c f   JavaExceptions.obj
 0001:00003247       _checkForAndClearThrowable 10004247 f   JavaExceptions.obj
 0001:00003267       _mapThrownThrowableIfNecessary 10004267 f   JavaExceptions.obj
 0001:000032aa       _createThrowable           100042aa f   JavaExceptions.obj
 0001:000033cb       _createInternalError       100043cb f   JavaExceptions.obj
 0001:000033e1       _createThrowableFromJVMTIErrorCode 100043e1 f   JavaExceptions.obj
 0001:0000355e       _getMessageFromThrowable   1000455e f   JavaExceptions.obj
 0001:00003663       _restoreThrowable          10004663 f   JavaExceptions.obj
 0001:00003668       _createAndThrowInternalError 10004668 f   JavaExceptions.obj
 0001:00003687       _createAndThrowThrowableFromJVMTIErrorCode 10004687 f   JavaExceptions.obj
 0001:000036a8       _initializeFallbackError   100046a8 f   JavaExceptions.obj
 0001:00003703       _mapAllCheckedToInternalErrorMapper 10004703 f   JavaExceptions.obj
 0001:000039f5       _validatePathChars         100049f5 f   PathCharsValidator.obj
 0001:00003afa       _assertTLSValue            10004afa f   Reentrancy.obj
 0001:00003b59       _confirmingTLSSet          10004b59 f   Reentrancy.obj
 0001:00003b8e       _tryToAcquireReentrancyToken 10004b8e f   Reentrancy.obj
 0001:00003c30       _releaseReentrancyToken    10004c30 f   Reentrancy.obj
 0001:00003c72       _allocate                  10004c72 f   Utilities.obj
 0001:00003cbd       _deallocate                10004cbd f   Utilities.obj
 0001:00003cf1       _isInstanceofClassName     10004cf1 f   Utilities.obj
 0001:00003da8       _abortJVM                  10004da8 f   Utilities.obj
 0001:00003e25       _lastErrorReportable       10004e25 f   canonicalize_md.obj
 0001:00003e5e       _canonicalize              10004e5e f   canonicalize_md.obj
 0001:00004783       _JLI_ManifestIterate       10005783 f   jli:parse_manifest.obj
 0001:00004847       _inflateReset              10005847 f   jli:inflate.obj
 0001:000048a8       _inflateInit2_             100058a8 f   jli:inflate.obj
 0001:00004a38       _inflate                   10005a38 f   jli:inflate.obj
 0001:00005c94       _inflateEnd                10006c94 f   jli:inflate.obj
 0001:00005cd2       _zcalloc                   10006cd2 f   jli:zutil.obj
 0001:00005ce3       _zcfree                    10006ce3 f   jli:zutil.obj
 0001:00005cee       _inflate_fast              10006cee f   jli:inffast.obj
 0001:000060e0       _inflate_table             100070e0 f   jli:inftrees.obj
 0001:000064b0       _adler32                   100074b0 f   jli:zadler32.obj
 0001:0000693f       _crc32                     1000793f f   jli:zcrc32.obj
 0001:00006959       _free                      10007959 f   LIBCMT:free.obj
 0001:00006993       _malloc                    10007993 f   LIBCMT:malloc.obj
 0001:00006a27       _atol                      10007a27 f   LIBCMT:atox.obj
 0001:00006a3d       _atoi                      10007a3d f   LIBCMT:atox.obj
 0001:00006a48       @__security_check_cookie@4 10007a48 f   LIBCMT:secchk.obj
 0001:00006a60       _memcpy                    10007a60 f   LIBCMT:memcpy.obj
 0001:00006de0       _strchr                    10007de0 f   LIBCMT:strchr.obj
 0001:00006de6       ___from_strstr_to_strchr   10007de6     LIBCMT:strchr.obj
 0001:00006ea0       _strlen                    10007ea0 f   LIBCMT:strlen.obj
 0001:00006f30       _strcpy                    10007f30 f   LIBCMT:strcat.obj
 0001:00006f40       _strcat                    10007f40 f   LIBCMT:strcat.obj
 0001:00007028       _realloc                   10008028 f   LIBCMT:realloc.obj
 0001:000070d5       _calloc                    100080d5 f   LIBCMT:calloc.obj
 0001:00007115       _fprintf                   10008115 f   LIBCMT:fprintf.obj
 0001:00007221       ___iob_func                10008221 f   LIBCMT:_file.obj
 0001:00007227       ___initstdio               10008227 f   LIBCMT:_file.obj
 0001:000072d8       ___endstdio                100082d8 f   LIBCMT:_file.obj
 0001:000072f8       __lock_file                100082f8 f   LIBCMT:_file.obj
 0001:00007339       __lock_file2               10008339 f   LIBCMT:_file.obj
 0001:0000736b       __unlock_file              1000836b f   LIBCMT:_file.obj
 0001:000073a7       __unlock_file2             100083a7 f   LIBCMT:_file.obj
 0001:000073e0       _strncpy                   100083e0 f   LIBCMT:strncpy.obj
 0001:00007504       ??0_LocaleUpdate@@QAE@PAUlocaleinfo_struct@@@Z 10008504 f i LIBCMT:_ctype.obj
 0001:0000758b       __isalpha_l                1000858b f i LIBCMT:_ctype.obj
 0001:000075e1       _isalpha                   100085e1 f i LIBCMT:_ctype.obj
 0001:00007611       __isspace_l                10008611 f i LIBCMT:_ctype.obj
 0001:00007662       _isspace                   10008662 f i LIBCMT:_ctype.obj
 0001:00007690       _memset                    10008690 f   LIBCMT:memset.obj
 0001:00007710       __allshl                   10008710 f   LIBCMT:llshl.obj
 0001:0000772f       __get_errno_from_oserr     1000872f f   LIBCMT:dosmap.obj
 0001:00007771       __errno                    10008771 f   LIBCMT:dosmap.obj
 0001:00007784       ___doserrno                10008784 f   LIBCMT:dosmap.obj
 0001:00007797       __dosmaperr                10008797 f   LIBCMT:dosmap.obj
 0001:000077ba       __toupper_l                100087ba f   LIBCMT:toupper.obj
 0001:000078d0       _toupper                   100088d0 f   LIBCMT:toupper.obj
 0001:000078fc       __fullpath                 100088fc f   LIBCMT:fullpath.obj
 0001:000079f3       _wcslen                    100089f3 f   LIBCMT:wcslen.obj
 0001:00007a0e       __CRT_INIT@12              10008a0e f   LIBCMT:dllcrt0.obj
 0001:00007c68       __DllMainCRTStartup@12     10008c68 f   LIBCMT:dllcrt0.obj
 0001:00007c8b       _memcmp                    10008c8b f   LIBCMT:memcmp.obj
 0001:000091e0       _memmove                   1000a1e0 f   LIBCMT:memmove.obj
 0001:00009550       _strpbrk                   1000a550 f   LIBCMT:strpbrk.obj
 0001:00009590       __heap_init                1000a590 f   LIBCMT:heapinit.obj
 0001:000095ae       __heap_term                1000a5ae f   LIBCMT:heapinit.obj
 0001:000095c2       ___crtCorExitProcess       1000a5c2 f   LIBCMT:crt0dat.obj
 0001:000095ed       ___crtExitProcess          1000a5ed f   LIBCMT:crt0dat.obj
 0001:00009605       __lockexit                 1000a605 f   LIBCMT:crt0dat.obj
 0001:0000960e       __unlockexit               1000a60e f   LIBCMT:crt0dat.obj
 0001:00009617       __init_pointers            1000a617 f   LIBCMT:crt0dat.obj
 0001:0000964a       __initterm_e               1000a64a f   LIBCMT:crt0dat.obj
 0001:0000966e       __cinit                    1000a66e f   LIBCMT:crt0dat.obj
 0001:00009845       __exit                     1000a845 f   LIBCMT:crt0dat.obj
 0001:0000985b       __cexit                    1000a85b f   LIBCMT:crt0dat.obj
 0001:0000986a       __amsg_exit                1000a86a f   LIBCMT:crt0dat.obj
 0001:00009888       __GET_RTERRMSG             1000a888 f   LIBCMT:crt0msg.obj
 0001:000098ae       __NMSG_WRITE               1000a8ae f   LIBCMT:crt0msg.obj
 0001:00009a5d       __FF_MSGBANNER             1000aa5d f   LIBCMT:crt0msg.obj
 0001:00009a96       __initp_heap_handler       1000aa96 f   LIBCMT:handler.obj
 0001:00009aa5       __callnewh                 1000aaa5 f   LIBCMT:handler.obj
 0001:00009cf8       _strtol                    1000acf8 f   LIBCMT:strtol.obj
 0001:00009d23       ___report_gsfailure        1000ad23 f   LIBCMT:gs_report.obj
 0001:00009e29       __VEC_memcpy               1000ae29 f   LIBCMT:p4_memcpy.obj
 0001:00009f2c       ___sse2_available_init     1000af2c f   LIBCMT:cpu_disp.obj
 0001:00009f3c       __calloc_impl              1000af3c f   LIBCMT:calloc_impl.obj
 0001:00009fbe       __stbuf                    1000afbe f   LIBCMT:_sftbuf.obj
 0001:0000a05a       __ftbuf                    1000b05a f   LIBCMT:_sftbuf.obj
 0001:0000a135       __output_l                 1000b135 f   LIBCMT:output.obj
 0001:0000ace1       __ioinit                   1000bce1 f   LIBCMT:ioinit.obj
 0001:0000af26       __ioterm                   1000bf26 f   LIBCMT:ioinit.obj
 0001:0000af79       __fileno                   1000bf79 f   LIBCMT:fileno.obj
 0001:0000af9f       __initp_misc_invarg        1000bf9f f   LIBCMT:invarg.obj
 0001:0000afae       __call_reportfault         1000bfae f   LIBCMT:invarg.obj
 0001:0000b0d7       __invoke_watson            1000c0d7 f   LIBCMT:invarg.obj
 0001:0000b0fc       __invalid_parameter        1000c0fc f   LIBCMT:invarg.obj
 0001:0000b129       __invalid_parameter_noinfo 1000c129 f   LIBCMT:invarg.obj
 0001:0000b140       __SEH_prolog4              1000c140 f   LIBCMT:sehprolg4.obj
 0001:0000b185       __SEH_epilog4              1000c185 f   LIBCMT:sehprolg4.obj
 0001:0000b1a0       __except_handler4          1000c1a0 f   LIBCMT:chandler4.obj
 0001:0000b32f       __malloc_crt               1000c32f f   LIBCMT:crtheap.obj
 0001:0000b374       __calloc_crt               1000c374 f   LIBCMT:crtheap.obj
 0001:0000b3c0       __realloc_crt              1000c3c0 f   LIBCMT:crtheap.obj
 0001:0000b40e       __fcloseall                1000c40e f   LIBCMT:closeall.obj
 0001:0000b4aa       __flush                    1000c4aa f   LIBCMT:fflush.obj
 0001:0000b512       __fflush_nolock            1000c512 f   LIBCMT:fflush.obj
 0001:0000b634       __flushall                 1000c634 f   LIBCMT:fflush.obj
 0001:0000b63d       __mtinitlocks              1000c63d f   LIBCMT:mlock.obj
 0001:0000b687       __mtdeletelocks            1000c687 f   LIBCMT:mlock.obj
 0001:0000b6de       __unlock                   1000c6de f   LIBCMT:mlock.obj
 0001:0000b6f5       __mtinitlocknum            1000c6f5 f   LIBCMT:mlock.obj
 0001:0000b7b7       __lock                     1000c7b7 f   LIBCMT:mlock.obj
 0001:0000ba0d       ___updatetmbcinfo          1000ca0d f   LIBCMT:mbctype.obj
 0001:0000bb2d       __setmbcp_nolock           1000cb2d f   LIBCMT:mbctype.obj
 0001:0000bd16       __setmbcp                  1000cd16 f   LIBCMT:mbctype.obj
 0001:0000beb0       ___initmbctable            1000ceb0 f   LIBCMT:mbctype.obj
 0001:0000bece       ___addlocaleref            1000cece f   LIBCMT:localref.obj
 0001:0000bf5d       ___removelocaleref         1000cf5d f   LIBCMT:localref.obj
 0001:0000bff6       ___freetlocinfo            1000cff6 f   LIBCMT:localref.obj
 0001:0000c141       __updatetlocinfoEx_nolock  1000d141 f   LIBCMT:localref.obj
 0001:0000c18e       ___updatetlocinfo          1000d18e f   LIBCMT:localref.obj
 0001:0000c207       __encoded_null             1000d207 f   LIBCMT:tidtable.obj
 0001:0000c210       ___crtTlsAlloc@4           1000d210 f   LIBCMT:tidtable.obj
 0001:0000c219       ___set_flsgetvalue         1000d219 f   LIBCMT:tidtable.obj
 0001:0000c24d       __mtterm                   1000d24d f   LIBCMT:tidtable.obj
 0001:0000c28a       __initptd                  1000d28a f   LIBCMT:tidtable.obj
 0001:0000c33e       __getptd_noexit            1000d33e f   LIBCMT:tidtable.obj
 0001:0000c3b7       __getptd                   1000d3b7 f   LIBCMT:tidtable.obj
 0001:0000c3d1       __freefls@4                1000d3d1 f   LIBCMT:tidtable.obj
 0001:0000c500       __freeptd                  1000d500 f   LIBCMT:tidtable.obj
 0001:0000c56e       __mtinit                   1000d56e f   LIBCMT:tidtable.obj
 0001:0000c6e9       __isctype_l                1000d6e9 f   LIBCMT:isctype.obj
 0001:0000c7a1       __VEC_memzero              1000d7a1 f   LIBCMT:p4_memset.obj
 0001:0000c85b       __freea                    1000d85b f i LIBCMT:a_map.obj
 0001:0000ca62       ___crtLCMapStringA         1000da62 f   LIBCMT:a_map.obj
 0001:0000caa8       __isleadbyte_l             1000daa8 f i LIBCMT:_wctype.obj
 0001:0000cae0       _isleadbyte                1000dae0 f i LIBCMT:_wctype.obj
 0001:0000caf3       __validdrive               1000daf3 f   LIBCMT:getcwd.obj
 0001:0000cb4d       __getdcwd_nolock           1000db4d f   LIBCMT:getcwd.obj
 0001:0000cc71       __getcwd                   1000dc71 f   LIBCMT:getcwd.obj
 0001:0000ccba       __setenvp                  1000dcba f   LIBCMT:stdenvp.obj
 0001:0000cf30       __setargv                  1000df30 f   LIBCMT:stdargv.obj
 0001:0000cfeb       ___crtGetEnvironmentStringsA 1000dfeb f   LIBCMT:a_env.obj
 0001:0000d082       __RTC_Initialize           1000e082 f   LIBCMT:_initsect_.obj
 0001:0000d0a8       __RTC_Terminate            1000e0a8 f   LIBCMT:_initsect_.obj
 0001:0000d0ce       __XcptFilter               1000e0ce f   LIBCMT:winxfltr.obj
 0001:0000d218       ___CppXcptFilter           1000e218 f   LIBCMT:winxfltr.obj
 0001:0000d238       _DllMain@12                1000e238 f   LIBCMT:dllmain.obj
 0001:0000d23e       ___security_init_cookie    1000e23e f   LIBCMT:gs_support.obj
 0001:0000d2d9       ?terminate@@YAXXZ          1000e2d9 f   LIBCMT:hooks.obj
 0001:0000d312       __initp_eh_hooks           1000e312 f   LIBCMT:hooks.obj
 0001:0000d323       __initp_misc_winsig        1000e323 f   LIBCMT:winsig.obj
 0001:0000d378       ___get_sigabrt             1000e378 f   LIBCMT:winsig.obj
 0001:0000d385       _raise                     1000e385 f   LIBCMT:winsig.obj
 0001:0000d528       __initp_misc_rand_s        1000e528 f   LIBCMT:rand_s.obj
 0001:0000d537       __initp_misc_purevirt      1000e537 f   LIBCMT:inithelp.obj
 0001:0000d5fc       ___onexitinit              1000e5fc f   LIBCMT:onexit.obj
 0001:0000d62d       __onexit                   1000e62d f   LIBCMT:onexit.obj
 0001:0000d669       _atexit                    1000e669 f   LIBCMT:onexit.obj
 0001:0000d680       __initp_misc_cfltcvt_tab   1000e680 f   LIBCMT:cmiscdat.obj
 0001:0000d6b0       __ValidateImageBase        1000e6b0 f   LIBCMT:pesect.obj
 0001:0000d6f0       __FindPESection            1000e6f0 f   LIBCMT:pesect.obj
 0001:0000d740       __IsNonwritableInCurrentImage 1000e740 f   LIBCMT:pesect.obj
 0001:0000d7fc       ___crtMessageBoxW          1000e7fc f   LIBCMT:crtmboxw.obj
 0001:0000d968       _wcscat_s                  1000e968 f   LIBCMT:wcscat_s.obj
 0001:0000d9dd       _wcsncpy_s                 1000e9dd f   LIBCMT:wcsncpy_s.obj
 0001:0000daaa       _wcscpy_s                  1000eaaa f   LIBCMT:wcscpy_s.obj
 0001:0000db0d       __set_error_mode           1000eb0d f   LIBCMT:errmode.obj
 0001:0000db50       __allmul                   1000eb50 f   LIBCMT:llmul.obj
 0001:0000db90       __aulldvrm                 1000eb90 f   LIBCMT:ulldvrm.obj
 0001:0000dc25       __crt_debugger_hook        1000ec25 f   LIBCMT:dbghook.obj
 0001:0000dc2d       __isatty                   1000ec2d f   LIBCMT:isatty.obj
 0001:0000dc83       __flsbuf                   1000ec83 f   LIBCMT:_flsbuf.obj
 0001:0000dde7       __get_printf_count_output  1000ede7 f   LIBCMT:printf.obj
 0001:0000ddfd       __wctomb_s_l               1000edfd f   LIBCMT:wctomb.obj
 0001:0000df52       _wctomb_s                  1000ef52 f   LIBCMT:wctomb.obj
 0001:0000df70       __local_unwind4            1000ef70 f   LIBCMT:exsup4.obj
 0001:0000e046       __seh_longjmp_unwind4@4    1000f046 f   LIBCMT:exsup4.obj
 0001:0000e062       @_EH4_CallFilterFunc@8     1000f062 f   LIBCMT:exsup4.obj
 0001:0000e079       @_EH4_TransferToHandler@8  1000f079 f   LIBCMT:exsup4.obj
 0001:0000e092       @_EH4_GlobalUnwind2@8      1000f092 f   LIBCMT:exsup4.obj
 0001:0000e0ab       @_EH4_LocalUnwind@16       1000f0ab f   LIBCMT:exsup4.obj
 0001:0000e0c2       __fclose_nolock            1000f0c2 f   LIBCMT:fclose.obj
 0001:0000e12f       _fclose                    1000f12f f   LIBCMT:fclose.obj
 0001:0000e1a3       __write_nolock             1000f1a3 f   LIBCMT:write.obj
 0001:0000e8a0       __write                    1000f8a0 f   LIBCMT:write.obj
 0001:0000e974       __commit                   1000f974 f   LIBCMT:commit.obj
 0001:0000eb34       ___crtGetStringTypeA       1000fb34 f   LIBCMT:a_str.obj
 0001:0000eb74       ___free_lc_time            1000fb74 f   LIBCMT:inittime.obj
 0001:0000eeeb       ___free_lconv_num          1000feeb f   LIBCMT:initnum.obj
 0001:0000ef54       ___free_lconv_mon          1000ff54 f   LIBCMT:initmon.obj
 0001:0000f060       _strcspn                   10010060 f   LIBCMT:strcspn.obj
 0001:0000f0a6       _strcpy_s                  100100a6 f   LIBCMT:strcpy_s.obj
 0001:0000f110       _strcmp                    10010110 f   LIBCMT:strcmp.obj
 0001:0000f1a0       __alloca_probe_16          100101a0 f   LIBCMT:alloca16.obj
 0001:0000f1b6       __alloca_probe_8           100101b6     LIBCMT:alloca16.obj
 0001:0000f1cc       __getdrive                 100101cc f   LIBCMT:drive.obj
 0001:0000f2ed       __ismbblead                100102ed f   LIBCMT:ismbbyte.obj
 0001:0000f305       _abort                     10010305 f   LIBCMT:abort.obj
 0001:0000f338       __msize                    10010338 f   LIBCMT:msize.obj
 0001:0000f36b       __fptrap                   1001036b f   LIBCMT:crt0fp.obj
 0001:0000f374       __lseeki64_nolock          10010374 f   LIBCMT:lseeki64.obj
 0001:0000f3f9       __lseeki64                 100103f9 f   LIBCMT:lseeki64.obj
 0001:0000f4e3       __getbuf                   100104e3 f   LIBCMT:_getbuf.obj
 0001:0000f530       __global_unwind2           10010530 f   LIBCMT:exsup.obj
 0001:0000f595       __local_unwind2            10010595 f   LIBCMT:exsup.obj
 0001:0000f619       __abnormal_termination     10010619 f   LIBCMT:exsup.obj
 0001:0000f63c       __NLG_Notify1              1001063c f   LIBCMT:exsup.obj
 0001:0000f645       __NLG_Notify               10010645 f   LIBCMT:exsup.obj
 0001:0000f65c       __NLG_Dispatch             1001065c     LIBCMT:exsup.obj
 0001:0000f65c       __NLG_Dispatch2            1001065c     LIBCMT:exsup.obj
 0001:0000f664       __NLG_Call                 10010664 f   LIBCMT:exsup.obj
 0001:0000f666       __NLG_Return2              10010666     LIBCMT:exsup.obj
 0001:0000f667       __close_nolock             10010667 f   LIBCMT:close.obj
 0001:0000f703       _close                     10010703 f   LIBCMT:close.obj
 0001:0000f703       __close                    10010703 f   LIBCMT:close.obj
 0001:0000f7c7       __freebuf                  100107c7 f   LIBCMT:_freebuf.obj
 0001:0000f7f8       __putwch_nolock            100107f8 f   LIBCMT:putwch.obj
 0001:0000f83a       __mbtowc_l                 1001083a f   LIBCMT:mbtowc.obj
 0001:0000f950       _mbtowc                    10010950 f   LIBCMT:mbtowc.obj
 0001:0000f970       __alloca_probe             10010970     LIBCMT:chkstk.obj
 0001:0000f970       __chkstk                   10010970 f   LIBCMT:chkstk.obj
 0001:0000f99b       __set_osfhnd               1001099b f   LIBCMT:osfinfo.obj
 0001:0000fa1c       __free_osfhnd              10010a1c f   LIBCMT:osfinfo.obj
 0001:0000faa2       __get_osfhandle            10010aa2 f   LIBCMT:osfinfo.obj
 0001:0000fb0b       ___lock_fhandle            10010b0b f   LIBCMT:osfinfo.obj
 0001:0000fbaa       __unlock_fhandle           10010baa f   LIBCMT:osfinfo.obj
 0001:0000fbd1       __alloc_osfhnd             10010bd1 f   LIBCMT:osfinfo.obj
 0001:0000fd6a       ___ascii_stricmp           10010d6a f   LIBCMT:stricmp.obj
 0001:0000fda3       __stricmp_l                10010da3 f   LIBCMT:stricmp.obj
 0001:0000fe63       __stricmp                  10010e63 f   LIBCMT:stricmp.obj
 0001:0000fe63       _stricmp                   10010e63 f   LIBCMT:stricmp.obj
 0001:0000feb0       __SEH_prolog4_GS           10010eb0 f   LIBCMT:sehprolg4gs.obj
 0001:0000fef8       __SEH_epilog4_GS           10010ef8 f   LIBCMT:sehprolg4gs.obj
 0001:0000ff07       ___initconout              10010f07 f   LIBCMT:initcon.obj
 0001:0000ff26       ___termconout              10010f26 f   LIBCMT:initcon.obj
 0001:0000ff3d       __tolower_l                10010f3d f   LIBCMT:tolower.obj
 0001:00010060       ___ascii_strnicmp          10011060 f   LIBCMT:_strnicm.obj
 0001:000100c2       _RtlUnwind@16              100110c2 f   kernel32:KERNEL32.dll
 0001:000100c8       _strdup                    100110c8 f   LIBCMT:strdup.obj
 0001:000100c8       __strdup                   100110c8 f   LIBCMT:strdup.obj
 0001:0001011a       __read_nolock              1001111a f   LIBCMT:read.obj
 0001:000106d1       __read                     100116d1 f   LIBCMT:read.obj
 0001:000106d1       _read                      100116d1 f   LIBCMT:read.obj
 0001:000107c7       __lseek_nolock             100117c7 f   LIBCMT:lseek.obj
 0001:0001083c       _lseek                     1001183c f   LIBCMT:lseek.obj
 0001:0001083c       __lseek                    1001183c f   LIBCMT:lseek.obj
 0001:00011045       __open                     10012045 f   LIBCMT:open.obj
 0001:00011045       _open                      10012045 f   LIBCMT:open.obj
 0001:000110f3       __chsize_nolock            100120f3 f   LIBCMT:chsize.obj
 0001:000112a9       __setmode_nolock           100122a9 f   LIBCMT:setmode.obj
 0001:00011364       __get_fmode                10012364 f   LIBCMT:setmode.obj
 0002:00000000       __imp__WideCharToMultiByte@32 10013000     kernel32:KERNEL32.dll
 0002:00000004       __imp__MultiByteToWideChar@24 10013004     kernel32:KERNEL32.dll
 0002:00000008       __imp__GetACP@0            10013008     kernel32:KERNEL32.dll
 0002:0000000c       __imp__GetLocaleInfoA@16   1001300c     kernel32:KERNEL32.dll
 0002:00000010       __imp__GetUserDefaultLCID@0 10013010     kernel32:KERNEL32.dll
 0002:00000014       __imp__IsDBCSLeadByte@4    10013014     kernel32:KERNEL32.dll
 0002:00000018       __imp__GetLastError@0      10013018     kernel32:KERNEL32.dll
 0002:0000001c       __imp__FindClose@4         1001301c     kernel32:KERNEL32.dll
 0002:00000020       __imp__FindFirstFileA@8    10013020     kernel32:KERNEL32.dll
 0002:00000024       __imp__HeapFree@12         10013024     kernel32:KERNEL32.dll
 0002:00000028       __imp__HeapAlloc@12        10013028     kernel32:KERNEL32.dll
 0002:0000002c       __imp__HeapReAlloc@16      1001302c     kernel32:KERNEL32.dll
 0002:00000030       __imp__EnterCriticalSection@4 10013030     kernel32:KERNEL32.dll
 0002:00000034       __imp__LeaveCriticalSection@4 10013034     kernel32:KERNEL32.dll
 0002:00000038       __imp__GetFullPathNameA@16 10013038     kernel32:KERNEL32.dll
 0002:0000003c       __imp__GetCurrentThreadId@0 1001303c     kernel32:KERNEL32.dll
 0002:00000040       __imp__DecodePointer@4     10013040     kernel32:KERNEL32.dll
 0002:00000044       __imp__GetCommandLineA@0   10013044     kernel32:KERNEL32.dll
 0002:00000048       __imp__HeapCreate@12       10013048     kernel32:KERNEL32.dll
 0002:0000004c       __imp__HeapDestroy@4       1001304c     kernel32:KERNEL32.dll
 0002:00000050       __imp__GetProcAddress@8    10013050     kernel32:KERNEL32.dll
 0002:00000054       __imp__GetModuleHandleW@4  10013054     kernel32:KERNEL32.dll
 0002:00000058       __imp__ExitProcess@4       10013058     kernel32:KERNEL32.dll
 0002:0000005c       __imp__WriteFile@20        1001305c     kernel32:KERNEL32.dll
 0002:00000060       __imp__GetStdHandle@4      10013060     kernel32:KERNEL32.dll
 0002:00000064       __imp__GetModuleFileNameW@12 10013064     kernel32:KERNEL32.dll
 0002:00000068       __imp__EncodePointer@4     10013068     kernel32:KERNEL32.dll
 0002:0000006c       __imp__TerminateProcess@8  1001306c     kernel32:KERNEL32.dll
 0002:00000070       __imp__GetCurrentProcess@0 10013070     kernel32:KERNEL32.dll
 0002:00000074       __imp__UnhandledExceptionFilter@4 10013074     kernel32:KERNEL32.dll
 0002:00000078       __imp__SetUnhandledExceptionFilter@4 10013078     kernel32:KERNEL32.dll
 0002:0000007c       __imp__IsDebuggerPresent@0 1001307c     kernel32:KERNEL32.dll
 0002:00000080       __imp__IsProcessorFeaturePresent@4 10013080     kernel32:KERNEL32.dll
 0002:00000084       __imp__SetHandleCount@4    10013084     kernel32:KERNEL32.dll
 0002:00000088       __imp__InitializeCriticalSectionAndSpinCount@8 10013088     kernel32:KERNEL32.dll
 0002:0000008c       __imp__GetFileType@4       1001308c     kernel32:KERNEL32.dll
 0002:00000090       __imp__GetStartupInfoW@4   10013090     kernel32:KERNEL32.dll
 0002:00000094       __imp__DeleteCriticalSection@4 10013094     kernel32:KERNEL32.dll
 0002:00000098       __imp__Sleep@4             10013098     kernel32:KERNEL32.dll
 0002:0000009c       __imp__GetCPInfo@8         1001309c     kernel32:KERNEL32.dll
 0002:000000a0       __imp__InterlockedIncrement@4 100130a0     kernel32:KERNEL32.dll
 0002:000000a4       __imp__InterlockedDecrement@4 100130a4     kernel32:KERNEL32.dll
 0002:000000a8       __imp__GetOEMCP@0          100130a8     kernel32:KERNEL32.dll
 0002:000000ac       __imp__IsValidCodePage@4   100130ac     kernel32:KERNEL32.dll
 0002:000000b0       __imp__TlsAlloc@0          100130b0     kernel32:KERNEL32.dll
 0002:000000b4       __imp__TlsGetValue@4       100130b4     kernel32:KERNEL32.dll
 0002:000000b8       __imp__TlsSetValue@8       100130b8     kernel32:KERNEL32.dll
 0002:000000bc       __imp__TlsFree@4           100130bc     kernel32:KERNEL32.dll
 0002:000000c0       __imp__SetLastError@4      100130c0     kernel32:KERNEL32.dll
 0002:000000c4       __imp__LCMapStringW@24     100130c4     kernel32:KERNEL32.dll
 0002:000000c8       __imp__GetDriveTypeW@4     100130c8     kernel32:KERNEL32.dll
 0002:000000cc       __imp__GetStringTypeW@16   100130cc     kernel32:KERNEL32.dll
 0002:000000d0       __imp__GetModuleFileNameA@12 100130d0     kernel32:KERNEL32.dll
 0002:000000d4       __imp__FreeEnvironmentStringsW@4 100130d4     kernel32:KERNEL32.dll
 0002:000000d8       __imp__GetEnvironmentStringsW@0 100130d8     kernel32:KERNEL32.dll
 0002:000000dc       __imp__QueryPerformanceCounter@4 100130dc     kernel32:KERNEL32.dll
 0002:000000e0       __imp__GetTickCount@0      100130e0     kernel32:KERNEL32.dll
 0002:000000e4       __imp__GetCurrentProcessId@0 100130e4     kernel32:KERNEL32.dll
 0002:000000e8       __imp__GetSystemTimeAsFileTime@4 100130e8     kernel32:KERNEL32.dll
 0002:000000ec       __imp__LoadLibraryW@4      100130ec     kernel32:KERNEL32.dll
 0002:000000f0       __imp__RtlUnwind@16        100130f0     kernel32:KERNEL32.dll
 0002:000000f4       __imp__GetConsoleCP@0      100130f4     kernel32:KERNEL32.dll
 0002:000000f8       __imp__GetConsoleMode@8    100130f8     kernel32:KERNEL32.dll
 0002:000000fc       __imp__FlushFileBuffers@4  100130fc     kernel32:KERNEL32.dll
 0002:00000100       __imp__GetCurrentDirectoryW@8 10013100     kernel32:KERNEL32.dll
 0002:00000104       __imp__HeapSize@12         10013104     kernel32:KERNEL32.dll
 0002:00000108       __imp__SetFilePointer@16   10013108     kernel32:KERNEL32.dll
 0002:0000010c       __imp__CloseHandle@4       1001310c     kernel32:KERNEL32.dll
 0002:00000110       __imp__WriteConsoleW@20    10013110     kernel32:KERNEL32.dll
 0002:00000114       __imp__SetStdHandle@8      10013114     kernel32:KERNEL32.dll
 0002:00000118       __imp__CreateFileW@28      10013118     kernel32:KERNEL32.dll
 0002:0000011c       __imp__ReadFile@20         1001311c     kernel32:KERNEL32.dll
 0002:00000120       __imp__CreateFileA@28      10013120     kernel32:KERNEL32.dll
 0002:00000124       __imp__SetEndOfFile@4      10013124     kernel32:KERNEL32.dll
 0002:00000128       __imp__GetProcessHeap@0    10013128     kernel32:KERNEL32.dll
 0002:0000012c       \177KERNEL32_NULL_THUNK_DATA 1001312c     kernel32:KERNEL32.dll
 0002:00000130       ___xc_a                    10013130     LIBCMT:crt0init.obj
 0002:00000134       ___xc_z                    10013134     LIBCMT:crt0init.obj
 0002:00000138       ___xi_a                    10013138     LIBCMT:crt0init.obj
 0002:0000014c       ___xi_z                    1001314c     LIBCMT:crt0init.obj
 0002:00000150       ___xp_a                    10013150     LIBCMT:crt0init.obj
 0002:0000015c       ___xp_z                    1001315c     LIBCMT:crt0init.obj
 0002:00000160       ___xt_a                    10013160     LIBCMT:crt0init.obj
 0002:00000164       ___xt_z                    10013164     LIBCMT:crt0init.obj
 0002:0000018c       ??_C@_04LOAJBDKD@true?$AA@ 1001318c     InvocationAdapter.obj
 0002:00000194       ??_C@_0CD@ONCIGEJ@Can?9Maintain?9Original?9Method?9Ord@ 10013194     InvocationAdapter.obj
 0002:000001b8       ??_C@_0BN@GGMNHHCI@Can?9Set?9Native?9Method?9Prefix?$AA@ 100131b8     InvocationAdapter.obj
 0002:000001d8       ??_C@_0BI@DOGNCBOD@Can?9Retransform?9Classes?$AA@ 100131d8     InvocationAdapter.obj
 0002:000001f0       ??_C@_0BF@MPBBPFEA@Can?9Redefine?9Classes?$AA@ 100131f0     InvocationAdapter.obj
 0002:00000208       ??_C@_0CA@BILEKGHH@processing?5of?5?9javaagent?5failed?$AA@ 10013208     InvocationAdapter.obj
 0002:00000228       ??_C@_0BJ@CALIJBCB@segments?5?$CB?$DN?5?$CIchar?$CK?$CK?$CJNULL?$AA@ 10013228     InvocationAdapter.obj
 0002:00000244       ??_C@_0DC@DMMJLNNN@?4?4?1?4?4?1?4?4?1src?1share?1instrument?1In@ 10013244     InvocationAdapter.obj
 0002:00000278       ??_C@_01GBGANLPD@0?$AA@    10013278     InvocationAdapter.obj
 0002:00000280       ??_C@_0GC@LFNBLJED@System?5class?5loader?5does?5not?5sup@ 10013280     InvocationAdapter.obj
 0002:000002e8       ??_C@_0EA@GNNEHPOG@Unexpected?5error?5?$CI?$CFd?$CJ?5returned?5b@ 100132e8     InvocationAdapter.obj
 0002:00000328       ??_C@_0BI@GCGOKABC@err?5?$DN?$DN?5JVMTI_ERROR_NONE?$AA@ 10013328     InvocationAdapter.obj
 0002:00000340       ??_C@_0CC@HMBHOALF@Illegal?5argument?5or?5not?5JAR?5file@ 10013340     InvocationAdapter.obj
 0002:00000364       ??_C@_0BG@IPMFCDFJ@Unexpected?5error?3?5?$CFd?6?$AA@ 10013364     InvocationAdapter.obj
 0002:0000037c       ??_C@_0DJ@BINIAAK@WARNING?3?5?$CFs?5not?5added?5to?5bootstr@ 1001337c     InvocationAdapter.obj
 0002:000003b8       ??_C@_0BG@LFGEPDCD@parent?5?$CB?$DN?5?$CIchar?$CK?$CJNULL?$AA@ 100133b8     InvocationAdapter.obj
 0002:000003d0       ??_C@_0CE@BMNGMKPL@WARNING?3?5unable?5to?5canonicalize?5@ 100133d0     InvocationAdapter.obj
 0002:000003f4       ??_C@_0BL@EGNHKKEM@?$CIvoid?$CK?$CJpath?5?$CB?$DN?5?$CIvoid?$CK?$CJNULL?$AA@ 100133f4     InvocationAdapter.obj
 0002:00000410       ??_C@_0DJ@KAMKBHCJ@WARNING?3?5illegal?5character?5in?5Bo@ 10013410     InvocationAdapter.obj
 0002:0000044c       ??_C@_0BE@JIIENKGJ@path?5?$CB?$DN?5?$CIchar?$CK?$CJNULL?$AA@ 1001344c     InvocationAdapter.obj
 0002:00000460       ??_C@_0DO@FCLCEKPM@java?4lang?4instrument?1?9javaagent?3@ 10013460     InvocationAdapter.obj
 0002:000004a0       ??_C@_0EJ@MNINEPDM@java?4lang?4instrument?1?9javaagent?3@ 100134a0     InvocationAdapter.obj
 0002:000004ec       ??_C@_0DG@GEFLELM@java?4lang?4instrument?1?9javaagent?3@ 100134ec     InvocationAdapter.obj
 0002:00000524       ??_C@_0CI@DPANPEKD@?9javaagent?3?5agent?5class?5not?5spec@ 10013524     InvocationAdapter.obj
 0002:0000054c       ??_C@_0DA@KPCNALNC@java?4lang?4instrument?1?9javaagent?3@ 1001354c     InvocationAdapter.obj
 0002:0000057c       ??_C@_0BA@EEOHCMMC@Boot?9Class?9Path?$AA@ 1001357c     InvocationAdapter.obj
 0002:0000058c       ??_C@_0CG@MGGAPOHH@?9javaagent?3?5memory?5allocation?5fa@ 1001358c     InvocationAdapter.obj
 0002:000005b4       ??_C@_0DH@NNDEJOON@Failed?5to?5find?5Premain?9Class?5man@ 100135b4     InvocationAdapter.obj
 0002:000005ec       ??_C@_0O@FJIJHIPN@Premain?9Class?$AA@ 100135ec     InvocationAdapter.obj
 0002:000005fc       ??_C@_0DF@GEAEBGFM@Error?5opening?5zip?5file?5or?5JAR?5ma@ 100135fc     InvocationAdapter.obj
 0002:00000634       ??_C@_0CI@HNHEPCMG@?9javaagent?3?5memory?5allocation?5fa@ 10013634     InvocationAdapter.obj
 0002:0000065c       ??_C@_0BI@FNNMMHD@Agent?5failed?5to?5start?$CB?6?$AA@ 1001365c     InvocationAdapter.obj
 0002:00000674       ??_C@_07IPNMCAN@success?$AA@ 10013674     InvocationAdapter.obj
 0002:00000680       ??_C@_0GG@HGIJBLPF@Unable?5to?5add?5?$CFs?5to?5system?5class@ 10013680     InvocationAdapter.obj
 0002:000006e8       ??_C@_0DH@DADPHJGN@Failed?5to?5find?5Agent?9Class?5manif@ 100136e8     InvocationAdapter.obj
 0002:00000720       ??_C@_0M@HHCNJNFE@Agent?9Class?$AA@ 10013720     InvocationAdapter.obj
 0002:0000072c       ??_C@_0DE@KGGELLFG@Error?5opening?5zip?5file?5or?5JAR?5ma@ 1001372c     InvocationAdapter.obj
 0002:00000760       ??_C@_0P@CKGKOICP@result?$DN?$DNJNI_OK?$AA@ 10013760     InvocationAdapter.obj
 0002:00000770       ??_C@_0CD@EAGMGAOH@environment?9?$DOmJVMTIEnv?5?$DN?$DN?5jvmtie@ 10013770     JPLISAgent.obj
 0002:00000794       ??_C@_0BE@JEGDIMFH@environment?5?$CB?$DN?5NULL?$AA@ 10013794     JPLISAgent.obj
 0002:000007a8       ??_C@_0BP@JFPONFCF@jvmtierror?5?$DN?$DN?5JVMTI_ERROR_NONE?$AA@ 100137a8     JPLISAgent.obj
 0002:000007c8       ??_C@_0CL@DAELLLBE@?4?4?1?4?4?1?4?4?1src?1share?1instrument?1JP@ 100137c8     JPLISAgent.obj
 0002:000007f4       ??_C@_0BO@LKBEMJID@can?8t?5find?5transform?5methodID?$AA@ 100137f4     JPLISAgent.obj
 0002:00000814       ??_C@_09IFONHNKG@transform?$AA@ 10013814     JPLISAgent.obj
 0002:00000820       ??_C@_0GC@CPEKEAKP@?$CILjava?1lang?1ClassLoader?$DLLjava?1la@ 10013820     JPLISAgent.obj
 0002:00000884       ??_C@_0CG@DOGNAPEF@can?8t?5find?5agentmain?5invoker?5met@ 10013884     JPLISAgent.obj
 0002:000008ac       ??_C@_0BK@JAOFMOJK@loadClassAndCallAgentmain?$AA@ 100138ac     JPLISAgent.obj
 0002:000008c8       ??_C@_0CE@KECKFJKE@can?8t?5find?5premain?5invoker?5metho@ 100138c8     JPLISAgent.obj
 0002:000008ec       ??_C@_0BI@MHLLCGNO@loadClassAndCallPremain?$AA@ 100138ec     JPLISAgent.obj
 0002:00000904       ??_C@_0CI@HEGLGDKJ@?$CILjava?1lang?1String?$DLLjava?1lang?1St@ 10013904     JPLISAgent.obj
 0002:0000092c       ??_C@_0BN@KICHEFJM@copy?5local?5ref?5to?5global?5ref?$AA@ 1001392c     JPLISAgent.obj
 0002:0000094c       ??_C@_0CP@HELLCCDH@call?5constructor?5on?5Instrumentat@ 1001394c     JPLISAgent.obj
 0002:0000097c       ??_C@_0CP@DNJEEBBF@find?5constructor?5on?5Instrumentat@ 1001397c     JPLISAgent.obj
 0002:000009ac       ??_C@_06FALKBLGB@?$DMinit?$DO?$AA@ 100139ac     JPLISAgent.obj
 0002:000009b4       ??_C@_06DNGMMBGB@?$CIJZZ?$CJV?$AA@ 100139b4     JPLISAgent.obj
 0002:000009bc       ??_C@_0BC@NFAEECCL@?$CBerrorOutstanding?$AA@ 100139bc     JPLISAgent.obj
 0002:000009d0       ??_C@_0CJ@HOIGMIGF@find?5class?5on?5InstrumentationImp@ 100139d0     JPLISAgent.obj
 0002:000009fc       ??_C@_0CD@FJABNFOF@sun?1instrument?1InstrumentationIm@ 100139fc     JPLISAgent.obj
 0002:00000a20       ??_C@_0CB@GCBHBCEC@can?8t?5create?5options?5java?5string@ 10013a20     JPLISAgent.obj
 0002:00000a44       ??_C@_0CE@NNNMFAHP@can?8t?5create?5class?5name?5java?5str@ 10013a44     JPLISAgent.obj
 0002:00000a68       ??_C@_0BK@OLJIPBJG@mainCallingMethod?5?$CB?$DN?5NULL?$AA@ 10013a68     JPLISAgent.obj
 0002:00000a88       ??_C@_0EK@NBNNLAGF@jvmtierror?5?$DN?$DN?5JVMTI_ERROR_NONE?5?$HM@ 10013a88     JPLISAgent.obj
 0002:00000ad4       ??_C@_0BM@CLGDMLIA@can?8t?5get?5byte?5array?5region?$AA@ 10013ad4     JPLISAgent.obj
 0002:00000af0       ??_C@_0BN@KNPJDEBO@can?8t?5allocate?5result?5buffer?$AA@ 10013af0     JPLISAgent.obj
 0002:00000b10       ??_C@_0BH@DDPAAIBF@can?8t?5get?5array?5length?$AA@ 10013b10     JPLISAgent.obj
 0002:00000b28       ??_C@_0BN@JDJGIEH@transform?5method?5call?5failed?$AA@ 10013b28     JPLISAgent.obj
 0002:00000b48       ??_C@_0BK@GEFGBHIE@agent?9?$DOmTransform?5?$CB?$DN?5NULL?$AA@ 10013b48     JPLISAgent.obj
 0002:00000b64       ??_C@_0CE@NCFBINFF@agent?9?$DOmInstrumentationImpl?5?$CB?$DN?5N@ 10013b64     JPLISAgent.obj
 0002:00000b88       ??_C@_0BM@NODFBCMB@can?8t?5set?5byte?5array?5region?$AA@ 10013b88     JPLISAgent.obj
 0002:00000ba4       ??_C@_0BI@PGLGLBA@can?8t?5create?5byte?5arrau?$AA@ 10013ba4     JPLISAgent.obj
 0002:00000bbc       ??_C@_0BJ@OFPEOMG@can?8t?5create?5name?5string?$AA@ 10013bbc     JPLISAgent.obj
 0002:00000bd8       ??_C@_0DA@MJOAEAPC@java?1lang?1instrument?1Unmodifiabl@ 10013bd8     JPLISAgent.obj
 0002:00000c08       ??_C@_0CB@KCPANAMN@java?1lang?1ClassNotFoundException@ 10013c08     JPLISAgent.obj
 0002:00000c2c       ??_C@_0CF@PBJJFPHF@?$CBisUnchecked?$CIjnienv?0?5throwableTo@ 10013c2c     JPLISAgent.obj
 0002:00000c54       ??_C@_0BK@JCFBFKNG@isSafeForJNICalls?$CIjnienv?$CJ?$AA@ 10013c54     JPLISAgent.obj
 0002:00000c70       ??_C@_0BD@BNJLEHDL@localArray?5?$CB?$DN?5NULL?$AA@ 10013c70     JPLISAgent.obj
 0002:00000c84       ??_C@_0CD@NMCFBNHK@NewObjectArray?5returned?5null?5arr@ 10013c84     JPLISAgent.obj
 0002:00000ca8       ??_C@_0BI@JLMJJPLE@classArrayClass?5?$CB?$DN?5NULL?$AA@ 10013ca8     JPLISAgent.obj
 0002:00000cc0       ??_C@_0BO@GBLMHFAI@FindClass?5returned?5null?5class?$AA@ 10013cc0     JPLISAgent.obj
 0002:00000ce0       ??_C@_0BA@JJLOPNCP@java?1lang?1Class?$AA@ 10013ce0     JPLISAgent.obj
 0002:00000cf0       ??_C@_0CI@MJAJKCDF@jvmtierror?5?$DN?$DN?5JVMTI_ERROR_NOT_AV@ 10013cf0     JPLISAgent.obj
 0002:00000d18       ??_C@_0BJ@EJCHPAPK@retransformerEnv?5?$CB?$DN?5NULL?$AA@ 10013d18     JPLISAgent.obj
 0002:00000d34       ??_C@_0BK@HBLAKIEB@classArray?$FLindex?$FN?5?$CB?$DN?5NULL?$AA@ 10013d34     JPLISAgent.obj
 0002:00000d50       ??_C@_0BA@DHKCDHMI@numClasses?5?$CB?$DN?50?$AA@ 10013d50     JPLISAgent.obj
 0002:00000d60       ??_C@_0P@IBHCMEIB@?$CBerrorOccurred?$AA@ 10013d60     JPLISAgent.obj
 0002:00000d70       ??_C@_0BA@DKKKAEPC@classes?5?$CB?$DN?5NULL?$AA@ 10013d70     JPLISAgent.obj
 0002:00000d80       ??_C@_0BH@FOGLHNOO@getDefinitionClassFile?$AA@ 10013d80     JPLISAgent.obj
 0002:00000d98       ??_C@_04LHPAGAEF@?$CI?$CJ?$FLB?$AA@ 10013d98     JPLISAgent.obj
 0002:00000da0       ??_C@_0BD@FFKMDMBN@getDefinitionClass?$AA@ 10013da0     JPLISAgent.obj
 0002:00000db4       ??_C@_0BE@IIFEGCLG@?$CI?$CJLjava?1lang?1Class?$DL?$AA@ 10013db4     JPLISAgent.obj
 0002:00000dc8       ??_C@_0CF@BGAIILOJ@java?1lang?1instrument?1ClassDefini@ 10013dc8     JPLISAgent.obj
 0002:00000df0       ??_C@_0M@KGLONNBG@numDefs?5?$DO?50?$AA@ 10013df0     JPLISAgent.obj
 0002:00000dfc       ??_C@_0BJ@NGKAGHPG@classDefinitions?5?$CB?$DN?5NULL?$AA@ 10013dfc     JPLISAgent.obj
 0002:00000e18       ??_C@_0BE@NLJNCPBN@prefixArray?5?$CB?$DN?5NULL?$AA@ 10013e18     JPLISAgent.obj
 0002:00000e2c       ??_C@_06KJFADLGN@result?$AA@ 10013e2c     JPLISAgent.obj
 0002:00000e38       ??_C@_0EE@FPMMKFJK@?$CK?$CK?$CK?5java?4lang?4instrument?5ASSERTI@ 10013e38     JPLISAssert.obj
 0002:00000e80       ??_C@_0FE@HCMNEDKA@?$CK?$CK?$CK?5java?4lang?4instrument?5ASSERTI@ 10013e80     JPLISAssert.obj
 0002:00000ed4       ??_C@_0BL@IONOAEOO@java?1lang?1RuntimeException?$AA@ 10013ed4     JavaExceptions.obj
 0002:00000ef0       ??_C@_0BA@NOLMKEPF@java?1lang?1Error?$AA@ 10013ef0     JavaExceptions.obj
 0002:00000f00       ??_C@_0CP@LFJNJIKP@?4?4?1?4?4?1?4?4?1src?1share?1instrument?1Ja@ 10013f00     JavaExceptions.obj
 0002:00000f30       ??_C@_0BB@EJBOEPOM@result?5?$DN?$DN?5JNI_OK?$AA@ 10013f30     JavaExceptions.obj
 0002:00000f44       ??_C@_0CC@GKBBLNKJ@throwThrowable?5failed?5to?5re?9thro@ 10013f44     JavaExceptions.obj
 0002:00000f68       ??_C@_0BG@IKDDPPGD@?$CILjava?1lang?1String?$DL?$CJV?$AA@ 10013f68     JavaExceptions.obj
 0002:00000f80       ??_C@_0BC@HKCJMFCP@className?5?$CB?$DN?5NULL?$AA@ 10013f80     JavaExceptions.obj
 0002:00000f94       ??_C@_0BI@NBLNIHIB@java?1lang?1InternalError?$AA@ 10013f94     JavaExceptions.obj
 0002:00000fac       ??_C@_0CD@MOHADDFA@java?1lang?1IllegalArgumentExcepti@ 10013fac     JavaExceptions.obj
 0002:00000fd0       ??_C@_0BG@JKFIFBMN@unsupported?5operation?$AA@ 10013fd0     JavaExceptions.obj
 0002:00000fe8       ??_C@_0BL@ENCPOIKC@java?1lang?1OutOfMemoryError?$AA@ 10013fe8     JavaExceptions.obj
 0002:00001004       ??_C@_0BP@GJLHLAKJ@java?1lang?1NullPointerException?$AA@ 10014004     JavaExceptions.obj
 0002:00001024       ??_C@_0BI@MAPDCENK@class?5names?5don?8t?5match?$AA@ 10014024     JavaExceptions.obj
 0002:0000103c       ??_C@_0BP@NAHGIHIH@java?1lang?1NoClassDefFoundError?$AA@ 1001403c     JavaExceptions.obj
 0002:00001060       ??_C@_0ED@PPHPPFFE@class?5redefinition?5failed?3?5attem@ 10014060     JavaExceptions.obj
 0002:000010a8       ??_C@_0EA@INKOHMMN@class?5redefinition?5failed?3?5attem@ 100140a8     JavaExceptions.obj
 0002:000010e8       ??_C@_0CH@DNCLOIOF@java?1lang?1UnsupportedClassVersio@ 100140e8     JavaExceptions.obj
 0002:00001110       ??_C@_0EO@LOHFEPOO@class?5redefinition?5failed?3?5attem@ 10014110     JavaExceptions.obj
 0002:00001160       ??_C@_0EI@PJGIIEAK@class?5redefinition?5failed?3?5attem@ 10014160     JavaExceptions.obj
 0002:000011a8       ??_C@_0DI@KJLEIONK@class?5redefinition?5failed?3?5attem@ 100141a8     JavaExceptions.obj
 0002:000011e0       ??_C@_0DF@IFGMNJBO@class?5redefinition?5failed?3?5attem@ 100141e0     JavaExceptions.obj
 0002:00001218       ??_C@_0CI@LDDEGNGM@java?1lang?1UnsupportedOperationEx@ 10014218     JavaExceptions.obj
 0002:00001240       ??_C@_0CD@LAOKENHO@can?8t?5create?5exception?5java?5stri@ 10014240     JavaExceptions.obj
 0002:00001264       ??_C@_0CJ@DNCKJBBE@class?5redefinition?5failed?3?5inval@ 10014264     JavaExceptions.obj
 0002:00001290       ??_C@_0BL@EEAIAIEG@java?1lang?1ClassFormatError?$AA@ 10014290     JavaExceptions.obj
 0002:000012ac       ??_C@_0CA@OCDKFHGJ@java?1lang?1ClassCircularityError?$AA@ 100142ac     JavaExceptions.obj
 0002:000012cc       ??_C@_0BG@FNCILCAN@java?1lang?1VerifyError?$AA@ 100142cc     JavaExceptions.obj
 0002:000012e4       ??_C@_08JCDFGHAO@toString?$AA@ 100142e4     JavaExceptions.obj
 0002:000012f0       ??_C@_0BF@FOHFOJOB@?$CI?$CJLjava?1lang?1String?$DL?$AA@ 100142f0     JavaExceptions.obj
 0002:00001308       ??_C@_0BH@EKGMOCH@throwableToMap?5?$CB?$DN?5NULL?$AA@ 10014308     JavaExceptions.obj
 0002:00001320       ??_C@_02DKJMBEPB@?$DL?1?$AA@ 10014320     PathCharsValidator.obj
 0002:00001324       ??_C@_07DDNJCNOL@?3?$EA?$CG?$DN?$CL$?0?$AA@ 10014324     PathCharsValidator.obj
 0002:0000132c       ??_C@_09HLKPJHCC@?9_?4?$CB?$HO?$CK?8?$CI?$CJ?$AA@ 1001432c     PathCharsValidator.obj
 0002:00001338       ??_C@_0BB@LLFPNPAC@test?5?$DN?$DN?5expected?$AA@ 10014338     Reentrancy.obj
 0002:0000134c       ??_C@_0BK@PPCACBKK@error?5?$DN?$DN?5JVMTI_ERROR_NONE?$AA@ 1001434c     Reentrancy.obj
 0002:00001368       ??_C@_0CL@OMKKEECN@?4?4?1?4?4?1?4?4?1src?1share?1instrument?1Re@ 10014368     Reentrancy.obj
 0002:00001394       ??_C@_0CK@FBPHPNPB@?4?4?1?4?4?1?4?4?1src?1share?1instrument?1Ut@ 10014394     Utilities.obj
 0002:000013c0       ??_C@_0BI@NNKHJJFO@Can?8t?5deallocate?5memory?$AA@ 100143c0     Utilities.obj
 0002:000013d8       ??_C@_0BF@LACNODFI@META?9INF?1MANIFEST?4MF?$AA@ 100143d8     jli:parse_manifest.obj
 0002:000013f0       ??_C@_05GDHACFMB@1?42?43?$AA@ 100143f0     jli:parse_manifest.obj
 0002:000013f8       ??_C@_02LIIHNNHG@?6?$AN?$AA@ 100143f8     jli:parse_manifest.obj
 0002:00001ca8       ??_C@_0BH@FGKKJGOC@incorrect?5length?5check?$AA@ 10014ca8     jli:inflate.obj
 0002:00001cc0       ??_C@_0BF@MEIGEHBE@incorrect?5data?5check?$AA@ 10014cc0     jli:inflate.obj
 0002:00001cd8       ??_C@_0BO@ECPMAOGG@invalid?5distance?5too?5far?5back?$AA@ 10014cd8     jli:inflate.obj
 0002:00001cf8       ??_C@_0BG@LBKINIKP@invalid?5distance?5code?$AA@ 10014cf8     jli:inflate.obj
 0002:00001d10       ??_C@_0BM@FFFLPBBC@invalid?5literal?1length?5code?$AA@ 10014d10     jli:inflate.obj
 0002:00001d2c       ??_C@_0BG@GMDFCBGP@invalid?5distances?5set?$AA@ 10014d2c     jli:inflate.obj
 0002:00001d44       ??_C@_0BM@IIMGAINC@invalid?5literal?1lengths?5set?$AA@ 10014d44     jli:inflate.obj
 0002:00001d60       ??_C@_0BK@BMMPFBBH@invalid?5bit?5length?5repeat?$AA@ 10014d60     jli:inflate.obj
 0002:00001d7c       ??_C@_0BJ@HDEPPGOH@invalid?5code?5lengths?5set?$AA@ 10014d7c     jli:inflate.obj
 0002:00001d98       ??_C@_0CE@GMIGFPBB@too?5many?5length?5or?5distance?5symb@ 10014d98     jli:inflate.obj
 0002:00001dbc       ??_C@_0BN@LGAADGOK@invalid?5stored?5block?5lengths?$AA@ 10014dbc     jli:inflate.obj
 0002:00001ddc       ??_C@_0BD@PJCBIDD@invalid?5block?5type?$AA@ 10014ddc     jli:inflate.obj
 0002:00001df0       ??_C@_0BE@GONKLEPM@header?5crc?5mismatch?$AA@ 10014df0     jli:inflate.obj
 0002:00001e04       ??_C@_0BJ@BLBBCOMO@unknown?5header?5flags?5set?$AA@ 10014e04     jli:inflate.obj
 0002:00001e20       ??_C@_0BH@LIBMMIGA@incorrect?5header?5check?$AA@ 10014e20     jli:inflate.obj
 0002:00001e38       ??_C@_0BE@EMOGCLGO@invalid?5window?5size?$AA@ 10014e38     jli:inflate.obj
 0002:00001e4c       ??_C@_0BL@IHKGDAEE@unknown?5compression?5method?$AA@ 10014e4c     jli:inflate.obj
 0002:00001e68       ??_C@_0BF@CJFPCCEG@incompatible?5version?$AA@ 10014e68     jli:zutil.obj
 0002:00001e80       ??_C@_0N@DFPGLBGC@buffer?5error?$AA@ 10014e80     jli:zutil.obj
 0002:00001e90       ??_C@_0BE@OGGJBMCE@insufficient?5memory?$AA@ 10014e90     jli:zutil.obj
 0002:00001ea4       ??_C@_0L@HAHMBNLP@data?5error?$AA@ 10014ea4     jli:zutil.obj
 0002:00001eb0       ??_C@_0N@MKKNPMJD@stream?5error?$AA@ 10014eb0     jli:zutil.obj
 0002:00001ec0       ??_C@_0L@KIJFAKBJ@file?5error?$AA@ 10014ec0     jli:zutil.obj
 0002:00001ecb       ??_C@_00CNPNBAHC@?$AA@     10014ecb     jli:zutil.obj
 0002:00001ecc       ??_C@_0L@FNAOCBOG@stream?5end?$AA@ 10014ecc     jli:zutil.obj
 0002:00001ed8       ??_C@_0BA@MOKMMFOD@need?5dictionary?$AA@ 10014ed8     jli:zutil.obj
 0002:00001ee8       _z_errmsg                  10014ee8     jli:zutil.obj
 0002:00001f10       _inflate_copyright         10014f10     jli:inftrees.obj
 0002:00004040       __pRawDllMain              10017040     LIBCMT:dllcrt0.obj
 0002:00004040       __pDefaultRawDllMain       10017040     LIBCMT:dllcrt0.obj
 0002:00004044       ??_C@_0P@MIGLKIOC@CorExitProcess?$AA@ 10017044     LIBCMT:crt0dat.obj
 0002:00004054       ??_C@_1BI@BGOHAHKC@?$AAm?$AAs?$AAc?$AAo?$AAr?$AAe?$AAe?$AA?4?$AAd?$AAl?$AAl?$AA?$AA@ 10017054     LIBCMT:crt0dat.obj
 0002:0000406c       ??_C@_1BO@BKOMIGKJ@?$AAr?$AAu?$AAn?$AAt?$AAi?$AAm?$AAe?$AA?5?$AAe?$AAr?$AAr?$AAo?$AAr?$AA?5?$AA?$AA@ 1001706c     LIBCMT:crt0msg.obj
 0002:0000408c       ??_C@_15JNBOKNOG@?$AA?$AN?$AA?6?$AA?$AA@ 1001708c     LIBCMT:crt0msg.obj
 0002:00004094       ??_C@_1BM@JBBEPPHI@?$AAT?$AAL?$AAO?$AAS?$AAS?$AA?5?$AAe?$AAr?$AAr?$AAo?$AAr?$AA?$AN?$AA?6?$AA?$AA@ 10017094     LIBCMT:crt0msg.obj
 0002:000040b0       ??_C@_1BK@KMOMNAAI@?$AAS?$AAI?$AAN?$AAG?$AA?5?$AAe?$AAr?$AAr?$AAo?$AAr?$AA?$AN?$AA?6?$AA?$AA@ 100170b0     LIBCMT:crt0msg.obj
 0002:000040cc       ??_C@_1BO@BFCDCGC@?$AAD?$AAO?$AAM?$AAA?$AAI?$AAN?$AA?5?$AAe?$AAr?$AAr?$AAo?$AAr?$AA?$AN?$AA?6?$AA?$AA@ 100170cc     LIBCMT:crt0msg.obj
 0002:000040f0       ??_C@_1BOO@KGEDBGAJ@?$AAR?$AA6?$AA0?$AA3?$AA3?$AA?$AN?$AA?6?$AA?9?$AA?5?$AAA?$AAt?$AAt?$AAe?$AAm?$AAp?$AAt?$AA?5?$AAt?$AAo?$AA?5?$AAu?$AAs?$AAe?$AA?5?$AAM?$AAS?$AAI?$AAL?$AA?5?$AAc?$AAo?$AAd@ 100170f0     LIBCMT:crt0msg.obj
 0002:000042e0       ??_C@_1GG@GOPILAJP@?$AAR?$AA6?$AA0?$AA3?$AA2?$AA?$AN?$AA?6?$AA?9?$AA?5?$AAn?$AAo?$AAt?$AA?5?$AAe?$AAn?$AAo?$AAu?$AAg?$AAh?$AA?5?$AAs?$AAp?$AAa?$AAc?$AAe?$AA?5?$AAf?$AAo?$AAr?$AA?5?$AAl?$AAo@ 100172e0     LIBCMT:crt0msg.obj
 0002:00004348       ??_C@_1MG@ENCOOIDF@?$AAR?$AA6?$AA0?$AA3?$AA1?$AA?$AN?$AA?6?$AA?9?$AA?5?$AAA?$AAt?$AAt?$AAe?$AAm?$AAp?$AAt?$AA?5?$AAt?$AAo?$AA?5?$AAi?$AAn?$AAi?$AAt?$AAi?$AAa?$AAl?$AAi?$AAz?$AAe?$AA?5?$AAt@ 10017348     LIBCMT:crt0msg.obj
 0002:00004410       ??_C@_1DO@BMFCDCD@?$AAR?$AA6?$AA0?$AA3?$AA0?$AA?$AN?$AA?6?$AA?9?$AA?5?$AAC?$AAR?$AAT?$AA?5?$AAn?$AAo?$AAt?$AA?5?$AAi?$AAn?$AAi?$AAt?$AAi?$AAa?$AAl?$AAi?$AAz?$AAe?$AAd?$AA?$AN?$AA?6?$AA?$AA@ 10017410     LIBCMT:crt0msg.obj
 0002:00004450       ??_C@_1EK@HHFLMAOL@?$AAR?$AA6?$AA0?$AA2?$AA8?$AA?$AN?$AA?6?$AA?9?$AA?5?$AAu?$AAn?$AAa?$AAb?$AAl?$AAe?$AA?5?$AAt?$AAo?$AA?5?$AAi?$AAn?$AAi?$AAt?$AAi?$AAa?$AAl?$AAi?$AAz?$AAe?$AA?5?$AAh?$AAe@ 10017450     LIBCMT:crt0msg.obj
 0002:000044a0       ??_C@_1GK@MFGOKLAG@?$AAR?$AA6?$AA0?$AA2?$AA7?$AA?$AN?$AA?6?$AA?9?$AA?5?$AAn?$AAo?$AAt?$AA?5?$AAe?$AAn?$AAo?$AAu?$AAg?$AAh?$AA?5?$AAs?$AAp?$AAa?$AAc?$AAe?$AA?5?$AAf?$AAo?$AAr?$AA?5?$AAl?$AAo@ 100174a0     LIBCMT:crt0msg.obj
 0002:00004510       ??_C@_1GK@MCAAGJMO@?$AAR?$AA6?$AA0?$AA2?$AA6?$AA?$AN?$AA?6?$AA?9?$AA?5?$AAn?$AAo?$AAt?$AA?5?$AAe?$AAn?$AAo?$AAu?$AAg?$AAh?$AA?5?$AAs?$AAp?$AAa?$AAc?$AAe?$AA?5?$AAf?$AAo?$AAr?$AA?5?$AAs?$AAt@ 10017510     LIBCMT:crt0msg.obj
 0002:00004580       ??_C@_1EM@MAADIHMB@?$AAR?$AA6?$AA0?$AA2?$AA5?$AA?$AN?$AA?6?$AA?9?$AA?5?$AAp?$AAu?$AAr?$AAe?$AA?5?$AAv?$AAi?$AAr?$AAt?$AAu?$AAa?$AAl?$AA?5?$AAf?$AAu?$AAn?$AAc?$AAt?$AAi?$AAo?$AAn?$AA?5?$AAc@ 10017580     LIBCMT:crt0msg.obj
 0002:000045d0       ??_C@_1GK@FHCKBEFA@?$AAR?$AA6?$AA0?$AA2?$AA4?$AA?$AN?$AA?6?$AA?9?$AA?5?$AAn?$AAo?$AAt?$AA?5?$AAe?$AAn?$AAo?$AAu?$AAg?$AAh?$AA?5?$AAs?$AAp?$AAa?$AAc?$AAe?$AA?5?$AAf?$AAo?$AAr?$AA?5?$AA_?$AAo@ 100175d0     LIBCMT:crt0msg.obj
 0002:00004640       ??_C@_1FC@ECHBIFBC@?$AAR?$AA6?$AA0?$AA1?$AA9?$AA?$AN?$AA?6?$AA?9?$AA?5?$AAu?$AAn?$AAa?$AAb?$AAl?$AAe?$AA?5?$AAt?$AAo?$AA?5?$AAo?$AAp?$AAe?$AAn?$AA?5?$AAc?$AAo?$AAn?$AAs?$AAo?$AAl?$AAe?$AA?5@ 10017640     LIBCMT:crt0msg.obj
 0002:00004698       ??_C@_1EC@JIBHAOPH@?$AAR?$AA6?$AA0?$AA1?$AA8?$AA?$AN?$AA?6?$AA?9?$AA?5?$AAu?$AAn?$AAe?$AAx?$AAp?$AAe?$AAc?$AAt?$AAe?$AAd?$AA?5?$AAh?$AAe?$AAa?$AAp?$AA?5?$AAe?$AAr?$AAr?$AAo?$AAr?$AA?$AN?$AA?6@ 10017698     LIBCMT:crt0msg.obj
 0002:000046e0       ??_C@_1FK@BEOGODMC@?$AAR?$AA6?$AA0?$AA1?$AA7?$AA?$AN?$AA?6?$AA?9?$AA?5?$AAu?$AAn?$AAe?$AAx?$AAp?$AAe?$AAc?$AAt?$AAe?$AAd?$AA?5?$AAm?$AAu?$AAl?$AAt?$AAi?$AAt?$AAh?$AAr?$AAe?$AAa?$AAd?$AA?5@ 100176e0     LIBCMT:crt0msg.obj
 0002:00004740       ??_C@_1FI@LOGNIKDM@?$AAR?$AA6?$AA0?$AA1?$AA6?$AA?$AN?$AA?6?$AA?9?$AA?5?$AAn?$AAo?$AAt?$AA?5?$AAe?$AAn?$AAo?$AAu?$AAg?$AAh?$AA?5?$AAs?$AAp?$AAa?$AAc?$AAe?$AA?5?$AAf?$AAo?$AAr?$AA?5?$AAt?$AAh@ 10017740     LIBCMT:crt0msg.obj
 0002:00004798       ??_C@_1EG@BEHAGFJD@?$AAR?$AA6?$AA0?$AA1?$AA0?$AA?$AN?$AA?6?$AA?9?$AA?5?$AAa?$AAb?$AAo?$AAr?$AAt?$AA?$CI?$AA?$CJ?$AA?5?$AAh?$AAa?$AAs?$AA?5?$AAb?$AAe?$AAe?$AAn?$AA?5?$AAc?$AAa?$AAl?$AAl?$AAe?$AAd@ 10017798     LIBCMT:crt0msg.obj
 0002:000047e0       ??_C@_1FI@HONFMGBI@?$AAR?$AA6?$AA0?$AA0?$AA9?$AA?$AN?$AA?6?$AA?9?$AA?5?$AAn?$AAo?$AAt?$AA?5?$AAe?$AAn?$AAo?$AAu?$AAg?$AAh?$AA?5?$AAs?$AAp?$AAa?$AAc?$AAe?$AA?5?$AAf?$AAo?$AAr?$AA?5?$AAe?$AAn@ 100177e0     LIBCMT:crt0msg.obj
 0002:00004838       ??_C@_1FE@LLNEDJMD@?$AAR?$AA6?$AA0?$AA0?$AA8?$AA?$AN?$AA?6?$AA?9?$AA?5?$AAn?$AAo?$AAt?$AA?5?$AAe?$AAn?$AAo?$AAu?$AAg?$AAh?$AA?5?$AAs?$AAp?$AAa?$AAc?$AAe?$AA?5?$AAf?$AAo?$AAr?$AA?5?$AAa?$AAr@ 10017838     LIBCMT:crt0msg.obj
 0002:00004890       ??_C@_1FK@PGACCAFB@?$AAR?$AA6?$AA0?$AA0?$AA2?$AA?$AN?$AA?6?$AA?9?$AA?5?$AAf?$AAl?$AAo?$AAa?$AAt?$AAi?$AAn?$AAg?$AA?5?$AAp?$AAo?$AAi?$AAn?$AAt?$AA?5?$AAs?$AAu?$AAp?$AAp?$AAo?$AAr?$AAt?$AA?5@ 10017890     LIBCMT:crt0msg.obj
 0002:000049a0       ??_C@_1EK@MBDPDCGA@?$AAM?$AAi?$AAc?$AAr?$AAo?$AAs?$AAo?$AAf?$AAt?$AA?5?$AAV?$AAi?$AAs?$AAu?$AAa?$AAl?$AA?5?$AAC?$AA?$CL?$AA?$CL?$AA?5?$AAR?$AAu?$AAn?$AAt?$AAi?$AAm?$AAe?$AA?5?$AAL?$AAi?$AAb@ 100179a0     LIBCMT:crt0msg.obj
 0002:000049ec       ??_C@_15IABLJNFO@?$AA?6?$AA?6?$AA?$AA@ 100179ec     LIBCMT:crt0msg.obj
 0002:000049f4       ??_C@_17LGKOMLJ@?$AA?4?$AA?4?$AA?4?$AA?$AA@ 100179f4     LIBCMT:crt0msg.obj
 0002:000049fc       ??_C@_1CO@EAEJAADC@?$AA?$DM?$AAp?$AAr?$AAo?$AAg?$AAr?$AAa?$AAm?$AA?5?$AAn?$AAa?$AAm?$AAe?$AA?5?$AAu?$AAn?$AAk?$AAn?$AAo?$AAw?$AAn?$AA?$DO?$AA?$AA@ 100179fc     LIBCMT:crt0msg.obj
 0002:00004a2c       ??_C@_1DE@JNGNBFGO@?$AAR?$AAu?$AAn?$AAt?$AAi?$AAm?$AAe?$AA?5?$AAE?$AAr?$AAr?$AAo?$AAr?$AA?$CB?$AA?6?$AA?6?$AAP?$AAr?$AAo?$AAg?$AAr?$AAa?$AAm?$AA?3?$AA?5?$AA?$AA@ 10017a2c     LIBCMT:crt0msg.obj
 0002:00004a68       ??_C@_1O@CEDCILHN@?$AA?$CI?$AAn?$AAu?$AAl?$AAl?$AA?$CJ?$AA?$AA@ 10017a68     LIBCMT:output.obj
 0002:00004a78       ??_C@_06OJHGLDPL@?$CInull?$CJ?$AA@ 10017a78     LIBCMT:output.obj
 0002:00004a80       ___lookuptable             10017a80     LIBCMT:output.obj
 0002:00004adc       ??_C@_1BC@GDGBMEMK@?$AAH?$AAH?$AA?3?$AAm?$AAm?$AA?3?$AAs?$AAs?$AA?$AA@ 10017adc     LIBCMT:nlsdata2.obj
 0002:00004af0       ??_C@_1CI@KNAKOEBC@?$AAd?$AAd?$AAd?$AAd?$AA?0?$AA?5?$AAM?$AAM?$AAM?$AAM?$AA?5?$AAd?$AAd?$AA?0?$AA?5?$AAy?$AAy?$AAy?$AAy?$AA?$AA@ 10017af0     LIBCMT:nlsdata2.obj
 0002:00004b18       ??_C@_1BC@IEBCMHCM@?$AAM?$AAM?$AA?1?$AAd?$AAd?$AA?1?$AAy?$AAy?$AA?$AA@ 10017b18     LIBCMT:nlsdata2.obj
 0002:00004b2c       ??_C@_15CLMNNGEL@?$AAP?$AAM?$AA?$AA@ 10017b2c     LIBCMT:nlsdata2.obj
 0002:00004b34       ??_C@_15ODEHAHHF@?$AAA?$AAM?$AA?$AA@ 10017b34     LIBCMT:nlsdata2.obj
 0002:00004b3c       ??_C@_1BC@FEMKIFH@?$AAD?$AAe?$AAc?$AAe?$AAm?$AAb?$AAe?$AAr?$AA?$AA@ 10017b3c     LIBCMT:nlsdata2.obj
 0002:00004b50       ??_C@_1BC@BGLIFPF@?$AAN?$AAo?$AAv?$AAe?$AAm?$AAb?$AAe?$AAr?$AA?$AA@ 10017b50     LIBCMT:nlsdata2.obj
 0002:00004b64       ??_C@_1BA@EPANDLNG@?$AAO?$AAc?$AAt?$AAo?$AAb?$AAe?$AAr?$AA?$AA@ 10017b64     LIBCMT:nlsdata2.obj
 0002:00004b74       ??_C@_1BE@DKAAMBJL@?$AAS?$AAe?$AAp?$AAt?$AAe?$AAm?$AAb?$AAe?$AAr?$AA?$AA@ 10017b74     LIBCMT:nlsdata2.obj
 0002:00004b88       ??_C@_1O@PAHLKOAC@?$AAA?$AAu?$AAg?$AAu?$AAs?$AAt?$AA?$AA@ 10017b88     LIBCMT:nlsdata2.obj
 0002:00004b98       ??_C@_19BIFMLPCD@?$AAJ?$AAu?$AAl?$AAy?$AA?$AA@ 10017b98     LIBCMT:nlsdata2.obj
 0002:00004ba4       ??_C@_19EPFLPGAP@?$AAJ?$AAu?$AAn?$AAe?$AA?$AA@ 10017ba4     LIBCMT:nlsdata2.obj
 0002:00004bb0       ??_C@_1M@GJNLMHFD@?$AAA?$AAp?$AAr?$AAi?$AAl?$AA?$AA@ 10017bb0     LIBCMT:nlsdata2.obj
 0002:00004bbc       ??_C@_1M@IKEENEDF@?$AAM?$AAa?$AAr?$AAc?$AAh?$AA?$AA@ 10017bbc     LIBCMT:nlsdata2.obj
 0002:00004bc8       ??_C@_1BC@JGDDFFAM@?$AAF?$AAe?$AAb?$AAr?$AAu?$AAa?$AAr?$AAy?$AA?$AA@ 10017bc8     LIBCMT:nlsdata2.obj
 0002:00004bdc       ??_C@_1BA@EFMEIEBA@?$AAJ?$AAa?$AAn?$AAu?$AAa?$AAr?$AAy?$AA?$AA@ 10017bdc     LIBCMT:nlsdata2.obj
 0002:00004bec       ??_C@_17EGKACKIF@?$AAD?$AAe?$AAc?$AA?$AA@ 10017bec     LIBCMT:nlsdata2.obj
 0002:00004bf4       ??_C@_17BBDMLCIG@?$AAN?$AAo?$AAv?$AA?$AA@ 10017bf4     LIBCMT:nlsdata2.obj
 0002:00004bfc       ??_C@_17FNLKOI@?$AAO?$AAc?$AAt?$AA?$AA@ 10017bfc     LIBCMT:nlsdata2.obj
 0002:00004c04       ??_C@_17HCHCOKMG@?$AAS?$AAe?$AAp?$AA?$AA@ 10017c04     LIBCMT:nlsdata2.obj
 0002:00004c0c       ??_C@_17ICPELBCN@?$AAA?$AAu?$AAg?$AA?$AA@ 10017c0c     LIBCMT:nlsdata2.obj
 0002:00004c14       ??_C@_17IJPCKHK@?$AAJ?$AAu?$AAl?$AA?$AA@ 10017c14     LIBCMT:nlsdata2.obj
 0002:00004c1c       ??_C@_17KCJGOCPB@?$AAJ?$AAu?$AAn?$AA?$AA@ 10017c1c     LIBCMT:nlsdata2.obj
 0002:00004c24       ??_C@_17PNNKMEED@?$AAM?$AAa?$AAy?$AA?$AA@ 10017c24     LIBCMT:nlsdata2.obj
 0002:00004c2c       ??_C@_17LFPOIHDD@?$AAA?$AAp?$AAr?$AA?$AA@ 10017c2c     LIBCMT:nlsdata2.obj
 0002:00004c34       ??_C@_17CKNLEDEC@?$AAM?$AAa?$AAr?$AA?$AA@ 10017c34     LIBCMT:nlsdata2.obj
 0002:00004c3c       ??_C@_17LMDJEKJN@?$AAF?$AAe?$AAb?$AA?$AA@ 10017c3c     LIBCMT:nlsdata2.obj
 0002:00004c44       ??_C@_17DKNBKCHM@?$AAJ?$AAa?$AAn?$AA?$AA@ 10017c44     LIBCMT:nlsdata2.obj
 0002:00004c4c       ??_C@_1BC@ENMNNPAJ@?$AAS?$AAa?$AAt?$AAu?$AAr?$AAd?$AAa?$AAy?$AA?$AA@ 10017c4c     LIBCMT:nlsdata2.obj
 0002:00004c60       ??_C@_1O@PDICJHAG@?$AAF?$AAr?$AAi?$AAd?$AAa?$AAy?$AA?$AA@ 10017c60     LIBCMT:nlsdata2.obj
 0002:00004c70       ??_C@_1BC@HHMNLIHE@?$AAT?$AAh?$AAu?$AAr?$AAs?$AAd?$AAa?$AAy?$AA?$AA@ 10017c70     LIBCMT:nlsdata2.obj
 0002:00004c84       ??_C@_1BE@EBOGMDOH@?$AAW?$AAe?$AAd?$AAn?$AAe?$AAs?$AAd?$AAa?$AAy?$AA?$AA@ 10017c84     LIBCMT:nlsdata2.obj
 0002:00004c98       ??_C@_1BA@ENFBFFEK@?$AAT?$AAu?$AAe?$AAs?$AAd?$AAa?$AAy?$AA?$AA@ 10017c98     LIBCMT:nlsdata2.obj
 0002:00004ca8       ??_C@_1O@MMNBFLIA@?$AAM?$AAo?$AAn?$AAd?$AAa?$AAy?$AA?$AA@ 10017ca8     LIBCMT:nlsdata2.obj
 0002:00004cb8       ??_C@_1O@IHNHDHPB@?$AAS?$AAu?$AAn?$AAd?$AAa?$AAy?$AA?$AA@ 10017cb8     LIBCMT:nlsdata2.obj
 0002:00004cc8       ??_C@_17GGIBDPIH@?$AAS?$AAa?$AAt?$AA?$AA@ 10017cc8     LIBCMT:nlsdata2.obj
 0002:00004cd0       ??_C@_17HFOLPPLP@?$AAF?$AAr?$AAi?$AA?$AA@ 10017cd0     LIBCMT:nlsdata2.obj
 0002:00004cd8       ??_C@_17PDPHAADD@?$AAT?$AAh?$AAu?$AA?$AA@ 10017cd8     LIBCMT:nlsdata2.obj
 0002:00004ce0       ??_C@_17CJEDCEPE@?$AAW?$AAe?$AAd?$AA?$AA@ 10017ce0     LIBCMT:nlsdata2.obj
 0002:00004ce8       ??_C@_17BMKGEGOJ@?$AAT?$AAu?$AAe?$AA?$AA@ 10017ce8     LIBCMT:nlsdata2.obj
 0002:00004cf0       ??_C@_17KBOMKBF@?$AAM?$AAo?$AAn?$AA?$AA@ 10017cf0     LIBCMT:nlsdata2.obj
 0002:00004cf8       ??_C@_17MBGCMIPB@?$AAS?$AAu?$AAn?$AA?$AA@ 10017cf8     LIBCMT:nlsdata2.obj
 0002:00004d00       ??_C@_08JCCMCCIL@HH?3mm?3ss?$AA@ 10017d00     LIBCMT:nlsdata2.obj
 0002:00004d0c       ??_C@_0BE@CKGJFCPC@dddd?0?5MMMM?5dd?0?5yyyy?$AA@ 10017d0c     LIBCMT:nlsdata2.obj
 0002:00004d20       ??_C@_08BPBNCDIB@MM?1dd?1yy?$AA@ 10017d20     LIBCMT:nlsdata2.obj
 0002:00004d2c       ??_C@_02CJNFDJBF@PM?$AA@   10017d2c     LIBCMT:nlsdata2.obj
 0002:00004d30       ??_C@_02DEDBPAFC@AM?$AA@   10017d30     LIBCMT:nlsdata2.obj
 0002:00004d34       ??_C@_08EDHMEBNP@December?$AA@ 10017d34     LIBCMT:nlsdata2.obj
 0002:00004d40       ??_C@_08HCHEGEOA@November?$AA@ 10017d40     LIBCMT:nlsdata2.obj
 0002:00004d4c       ??_C@_07JJNFCEND@October?$AA@ 10017d4c     LIBCMT:nlsdata2.obj
 0002:00004d54       ??_C@_09BHHEALKD@September?$AA@ 10017d54     LIBCMT:nlsdata2.obj
 0002:00004d60       ??_C@_06LBBHFDDG@August?$AA@ 10017d60     LIBCMT:nlsdata2.obj
 0002:00004d68       ??_C@_04MIEPOIFP@July?$AA@ 10017d68     LIBCMT:nlsdata2.obj
 0002:00004d70       ??_C@_04CNLMGBGM@June?$AA@ 10017d70     LIBCMT:nlsdata2.obj
 0002:00004d78       ??_C@_05DMJDNLEJ@April?$AA@ 10017d78     LIBCMT:nlsdata2.obj
 0002:00004d80       ??_C@_05HPCKOFNC@March?$AA@ 10017d80     LIBCMT:nlsdata2.obj
 0002:00004d88       ??_C@_08GNJGEPFN@February?$AA@ 10017d88     LIBCMT:nlsdata2.obj
 0002:00004d94       ??_C@_07CGJPFGJA@January?$AA@ 10017d94     LIBCMT:nlsdata2.obj
 0002:00004d9c       ??_C@_03MKABNOCG@Dec?$AA@  10017d9c     LIBCMT:nlsdata2.obj
 0002:00004da0       ??_C@_03JPJOFNIA@Nov?$AA@  10017da0     LIBCMT:nlsdata2.obj
 0002:00004da4       ??_C@_03BMAOKBAD@Oct?$AA@  10017da4     LIBCMT:nlsdata2.obj
 0002:00004da8       ??_C@_03GGCAPAJC@Sep?$AA@  10017da8     LIBCMT:nlsdata2.obj
 0002:00004dac       ??_C@_03IFJFEIGA@Aug?$AA@  10017dac     LIBCMT:nlsdata2.obj
 0002:00004db0       ??_C@_03LBGABGKK@Jul?$AA@  10017db0     LIBCMT:nlsdata2.obj
 0002:00004db4       ??_C@_03IDFGHECI@Jun?$AA@  10017db4     LIBCMT:nlsdata2.obj
 0002:00004db8       ??_C@_03CNMDKL@May?$AA@    10017db8     LIBCMT:nlsdata2.obj
 0002:00004dbc       ??_C@_03LEOLGMJP@Apr?$AA@  10017dbc     LIBCMT:nlsdata2.obj
 0002:00004dc0       ??_C@_03ODNJBKGA@Mar?$AA@  10017dc0     LIBCMT:nlsdata2.obj
 0002:00004dc4       ??_C@_03HJBDCHOM@Feb?$AA@  10017dc4     LIBCMT:nlsdata2.obj
 0002:00004dc8       ??_C@_03JIHJHPIE@Jan?$AA@  10017dc8     LIBCMT:nlsdata2.obj
 0002:00004dcc       ??_C@_08INBOOONO@Saturday?$AA@ 10017dcc     LIBCMT:nlsdata2.obj
 0002:00004dd8       ??_C@_06JECMNKMI@Friday?$AA@ 10017dd8     LIBCMT:nlsdata2.obj
 0002:00004de0       ??_C@_08HACCIKIA@Thursday?$AA@ 10017de0     LIBCMT:nlsdata2.obj
 0002:00004dec       ??_C@_09DLIGFAKA@Wednesday?$AA@ 10017dec     LIBCMT:nlsdata2.obj
 0002:00004df8       ??_C@_07BAAGCFCM@Tuesday?$AA@ 10017df8     LIBCMT:nlsdata2.obj
 0002:00004e00       ??_C@_06JLEDEDGH@Monday?$AA@ 10017e00     LIBCMT:nlsdata2.obj
 0002:00004e08       ??_C@_06OOPIFAJ@Sunday?$AA@ 10017e08     LIBCMT:nlsdata2.obj
 0002:00004e10       ??_C@_03FEFJNEK@Sat?$AA@   10017e10     LIBCMT:nlsdata2.obj
 0002:00004e14       ??_C@_03IDIOELNC@Fri?$AA@  10017e14     LIBCMT:nlsdata2.obj
 0002:00004e18       ??_C@_03IOFIKPDN@Thu?$AA@  10017e18     LIBCMT:nlsdata2.obj
 0002:00004e1c       ??_C@_03MHOMLAJA@Wed?$AA@  10017e1c     LIBCMT:nlsdata2.obj
 0002:00004e20       ??_C@_03NAGEINEP@Tue?$AA@  10017e20     LIBCMT:nlsdata2.obj
 0002:00004e24       ??_C@_03PDAGKDH@Mon?$AA@   10017e24     LIBCMT:nlsdata2.obj
 0002:00004e28       ??_C@_03KOEHGMDN@Sun?$AA@  10017e28     LIBCMT:nlsdata2.obj
 0002:00004e2c       ??_C@_1BK@DBDEIDLH@?$AAK?$AAE?$AAR?$AAN?$AAE?$AAL?$AA3?$AA2?$AA?4?$AAD?$AAL?$AAL?$AA?$AA@ 10017e2c     LIBCMT:tidtable.obj
 0002:00004e48       ??_C@_07PEJMOBNF@FlsFree?$AA@ 10017e48     LIBCMT:tidtable.obj
 0002:00004e50       ??_C@_0M@JCPCPOEF@FlsSetValue?$AA@ 10017e50     LIBCMT:tidtable.obj
 0002:00004e5c       ??_C@_0M@GDNOONDI@FlsGetValue?$AA@ 10017e5c     LIBCMT:tidtable.obj
 0002:00004e68       ??_C@_08KNHFBNJ@FlsAlloc?$AA@ 10017e68     LIBCMT:tidtable.obj
 0002:00004ef8       __XcptActTab               10017ef8     LIBCMT:winxfltr.obj
 0002:00004f88       __First_FPE_Indx           10017f88     LIBCMT:winxfltr.obj
 0002:00004f8c       __Num_FPE                  10017f8c     LIBCMT:winxfltr.obj
 0002:00004f90       __XcptActTabSize           10017f90     LIBCMT:winxfltr.obj
 0002:00004f94       __XcptActTabCount          10017f94     LIBCMT:winxfltr.obj
 0002:00004f98       ??_C@_0BI@DFKBFLJE@GetProcessWindowStation?$AA@ 10017f98     LIBCMT:crtmboxw.obj
 0002:00004fb0       ??_C@_0BK@DEKFELLI@GetUserObjectInformationW?$AA@ 10017fb0     LIBCMT:crtmboxw.obj
 0002:00004fcc       ??_C@_0BD@HHGDFDBJ@GetLastActivePopup?$AA@ 10017fcc     LIBCMT:crtmboxw.obj
 0002:00004fe0       ??_C@_0BA@HNOPNCHB@GetActiveWindow?$AA@ 10017fe0     LIBCMT:crtmboxw.obj
 0002:00004ff0       ??_C@_0M@DLDCCGNP@MessageBoxW?$AA@ 10017ff0     LIBCMT:crtmboxw.obj
 0002:00004ffc       ??_C@_1BG@GOEBHBDC@?$AAU?$AAS?$AAE?$AAR?$AA3?$AA2?$AA?4?$AAD?$AAL?$AAL?$AA?$AA@ 10017ffc     LIBCMT:crtmboxw.obj
 0002:00005018       ___lookuptable_s           10018018     LIBCMT:outputs.obj
 0002:00005078       ___newctype                10018078     LIBCMT:ctype.obj
 0002:00005378       __wctype                   10018378     LIBCMT:ctype.obj
 0002:00005580       ___newclmap                10018580     LIBCMT:ctype.obj
 0002:00005700       ___newcumap                10018700     LIBCMT:ctype.obj
 0002:00005880       ??_C@_1BA@BALFACEM@?$AAC?$AAO?$AAN?$AAO?$AAU?$AAT?$AA$?$AA?$AA@ 10018880     LIBCMT:initcon.obj
 0002:00005890       __load_config_used         10018890     LIBCMT:loadcfg.obj
 0002:00005960       ___safe_se_handler_table   10018960     <linker-defined>
 0002:0000596c       ___rtc_iaa                 1001896c     LIBCMT:_initsect_.obj
 0002:00005970       ___rtc_izz                 10018970     LIBCMT:_initsect_.obj
 0002:00005974       ___rtc_taa                 10018974     LIBCMT:_initsect_.obj
 0002:00005978       ___rtc_tzz                 10018978     LIBCMT:_initsect_.obj
 0002:00005cfc       __IMPORT_DESCRIPTOR_KERNEL32 10018cfc     kernel32:KERNEL32.dll
 0002:00005d10       __NULL_IMPORT_DESCRIPTOR   10018d10     kernel32:KERNEL32.dll
 0003:00000004       ___security_cookie         1001a004     LIBCMT:gs_cookie.obj
 0003:00000008       ___security_cookie_complement 1001a008     LIBCMT:gs_cookie.obj
 0003:00000010       __iob                      1001a010     LIBCMT:_file.obj
 0003:00000400       ___nullstring              1001a400     LIBCMT:output.obj
 0003:00000404       ___wnullstring             1001a404     LIBCMT:output.obj
 0003:00000408       ___badioinfo               1001a408     LIBCMT:ioinit.obj
 0003:00000570       ___initialmbcinfo          1001a570     LIBCMT:mbctype.obj
 0003:00000790       __mbctype                  1001a790     LIBCMT:mbctype.obj
 0003:00000898       __mbcasemap                1001a898     LIBCMT:mbctype.obj
 0003:00000998       ___ptmbcinfo               1001a998     LIBCMT:mbctype.obj
 0003:00000a90       ___globallocalestatus      1001aa90     LIBCMT:glstatus.obj
 0003:00000a94       ___clocalestr              1001aa94     LIBCMT:nlsdata2.obj
 0003:00000a98       ___lc_time_c               1001aa98     LIBCMT:nlsdata2.obj
 0003:00000c00       ___initiallocinfo          1001ac00     LIBCMT:nlsdata2.obj
 0003:00000cd8       ___ptlocinfo               1001acd8     LIBCMT:nlsdata2.obj
 0003:00000cdc       ___initiallocalestructinfo 1001acdc     LIBCMT:nlsdata2.obj
 0003:00000ce4       ___flsindex                1001ace4     LIBCMT:tidtable.obj
 0003:00000ce8       ___getvalueindex           1001ace8     LIBCMT:tidtable.obj
 0003:00000cf0       __cfltcvt_tab              1001acf0     LIBCMT:cmiscdat.obj
 0003:00000d20       ___lconv_static_decimal    1001ad20     LIBCMT:lconv.obj
 0003:00000d24       ___lconv_static_W_decimal  1001ad24     LIBCMT:lconv.obj
 0003:00000d28       ___lconv_c                 1001ad28     LIBCMT:lconv.obj
 0003:00000d78       ___lconv                   1001ad78     LIBCMT:lconv.obj
 0003:00000d7c       __pctype                   1001ad7c     LIBCMT:ctype.obj
 0003:00000d80       __pwctype                  1001ad80     LIBCMT:ctype.obj
 0003:00000d84       ___mb_cur_max              1001ad84     LIBCMT:nlsdata1.obj
 0003:00000d88       ___decimal_point           1001ad88     LIBCMT:nlsdata1.obj
 0003:00000d8c       ___decimal_point_length    1001ad8c     LIBCMT:nlsdata1.obj
 0003:00000d90       ___abort_behavior          1001ad90     LIBCMT:abort.obj
 0003:00000da0       __NLG_Destination          1001ada0     LIBCMT:exsup.obj
 0003:00000db0       __confh                    1001adb0     LIBCMT:initcon.obj
 0003:00000dc0       __lookuptrailbytes         1001adc0     LIBCMT:read.obj
 0003:00000eec       __cflush                   1001aeec     LIBCMT:_file.obj
 0003:00000ef4       __aenvptr                  1001aef4     LIBCMT:dllcrt0.obj
 0003:00000ef8       __wenvptr                  1001aef8     LIBCMT:dllcrt0.obj
 0003:00000efc       ___error_mode              1001aefc     LIBCMT:dllcrt0.obj
 0003:00000f00       ___app_type                1001af00     LIBCMT:dllcrt0.obj
 0003:00000f04       __crtheap                  1001af04     LIBCMT:heapinit.obj
 0003:00000f08       __umaskval                 1001af08     LIBCMT:crt0dat.obj
 0003:00000f0c       ___argc                    1001af0c     LIBCMT:crt0dat.obj
 0003:00000f10       ___argv                    1001af10     LIBCMT:crt0dat.obj
 0003:00000f14       ___wargv                   1001af14     LIBCMT:crt0dat.obj
 0003:00000f18       __environ                  1001af18     LIBCMT:crt0dat.obj
 0003:00000f1c       ___initenv                 1001af1c     LIBCMT:crt0dat.obj
 0003:00000f20       __wenviron                 1001af20     LIBCMT:crt0dat.obj
 0003:00000f24       ___winitenv                1001af24     LIBCMT:crt0dat.obj
 0003:00000f28       __pgmptr                   1001af28     LIBCMT:crt0dat.obj
 0003:00000f2c       __wpgmptr                  1001af2c     LIBCMT:crt0dat.obj
 0003:00000f30       __exitflag                 1001af30     LIBCMT:crt0dat.obj
 0003:00000f34       __C_Termination_Done       1001af34     LIBCMT:crt0dat.obj
 0003:00000f38       __C_Exit_Done              1001af38     LIBCMT:crt0dat.obj
 0003:00001568       ?_pnhHeap@@3P6AHI@ZA       1001b568     LIBCMT:handler.obj
 0003:0000156c       __newmode                  1001b56c     LIBCMT:_newmode.obj
 0003:00001894       __stdbuf                   1001b894     LIBCMT:_sftbuf.obj
 0003:0000189c       ___pInvalidArgHandler      1001b89c     LIBCMT:invarg.obj
 0003:000018a0       __maxwait                  1001b8a0     LIBCMT:crtheap.obj
 0003:000019fc       ___mbulinfo                1001b9fc     LIBCMT:mbctype.obj
 0003:00001a08       ___mbcodepage              1001ba08     LIBCMT:mbctype.obj
 0003:00001a0c       ___ismbcodepage            1001ba0c     LIBCMT:mbctype.obj
 0003:00001a10       ___mblcid                  1001ba10     LIBCMT:mbctype.obj
 0003:00001a14       _gpFlsAlloc                1001ba14     LIBCMT:tidtable.obj
 0003:00001a18       _gpFlsGetValue             1001ba18     LIBCMT:tidtable.obj
 0003:00001a1c       _gpFlsSetValue             1001ba1c     LIBCMT:tidtable.obj
 0003:00001a20       _gpFlsFree                 1001ba20     LIBCMT:tidtable.obj
 0003:00001a24       ___locale_changed          1001ba24     LIBCMT:setlocal.obj
 0003:00001b30       ?__pInconsistency@@3P6AXXZA 1001bb30     LIBCMT:hooks.obj
 0003:00001b4c       ___pPurecall               1001bb4c     LIBCMT:inithelp.obj
 0003:00001b68       ___lconv_static_null       1001bb68     LIBCMT:lconv.obj
 0003:00001b6c       ___lconv_static_W_null     1001bb6c     LIBCMT:lconv.obj
 0003:00001b70       __fmode                    1001bb70     LIBCMT:txtmode.obj
 0003:00001b74       __debugger_hook_dummy      1001bb74     <common>
 0003:00001b78       __pDestructExceptionObject 1001bb78     <common>
 0003:00001b7c       __nhandle                  1001bb7c     <common>
 0003:00001b80       ___pioinfo                 1001bb80     <common>
 0003:00001c80       ___sse2_available          1001bc80     <common>
 0003:00001c84       ___env_initialized         1001bc84     <common>
 0003:00001c88       ___onexitend               1001bc88     <common>
 0003:00001c8c       ___onexitbegin             1001bc8c     <common>
 0003:00001c90       ___mbctype_initialized     1001bc90     <common>
 0003:00001c94       __FPinit                   1001bc94     <common>
 0003:00001c98       ___dyn_tls_init_callback   1001bc98     <common>
 0003:00001c9c       __acmdln                   1001bc9c     <common>
 0003:00001ca0       ___piob                    1001bca0     <common>
 0003:00001cc0       __bufin                    1001bcc0     <common>
 0003:00002cc0       __nstream                  1001ccc0     <common>

 entry point at        0001:00007c68

 Static symbols

 0001:00000307       _isSlash                   10001307 f   FileSystemSupport_md.obj
 0001:00000371       _normalizePrefix           10001371 f   FileSystemSupport_md.obj
 0001:00000406       _normalizePath             10001406 f   FileSystemSupport_md.obj
 0001:00000802       _parseArgumentTail         10001802 f   InvocationAdapter.obj
 0001:000009d3       _splitPathList             100019d3 f   InvocationAdapter.obj
 0001:00000a57       _decodeNibble              10001a57 f   InvocationAdapter.obj
 0001:00000a88       _decodePath                10001a88 f   InvocationAdapter.obj
 0001:00000b68       _appendClassPath           10001b68 f   InvocationAdapter.obj
 0001:00000c1f       _appendBootClassPath       10001c1f f   InvocationAdapter.obj
 0001:0000139f       _doAttribute               1000239f f   JarFacade.obj
 0001:0000379f       _lowMask                   1000479f f   PathCharsValidator.obj
 0001:000037e3       _highMask                  100047e3 f   PathCharsValidator.obj
 0001:0000382a       _highMaskRange             1000482a f   PathCharsValidator.obj
 0001:0000389c       _match                     1000489c f   PathCharsValidator.obj
 0001:000038ea       _initialize                100048ea f   PathCharsValidator.obj
 0001:00003db7       _cp                        10004db7 f   canonicalize_md.obj
 0001:00003df5       _nextsep                   10004df5 f   canonicalize_md.obj
 0001:0000414c       _inflate_file              1000514c f   jli:parse_manifest.obj
 0001:00004261       _find_end                  10005261 f   jli:parse_manifest.obj
 0001:00004396       _find_file                 10005396 f   jli:parse_manifest.obj
 0001:000046ce       _parse_nv_pair             100056ce f   jli:parse_manifest.obj
 0001:00004962       _updatewindow              10005962 f   jli:inflate.obj
 0001:000066d1       _crc32_little              100076d1 f   jli:zcrc32.obj
 0001:00007b72       ___DllMainCRTStartup       10008b72 f   LIBCMT:dllcrt0.obj
 0001:00009705       _doexit                    1000a705 f   LIBCMT:crt0dat.obj
 0001:00009acd       ?strtoxl@@YAKPAUlocaleinfo_struct@@PBDPAPBDHH@Z 1000aacd f   LIBCMT:strtol.obj
 0001:0000a08e       _write_char                1000b08e f   LIBCMT:output.obj
 0001:0000a0c1       _write_string              1000b0c1 f   LIBCMT:output.obj
 0001:0000b55a       _flsall                    1000c55a f   LIBCMT:fflush.obj
 0001:0000b7ea       ?CPtoLCID@@YAHH@Z          1000c7ea f   LIBCMT:mbctype.obj
 0001:0000b819       ?setSBCS@@YAXPAUthreadmbcinfostruct@@@Z 1000c819 f   LIBCMT:mbctype.obj
 0001:0000b87d       ?setSBUpLow@@YAXPAUthreadmbcinfostruct@@@Z 1000c87d f   LIBCMT:mbctype.obj
 0001:0000bab1       ?getSystemCP@@YAHH@Z       1000cab1 f   LIBCMT:mbctype.obj
 0001:0000c87b       ?__crtLCMapStringA_stat@@YAHPAUlocaleinfo_struct@@KKPBDHPADHHH@Z 1000d87b f   LIBCMT:a_map.obj
 0001:0000cd96       _parse_cmdline             1000dd96 f   LIBCMT:stdargv.obj
 0001:0000d341       _siglookup                 1000e341 f   LIBCMT:winsig.obj
 0001:0000d546       __onexit_nolock            1000e546 f   LIBCMT:onexit.obj
 0001:0000e000       __unwind_handler4          1000f000 f   LIBCMT:exsup4.obj
 0001:0000ea4d       ?__crtGetStringTypeA_stat@@YAHPAUlocaleinfo_struct@@KPBDHPAGHHH@Z 1000fa4d f   LIBCMT:a_str.obj
 0001:0000f29a       ?x_ismbbtype_l@@YAHPAUlocaleinfo_struct@@IHH@Z 1001029a f   LIBCMT:ismbbyte.obj
 0001:0000f550       __unwind_handler           10010550 f   LIBCMT:exsup.obj
 0001:00010911       __tsopen_nolock            10011911 f   LIBCMT:open.obj
