 jsoundds

 Timestamp is 4dff5e26 (Mon Jun 20 07:50:14 2011)

 Preferred load address is 10000000

 Start         Length     Name                   Class
 0001:00000000 00003406H .text                   CODE
 0001:00003406 00000016H .text$yc                CODE
 0001:0000341c 0000000aH .text$yd                CODE
 0002:00000000 000000f0H .idata$5                DATA
 0002:000000f0 00000004H .CRT$XCA                DATA
 0002:000000f4 00000004H .CRT$XCU                DATA
 0002:000000f8 00000004H .CRT$XCZ                DATA
 0002:000000fc 00000004H .CRT$XIA                DATA
 0002:00000100 00000004H .CRT$XIAA               DATA
 0002:00000104 00000004H .CRT$XIC                DATA
 0002:00000108 00000004H .CRT$XIZ                DATA
 0002:00000110 000001b8H .rdata                  DATA
 0002:000002c8 00000072H .rdata$debug            DATA
 0002:00000340 00000004H .rdata$sxdata           DATA
 0002:00000344 00000004H .rtc$IAA                DATA
 0002:00000348 00000004H .rtc$IZZ                DATA
 0002:0000034c 00000004H .rtc$TAA                DATA
 0002:00000350 00000004H .rtc$TZZ                DATA
 0002:00000358 00000064H .xdata$x                DATA
 0002:000003bc 00000078H .idata$2                DATA
 0002:00000434 00000014H .idata$3                DATA
 0002:00000448 000000f0H .idata$4                DATA
 0002:00000538 000003d2H .idata$6                DATA
 0002:00000910 000004d9H .edata                  DATA
 0003:00000000 00000028H .data                   DATA
 0003:00000028 00000b14H .bss                    DATA
 0004:00000000 00000058H .rsrc$01                DATA
 0004:00000060 00000308H .rsrc$02                DATA

  Address         Publics by Value              Rva+Base       Lib:Object

 0000:00000000       __except_list              00000000     <absolute>
 0000:00000001       ___safe_se_handler_count   00000001     <absolute>
 0000:00009876       __ldused                   00009876     <absolute>
 0000:00009876       __fltused                  00009876     <absolute>
 0000:00000000       ___ImageBase               10000000     <linker-defined>
 0001:00000000       _getDirectAudioDeviceDescription 10001000 f   DirectAudioDeviceProvider.obj
 0001:0000005f       _Java_com_sun_media_sound_DirectAudioDeviceProvider_nGetNumDevices@8 1000105f f   DirectAudioDeviceProvider.obj
 0001:00000067       _Java_com_sun_media_sound_DirectAudioDeviceProvider_nNewDirectAudioDeviceInfo@12 10001067 f   DirectAudioDeviceProvider.obj
 0001:0000014d       _MAP_ClipAndConvertToShort 1000114d f i DirectAudioDevice.obj
 0001:00000166       _MAP_ClipAndConvertToShort_Swapped 10001166 f i DirectAudioDevice.obj
 0001:00000199       _MAP_ClipAndConvertToByte  10001199 f i DirectAudioDevice.obj
 0001:000001b5       _MAP_ClipAndConvertToUByte 100011b5 f i DirectAudioDevice.obj
 0001:000001d4       _handleSignEndianConversion 100011d4 f   DirectAudioDevice.obj
 0001:000002bc       _handleGainAndConversion   100012bc f   DirectAudioDevice.obj
 0001:00001588       _ABS_VALUE                 10002588 f   DirectAudioDevice.obj
 0001:000015a4       _DAUDIO_AddAudioFormat     100025a4 f   DirectAudioDevice.obj
 0001:00001602       _Java_com_sun_media_sound_DirectAudioDevice_nGetFormats@24 10002602 f   DirectAudioDevice.obj
 0001:00001650       _Java_com_sun_media_sound_DirectAudioDevice_nOpen@52 10002650 f   DirectAudioDevice.obj
 0001:000016eb       _Java_com_sun_media_sound_DirectAudioDevice_nStart@20 100026eb f   DirectAudioDevice.obj
 0001:0000170a       _Java_com_sun_media_sound_DirectAudioDevice_nStop@20 1000270a f   DirectAudioDevice.obj
 0001:00001729       _Java_com_sun_media_sound_DirectAudioDevice_nClose@20 10002729 f   DirectAudioDevice.obj
 0001:00001761       _Java_com_sun_media_sound_DirectAudioDevice_nWrite@40 10002761 f   DirectAudioDevice.obj
 0001:00001919       _Java_com_sun_media_sound_DirectAudioDevice_nRead@32 10002919 f   DirectAudioDevice.obj
 0001:00001999       _Java_com_sun_media_sound_DirectAudioDevice_nGetBufferSize@20 10002999 f   DirectAudioDevice.obj
 0001:000019bb       _Java_com_sun_media_sound_DirectAudioDevice_nIsStillDraining@20 100029bb f   DirectAudioDevice.obj
 0001:000019e2       _Java_com_sun_media_sound_DirectAudioDevice_nFlush@20 100029e2 f   DirectAudioDevice.obj
 0001:00001a01       _Java_com_sun_media_sound_DirectAudioDevice_nAvailable@20 10002a01 f   DirectAudioDevice.obj
 0001:00001a23       _Java_com_sun_media_sound_DirectAudioDevice_nGetBytePosition@28 10002a23 f   DirectAudioDevice.obj
 0001:00001a4d       _Java_com_sun_media_sound_DirectAudioDevice_nSetBytePosition@28 10002a4d f   DirectAudioDevice.obj
 0001:00001a75       _Java_com_sun_media_sound_DirectAudioDevice_nRequiresServicing@20 10002a75 f   DirectAudioDevice.obj
 0001:00001a96       _Java_com_sun_media_sound_DirectAudioDevice_nService@20 10002a96 f   DirectAudioDevice.obj
 0001:00001ab5       ?isEqualGUID@@YAHPAU_GUID@@0@Z 10002ab5 f   PLATFORM_API_WinOS_DirectSound.obj
 0001:00001aef       ?findCacheItemByGUID@@YAHPAU_GUID@@H@Z 10002aef f   PLATFORM_API_WinOS_DirectSound.obj
 0001:00001b2f       ?findCacheItemByMixerIndex@@YAHH@Z 10002b2f f   PLATFORM_API_WinOS_DirectSound.obj
 0001:00001b56       ?DS_RefreshCacheEnum@@YGHPAU_GUID@@PBD1PAUDS_RefreshCacheStruct@@@Z 10002b56 f   PLATFORM_API_WinOS_DirectSound.obj
 0001:00001bda       _DAUDIO_GetDirectAudioDeviceCount 10002bda f   PLATFORM_API_WinOS_DirectSound.obj
 0001:00001cc6       ?DS_GetDescEnum@@YGHPAU_GUID@@PBD1PAUtag_DirectAudioDeviceDescription@@@Z 10002cc6 f   PLATFORM_API_WinOS_DirectSound.obj
 0001:00001d0a       _DAUDIO_GetDirectAudioDeviceDescription 10002d0a f   PLATFORM_API_WinOS_DirectSound.obj
 0001:00001d74       _DAUDIO_GetFormats         10002d74 f   PLATFORM_API_WinOS_DirectSound.obj
 0001:00001e01       ??1Data@DS_StartBufferHelper@@QAE@XZ 10002e01 f   PLATFORM_API_WinOS_DirectSound.obj
 0001:00001e38       ?ThreadProc@DS_StartBufferHelper@@KGKPAX@Z 10002e38 f   PLATFORM_API_WinOS_DirectSound.obj
 0001:00001e9f       ?StartBuffer@DS_StartBufferHelper@@SAJPAUDS_Info@@@Z 10002e9f f   PLATFORM_API_WinOS_DirectSound.obj
 0001:00001ef2       ?DS_addPos@@YAHPAUDS_Info@@HH@Z 10002ef2 f i PLATFORM_API_WinOS_DirectSound.obj
 0001:00001f0a       ?DS_addDeviceRef@@YAHH@Z   10002f0a f   PLATFORM_API_WinOS_DirectSound.obj
 0001:00001fab       ?DS_removeDeviceRef@@YAXH@Z 10002fab f   PLATFORM_API_WinOS_DirectSound.obj
 0001:00001fe6       ?createWaveFormat@@YAXPAUWAVEFORMATEXTENSIBLE@@HHHH@Z 10002fe6 f   PLATFORM_API_WinOS_DirectSound.obj
 0001:0000208a       ?DS_clearBuffer@@YAXPAUDS_Info@@H@Z 1000308a f   PLATFORM_API_WinOS_DirectSound.obj
 0001:00002225       ?DS_createSoundBuffer@@YAPAXPAUDS_Info@@MHHH@Z 10003225 f   PLATFORM_API_WinOS_DirectSound.obj
 0001:00002316       ?DS_destroySoundBuffer@@YAXPAUDS_Info@@@Z 10003316 f   PLATFORM_API_WinOS_DirectSound.obj
 0001:0000233f       _DAUDIO_Open               1000333f f   PLATFORM_API_WinOS_DirectSound.obj
 0001:00002445       _DAUDIO_Start              10003445 f   PLATFORM_API_WinOS_DirectSound.obj
 0001:000024d3       _DAUDIO_Stop               100034d3 f   PLATFORM_API_WinOS_DirectSound.obj
 0001:000024f9       _DAUDIO_Close              100034f9 f   PLATFORM_API_WinOS_DirectSound.obj
 0001:0000251b       ?DS_CheckUnderrun@@YAXPAUDS_Info@@KK@Z 1000351b f   PLATFORM_API_WinOS_DirectSound.obj
 0001:00002552       ?DS_GetAvailable@@YAHPAUDS_Info@@PAK1PAHH@Z 10003552 f   PLATFORM_API_WinOS_DirectSound.obj
 0001:000026a6       _DAUDIO_Write              100036a6 f   PLATFORM_API_WinOS_DirectSound.obj
 0001:00002809       _DAUDIO_Read               10003809 f   PLATFORM_API_WinOS_DirectSound.obj
 0001:000028e5       _DAUDIO_GetBufferSize      100038e5 f   PLATFORM_API_WinOS_DirectSound.obj
 0001:000028ed       _DAUDIO_StillDraining      100038ed f   PLATFORM_API_WinOS_DirectSound.obj
 0001:00002921       _DAUDIO_Flush              10003921 f   PLATFORM_API_WinOS_DirectSound.obj
 0001:00002971       _DAUDIO_GetAvailable       10003971 f   PLATFORM_API_WinOS_DirectSound.obj
 0001:00002991       ?estimatePositionFromAvail@@YA_JPAUDS_Info@@_JHH@Z 10003991 f   PLATFORM_API_WinOS_DirectSound.obj
 0001:000029bd       _DAUDIO_GetBytePosition    100039bd f   PLATFORM_API_WinOS_DirectSound.obj
 0001:000029f0       _DAUDIO_SetBytePosition    100039f0 f   PLATFORM_API_WinOS_DirectSound.obj
 0001:000029f1       _DAUDIO_RequiresServicing  100039f1 f   PLATFORM_API_WinOS_DirectSound.obj
 0001:000029fb       _DAUDIO_Service            100039fb f   PLATFORM_API_WinOS_DirectSound.obj
 0001:00002a3c       ??0Data@DS_StartBufferHelper@@QAE@XZ 10003a3c f   PLATFORM_API_WinOS_DirectSound.obj
 0001:00002a8c       _DirectSoundCaptureEnumerateA@8 10003a8c f   dsound:DSOUND.dll
 0001:00002a92       _DirectSoundEnumerateA@8   10003a92 f   dsound:DSOUND.dll
 0001:00002a98       _DirectSoundCaptureCreate@12 10003a98 f   dsound:DSOUND.dll
 0001:00002a9e       _DirectSoundCreate@12      10003a9e f   dsound:DSOUND.dll
 0001:00002aa4       _strcpy                    10003aa4 f   MSVCRT:MSVCR100.dll
 0001:00002aaa       @__security_check_cookie@4 10003aaa f   MSVCRT:secchk.obj
 0001:00002ac0       __ftol2_sse                10003ac0 f   MSVCRT:ftol2.obj
 0001:00002ac9       __ftol2_pentium4           10003ac9 f   MSVCRT:ftol2.obj
 0001:00002adc       __ftol2_sse_excpt          10003adc f   MSVCRT:ftol2.obj
 0001:00002af6       __ftol2                    10003af6 f   MSVCRT:ftol2.obj
 0001:00002b6c       _memcmp                    10003b6c f   MSVCRT:MSVCR100.dll
 0001:00002b72       _memcpy                    10003b72 f   MSVCRT:MSVCR100.dll
 0001:00002b78       _memset                    10003b78 f   MSVCRT:MSVCR100.dll
 0001:00002b7e       __onexit                   10003b7e f   MSVCRT:atonexit.obj
 0001:00002c1f       _atexit                    10003c1f f   MSVCRT:atonexit.obj
 0001:00002c84       __CRT_INIT@12              10003c84 f   MSVCRT:crtdll.obj
 0001:00002fa4       __DllMainCRTStartup@12     10003fa4 f   MSVCRT:crtdll.obj
 0001:00002fc8       ___report_gsfailure        10003fc8 f   MSVCRT:gs_report.obj
 0001:000030ce       ___sse2_available_init     100040ce f   MSVCRT:cpu_disp.obj
 0001:000030de       __unlock                   100040de f   MSVCRT:MSVCR100.dll
 0001:000030e4       ___dllonexit               100040e4 f   MSVCRT:MSVCR100.dll
 0001:000030ea       __lock                     100040ea f   MSVCRT:MSVCR100.dll
 0001:000030f0       __SEH_prolog4              100040f0 f   MSVCRT:sehprolg4.obj
 0001:00003135       __SEH_epilog4              10004135 f   MSVCRT:sehprolg4.obj
 0001:00003149       __except_handler4          10004149 f   MSVCRT:chandler4gs.obj
 0001:0000316e       ___clean_type_info_names   1000416e f   MSVCRT:tncleanup.obj
 0001:0000317a       __RTC_Initialize           1000417a f   MSVCRT:_initsect_.obj
 0001:000031a0       __RTC_Terminate            100041a0 f   MSVCRT:_initsect_.obj
 0001:000031d0       __ValidateImageBase        100041d0 f   MSVCRT:pesect.obj
 0001:00003210       __FindPESection            10004210 f   MSVCRT:pesect.obj
 0001:00003260       __IsNonwritableInCurrentImage 10004260 f   MSVCRT:pesect.obj
 0001:0000331c       __initterm                 1000431c f   MSVCRT:MSVCR100.dll
 0001:00003322       __initterm_e               10004322 f   MSVCRT:MSVCR100.dll
 0001:00003328       __amsg_exit                10004328 f   MSVCRT:MSVCR100.dll
 0001:0000332e       ___CppXcptFilter           1000432e f   MSVCRT:MSVCR100.dll
 0001:00003334       _DllMain@12                10004334 f   MSVCRT:dllmain.obj
 0001:00003358       ___security_init_cookie    10004358 f   MSVCRT:gs_support.obj
 0001:000033f4       __crt_debugger_hook        100043f4 f   MSVCRT:MSVCR100.dll
 0001:000033fa       __except_handler4_common   100043fa f   MSVCRT:MSVCR100.dll
 0001:00003400       ___clean_type_info_names_internal 10004400 f   MSVCRT:MSVCR100.dll
 0002:00000000       __imp__DirectSoundEnumerateA@8 10005000     dsound:DSOUND.dll
 0002:00000004       __imp__DirectSoundCaptureCreate@12 10005004     dsound:DSOUND.dll
 0002:00000008       __imp__DirectSoundCreate@12 10005008     dsound:DSOUND.dll
 0002:0000000c       __imp__DirectSoundCaptureEnumerateA@8 1000500c     dsound:DSOUND.dll
 0002:00000010       \177DSOUND_NULL_THUNK_DATA 10005010     dsound:DSOUND.dll
 0002:00000014       __imp__GetSystemTimeAsFileTime@4 10005014     kernel32:KERNEL32.dll
 0002:00000018       __imp__GetCurrentProcessId@0 10005018     kernel32:KERNEL32.dll
 0002:0000001c       __imp__GetCurrentThreadId@0 1000501c     kernel32:KERNEL32.dll
 0002:00000020       __imp__GetTickCount@0      10005020     kernel32:KERNEL32.dll
 0002:00000024       __imp__QueryPerformanceCounter@4 10005024     kernel32:KERNEL32.dll
 0002:00000028       __imp__DisableThreadLibraryCalls@4 10005028     kernel32:KERNEL32.dll
 0002:0000002c       __imp__IsProcessorFeaturePresent@4 1000502c     kernel32:KERNEL32.dll
 0002:00000030       __imp__IsDebuggerPresent@0 10005030     kernel32:KERNEL32.dll
 0002:00000034       __imp__SetUnhandledExceptionFilter@4 10005034     kernel32:KERNEL32.dll
 0002:00000038       __imp__UnhandledExceptionFilter@4 10005038     kernel32:KERNEL32.dll
 0002:0000003c       __imp__GetCurrentProcess@0 1000503c     kernel32:KERNEL32.dll
 0002:00000040       __imp__TerminateProcess@8  10005040     kernel32:KERNEL32.dll
 0002:00000044       __imp__InterlockedCompareExchange@12 10005044     kernel32:KERNEL32.dll
 0002:00000048       __imp__Sleep@4             10005048     kernel32:KERNEL32.dll
 0002:0000004c       __imp__InterlockedExchange@8 1000504c     kernel32:KERNEL32.dll
 0002:00000050       __imp__DecodePointer@4     10005050     kernel32:KERNEL32.dll
 0002:00000054       __imp__EncodePointer@4     10005054     kernel32:KERNEL32.dll
 0002:00000058       __imp__InitializeCriticalSection@4 10005058     kernel32:KERNEL32.dll
 0002:0000005c       __imp__CreateEventA@16     1000505c     kernel32:KERNEL32.dll
 0002:00000060       __imp__CreateThread@24     10005060     kernel32:KERNEL32.dll
 0002:00000064       __imp__WaitForSingleObject@8 10005064     kernel32:KERNEL32.dll
 0002:00000068       __imp__EnterCriticalSection@4 10005068     kernel32:KERNEL32.dll
 0002:0000006c       __imp__SetEvent@4          1000506c     kernel32:KERNEL32.dll
 0002:00000070       __imp__CloseHandle@4       10005070     kernel32:KERNEL32.dll
 0002:00000074       __imp__LeaveCriticalSection@4 10005074     kernel32:KERNEL32.dll
 0002:00000078       \177KERNEL32_NULL_THUNK_DATA 10005078     kernel32:KERNEL32.dll
 0002:0000007c       __imp___crt_debugger_hook  1000507c     MSVCRT:MSVCR100.dll
 0002:00000080       __imp___except_handler4_common 10005080     MSVCRT:MSVCR100.dll
 0002:00000084       __imp____clean_type_info_names_internal 10005084     MSVCRT:MSVCR100.dll
 0002:00000088       __imp____CppXcptFilter     10005088     MSVCRT:MSVCR100.dll
 0002:0000008c       __imp___amsg_exit          1000508c     MSVCRT:MSVCR100.dll
 0002:00000090       __imp___initterm_e         10005090     MSVCRT:MSVCR100.dll
 0002:00000094       __imp___initterm           10005094     MSVCRT:MSVCR100.dll
 0002:00000098       __imp___encoded_null       10005098     MSVCRT:MSVCR100.dll
 0002:0000009c       __imp___malloc_crt         1000509c     MSVCRT:MSVCR100.dll
 0002:000000a0       __imp___onexit             100050a0     MSVCRT:MSVCR100.dll
 0002:000000a4       __imp___lock               100050a4     MSVCRT:MSVCR100.dll
 0002:000000a8       __imp____dllonexit         100050a8     MSVCRT:MSVCR100.dll
 0002:000000ac       __imp___unlock             100050ac     MSVCRT:MSVCR100.dll
 0002:000000b0       __imp__strncpy             100050b0     MSVCRT:MSVCR100.dll
 0002:000000b4       __imp__memset              100050b4     MSVCRT:MSVCR100.dll
 0002:000000b8       __imp__memcpy              100050b8     MSVCRT:MSVCR100.dll
 0002:000000bc       __imp__memcmp              100050bc     MSVCRT:MSVCR100.dll
 0002:000000c0       __imp__malloc              100050c0     MSVCRT:MSVCR100.dll
 0002:000000c4       __imp__free                100050c4     MSVCRT:MSVCR100.dll
 0002:000000c8       __imp__strcpy              100050c8     MSVCRT:MSVCR100.dll
 0002:000000cc       \177MSVCR100_NULL_THUNK_DATA 100050cc     MSVCRT:MSVCR100.dll
 0002:000000d0       __imp__GetDesktopWindow@0  100050d0     user32:USER32.dll
 0002:000000d4       __imp__GetForegroundWindow@0 100050d4     user32:USER32.dll
 0002:000000d8       \177USER32_NULL_THUNK_DATA 100050d8     user32:USER32.dll
 0002:000000dc       __imp__timeGetTime@0       100050dc     winmm:WINMM.dll
 0002:000000e0       \177WINMM_NULL_THUNK_DATA  100050e0     winmm:WINMM.dll
 0002:000000e4       __imp__CoInitialize@4      100050e4     ole32:ole32.dll
 0002:000000e8       __imp__CoUninitialize@0    100050e8     ole32:ole32.dll
 0002:000000ec       \177ole32_NULL_THUNK_DATA  100050ec     ole32:ole32.dll
 0002:000000f0       ___xc_a                    100050f0     MSVCRT:cinitexe.obj
 0002:000000f8       ___xc_z                    100050f8     MSVCRT:cinitexe.obj
 0002:000000fc       ___xi_a                    100050fc     MSVCRT:cinitexe.obj
 0002:00000108       ___xi_z                    10005108     MSVCRT:cinitexe.obj
 0002:0000012c       ??_C@_0BA@LFHNEBGG@Unknown?5Version?$AA@ 1000512c     DirectAudioDeviceProvider.obj
 0002:0000013c       ??_C@_0BE@GEPKBKKC@Unknown?5Description?$AA@ 1000513c     DirectAudioDeviceProvider.obj
 0002:00000150       ??_C@_0P@JELLBOOJ@Unknown?5Vendor?$AA@ 10005150     DirectAudioDeviceProvider.obj
 0002:00000160       ??_C@_0N@FMCAPCBL@Unknown?5Name?$AA@ 10005160     DirectAudioDeviceProvider.obj
 0002:00000170       ??_C@_06FALKBLGB@?$DMinit?$DO?$AA@ 10005170     DirectAudioDeviceProvider.obj
 0002:00000178       ??_C@_0EP@IBGEIIFD@?$CIIIILjava?1lang?1String?$DLLjava?1lang@ 10005178     DirectAudioDeviceProvider.obj
 0002:000001c8       ??_C@_0EE@IPKJIHIL@com?1sun?1media?1sound?1DirectAudioD@ 100051c8     DirectAudioDeviceProvider.obj
 0002:0000020c       ??_C@_09OBBPPKHG@addFormat?$AA@ 1000520c     DirectAudioDevice.obj
 0002:00000218       ??_C@_0BN@PPKEDFNA@?$CILjava?1util?1Vector?$DLIIIFIZZ?$CJV?$AA@ 10005218     DirectAudioDevice.obj
 0002:00000238       __real@3f847ae147ae147b    10005238     DirectAudioDevice.obj
 0002:00000240       __real@3ff0000000000000    10005240     DirectAudioDevice.obj
 0002:00000248       ??_C@_0BE@OBEMNMJC@DirectSound?5Capture?$AA@ 10005248     PLATFORM_API_WinOS_DirectSound.obj
 0002:0000025c       ??_C@_0BF@HPHHCMEI@DirectSound?5Playback?$AA@ 1000525c     PLATFORM_API_WinOS_DirectSound.obj
 0002:00000274       __pRawDllMain              10005274     MSVCRT:crtdll.obj
 0002:00000274       __pDefaultRawDllMain       10005274     MSVCRT:crtdll.obj
 0002:00000280       __load_config_used         10005280     MSVCRT:loadcfg.obj
 0002:00000340       ___safe_se_handler_table   10005340     <linker-defined>
 0002:00000344       ___rtc_iaa                 10005344     MSVCRT:_initsect_.obj
 0002:00000348       ___rtc_izz                 10005348     MSVCRT:_initsect_.obj
 0002:0000034c       ___rtc_taa                 1000534c     MSVCRT:_initsect_.obj
 0002:00000350       ___rtc_tzz                 10005350     MSVCRT:_initsect_.obj
 0002:000003bc       __IMPORT_DESCRIPTOR_DSOUND 100053bc     dsound:DSOUND.dll
 0002:000003d0       __IMPORT_DESCRIPTOR_WINMM  100053d0     winmm:WINMM.dll
 0002:000003e4       __IMPORT_DESCRIPTOR_USER32 100053e4     user32:USER32.dll
 0002:000003f8       __IMPORT_DESCRIPTOR_ole32  100053f8     ole32:ole32.dll
 0002:0000040c       __IMPORT_DESCRIPTOR_MSVCR100 1000540c     MSVCRT:MSVCR100.dll
 0002:00000420       __IMPORT_DESCRIPTOR_KERNEL32 10005420     kernel32:KERNEL32.dll
 0002:00000434       __NULL_IMPORT_DESCRIPTOR   10005434     dsound:DSOUND.dll
 0003:00000014       ___security_cookie         10006014     MSVCRT:gs_cookie.obj
 0003:00000018       ___security_cookie_complement 10006018     MSVCRT:gs_cookie.obj
 0003:00000020       ___native_dllmain_reason   10006020     MSVCRT:natstart.obj
 0003:00000024       ___native_vcclrit_reason   10006024     MSVCRT:natstart.obj
 0003:000007c8       ?data@DS_StartBufferHelper@@1VData@1@A 100067c8     PLATFORM_API_WinOS_DirectSound.obj
 0003:00000b1c       ?__type_info_root_node@@3U__type_info_node@@A 10006b1c     MSVCRT:tncleanup.obj
 0003:00000b24       ___native_startup_state    10006b24     <common>
 0003:00000b28       ___native_startup_lock     10006b28     <common>
 0003:00000b2c       ___sse2_available          10006b2c     <common>
 0003:00000b30       ___dyn_tls_init_callback   10006b30     <common>
 0003:00000b34       ___onexitend               10006b34     <common>
 0003:00000b38       ___onexitbegin             10006b38     <common>

 entry point at        0001:00002fa4

 Static symbols

 0001:00002c36       _pre_c_init                10003c36 f   MSVCRT:crtdll.obj
 0001:00002e8e       ___DllMainCRTStartup       10003e8e f   MSVCRT:crtdll.obj
 0001:00003406       ??__E?data@DS_StartBufferHelper@@1VData@1@A@@YAXXZ 10004406 f   PLATFORM_API_WinOS_DirectSound.obj
 0001:0000341c       ??__F?data@DS_StartBufferHelper@@1VData@1@A@@YAXXZ 1000441c f   PLATFORM_API_WinOS_DirectSound.obj
