 unpack

 Timestamp is 4dff5f6a (Mon Jun 20 07:55:38 2011)

 Preferred load address is 10000000

 Start         Length     Name                   Class
 0001:00000000 0000924eH .text                   CODE
 0002:00000000 000000ecH .idata$5                DATA
 0002:000000ec 00000004H .CRT$XCA                DATA
 0002:000000f0 00000004H .CRT$XCZ                DATA
 0002:000000f4 00000004H .CRT$XIA                DATA
 0002:000000f8 00000004H .CRT$XIAA               DATA
 0002:000000fc 00000004H .CRT$XIZ                DATA
 0002:00000100 000010c8H .rdata                  DATA
 0002:000011c8 0000007dH .rdata$debug            DATA
 0002:00001250 00000004H .rdata$sxdata           DATA
 0002:00001254 00000004H .rtc$IAA                DATA
 0002:00001258 00000004H .rtc$IZZ                DATA
 0002:0000125c 00000004H .rtc$TAA                DATA
 0002:00001260 00000004H .rtc$TZZ                DATA
 0002:00001268 00000064H .xdata$x                DATA
 0002:000012cc 00000050H .idata$2                DATA
 0002:0000131c 00000014H .idata$3                DATA
 0002:00001330 000000ecH .idata$4                DATA
 0002:0000141c 00000392H .idata$6                DATA
 0002:000017b0 00000211H .edata                  DATA
 0003:00000000 00000b10H .data                   DATA
 0003:00000b10 00000778H .bss                    DATA
 0004:00000000 00000058H .rsrc$01                DATA
 0004:00000060 00000308H .rsrc$02                DATA

  Address         Publics by Value              Rva+Base       Lib:Object

 0000:00000001       ___safe_se_handler_count   00000001     <absolute>
 0000:00000000       ___ImageBase               10000000     <linker-defined>
 0001:00000000       ?scale_size@@YAIII@Z       10001000 f i bands.obj
 0001:0000001f       ?readData@band@@QAEXH@Z    1000101f f   bands.obj
 0001:000001c6       ?setIndex@band@@QAEXPAUcpindex@@@Z 100011c6 f   bands.obj
 0001:000001d0       ?setIndexByTag@band@@QAEXC@Z 100011d0 f   bands.obj
 0001:000001e4       ?getRefCommon@band@@QAEPAUentry@@PAUcpindex@@_N@Z 100011e4 f   bands.obj
 0001:00000241       ?getLong@band@@QAE_JAAU1@_N@Z 10001241 f   bands.obj
 0001:00000277       ?getIntTotal@band@@QAEHXZ  10001277 f   bands.obj
 0001:00000307       ?getIntCount@band@@QAEHH@Z 10001307 f   bands.obj
 0001:000003d5       ?makeBands@band@@SAPAU1@PAUunpacker@@@Z 100013d5 f   bands.obj
 0001:00000464       ?initIndexes@band@@SAXPAUunpacker@@@Z 10001464 f   bands.obj
 0001:000004a0       ?add_size@@YAIII@Z         100014a0 f i bytes.obj
 0001:000004bf       ?malloc@bytes@@QAEXI@Z     100014bf f   bytes.obj
 0001:00000513       ?realloc@bytes@@QAEXI@Z    10001513 f   bytes.obj
 0001:0000059f       ?free@bytes@@QAEXXZ        1000159f f   bytes.obj
 0001:000005c0       ?writeTo@bytes@@QAEPACPAC@Z 100015c0 f   bytes.obj
 0001:000005df       ?compareTo@bytes@@QAEHAAU1@@Z 100015df f   bytes.obj
 0001:00000616       ?copyFrom@bytes@@QAEXPBXII@Z 10001616 f   bytes.obj
 0001:00000630       ?grow@fillbytes@@QAEPACI@Z 10001630 f   bytes.obj
 0001:000006b8       ?ensureSize@fillbytes@@QAEXI@Z 100016b8 f   bytes.obj
 0001:000006d8       ?indexOf@ptrlist@@QAEHPBX@Z 100016d8 f   bytes.obj
 0001:000006fe       ?saveFrom@bytes@@QAEXPBXI@Z 100016fe f   bytes.obj
 0001:00000728       ?freeAll@ptrlist@@QAEXXZ   10001728 f   bytes.obj
 0001:0000077f       ?init@coding@@QAEPAU1@XZ   1000177f f   coding.obj
 0001:00000966       ?free@coding@@QAEXXZ       10001966 f   coding.obj
 0001:00000975       ?reset@coding_method@@QAEXPAUvalue_stream@@@Z 10001975 f   coding.obj
 0001:00000997       ?parse@coding@@SAIAAPACHH@Z 10001997 f   coding.obj
 0001:00000a13       ?parse_lgH@coding@@SAIAAPACHHH@Z 10001a13 f   coding.obj
 0001:00000a95       ?parseMultiple@coding@@SAXAAPACHPACHH@Z 10001a95 f   coding.obj
 0001:00000b20       ?sumInUnsignedRange@coding@@QAEHHH@Z 10001b20 f   coding.obj
 0001:00000b67       ?getInt@value_stream@@QAEHXZ 10001b67 f   coding.obj
 0001:00000dbf       ?findByIndex@coding@@SAPAU1@H@Z 10001dbf f   coding.obj
 0001:00000ddc       ?findBySpec@coding@@SAPAU1@H@Z 10001ddc f   coding.obj
 0001:00000e3b       ?findBySpec@coding@@SAPAU1@HHHH@Z 10001e3b f   coding.obj
 0001:00000e81       ?setCoding@value_stream@@QAEXPAUcoding@@@Z 10001e81 f   coding.obj
 0001:00000f7e       ?init@value_stream@@QAEXPAC0PAUcoding@@@Z 10001f7e f   coding.obj
 0001:00000fa0       ?init@coding_method@@QAEXAAPACPAC0HPAUcoding@@HPAUintlist@@@Z 10001fa0 f   coding.obj
 0001:000015a5       ?CallLongMethod@JNIEnv_@@QAA_JPAV_jobject@@PAU_jmethodID@@ZZ 100025a5 f i jni.obj
 0001:000015c0       ?SetLongField@JNIEnv_@@QAEXPAV_jobject@@PAU_jfieldID@@_J@Z 100025c0 f i jni.obj
 0001:000015dc       ?CallStaticObjectMethod@JNIEnv_@@QAAPAV_jobject@@PAV_jclass@@PAU_jmethodID@@ZZ 100025dc f i jni.obj
 0001:00001630       _Java_com_sun_java_util_jar_pack_NativeUnpack_initIDs@8 10002630 f   jni.obj
 0001:00001774       ?current@unpacker@@SAPAU1@XZ 10002774 f   jni.obj
 0001:000017d3       _Java_com_sun_java_util_jar_pack_NativeUnpack_start@20 100027d3 f   jni.obj
 0001:00001875       _Java_com_sun_java_util_jar_pack_NativeUnpack_getNextFile@12 10002875 f   jni.obj
 0001:0000197b       _Java_com_sun_java_util_jar_pack_NativeUnpack_getUnusedInput@8 1000297b f   jni.obj
 0001:000019cc       _Java_com_sun_java_util_jar_pack_NativeUnpack_finish@8 100029cc f   jni.obj
 0001:00001a2b       _Java_com_sun_java_util_jar_pack_NativeUnpack_setOption@16 10002a2b f   jni.obj
 0001:00001a93       _Java_com_sun_java_util_jar_pack_NativeUnpack_getOption@12 10002a93 f   jni.obj
 0001:00001aea       ?init@band@@QAEXPAUunpacker@@HH@Z 10002aea f i unpack.obj
 0001:00001b11       ?free@jar@@QAEXXZ          10002b11 f i unpack.obj
 0001:00001b3c       ?free@attr_definitions@unpacker@@QAEXXZ 10002b3c f i unpack.obj
 0001:00001bbb       ?getLayout@attr_definitions@unpacker@@QAEPAUlayout_definition@2@I@Z 10002bbb f i unpack.obj
 0001:00001bd6       ?isRedefined@attr_definitions@unpacker@@QAE_NI@Z 10002bd6 f i unpack.obj
 0001:00001bf7       ?isPredefined@attr_definitions@unpacker@@QAE_NI@Z 10002bf7 f i unpack.obj
 0001:00001c22       ?isIndex@attr_definitions@unpacker@@QAE_NI@Z 10002c22 f i unpack.obj
 0001:00001c5a       ?getCount@attr_definitions@unpacker@@QAEAAHI@Z 10002c5a f i unpack.obj
 0001:00001c79       ?free_temps@unpacker@@QAEXXZ 10002c79 f i unpack.obj
 0001:00001c8c       ?set_output@unpacker@@QAEXPAUfillbytes@@@Z 10002c8c f i unpack.obj
 0001:00001cc3       ?get@cpindex@@QAEPAUentry@@I@Z 10002cc3 f   unpack.obj
 0001:00001ce6       ?typeSize@entry@@QAEHXZ    10002ce6 f   unpack.obj
 0001:00001d5c       ?free@unpacker@@QAEXXZ     10002d5c f   unpack.obj
 0001:00001f13       ?ensure_input@unpacker@@QAE_N_J@Z 10002f13 f   unpack.obj
 0001:00002052       ?close_output@unpacker@@QAEPAUfillbytes@@PAU2@@Z 10003052 f   unpack.obj
 0001:0000208e       ?ensure_put_space@unpacker@@QAEXI@Z 1000308e f   unpack.obj
 0001:000020d6       ?put_space@unpacker@@QAEPACI@Z 100030d6 f   unpack.obj
 0001:0000210b       ?putu2_at@unpacker@@SAXPACH@Z 1000310b f   unpack.obj
 0001:00002134       ?putu4_at@unpacker@@SAXPACH@Z 10003134 f   unpack.obj
 0001:00002157       ?putu8_at@unpacker@@SAXPAC_J@Z 10003157 f   unpack.obj
 0001:00002178       ?putu2@unpacker@@QAEXH@Z   10003178 f   unpack.obj
 0001:0000218e       ?putu4@unpacker@@QAEXH@Z   1000318e f   unpack.obj
 0001:000021a4       ?putu8@unpacker@@QAEX_J@Z  100031a4 f   unpack.obj
 0001:000021bf       ?alloc_heap@unpacker@@QAEPAXI_N0@Z 100031bf f   unpack.obj
 0001:00002341       ?read_single_words@unpacker@@QAEXAAUband@@PAUentry@@H@Z 10003341 f i unpack.obj
 0001:00002377       ?read_double_words@unpacker@@QAEXAAUband@@PAUentry@@H@Z 10003377 f   unpack.obj
 0001:0000240d       ?getIC@cpool@@QAEPAUinner_class@@PAUentry@@@Z 1000340d f   unpack.obj
 0001:0000242d       ?getFirstChildIC@cpool@@QAEPAUinner_class@@PAUentry@@@Z 1000342d f   unpack.obj
 0001:0000244d       ?predefCount@attr_definitions@unpacker@@QAEHI@Z 1000344d f   unpack.obj
 0001:0000246c       ?readBandData@attr_definitions@unpacker@@QAEXPAPAUband@@I@Z 1000346c f   unpack.obj
 0001:00002596       ?read_files@unpacker@@QAEXXZ 10003596 f   unpack.obj
 0001:0000267d       ?get_code_header@unpacker@@QAEXAAH000@Z 1000367d f   unpack.obj
 0001:0000274a       ?ref_band_for_op@unpacker@@QAEPAUband@@H@Z 1000374a f   unpack.obj
 0001:00002849       ?ref_band_for_self_op@unpacker@@QAEPAUband@@HAA_NAAH@Z 10003849 f   unpack.obj
 0001:000028d4       ?hashTabRef@cpool@@QAEAAPAUentry@@CAAUbytes@@@Z 100038d4 f   unpack.obj
 0001:0000297c       ?requestOutputIndex@entry@@QAEXAAUcpool@@H@Z 1000397c f   unpack.obj
 0001:000029e0       ?resetOutputIndexes@cpool@@QAEXXZ 100039e0 f   unpack.obj
 0001:00002a14       _outputEntry_cmp           10003a14 f   unpack.obj
 0001:00002a7c       ?computeOutputIndexes@cpool@@QAEXXZ 10003a7c f   unpack.obj
 0001:00002ace       ?get_abort_message@unpacker@@QAEPBDXZ 10003ace f   unpack.obj
 0001:00002ad2       ?check_options@unpacker@@QAEXXZ 10003ad2 f   unpack.obj
 0001:00002b07       ?reset_cur_classfile@unpacker@@QAEXXZ 10003b07 f   unpack.obj
 0001:00002b49       ?to_bci@unpacker@@QAEII@Z  10003b49 f   unpack.obj
 0001:00002b84       _raw_address_cmp           10003b84 f   unpack.obj
 0001:00002b9b       ?abort@unpacker@@QAEXPBD@Z 10003b9b f   unpack.obj
 0001:00002bdf       ?put_bytes@unpacker@@QAEXAAUbytes@@@Z 10003bdf f i unpack.obj
 0001:00002bf8       ?putref_index@unpacker@@QAEHPAUentry@@H@Z 10003bf8 f   unpack.obj
 0001:00002c78       ?putref@unpacker@@QAEXPAUentry@@@Z 10003c78 f   unpack.obj
 0001:00002c9c       ?putu1ref@unpacker@@QAEXPAUentry@@@Z 10003c9c f   unpack.obj
 0001:00002cbd       ?saveTo@unpacker@@QAEXAAUbytes@@PACI@Z 10003cbd f   unpack.obj
 0001:00002d18       ?init@cpool@@QAEXPAUunpacker@@QAH@Z 10003d18 f   unpack.obj
 0001:00002e71       ?read_Utf8_values@unpacker@@QAEXPAUentry@@H@Z 10003e71 f i unpack.obj
 0001:00003381       ?read_single_refs@unpacker@@QAEXAAUband@@CPAUentry@@H@Z 10004381 f   unpack.obj
 0001:00003443       ?read_double_refs@unpacker@@QAEXAAUband@@CCPAUentry@@H@Z 10004443 f   unpack.obj
 0001:000034f9       ?read_signature_values@unpacker@@QAEXPAUentry@@H@Z 100044f9 f   unpack.obj
 0001:00003643       ?defineLayout@attr_definitions@unpacker@@QAEPAUlayout_definition@2@HPBD0@Z 10004643 f   unpack.obj
 0001:00003718       ?parseIntLayout@attr_definitions@unpacker@@QAEPBDPBDAAPAUband@@C_N@Z 10004718 f   unpack.obj
 0001:00003810       ?parseNumeral@attr_definitions@unpacker@@QAEPBDPBDAAH@Z 10004810 f   unpack.obj
 0001:000038a5       ?popBody@attr_definitions@unpacker@@QAEPAPAUband@@H@Z 100048a5 f   unpack.obj
 0001:00003933       ?parseLayout@attr_definitions@unpacker@@QAEPBDPBDAAPAPAUband@@H@Z 10004933 f   unpack.obj
 0001:00003f77       ?readBandData@attr_definitions@unpacker@@QAEXH@Z 10004f77 f   unpack.obj
 0001:00003ffe       ?read_bcs@unpacker@@QAEXXZ 10004ffe f i unpack.obj
 0001:0000430f       ?initMemberIndexes@cpool@@QAEXXZ 1000530f f   unpack.obj
 0001:00004542       ?init@unpacker@@QAEXP6A_JPAU1@PAX_J2@Z@Z 10005542 f   unpack.obj
 0001:000045c0       ?getKQIndex@cpool@@QAEPAUcpindex@@XZ 100055c0 f   unpack.obj
 0001:00004642       ?put_stackmap_type@unpacker@@QAEXXZ 10005642 f   unpack.obj
 0001:000046b3       ?put_label@unpacker@@QAEXHH@Z 100056b3 f   unpack.obj
 0001:00004701       ?write_bc_ops@unpacker@@QAEXXZ 10005701 f i unpack.obj
 0001:00004e50       ?write_code@unpacker@@QAEXXZ 10005e50 f i unpack.obj
 0001:00005022       ?write_classfile_head@unpacker@@QAEXXZ 10006022 f   unpack.obj
 0001:0000516a       ?saveStr@unpacker@@QAEPBDPBD@Z 1000616a f i unpack.obj
 0001:00005192       ?saveIntStr@unpacker@@QAEPBDH@Z 10006192 f i unpack.obj
 0001:000051d4       ?read_file_header@unpacker@@QAEXXZ 100061d4 f   unpack.obj
 0001:0000588c       ?buildBands@attr_definitions@unpacker@@QAEPAPAUband@@PAUlayout_definition@2@@Z 1000688c f   unpack.obj
 0001:000059b7       ?read_attr_defs@unpacker@@QAEXXZ 100069b7 f   unpack.obj
 0001:00005c6e       ?read_attrs@unpacker@@QAEXHH@Z 10006c6e f   unpack.obj
 0001:00006533       ?putlayout@unpacker@@QAEXPAPAUband@@@Z 10007533 f   unpack.obj
 0001:00006709       ?read_code_headers@unpacker@@QAEXXZ 10007709 f   unpack.obj
 0001:00006870       ?ensureUtf8@cpool@@QAEPAUentry@@AAUbytes@@@Z 10007870 f   unpack.obj
 0001:000068ee       ?ensureClass@cpool@@QAEPAUentry@@AAUbytes@@@Z 100078ee f   unpack.obj
 0001:00006996       ?expandSignatures@cpool@@QAEXXZ 10007996 f   unpack.obj
 0001:00006b20       ?get_option@unpacker@@QAEPBDPBD@Z 10007b20 f   unpack.obj
 0001:00006bc8       ?set_option@unpacker@@QAE_NPBD0@Z 10007bc8 f   unpack.obj
 0001:00006d38       ?write_attrs@unpacker@@QAEHH_K@Z 10007d38 f   unpack.obj
 0001:00007639       ?write_members@unpacker@@QAEXHH@Z 10008639 f   unpack.obj
 0001:0000774b       ?write_classfile_tail@unpacker@@QAEXXZ 1000874b f   unpack.obj
 0001:00007c52       ?get_next_file@unpacker@@QAEPAUfile@1@XZ 10008c52 f   unpack.obj
 0001:00007f96       ?redirect_stdio@unpacker@@QAEXXZ 10008f96 f   unpack.obj
 0001:00008110       ?read_cp@unpacker@@QAEXXZ  10009110 f   unpack.obj
 0001:0000831c       ?read_ics@unpacker@@QAEXXZ 1000931c f   unpack.obj
 0001:0000867f       ?read_classes@unpacker@@QAEXXZ 1000967f f   unpack.obj
 0001:000087ad       ?read_bands@unpacker@@QAEXXZ 100097ad f   unpack.obj
 0001:00008812       ?start@unpacker@@QAEXPAXI@Z 10009812 f   unpack.obj
 0001:00008830       ?unpack_abort@@YAXPBDPAUunpacker@@@Z 10009830 f   utils.obj
 0001:00008879       ?unpack_aborting@@YA_NPAUunpacker@@@Z 10009879 f   utils.obj
 0001:000088b3       ?must_malloc@@YAPAXI@Z     100098b3 f   utils.obj
 0001:000088f2       ?init@jar@@QAEXPAUunpacker@@@Z 100098f2 f   zip.obj
 0001:00008910       ?free@gunzip@@QAEXXZ       10009910 f   zip.obj
 0001:00008912       _JNU_ThrowIOException@8    10009912 f   java:java.dll
 0001:00008918       @__security_check_cookie@4 10009918 f   MSVCRT:secchk.obj
 0001:00008928       _memset                    10009928 f   MSVCRT:MSVCR100.dll
 0001:0000892e       _memcpy                    1000992e f   MSVCRT:MSVCR100.dll
 0001:00008934       _memcmp                    10009934 f   MSVCRT:MSVCR100.dll
 0001:00008940       __allmul                   10009940 f   MSVCRT:llmul.obj
 0001:00008974       ??3@YAXPAX@Z               10009974 f   MSVCRT:MSVCR100.dll
 0001:0000897a       ??2@YAPAXI@Z               1000997a f   MSVCRT:MSVCR100.dll
 0001:00008980       __aullshr                  10009980 f   MSVCRT:ullshr.obj
 0001:000089a0       _strlen                    100099a0 f   MSVCRT:MSVCR100.dll
 0001:000089a6       _strcat                    100099a6 f   MSVCRT:MSVCR100.dll
 0001:000089b0       __allshl                   100099b0 f   MSVCRT:llshl.obj
 0001:000089d0       _strcmp                    100099d0 f   MSVCRT:MSVCR100.dll
 0001:00008a24       __CRT_INIT@12              10009a24 f   MSVCRT:crtdll.obj
 0001:00008d44       __DllMainCRTStartup@12     10009d44 f   MSVCRT:crtdll.obj
 0001:00008d67       ___report_gsfailure        10009d67 f   MSVCRT:gs_report.obj
 0001:00008e6d       ___clean_type_info_names   10009e6d f   MSVCRT:tncleanup.obj
 0001:00008e79       __onexit                   10009e79 f   MSVCRT:atonexit.obj
 0001:00008f1a       _atexit                    10009f1a f   MSVCRT:atonexit.obj
 0001:00008f31       __RTC_Initialize           10009f31 f   MSVCRT:_initsect_.obj
 0001:00008f57       __RTC_Terminate            10009f57 f   MSVCRT:_initsect_.obj
 0001:00008f80       __ValidateImageBase        10009f80 f   MSVCRT:pesect.obj
 0001:00008fc0       __FindPESection            10009fc0 f   MSVCRT:pesect.obj
 0001:00009010       __IsNonwritableInCurrentImage 1000a010 f   MSVCRT:pesect.obj
 0001:000090cc       __initterm                 1000a0cc f   MSVCRT:MSVCR100.dll
 0001:000090d2       __initterm_e               1000a0d2 f   MSVCRT:MSVCR100.dll
 0001:000090d8       __amsg_exit                1000a0d8 f   MSVCRT:MSVCR100.dll
 0001:000090de       ___CppXcptFilter           1000a0de f   MSVCRT:MSVCR100.dll
 0001:000090e4       _DllMain@12                1000a0e4 f   MSVCRT:dllmain.obj
 0001:00009110       __SEH_prolog4              1000a110 f   MSVCRT:sehprolg4.obj
 0001:00009155       __SEH_epilog4              1000a155 f   MSVCRT:sehprolg4.obj
 0001:00009169       __except_handler4          1000a169 f   MSVCRT:chandler4gs.obj
 0001:0000918e       ___security_init_cookie    1000a18e f   MSVCRT:gs_support.obj
 0001:0000922a       __crt_debugger_hook        1000a22a f   MSVCRT:MSVCR100.dll
 0001:00009230       ___clean_type_info_names_internal 1000a230 f   MSVCRT:MSVCR100.dll
 0001:00009236       __unlock                   1000a236 f   MSVCRT:MSVCR100.dll
 0001:0000923c       ___dllonexit               1000a23c f   MSVCRT:MSVCR100.dll
 0001:00009242       __lock                     1000a242 f   MSVCRT:MSVCR100.dll
 0001:00009248       __except_handler4_common   1000a248 f   MSVCRT:MSVCR100.dll
 0002:00000000       __imp__GetCurrentProcessId@0 1000b000     kernel32:KERNEL32.dll
 0002:00000004       __imp__GetTickCount@0      1000b004     kernel32:KERNEL32.dll
 0002:00000008       __imp__GetSystemTimeAsFileTime@4 1000b008     kernel32:KERNEL32.dll
 0002:0000000c       __imp__QueryPerformanceCounter@4 1000b00c     kernel32:KERNEL32.dll
 0002:00000010       __imp__DisableThreadLibraryCalls@4 1000b010     kernel32:KERNEL32.dll
 0002:00000014       __imp__IsDebuggerPresent@0 1000b014     kernel32:KERNEL32.dll
 0002:00000018       __imp__SetUnhandledExceptionFilter@4 1000b018     kernel32:KERNEL32.dll
 0002:0000001c       __imp__UnhandledExceptionFilter@4 1000b01c     kernel32:KERNEL32.dll
 0002:00000020       __imp__GetCurrentProcess@0 1000b020     kernel32:KERNEL32.dll
 0002:00000024       __imp__TerminateProcess@8  1000b024     kernel32:KERNEL32.dll
 0002:00000028       __imp__InterlockedCompareExchange@12 1000b028     kernel32:KERNEL32.dll
 0002:0000002c       __imp__InterlockedExchange@8 1000b02c     kernel32:KERNEL32.dll
 0002:00000030       __imp__DecodePointer@4     1000b030     kernel32:KERNEL32.dll
 0002:00000034       __imp__EncodePointer@4     1000b034     kernel32:KERNEL32.dll
 0002:00000038       __imp__GetTempPathA@8      1000b038     kernel32:KERNEL32.dll
 0002:0000003c       __imp__Sleep@4             1000b03c     kernel32:KERNEL32.dll
 0002:00000040       __imp__GetCurrentThreadId@0 1000b040     kernel32:KERNEL32.dll
 0002:00000044       \177KERNEL32_NULL_THUNK_DATA 1000b044     kernel32:KERNEL32.dll
 0002:00000048       __imp____iob_func          1000b048     MSVCRT:MSVCR100.dll
 0002:0000004c       __imp__fprintf             1000b04c     MSVCRT:MSVCR100.dll
 0002:00000050       __imp__qsort               1000b050     MSVCRT:MSVCR100.dll
 0002:00000054       __imp__sprintf             1000b054     MSVCRT:MSVCR100.dll
 0002:00000058       __imp__strcmp              1000b058     MSVCRT:MSVCR100.dll
 0002:0000005c       __imp__atoi                1000b05c     MSVCRT:MSVCR100.dll
 0002:00000060       __imp__fopen               1000b060     MSVCRT:MSVCR100.dll
 0002:00000064       __imp__abort               1000b064     MSVCRT:MSVCR100.dll
 0002:00000068       __imp__malloc              1000b068     MSVCRT:MSVCR100.dll
 0002:0000006c       __imp__strchr              1000b06c     MSVCRT:MSVCR100.dll
 0002:00000070       __imp___malloc_crt         1000b070     MSVCRT:MSVCR100.dll
 0002:00000074       __imp___encoded_null       1000b074     MSVCRT:MSVCR100.dll
 0002:00000078       __imp___initterm           1000b078     MSVCRT:MSVCR100.dll
 0002:0000007c       __imp___initterm_e         1000b07c     MSVCRT:MSVCR100.dll
 0002:00000080       __imp___amsg_exit          1000b080     MSVCRT:MSVCR100.dll
 0002:00000084       __imp____CppXcptFilter     1000b084     MSVCRT:MSVCR100.dll
 0002:00000088       __imp___crt_debugger_hook  1000b088     MSVCRT:MSVCR100.dll
 0002:0000008c       __imp____clean_type_info_names_internal 1000b08c     MSVCRT:MSVCR100.dll
 0002:00000090       __imp___unlock             1000b090     MSVCRT:MSVCR100.dll
 0002:00000094       __imp____dllonexit         1000b094     MSVCRT:MSVCR100.dll
 0002:00000098       __imp___lock               1000b098     MSVCRT:MSVCR100.dll
 0002:0000009c       __imp___onexit             1000b09c     MSVCRT:MSVCR100.dll
 0002:000000a0       __imp___except_handler4_common 1000b0a0     MSVCRT:MSVCR100.dll
 0002:000000a4       __imp__strncat             1000b0a4     MSVCRT:MSVCR100.dll
 0002:000000a8       __imp__strcat              1000b0a8     MSVCRT:MSVCR100.dll
 0002:000000ac       __imp__strlen              1000b0ac     MSVCRT:MSVCR100.dll
 0002:000000b0       __imp___time64             1000b0b0     MSVCRT:MSVCR100.dll
 0002:000000b4       __imp_??2@YAPAXI@Z         1000b0b4     MSVCRT:MSVCR100.dll
 0002:000000b8       __imp__getenv              1000b0b8     MSVCRT:MSVCR100.dll
 0002:000000bc       __imp_??3@YAXPAX@Z         1000b0bc     MSVCRT:MSVCR100.dll
 0002:000000c0       __imp__memcmp              1000b0c0     MSVCRT:MSVCR100.dll
 0002:000000c4       __imp__memcpy              1000b0c4     MSVCRT:MSVCR100.dll
 0002:000000c8       __imp__free                1000b0c8     MSVCRT:MSVCR100.dll
 0002:000000cc       __imp__realloc             1000b0cc     MSVCRT:MSVCR100.dll
 0002:000000d0       __imp__memset              1000b0d0     MSVCRT:MSVCR100.dll
 0002:000000d4       __imp__tempnam             1000b0d4     MSVCRT:MSVCR100.dll
 0002:000000d4       __imp___tempnam            1000b0d4     MSVCRT:MSVCR100.dll
 0002:000000d8       \177MSVCR100_NULL_THUNK_DATA 1000b0d8     MSVCRT:MSVCR100.dll
 0002:000000dc       __imp__JNU_ThrowIOException@8 1000b0dc     java:java.dll
 0002:000000e0       \177java_NULL_THUNK_DATA   1000b0e0     java:java.dll
 0002:000000e4       __imp__JNI_GetCreatedJavaVMs@12 1000b0e4     jvm:jvm.dll
 0002:000000e8       \177jvm_NULL_THUNK_DATA    1000b0e8     jvm:jvm.dll
 0002:000000ec       ___xc_a                    1000b0ec     MSVCRT:cinitexe.obj
 0002:000000f0       ___xc_z                    1000b0f0     MSVCRT:cinitexe.obj
 0002:000000f4       ___xi_a                    1000b0f4     MSVCRT:cinitexe.obj
 0002:000000fc       ___xi_z                    1000b0fc     MSVCRT:cinitexe.obj
 0002:00000598       ??_C@_07MLPLAPLE@bad?5ref?$AA@ 1000b598     bands.obj
 0002:000005a0       ??_C@_08CHILEFNK@null?5ref?$AA@ 1000b5a0     bands.obj
 0002:000005ac       ??_C@_0BC@CJBOIHCG@overflow?5detected?$AA@ 1000b5ac     bands.obj
 0002:000005c0       ??_C@_0BJ@CALEAGEE@Native?5allocation?5failed?$AA@ 1000b5c0     bytes.obj
 0002:000005f0       ??_C@_0BA@MMOCMGFH@bad?5value?5count?$AA@ 1000b5f0     coding.obj
 0002:00000600       ??_C@_0L@FLIJCFOD@bad?5coding?$AA@ 1000b600     coding.obj
 0002:0000060c       ??_C@_0BA@DAENMACF@bad?5meta?9coding?$AA@ 1000b60c     coding.obj
 0002:0000061c       ??_C@_0CA@HBCNKKJO@bad?5meta?9coding?5for?5empty?5pop?1U?$AA@ 1000b61c     coding.obj
 0002:0000063c       ??_C@_0BH@OCEIAIEJ@pop?5token?5out?5of?5range?$AA@ 1000b63c     coding.obj
 0002:00000654       ??_C@_0BG@HLIJPJNL@pop?4L?5value?5too?5small?$AA@ 1000b654     coding.obj
 0002:0000066c       ??_C@_0BM@CDDFICON@illegal?5nested?5pop?5encoding?$AA@ 1000b66c     coding.obj
 0002:00000688       ??_C@_0BF@JOAAKECG@illegal?5pop?5encoding?$AA@ 1000b688     coding.obj
 0002:000006a0       ??_C@_0BF@OEPDPLDN@illegal?5run?5encoding?$AA@ 1000b6a0     coding.obj
 0002:000006b8       ??_C@_0BM@FJMGNNPG@illegal?5nested?5run?5encoding?$AA@ 1000b6b8     coding.obj
 0002:000006d4       ??_C@_0BE@IIPOPKNG@illegal?5arb?4?5coding?$AA@ 1000b6d4     coding.obj
 0002:000006e8       ??_C@_0BK@MGOECGMC@cannot?5init?5class?5members?$AA@ 1000b6e8     jni.obj
 0002:00000704       ??_C@_0M@OOANKPPH@readInputFn?$AA@ 1000b704     jni.obj
 0002:00000710       ??_C@_0BK@KNKPMLAB@?$CILjava?1nio?1ByteBuffer?$DLJ?$CJJ?$AA@ 1000b710     jni.obj
 0002:0000072c       ??_C@_0BA@HNJNGCPJ@currentInstance?$AA@ 1000b72c     jni.obj
 0002:0000073c       ??_C@_0BF@LHBAMMHC@?$CI?$CJLjava?1lang?1Object?$DL?$AA@ 1000b73c     jni.obj
 0002:00000754       ??_C@_0M@ODCCEGO@unpackerPtr?$AA@ 1000b754     jni.obj
 0002:00000760       ??_C@_01LELAEKIP@J?$AA@    1000b760     jni.obj
 0002:00000764       ??_C@_0N@BDLHHEMN@DEBUG_ATTACH?$AA@ 1000b764     jni.obj
 0002:00000774       ??_C@_0P@DHEBFDOP@Internal?5error?$AA@ 1000b774     jni.obj
 0002:000007ac       ??_C@_08MPEBFEBH@bad?5data?$AA@ 1000b7ac     unpack.obj
 0002:000007b8       ??_C@_0BJ@DINDGABB@Internal?5buffer?5overflow?$AA@ 1000b7b8     unpack.obj
 0002:000007d4       ??_C@_0BI@CELHNJPG@error?5unpacking?5archive?$AA@ 1000b7d4     unpack.obj
 0002:000007ec       ??_C@_0DB@HCOAOCOI@archive?5too?5large?3?5?5constant?5poo@ 1000b7ec     unpack.obj
 0002:00000820       ??_C@_0BF@HNBIPEII@utf8?5prefix?5overflow?$AA@ 1000b820     unpack.obj
 0002:00000838       ??_C@_0BA@HHOGEFOO@bad?5utf8?5prefix?$AA@ 1000b838     unpack.obj
 0002:00000848       ??_C@_0BA@BMKLBFBL@bad?5utf8?5suffix?$AA@ 1000b848     unpack.obj
 0002:00000858       ??_C@_0BK@OFNJKMED@redefined?5attribute?5index?$AA@ 1000b858     unpack.obj
 0002:00000874       ??_C@_0BK@NOGBJPAL@attribute?5index?5too?5large?$AA@ 1000b874     unpack.obj
 0002:00000890       ??_C@_0BD@EOHIHJFP@bad?5layout?5element?$AA@ 1000b890     unpack.obj
 0002:000008a3       ??_C@_00CNPNBAHC@?$AA@     1000b8a3     unpack.obj
 0002:000008a4       ??_C@_0BB@FJJKEHGJ@numeral?5overflow?$AA@ 1000b8a4     unpack.obj
 0002:000008b8       ??_C@_0BK@CHPLBKBJ@missing?5numeral?5in?5layout?$AA@ 1000b8b8     unpack.obj
 0002:000008d4       ??_C@_0P@KBKJHJBF@bad?5case?5label?$AA@ 1000b8d4     unpack.obj
 0002:000008e4       ??_C@_0BO@JELFCPB@bad?5range?5in?5union?5case?5label?$AA@ 1000b8e4     unpack.obj
 0002:00000904       ??_C@_0DD@PGOJPNFL@bad?5range?5in?5union?5case?5label?5?$CIo@ 1000b904     unpack.obj
 0002:00000938       ??_C@_0P@HDHNKEAB@bad?5union?5case?$AA@ 1000b938     unpack.obj
 0002:00000948       ??_C@_0BF@ILAEDGAO@bad?5reference?5layout?$AA@ 1000b948     unpack.obj
 0002:00000960       ??_C@_0BE@NGGDBALG@bad?5nested?5callable?$AA@ 1000b960     unpack.obj
 0002:00000974       ??_C@_0L@FLEMDFJG@bad?5layout?$AA@ 1000b974     unpack.obj
 0002:00000980       ??_C@_0P@MNJPOPJO@bad?5call?5label?$AA@ 1000b980     unpack.obj
 0002:00000990       ??_C@_01JOAMLHOP@?9?$AA@   1000b990     unpack.obj
 0002:00000994       ??_C@_0BB@MNFIFPBF@bad?5KQ?5reference?$AA@ 1000b994     unpack.obj
 0002:000009a8       ??_C@_02DPKJAMEF@?$CFd?$AA@ 1000b9a8     unpack.obj
 0002:000009ac       ??_C@_0BJ@HODOOMDO@EOF?5reading?5band?5headers?$AA@ 1000b9ac     unpack.obj
 0002:000009c8       ??_C@_0BL@KOJPDLNM@EOF?5reading?5archive?5header?$AA@ 1000b9c8     unpack.obj
 0002:000009e4       ??_C@_0DE@HNNKIDEL@cannot?5allocate?5large?5input?5buff@ 1000b9e4     unpack.obj
 0002:00000a18       ??_C@_0BI@EDJMKDIH@impossible?5archive?5size?$AA@ 1000ba18     unpack.obj
 0002:00000a30       ??_C@_0BP@CKGMAJKP@EOF?5reading?5fixed?5input?5buffer?$AA@ 1000ba30     unpack.obj
 0002:00000a50       ??_C@_0BI@HBJAPPBP@illegal?5archive?5options?$AA@ 1000ba50     unpack.obj
 0002:00000a68       ??_C@_0CH@DEFFAKFP@Warning?3?5Illegal?5archive?5options@ 1000ba68     unpack.obj
 0002:00000a90       ??_C@_0FB@HPLGOGAD@?$EACorrupted?5pack?5file?3?5magic?1ver?5@ 1000ba90     unpack.obj
 0002:00000ae4       ??_C@_0CF@INONBKGM@encountered?5a?5JAR?5header?5in?5unpa@ 1000bae4     unpack.obj
 0002:00000b0c       ??_C@_0CB@MBENKFPE@EOF?5reading?5archive?5magic?5number@ 1000bb0c     unpack.obj
 0002:00000b30       ??_C@_0BE@NBGJPKOJ@too?5much?5read?9ahead?$AA@ 1000bb30     unpack.obj
 0002:00000b44       ??_C@_0BD@BJONMNHI@bad?5call?5in?5layout?$AA@ 1000bb44     unpack.obj
 0002:00000b58       ??_C@_0BN@NJCEKHIO@garbage?5mixed?5with?5callables?$AA@ 1000bb58     unpack.obj
 0002:00000b78       ??_C@_0BJ@OGDEGNBN@garbage?5at?5end?5of?5layout?$AA@ 1000bb78     unpack.obj
 0002:00000b94       ??_C@_0BC@DAGIEPHG@AnnotationDefault?$AA@ 1000bb94     unpack.obj
 0002:00000ba8       ??_C@_0CF@BFEAEHFK@RuntimeInvisibleParameterAnnotat@ 1000bba8     unpack.obj
 0002:00000bd0       ??_C@_0CD@ONLIBICP@RuntimeVisibleParameterAnnotatio@ 1000bbd0     unpack.obj
 0002:00000bf4       ??_C@_0BM@BNNGFNMF@RuntimeInvisibleAnnotations?$AA@ 1000bbf4     unpack.obj
 0002:00000c10       ??_C@_0BK@CIMGHPDJ@RuntimeVisibleAnnotations?$AA@ 1000bc10     unpack.obj
 0002:00000c2c       ??_C@_0CC@PCCOCALL@?$FLNB?$FL?$CI1?$CJ?$FN?$FN?$FLNH?$FL?$CI1?$CJ?$FN?$FN?$FLRSHNH?$FLRUH?$CI1?$CJ?$FN@ 1000bc2c     unpack.obj
 0002:00000c50       ??_C@_0JK@BMMFGJDP@?$FLNB?$FL?$CI1?$CJ?$FN?$FN?$FLNH?$FL?$CI1?$CJ?$FN?$FN?$FLRSHNH?$FLRUH?$CI1?$CJ?$FN@ 1000bc50     unpack.obj
 0002:00000cec       ??_C@_09MAEOCCFN@?$FLNB?$FL?$CI1?$CJ?$FN?$FN?$AA@ 1000bcec     unpack.obj
 0002:00000cf8       ??_C@_0DH@OHIKFIJI@undefined?5StackMapTable?5attribut@ 1000bcf8     unpack.obj
 0002:00000d30       ??_C@_0BO@CMGKNLIA@attribute?5index?5out?5of?5bounds?$AA@ 1000bd30     unpack.obj
 0002:00000d50       ??_C@_0BN@GFADPNEE@undefined?5attribute?5flag?5bit?$AA@ 1000bd50     unpack.obj
 0002:00000d70       ??_C@_0CE@NENNCDNJ@putlayout?3?5unexpected?5NULL?5for?5b@ 1000bd70     unpack.obj
 0002:00000d94       ??_C@_0BB@HNCAJEIE@cp?5utf8?5overflow?$AA@ 1000bd94     unpack.obj
 0002:00000da8       ??_C@_0BC@IJJDHGHN@cp?5class?5overflow?$AA@ 1000bda8     unpack.obj
 0002:00000dbc       ??_C@_0CL@JFLJFCLE@com?4sun?4java?4util?4jar?4pack?4unpac@ 1000bdbc     unpack.obj
 0002:00000de8       ??_C@_0DE@FNJPLIMN@com?4sun?4java?4util?4jar?4pack?4unpac@ 1000bde8     unpack.obj
 0002:00000e1c       ??_C@_0CD@CEMFBAGC@com?4sun?4java?4util?4jar?4pack?4verbo@ 1000be1c     unpack.obj
 0002:00000e40       ??_C@_0DC@KGJOKPLE@com?4sun?4java?4util?4jar?4pack?4unpac@ 1000be40     unpack.obj
 0002:00000e74       ??_C@_0BE@DAFJFMML@unpack?4deflate?4hint?$AA@ 1000be74     unpack.obj
 0002:00000e88       ??_C@_03CGLHMDPP@now?$AA@  1000be88     unpack.obj
 0002:00000e8c       ??_C@_0CJ@LFNCLCEP@com?4sun?4java?4util?4jar?4pack?4verbo@ 1000be8c     unpack.obj
 0002:00000eb8       ??_C@_04LKOEDJLC@keep?$AA@ 1000beb8     unpack.obj
 0002:00000ec0       ??_C@_0BB@MICPNADP@bad?5layout?5index?$AA@ 1000bec0     unpack.obj
 0002:00000ed4       ??_C@_0BE@BKLBLMJK@bad?5attribute?5index?$AA@ 1000bed4     unpack.obj
 0002:00000ee8       ??_C@_0BM@GPDDEOEP@too?5many?5InnerClasses?5attrs?$AA@ 1000bee8     unpack.obj
 0002:00000f04       ??_C@_05PBJILJE@?4java?$AA@ 1000bf04     unpack.obj
 0002:00000f0c       ??_C@_0BN@CLDGGNCI@bad?5reference?5to?5inner?5class?$AA@ 1000bf0c     unpack.obj
 0002:00000f2c       ??_C@_0BI@CDCINJGA@resource?5file?5too?5large?$AA@ 1000bf2c     unpack.obj
 0002:00000f44       ??_C@_06POIMOJKC@?4class?$AA@ 1000bf44     unpack.obj
 0002:00000f4c       ??_C@_0BM@NDDMOHPH@class?5file?5size?5transmitted?$AA@ 1000bf4c     unpack.obj
 0002:00000f68       ??_C@_0CC@IOEIADGN@archive?5header?5had?5incorrect?5siz@ 1000bf68     unpack.obj
 0002:00000f8c       ??_C@_02DKCKIIND@?$CFs?$AA@ 1000bf8c     unpack.obj
 0002:00000f90       ??_C@_05PLDGDPEG@?$CDupkg?$AA@ 1000bf90     unpack.obj
 0002:00000f98       ??_C@_0N@BPOMLKFP@?$CFsunpack?4log?$AA@ 1000bf98     unpack.obj
 0002:00000fa8       ??_C@_03GIOIKFCO@C?3?2?$AA@ 1000bfa8     unpack.obj
 0002:00000fac       ??_C@_02DPNLHKJD@a?$CL?$AA@ 1000bfac     unpack.obj
 0002:00000fb0       ??_C@_0BEA@GOCGFCKC@01?$AASignature?$AADeprecated?$AARuntimeV@ 1000bfb0     unpack.obj
 0002:000010f0       ??_C@_0BG@FDJMCAOP@identical?5inner?5class?$AA@ 1000c0f0     unpack.obj
 0002:00001108       ??_C@_0BF@JFFKOPFD@Error?3?5unpacker?3?5?$CFs?6?$AA@ 1000c108     utils.obj
 0002:00001120       ??_C@_0CE@HLJAOJEP@corrupt?5pack?5file?5or?5internal?5er@ 1000c120     utils.obj
 0002:00001144       ??_C@_0CG@HFNCMKIN@Error?3?5unpacker?3?5no?5current?5inst@ 1000c144     utils.obj
 0002:00001174       __pDefaultRawDllMain       1000c174     MSVCRT:crtdll.obj
 0002:00001174       __pRawDllMain              1000c174     MSVCRT:crtdll.obj
 0002:00001180       __load_config_used         1000c180     MSVCRT:loadcfg.obj
 0002:00001250       ___safe_se_handler_table   1000c250     <linker-defined>
 0002:00001254       ___rtc_iaa                 1000c254     MSVCRT:_initsect_.obj
 0002:00001258       ___rtc_izz                 1000c258     MSVCRT:_initsect_.obj
 0002:0000125c       ___rtc_taa                 1000c25c     MSVCRT:_initsect_.obj
 0002:00001260       ___rtc_tzz                 1000c260     MSVCRT:_initsect_.obj
 0002:000012cc       __IMPORT_DESCRIPTOR_java   1000c2cc     java:java.dll
 0002:000012e0       __IMPORT_DESCRIPTOR_jvm    1000c2e0     jvm:jvm.dll
 0002:000012f4       __IMPORT_DESCRIPTOR_MSVCR100 1000c2f4     MSVCRT:MSVCR100.dll
 0002:00001308       __IMPORT_DESCRIPTOR_KERNEL32 1000c308     kernel32:KERNEL32.dll
 0002:0000131c       __NULL_IMPORT_DESCRIPTOR   1000c31c     java:java.dll
 0003:00000000       ?basic_codings@@3PAUcoding@@A 1000d000     coding.obj
 0003:00000af8       ___security_cookie         1000daf8     MSVCRT:gs_cookie.obj
 0003:00000afc       ___security_cookie_complement 1000dafc     MSVCRT:gs_cookie.obj
 0003:00000b00       ___native_dllmain_reason   1000db00     MSVCRT:natstart.obj
 0003:00000b04       ___native_vcclrit_reason   1000db04     MSVCRT:natstart.obj
 0003:0000126c       ?__type_info_root_node@@3U__type_info_node@@A 1000e26c     MSVCRT:tncleanup.obj
 0003:00001274       ___native_startup_state    1000e274     <common>
 0003:00001278       ___native_startup_lock     1000e278     <common>
 0003:0000127c       ___onexitend               1000e27c     <common>
 0003:00001280       ___onexitbegin             1000e280     <common>
 0003:00001284       ___dyn_tls_init_callback   1000e284     <common>

 entry point at        0001:00008d44

 Static symbols

 0001:00000764       ?decode_sign@@YAHHI@Z      10001764 f   coding.obj
 0001:00000b4c       ?getDeltaValue@@YAHPAUvalue_stream@@I_N@Z 10001b4c f   coding.obj
 0001:000015f7       ?read_input_via_jni@@YA_JPAUunpacker@@PAX_J2@Z 100025f7 f   jni.obj
 0001:000016e6       ?get_unpacker@@YAPAUunpacker@@PAUJNIEnv_@@PAV_jobject@@_N@Z 100026e6 f   jni.obj
 0001:00002256       ?store_Utf8_char@@YAPACPACG@Z 10003256 f   unpack.obj
 0001:000022ad       ?compare_Utf8_chars@@YAHAAUbytes@@0@Z 100032ad f   unpack.obj
 0001:000023c2       ?isDigitString@@YA_NAAUbytes@@HH@Z 100033c2 f   unpack.obj
 0001:000023e6       ?lastIndexOf@@YAHHHAAUbytes@@H@Z 100033e6 f   unpack.obj
 0001:00002709       ?is_branch_op@@YA_NH@Z     10003709 f   unpack.obj
 0001:00002725       ?is_local_slot_op@@YA_NH@Z 10003725 f   unpack.obj
 0001:000089d6       _pre_c_init                100099d6 f   MSVCRT:crtdll.obj
 0001:00008c2e       ___DllMainCRTStartup       10009c2e f   MSVCRT:crtdll.obj
