 jvm

 Timestamp is 4dff5c0a (Mon Jun 20 07:41:14 2011)

 Preferred load address is 08000000

 Start         Length     Name                   Class
 0001:00000000 0024b228H .text                   CODE
 0001:0024b230 000015d9H .text$yc                CODE
 0001:0024c810 000002deH .text$yd                CODE
 0002:00000000 00000378H .idata$5                DATA
 0002:00000378 00000004H .CRT$XCA                DATA
 0002:0000037c 000000e8H .CRT$XCU                DATA
 0002:00000464 00000004H .CRT$XCZ                DATA
 0002:00000468 00000004H .CRT$XIA                DATA
 0002:0000046c 00000004H .CRT$XIAA               DATA
 0002:00000470 00000004H .CRT$XIC                DATA
 0002:00000474 00000004H .CRT$XIZ                DATA
 0002:00000480 0004db18H .rdata                  DATA
 0002:0004df98 0000007dH .rdata$debug            DATA
 0002:0004e018 000137bcH .rdata$r                DATA
 0002:000617e0 00000004H .rdata$sxdata           DATA
 0002:000617e4 00000004H .rtc$IAA                DATA
 0002:000617e8 00000004H .rtc$IZZ                DATA
 0002:000617ec 00000004H .rtc$TAA                DATA
 0002:000617f0 00000004H .rtc$TZZ                DATA
 0002:000617f8 00000224H .xdata$x                DATA
 0002:00061a1c 00000078H .idata$2                DATA
 0002:00061a94 00000014H .idata$3                DATA
 0002:00061aa8 00000378H .idata$4                DATA
 0002:00061e20 00000db6H .idata$6                DATA
 0002:00062be0 0000afbfH .edata                  DATA
 0003:00000000 00015bd8H .data                   DATA
 0003:00015bd8 00014efcH .bss                    DATA
 0004:00000000 00000058H .rsrc$01                DATA
 0004:00000060 000002c0H .rsrc$02                DATA

  Address         Publics by Value              Rva+Base       Lib:Object

 0000:00000000       __except_list              00000000     <absolute>
 0000:00000001       ___safe_se_handler_count   00000001     <absolute>
 0000:00009876       __ldused                   00009876     <absolute>
 0000:00009876       __fltused                  00009876     <absolute>
 0000:00000000       ___ImageBase               08000000     <linker-defined>
 0001:00000000       ?generate_stack_overflow_check@AbstractAssembler@@QAEXH@Z 08001000 f   assembler.obj
 0001:00000050       ?update_all@DelayedConstant@@SAXXZ 08001050 f   assembler.obj
 0001:00000080       ?update_delayed_values@AbstractAssembler@@SAXXZ 08001080 f   assembler.obj
 0001:00000090       ?needs_explicit_null_check@MacroAssembler@@SA_NH@Z 08001090 f   assembler.obj
 0001:000000c0       ??0?$FormatBuffer@$0BAA@@@QAA@PBDZZ 080010c0 f i assembler.obj
 0001:000000f0       ?cmpxchg_ptr@Atomic@@SAPAXPAXPCX0@Z 080010f0 f i assembler.obj
 0001:00000120       ?emit_byte@AbstractAssembler@@IAEXH@Z 08001120 f i assembler.obj
 0001:00000120       ?a_byte@AbstractAssembler@@QAEXH@Z 08001120 f i assembler.obj
 0001:00000170       ?grow@?$GrowableArray@PAVciInstance@@@@AAEXH@Z 08001170 f i ciObjectFactory.obj
 0001:00000170       ?grow@?$GrowableArray@PAU_jvmtiMonitorStackDepthInfo@@@@AAEXH@Z 08001170 f i jvmtiEnvBase.obj
 0001:00000170       ?grow@?$GrowableArray@PAVGrowableElement@@@@AAEXH@Z 08001170 f i jvmtiImpl.obj
 0001:00000170       ?grow@?$GrowableArray@PAVciKlass@@@@AAEXH@Z 08001170 f i ciObjectFactory.obj
 0001:00000170       ?grow@?$GrowableArray@PAVClassFieldDescriptor@@@@AAEXH@Z 08001170 f i jvmtiTagMap.obj
 0001:00000170       ?grow@?$GrowableArray@PAVoopDesc@@@@AAEXH@Z 08001170 f i dump.obj
 0001:00000170       ?grow@?$GrowableArray@PAD@@AAEXH@Z 08001170 f i classLoader.obj
 0001:00000170       ?grow@?$GrowableArray@PAVKlass@@@@AAEXH@Z 08001170 f i heapDumper.obj
 0001:00000170       ?grow@?$GrowableArray@PAVBasicBlock@MethodLiveness@@@@AAEXH@Z 08001170 f i methodLiveness.obj
 0001:00000170       ?grow@?$GrowableArray@VHandle@@@@AAEXH@Z 08001170 f i interpreterRuntime.obj
 0001:00000170       ?grow@?$GrowableArray@PAVJvmtiRawMonitor@@@@AAEXH@Z 08001170 f i jvmtiEnv.obj
 0001:00000170       ?grow@?$GrowableArray@PAVmarkOopDesc@@@@AAEXH@Z 08001170 f i jvmtiTagMap.obj
 0001:00000170       ?grow@?$GrowableArray@PAVcompiledVFrame@@@@AAEXH@Z 08001170 f i deoptimization.obj
 0001:00000170       ?grow@?$GrowableArray@PAVProfilerNode@@@@AAEXH@Z 08001170 f i fprofiler.obj
 0001:00000170       ?grow@?$GrowableArray@PAU_jvmtiExtensionFunctionInfo@@@@AAEXH@Z 08001170 f i jvmtiExtensions.obj
 0001:00000170       ?grow@?$GrowableArray@PAVJavaThread@@@@AAEXH@Z 08001170 f i thread.obj
 0001:00000170       ?grow@?$GrowableArray@PAVinstanceKlass@@@@AAEXH@Z 08001170 f i jvmtiTagMap.obj
 0001:00000170       ?grow@?$GrowableArray@PAVklassOopDesc@@@@AAEXH@Z 08001170 f i dump.obj
 0001:00000170       ?grow@?$GrowableArray@VmethodHandle@@@@AAEXH@Z 08001170 f i instanceKlass.obj
 0001:00000170       ?grow@?$GrowableArray@PAVPerfData@@@@AAEXH@Z 08001170 f i perfData.obj
 0001:00000170       ?grow@?$GrowableArray@PAVSymbol@@@@AAEXH@Z 08001170 f i verifier.obj
 0001:00000170       ?grow@?$GrowableArray@H@@AAEXH@Z 08001170 f i assembler.obj
 0001:00000170       ?grow@?$GrowableArray@PAVMonitorValue@@@@AAEXH@Z 08001170 f i scopeDesc.obj
 0001:00000170       ?grow@?$GrowableArray@PAVDIR_Chunk@@@@AAEXH@Z 08001170 f i debugInfoRec.obj
 0001:00000170       ?grow@?$GrowableArray@PAVInstruction@@@@AAEXH@Z 08001170 f i c1_GraphBuilder.obj
 0001:00000170       ?grow@?$GrowableArray@PAV_jobject@@@@AAEXH@Z 08001170 f i oopRecorder.obj
 0001:00000170       ?grow@?$GrowableArray@PAVJvmtiCodeBlobDesc@@@@AAEXH@Z 08001170 f i jvmtiCodeBlobEvents.obj
 0001:00000170       ?grow@?$GrowableArray@PAVCompilerThread@@@@AAEXH@Z 08001170 f i compileBroker.obj
 0001:00000170       ?grow@?$GrowableArray@PAVLGRPSpace@MutableNUMASpace@@@@AAEXH@Z 08001170 f i mutableNUMASpace.obj
 0001:00000170       ?grow@?$GrowableArray@PAVCodeBlob@@@@AAEXH@Z 08001170 f i fprofiler.obj
 0001:00000170       ?grow@?$GrowableArray@PAVMonitorInfo@@@@AAEXH@Z 08001170 f i biasedLocking.obj
 0001:00000170       ?grow@?$GrowableArray@PAVFilteredField@@@@AAEXH@Z 08001170 f i reflectionUtils.obj
 0001:00000170       ?grow@?$GrowableArray@PAVjvmtiDeferredLocalVariableSet@@@@AAEXH@Z 08001170 f i vframe_hp.obj
 0001:00000170       ?grow@?$GrowableArray@PAVciType@@@@AAEXH@Z 08001170 f i ciSignature.obj
 0001:00000170       ?grow@?$GrowableArray@PAVPreviousVersionNode@@@@AAEXH@Z 08001170 f i instanceKlass.obj
 0001:00000170       ?grow@?$GrowableArray@PAVKlassInfoEntry@@@@AAEXH@Z 08001170 f i heapInspection.obj
 0001:00000170       ?grow@?$GrowableArray@PAVStackValue@@@@AAEXH@Z 08001170 f i vframe.obj
 0001:00000170       ?grow@?$GrowableArray@PAVConstantValue@MethodHandleCompiler@@@@AAEXH@Z 08001170 f i methodHandleWalk.obj
 0001:00000170       ?grow@?$GrowableArray@PAVChangeItem@@@@AAEXH@Z 08001170 f i relocator.obj
 0001:00000170       ?grow@?$GrowableArray@PAVciMethod@@@@AAEXH@Z 08001170 f i ciObjectFactory.obj
 0001:00000170       ?grow@?$GrowableArray@PAX@@AAEXH@Z 08001170 f i ciConstantPoolCache.obj
 0001:00000170       ?grow@?$GrowableArray@PAVciField@@@@AAEXH@Z 08001170 f i ciInstanceKlass.obj
 0001:00000170       ?grow@?$GrowableArray@PAVinstanceOopDesc@@@@AAEXH@Z 08001170 f i threadService.obj
 0001:00000170       ?grow@?$GrowableArray@PAVStackFrameInfo@@@@AAEXH@Z 08001170 f i threadService.obj
 0001:00000170       ?grow@?$GrowableArray@PAVScopeValue@@@@AAEXH@Z 08001170 f i debugInfo.obj
 0001:00000170       ?grow@?$GrowableArray@PAVHeapRegion@@@@AAEXH@Z 08001170 f i collectionSetChooser.obj
 0001:00000170       ?grow@?$GrowableArray@PAE@@AAEXH@Z 08001170 f i interpreterRuntime.obj
 0001:00000170       ?grow@?$GrowableArray@PAVMemoryPool@@@@AAEXH@Z 08001170 f i memoryService.obj
 0001:00000170       ?grow@?$GrowableArray@PAVLIR_Const@@@@AAEXH@Z 08001170 f i c1_LIRGenerator.obj
 0001:00000170       ?grow@?$GrowableArray@PAVFieldBuffer@@@@AAEXH@Z 08001170 f i c1_GraphBuilder.obj
 0001:00000170       ?grow@?$GrowableArray@PAVjvmtiDeferredLocalVariable@@@@AAEXH@Z 08001170 f i vframe_hp.obj
 0001:00000170       ?grow@?$GrowableArray@PAU_jvmtiExtensionEventInfo@@@@AAEXH@Z 08001170 f i jvmtiExtensions.obj
 0001:00000170       ?grow@?$GrowableArray@VinstanceHandle@@@@AAEXH@Z 08001170 f i jvm.obj
 0001:00000170       ?grow@?$GrowableArray@PAVMonitor@@@@AAEXH@Z 08001170 f i gcTaskManager.obj
 0001:00000170       ?grow@?$GrowableArray@PAVmethodOopDesc@@@@AAEXH@Z 08001170 f i klassVtable.obj
 0001:00000170       ?grow@?$GrowableArray@PAVciBlock@@@@AAEXH@Z 08001170 f i ciMethodBlocks.obj
 0001:00000170       ?grow@?$GrowableArray@PAVMemoryManager@@@@AAEXH@Z 08001170 f i memoryService.obj
 0001:00000170       ?grow@?$GrowableArray@PAVciSymbol@@@@AAEXH@Z 08001170 f i ciObjectFactory.obj
 0001:00000170       ?grow@?$GrowableArray@PAVciObject@@@@AAEXH@Z 08001170 f i ciObjectFactory.obj
 0001:00000210       ??0AbstractAssembler@@QAE@PAVCodeBuffer@@@Z 08001210 f   assembler.obj
 0001:000002a0       ?start_a_stub@AbstractAssembler@@QAEPAEH@Z 080012a0 f   assembler.obj
 0001:00000330       ?end_a_stub@AbstractAssembler@@QAEXXZ 08001330 f   assembler.obj
 0001:00000330       ?end_a_const@AbstractAssembler@@QAEXXZ 08001330 f   assembler.obj
 0001:00000390       ?start_a_const@AbstractAssembler@@QAEPAEHH@Z 08001390 f   assembler.obj
 0001:00000460       ?flush@AbstractAssembler@@QAEXXZ 08001460 f   assembler.obj
 0001:000004b0       ?patch_instructions@Label@@QAEXPAVMacroAssembler@@@Z 080014b0 f   assembler.obj
 0001:00000580       ?add@DelayedConstant@@SAPAU1@W4BasicType@@P6AXXZ@Z 08001580 f   assembler.obj
 0001:00000610       ?delayed_value_addr@AbstractAssembler@@SAPAHP6AHXZ@Z 08001610 f   assembler.obj
 0001:00000630       ?append@?$GrowableArray@PAVScopeValue@@@@QAEHABQAVScopeValue@@@Z 08001630 f i debugInfo.obj
 0001:00000630       ?append@?$GrowableArray@PAE@@QAEHABQAE@Z 08001630 f i interpreterRuntime.obj
 0001:00000630       ?append@?$GrowableArray@H@@QAEHABH@Z 08001630 f i assembler.obj
 0001:00000660       ?bind@AbstractAssembler@@QAEXAAVLabel@@@Z 08001660 f   assembler.obj
 0001:000006d0       ?add_patch_at@Label@@QAEXPAVCodeBuffer@@H@Z 080016d0 f   assembler.obj
 0001:00000730       ?initialize_oop_recorder@CodeBuffer@@QAEXPAVOopRecorder@@@Z 08001730 f   codeBuffer.obj
 0001:00000740       ?initialize_shared_locs@CodeSection@@QAEXPAVrelocInfo@@H@Z 08001740 f   codeBuffer.obj
 0001:00000780       ?Amalloc@Arena@@QAEPAXI@Z  08001780 f i codeBuffer.obj
 0001:000007d0       ??2ResourceObj@@SAPAXIPAVArena@@@Z 080017d0 f i codeBuffer.obj
 0001:00000820       ?next@RelocIterator@@QAE_NXZ 08001820 f i codeBuffer.obj
 0001:00000890       ??0CodeBuffer@@QAE@PAEH@Z  08001890 f i codeBuffer.obj
 0001:00000960       ??0CodeBuffer@@QAE@PAVCodeBlob@@@Z 08001960 f   codeBuffer.obj
 0001:00000a40       ?section_index_of@CodeBuffer@@QBEHPAE@Z 08001a40 f   codeBuffer.obj
 0001:00000a70       ?locator_address@CodeBuffer@@QBEPAEH@Z 08001a70 f   codeBuffer.obj
 0001:00000aa0       ?target@CodeSection@@QAEPAEAAVLabel@@PAE@Z 08001aa0 f   codeBuffer.obj
 0001:00000b00       ?initialize_locs@CodeSection@@AAEXH@Z 08001b00 f   codeBuffer.obj
 0001:00000b50       ?initialize_section_size@CodeBuffer@@AAEXPAVCodeSection@@H@Z 08001b50 f   codeBuffer.obj
 0001:00000be0       ?free_blob@CodeBuffer@@QAEXXZ 08001be0 f   codeBuffer.obj
 0001:00000c10       ?create_patch_overflow@CodeBuffer@@QAEPAV?$GrowableArray@H@@XZ 08001c10 f   codeBuffer.obj
 0001:00000cb0       ?expand_locs@CodeSection@@AAEXH@Z 08001cb0 f   codeBuffer.obj
 0001:00000d80       ?total_content_size@CodeBuffer@@QBEHXZ 08001d80 f   codeBuffer.obj
 0001:00000dc0       ?compute_final_layout@CodeBuffer@@ABEXPAV1@@Z 08001dc0 f   codeBuffer.obj
 0001:00000ea0       ?total_offset_of@CodeBuffer@@QBEHPAVCodeSection@@@Z 08001ea0 f   codeBuffer.obj
 0001:00000f00       ?copy_relocations_to@CodeBuffer@@ABEHPAVCodeBlob@@@Z 08001f00 f   codeBuffer.obj
 0001:00001090       ?relocate_code_to@CodeBuffer@@ABEXPAV1@@Z 08002090 f   codeBuffer.obj
 0001:00001200       ?figure_expanded_capacities@CodeBuffer@@AAEHPAVCodeSection@@HPAH@Z 08002200 f   codeBuffer.obj
 0001:00001330       ?take_over_code_from@CodeBuffer@@AAEXPAV1@@Z 08002330 f   codeBuffer.obj
 0001:000013e0       ?initialize@CodeBuffer@@QAEXHH@Z 080023e0 f   codeBuffer.obj
 0001:00001480       ??1CodeBuffer@@QAE@XZ      08002480 f   codeBuffer.obj
 0001:000014e0       ?relocate@CodeSection@@QAEXPAEABVRelocationHolder@@H@Z 080024e0 f   codeBuffer.obj
 0001:000015c0       ?total_relocation_size@CodeBuffer@@QBEHXZ 080025c0 f   codeBuffer.obj
 0001:00001620       ?copy_code_to@CodeBuffer@@AAEXPAVCodeBlob@@@Z 08002620 f   codeBuffer.obj
 0001:00001680       ??0CodeBuffer@@QAE@PBDHH@Z 08002680 f i codeBuffer.obj
 0001:00001720       ?expand@CodeBuffer@@AAEXPAVCodeSection@@H@Z 08002720 f   codeBuffer.obj
 0001:00001900       ?print_impl@ciArray@@MAEXPAVoutputStream@@@Z 08002900 f   ciArray.obj
 0001:00001940       ??0ciArrayKlass@@IAE@PAVciSymbol@@HPAVciKlass@@@Z 08002940 f   ciArrayKlass.obj
 0001:00001970       ?is_classless@ciType@@UBE_NXZ 08002970 f i ciArrayKlass.obj
 0001:00001990       ?type_string@ciArrayKlass@@MAEPBDXZ 08002990 f i ciArrayKlass.obj
 0001:000019a0       ??0ciArrayKlass@@IAE@VKlassHandle@@@Z 080029a0 f   ciArrayKlass.obj
 0001:000019d0       ?element_type@ciArrayKlass@@QAEPAVciType@@XZ 080029d0 f   ciArrayKlass.obj
 0001:00001a00       ?base_element_type@ciArrayKlass@@QAEPAVciType@@XZ 08002a00 f   ciArrayKlass.obj
 0001:00001a40       ?is_leaf_type@ciArrayKlass@@UAE_NXZ 08002a40 f   ciArrayKlass.obj
 0001:00001a60       ?write_memory_serialize_page@os@@SAXPAVJavaThread@@@Z 08002a60 f i ciCallSite.obj
 0001:00001a80       ??1HandleMarkCleaner@@QAE@XZ 08002a80 f i ciCallSite.obj
 0001:00001ab0       ?serialize_memory@InterfaceSupport@@SAXPAVJavaThread@@@Z 08002ab0 f i ciCallSite.obj
 0001:00001b20       ?transition_and_fence@ThreadStateTransition@@SAXPAVJavaThread@@W4JavaThreadState@@1@Z 08002b20 f i ciCallSite.obj
 0001:00001b80       ?transition_from_native@ThreadStateTransition@@SAXPAVJavaThread@@W4JavaThreadState@@@Z 08002b80 f i ciCallSite.obj
 0001:00001bf0       ?trans_and_fence@ThreadStateTransition@@IAEXW4JavaThreadState@@0@Z 08002bf0 f i ciCallSite.obj
 0001:00001c60       ??1ThreadInVMfromNative@@QAE@XZ 08002c60 f i ciCallSite.obj
 0001:00001cb0       ?get_object@ciEnv@@AAEPAVciObject@@PAVoopDesc@@@Z 08002cb0 f i ciCallSite.obj
 0001:00001cd0       ?current@ciEnv@@SAPAV1@XZ  08002cd0 f i ciCallSite.obj
 0001:00001cf0       ??0ciConstantPoolCache@@QAE@PAVArena@@H@Z 08002cf0 f   ciConstantPoolCache.obj
 0001:00001db0       ?get@ciConstantPoolCache@@QAEPAXH@Z 08002db0 f   ciConstantPoolCache.obj
 0001:00001e30       ?insert@ciConstantPoolCache@@QAEXHPAX@Z 08002e30 f   ciConstantPoolCache.obj
 0001:00001fc0       ?get_f1_offset@ciCPCache@@QAEIH@Z 08002fc0 f   ciCPCache.obj
 0001:00001fe0       ?is_f1_null_at@ciCPCache@@QAE_NH@Z 08002fe0 f   ciCPCache.obj
 0001:000020a0       ?cache_dtrace_flags@ciEnv@@QAEXXZ 080030a0 f   ciEnv.obj
 0001:000020e0       ?is_loaded@ciObject@@QBE_NXZ 080030e0 f i ciEnv.obj
 0001:00002100       ?method_handle_name_ref_at@constantPoolOopDesc@@QAEPAVSymbol@@H@Z 08003100 f i ciEnv.obj
 0001:00002120       ?method_handle_signature_ref_at@constantPoolOopDesc@@QAEPAVSymbol@@H@Z 08003120 f i ciEnv.obj
 0001:00002140       ?method_handle_klass_index_at@constantPoolOopDesc@@QAEHH@Z 08003140 f i ciEnv.obj
 0001:00002160       ??0Handle@@QAE@PAVThread@@PAVoopDesc@@@Z 08003160 f i ciEnv.obj
 0001:000021d0       ?get_symbol@ciEnv@@AAEPAVciSymbol@@PAVSymbol@@@Z 080031d0 f i ciEnv.obj
 0001:00002200       ?check_klass_accessibility@ciEnv@@AAE_NPAVciKlass@@PAVklassOopDesc@@@Z 08003200 f   ciEnv.obj
 0001:00002270       ?get_field_by_index_impl@ciEnv@@AAEPAVciField@@PAVciInstanceKlass@@H@Z 08003270 f   ciEnv.obj
 0001:00002340       ?name_buffer@ciEnv@@AAEPADH@Z 08003340 f   ciEnv.obj
 0001:000023d0       ?comp_level@ciEnv@@QAEHXZ  080033d0 f   ciEnv.obj
 0001:000023f0       ?notice_inlined_method@ciEnv@@QAEXPAVciMethod@@@Z 080033f0 f   ciEnv.obj
 0001:00002400       ?record_method_not_compilable@ciEnv@@QAEXPBD_N@Z 08003400 f   ciEnv.obj
 0001:00002470       ?record_out_of_memory_failure@ciEnv@@QAEXXZ 08003470 f   ciEnv.obj
 0001:000024d0       ?is_resolved@ConstantPoolCacheEntry@@QBE_NW4Code@Bytecodes@@@Z 080034d0 f i ciEnv.obj
 0001:00002550       ?main_entry_at@constantPoolCacheOopDesc@@QBEPAVConstantPoolCacheEntry@@H@Z 08003550 f i ciEnv.obj
 0001:00002570       ?string_at@constantPoolOopDesc@@QAEPAVoopDesc@@HPAVThread@@@Z 08003570 f i ciEnv.obj
 0001:000025e0       ??0ResourceMark@@QAE@XZ    080035e0 f i ciEnv.obj
 0001:00002610       ??1ResourceMark@@QAE@XZ    08003610 f i ciEnv.obj
 0001:00002640       ?write_ref_field@BarrierSet@@QAEXPAXPAVoopDesc@@@Z 08003640 f i ciEnv.obj
 0001:00002670       ??0Handle@@QAE@PAVoopDesc@@@Z 08003670 f i ciEnv.obj
 0001:000026e0       ??0ciEnv@@QAE@PAVCompileTask@@H@Z 080036e0 f   ciEnv.obj
 0001:00002880       ??0ciEnv@@QAE@PAVArena@@@Z 08003880 f   ciEnv.obj
 0001:00002980       ??1ciEnv@@QAE@XZ           08003980 f   ciEnv.obj
 0001:000029b0       ?cache_jvmti_state@ciEnv@@QAEXXZ 080039b0 f   ciEnv.obj
 0001:00002a70       ?get_method_from_handle@ciEnv@@AAEPAVciMethod@@PAV_jobject@@@Z 08003a70 f   ciEnv.obj
 0001:00002b30       ?get_klass_by_name_impl@ciEnv@@AAEPAVciKlass@@PAV2@PAVciSymbol@@_N@Z 08003b30 f   ciEnv.obj
 0001:00002ee0       ?lookup_method@ciEnv@@AAEPAVmethodOopDesc@@PAVinstanceKlass@@0PAVSymbol@@1W4Code@Bytecodes@@@Z 08003ee0 f   ciEnv.obj
 0001:000030a0       ?get_fake_invokedynamic_method_impl@ciEnv@@AAEPAVciMethod@@VconstantPoolHandle@@HW4Code@Bytecodes@@@Z 080040a0 f   ciEnv.obj
 0001:000031a0       ?get_instance_klass_for_declared_method_holder@ciEnv@@SAPAVciInstanceKlass@@PAVciKlass@@@Z 080041a0 f   ciEnv.obj
 0001:00003200       ?is_in_vm@ciEnv@@CA_NXZ    08004200 f   ciEnv.obj
 0001:00003220       ?check_for_system_dictionary_modification@ciEnv@@AAEXPAVciMethod@@@Z 08004220 f   ciEnv.obj
 0001:000032d0       ?register_method@ciEnv@@QAEXPAVciMethod@@HPAVCodeOffsets@@HPAVCodeBuffer@@HPAVOopMapSet@@PAVExceptionHandlerTable@@PAVImplicitExceptionTable@@PAVAbstractCompiler@@H_N7@Z 080042d0 f   ciEnv.obj
 0001:00003740       ?get_klass_by_name@ciEnv@@AAEPAVciKlass@@PAV2@PAVciSymbol@@_N@Z 08004740 f   ciEnv.obj
 0001:00003830       ?get_field_by_index@ciEnv@@AAEPAVciField@@PAVciInstanceKlass@@H@Z 08004830 f   ciEnv.obj
 0001:00003920       ?base_offset_in_bytes@arrayOopDesc@@SAHW4BasicType@@@Z 08004920 f i ciEnv.obj
 0001:00003950       ?resolved_klass_at@constantPoolOopDesc@@QAEPAVklassOopDesc@@H@Z 08004950 f i ciEnv.obj
 0001:00003990       ?slot_at@constantPoolOopDesc@@AAE?AVCPSlot@@H@Z 08004990 f i ciEnv.obj
 0001:000039e0       ?symbol_at@constantPoolOopDesc@@QAEPAVSymbol@@H@Z 080049e0 f i ciEnv.obj
 0001:00003a30       ?object_at@constantPoolOopDesc@@QAEPAVoopDesc@@H@Z 08004a30 f i ciEnv.obj
 0001:00003a30       ?pseudo_string_at@constantPoolOopDesc@@QAEPAVoopDesc@@H@Z 08004a30 f i ciEnv.obj
 0001:00003a80       ?method_type_signature_at@constantPoolOopDesc@@QAEPAVSymbol@@H@Z 08004a80 f i ciEnv.obj
 0001:00003ae0       ??$oop_store@PAVoopDesc@@@@YAXPAPAVoopDesc@@PAV0@@Z 08004ae0 f i ciEnv.obj
 0001:00003b60       ?get_klass_by_index_impl@ciEnv@@AAEPAVciKlass@@VconstantPoolHandle@@HAA_NPAVciInstanceKlass@@@Z 08004b60 f   ciEnv.obj
 0001:00003de0       ?get_klass_by_index@ciEnv@@AAEPAVciKlass@@VconstantPoolHandle@@HAA_NPAVciInstanceKlass@@@Z 08004de0 f   ciEnv.obj
 0001:00003ee0       ?get_constant_by_index_impl@ciEnv@@AAE?AVciConstant@@VconstantPoolHandle@@HHPAVciInstanceKlass@@@Z 08004ee0 f   ciEnv.obj
 0001:00004190       ?get_constant_by_index@ciEnv@@AAE?AVciConstant@@VconstantPoolHandle@@HHPAVciInstanceKlass@@@Z 08005190 f   ciEnv.obj
 0001:00004290       ?get_method_by_index_impl@ciEnv@@AAEPAVciMethod@@VconstantPoolHandle@@HW4Code@Bytecodes@@PAVciInstanceKlass@@@Z 08005290 f   ciEnv.obj
 0001:000043e0       ?get_method_by_index@ciEnv@@AAEPAVciMethod@@VconstantPoolHandle@@HW4Code@Bytecodes@@PAVciInstanceKlass@@@Z 080053e0 f   ciEnv.obj
 0001:00004510       ?catch_klass@ciExceptionHandler@@QAEPAVciInstanceKlass@@XZ 08005510 f   ciExceptionHandler.obj
 0001:000046d0       ?is_initialized@ciInstanceKlass@@QAE_NXZ 080056d0 f i ciField.obj
 0001:00004760       ?compute_type_impl@ciField@@AAEPAVciType@@XZ 08005760 f   ciField.obj
 0001:000047e0       ?will_link@ciField@@QAE_NPAVciInstanceKlass@@W4Code@Bytecodes@@@Z 080057e0 f   ciField.obj
 0001:00004a00       ?compute_type@ciField@@AAEPAVciType@@XZ 08005a00 f   ciField.obj
 0001:00004ad0       ?initialize_from@ciField@@AAEXPAVfieldDescriptor@@@Z 08005ad0 f   ciField.obj
 0001:00004e10       ?name@fieldDescriptor@@QBEPAVSymbol@@XZ 08005e10 f i ciField.obj
 0001:00004e70       ?signature@fieldDescriptor@@QBEPAVSymbol@@XZ 08005e70 f i ciField.obj
 0001:00004ed0       ??0ciField@@AAE@PAVciInstanceKlass@@H@Z 08005ed0 f   ciField.obj
 0001:00005120       ??0ciField@@AAE@PAVfieldDescriptor@@@Z 08006120 f   ciField.obj
 0001:00005210       ?print_klass_flags@ciFlags@@QAEXPAVoutputStream@@@Z 08006210 f   ciFlags.obj
 0001:000052a0       ?print_member_flags@ciFlags@@QAEXPAVoutputStream@@@Z 080062a0 f   ciFlags.obj
 0001:000053b0       ?print_impl@ciInstance@@MAEXPAVoutputStream@@@Z 080063b0 f   ciInstance.obj
 0001:000053e0       ?loader_handle@ciInstanceKlass@@MAEPAV_jobject@@XZ 080063e0 f   ciInstanceKlass.obj
 0001:000053f0       ?protection_domain_handle@ciInstanceKlass@@MAEPAV_jobject@@XZ 080063f0 f   ciInstanceKlass.obj
 0001:00005400       ??0ciInstanceKlass@@IAE@PAVciSymbol@@PAV_jobject@@1@Z 08006400 f   ciInstanceKlass.obj
 0001:00005460       ?type_string@ciInstanceKlass@@MAEPBDXZ 08006460 f i ciInstanceKlass.obj
 0001:00005470       ?is_interface@ciInstanceKlass@@UAE_NXZ 08006470 f i ciInstanceKlass.obj
 0001:00005480       ?is_abstract@ciInstanceKlass@@UAE_NXZ 08006480 f i ciInstanceKlass.obj
 0001:00005490       ?loader@ciInstanceKlass@@MAEPAVoopDesc@@XZ 08006490 f   ciInstanceKlass.obj
 0001:000054a0       ?protection_domain@ciInstanceKlass@@MAEPAVoopDesc@@XZ 080064a0 f   ciInstanceKlass.obj
 0001:000054b0       ?is_in_package_impl@ciInstanceKlass@@IAE_NPBDH@Z 080064b0 f   ciInstanceKlass.obj
 0001:00005520       ?java_mirror@ciInstanceKlass@@UAEPAVciInstance@@XZ 08006520 f   ciInstanceKlass.obj
 0001:00005570       ?is_leaf_type@ciInstanceKlass@@UAE_NXZ 08006570 f   ciInstanceKlass.obj
 0001:000055a0       ?compute_shared_init_state@ciInstanceKlass@@IAEXXZ 080065a0 f   ciInstanceKlass.obj
 0001:00005660       ?compute_shared_has_subklass@ciInstanceKlass@@IAE_NXZ 08006660 f   ciInstanceKlass.obj
 0001:00005740       ?compute_shared_nof_implementors@ciInstanceKlass@@IAEHXZ 08006740 f   ciInstanceKlass.obj
 0001:00005810       ?field_cache@ciInstanceKlass@@IAEPAVciConstantPoolCache@@XZ 08006810 f   ciInstanceKlass.obj
 0001:00005890       ?is_java_lang_Object@ciInstanceKlass@@UAE_NXZ 08006890 f   ciInstanceKlass.obj
 0001:000058b0       ?is_in_package@ciInstanceKlass@@QAE_NPBDH@Z 080068b0 f   ciInstanceKlass.obj
 0001:00005950       ?super@ciInstanceKlass@@QAEPAV1@XZ 08006950 f   ciInstanceKlass.obj
 0001:00005a50       ?has_finalizable_subclass@ciInstanceKlass@@QAE_NXZ 08006a50 f   ciInstanceKlass.obj
 0001:00005b20       ?implementor@ciInstanceKlass@@QAEPAV1@H@Z 08006b20 f   ciInstanceKlass.obj
 0001:00005c00       ?has_subklass@ciInstanceKlass@@QAE_NXZ 08006c00 f i ciInstanceKlass.obj
 0001:00005c30       ??0ciInstanceKlass@@IAE@VKlassHandle@@@Z 08006c30 f   ciInstanceKlass.obj
 0001:00005de0       ?print_impl@ciInstanceKlass@@MAEXPAVoutputStream@@@Z 08006de0 f   ciInstanceKlass.obj
 0001:00005ff0       ?do_field@NonStaticFieldFiller@@UAEXPAVfieldDescriptor@@@Z 08006ff0 f i ciInstanceKlass.obj
 0001:00006070       ?compute_nonstatic_fields_impl@ciInstanceKlass@@IAEPAV?$GrowableArray@PAVciField@@@@PAV2@@Z 08007070 f   ciInstanceKlass.obj
 0001:00006250       ?compute_nonstatic_fields@ciInstanceKlass@@IAEHXZ 08007250 f   ciInstanceKlass.obj
 0001:000063d0       ?make@ciInstanceKlassKlass@@SAPAV1@XZ 080073d0 f   ciInstanceKlassKlass.obj
 0001:000063f0       ??0ciKlass@@IAE@VKlassHandle@@PAVciSymbol@@@Z 080073f0 f   ciKlass.obj
 0001:00006420       ??0ciKlass@@IAE@PAVciSymbol@@PAV0@@Z 08007420 f   ciKlass.obj
 0001:00006450       ?print_impl@ciKlass@@MAEXPAVoutputStream@@@Z 08007450 f   ciKlass.obj
 0001:00006480       ?is_subtype_of@Klass@@QBE_NPAVklassOopDesc@@@Z 08007480 f i ciKlass.obj
 0001:000064b0       ?type_string@ciKlass@@MAEPBDXZ 080074b0 f i ciKlass.obj
 0001:000064c0       ?print_name_on@ciKlass@@UAEXPAVoutputStream@@@Z 080074c0 f   ciKlass.obj
 0001:000064d0       ??0ciKlass@@QAE@VKlassHandle@@@Z 080074d0 f   ciKlass.obj
 0001:00006540       ?is_subtype_of@ciKlass@@QAE_NPAV1@@Z 08007540 f   ciKlass.obj
 0001:00006620       ?is_subclass_of@ciKlass@@QAE_NPAV1@@Z 08007620 f   ciKlass.obj
 0001:000066e0       ?super_check_offset@ciKlass@@QAEIXZ 080076e0 f   ciKlass.obj
 0001:00006790       ?java_mirror@ciKlass@@UAEPAVciInstance@@XZ 08007790 f   ciKlass.obj
 0001:000068c0       ?modifier_flags@ciKlass@@QAEHXZ 080078c0 f   ciKlass.obj
 0001:00006990       ?bit_mask@InterpreterOopMap@@IAEPAIXZ 08007990 f i ciMethod.obj
 0001:000069a0       ?will_link@ciMethod@@QAE_NPAVciKlass@@0W4Code@Bytecodes@@@Z 080079a0 f   ciMethod.obj
 0001:000069c0       ?print_impl@ciMethod@@EAEXPAVoutputStream@@@Z 080079c0 f   ciMethod.obj
 0001:00006a60       ??0ciMethod@@AAE@PAVciInstanceKlass@@PAVciSymbol@@1@Z 08007a60 f   ciMethod.obj
 0001:00006b00       ?type_string@ciMethod@@EAEPBDXZ 08007b00 f i ciMethod.obj
 0001:00006b10       ?has_balanced_monitors@ciMethod@@QAE_NXZ 08007b10 f   ciMethod.obj
 0001:00006d30       ?raw_liveness_at_bci@ciMethod@@QAE?AVMethodLivenessResult@@H@Z 08007d30 f   ciMethod.obj
 0001:00006dc0       ?liveness_at_bci@ciMethod@@QAE?AVMethodLivenessResult@@H@Z 08007dc0 f   ciMethod.obj
 0001:00006e00       ?bci_block_start@ciMethod@@QAE?BVBitMap@@XZ 08007e00 f   ciMethod.obj
 0001:00006e80       ?resolve_invoke@ciMethod@@QAEPAV1@PAVciKlass@@0@Z 08007e80 f   ciMethod.obj
 0001:00007120       ?is_method_handle_invoke@ciMethod@@QBE_NXZ 08008120 f   ciMethod.obj
 0001:00007220       ?ensure_method_data@ciMethod@@AAE_NVmethodHandle@@@Z 08008220 f   ciMethod.obj
 0001:00007320       ?method_data@ciMethod@@QAEPAVciMethodData@@XZ 08008320 f   ciMethod.obj
 0001:000074a0       ?method_data_or_null@ciMethod@@QAEPAVciMethodData@@XZ 080084a0 f   ciMethod.obj
 0001:000074c0       ?should_exclude@ciMethod@@QAE_NXZ 080084c0 f   ciMethod.obj
 0001:000075b0       ?break_at_execute@ciMethod@@QAE_NXZ 080085b0 f   ciMethod.obj
 0001:000076a0       ?can_be_compiled@ciMethod@@QAE_NXZ 080086a0 f   ciMethod.obj
 0001:000076d0       ?log_nmethod_identity@ciMethod@@QAEXPAVxmlStream@@@Z 080086d0 f   ciMethod.obj
 0001:000077a0       ?has_loops@ciMethod@@QBE_NXZ 080087a0 f   ciMethod.obj
 0001:00007860       ?has_jsrs@ciMethod@@QBE_NXZ 08008860 f   ciMethod.obj
 0001:00007910       ?is_accessor@ciMethod@@QBE_NXZ 08008910 f   ciMethod.obj
 0001:000079c0       ?get_method_blocks@ciMethod@@QAEPAVciMethodBlocks@@XZ 080089c0 f   ciMethod.obj
 0001:00007a30       ?live_local_oops_at_bci@ciMethod@@QAE?AVBitMap@@H@Z 08008a30 f   ciMethod.obj
 0001:00007ba0       ?find_monomorphic_target@ciMethod@@QAEPAV1@PAVciInstanceKlass@@00@Z 08008ba0 f   ciMethod.obj
 0001:00007ce0       ?ensure_method_data@ciMethod@@QAE_NXZ 08008ce0 f   ciMethod.obj
 0001:00007d90       ?load_code@ciMethod@@AAEXXZ 08008d90 f   ciMethod.obj
 0001:00008030       ?name@methodOopDesc@@QBEPAVSymbol@@XZ 08009030 f i ciMethod.obj
 0001:00008090       ?signature@methodOopDesc@@QBEPAVSymbol@@XZ 08009090 f i ciMethod.obj
 0001:000080f0       ??0ciMethod@@AAE@VmethodHandle@@@Z 080090f0 f   ciMethod.obj
 0001:00008440       ?next@ciBytecodeStream@@QAE?AW4Code@Bytecodes@@XZ 08009440 f i ciMethodBlocks.obj
 0001:00008490       ?next@ciExceptionHandlerStream@@QAEXXZ 08009490 f i ciMethodBlocks.obj
 0001:00008540       ??0Bytecode_lookupswitch@@QAE@PBVciBytecodeStream@@@Z 08009540 f i ciMethodBlocks.obj
 0001:00008540       ??0Bytecode_tableswitch@@QAE@PBVciBytecodeStream@@@Z 08009540 f i ciMethodBlocks.obj
 0001:00008580       ?length@Bytecode_tableswitch@@QAEHXZ 08009580 f i ciMethodBlocks.obj
 0001:000085c0       ?get_dest@ciBytecodeStream@@QBEHXZ 080095c0 f i ciMethodBlocks.obj
 0001:00008600       ?get_far_dest@ciBytecodeStream@@QBEHXZ 08009600 f i ciMethodBlocks.obj
 0001:00008640       ?split_block_at@ciMethodBlocks@@QAEPAVciBlock@@H@Z 08009640 f   ciMethodBlocks.obj
 0001:00008730       ?make_block_at@ciMethodBlocks@@QAEPAVciBlock@@H@Z 08009730 f   ciMethodBlocks.obj
 0001:000087f0       ?do_analysis@ciMethodBlocks@@AAEXXZ 080097f0 f   ciMethodBlocks.obj
 0001:00008c10       ??0ciMethodBlocks@@QAE@PAVArena@@PAVciMethod@@@Z 08009c10 f   ciMethodBlocks.obj
 0001:00008ea0       ?cell_count@ProfileData@@UAEHXZ 08009ea0 f i ciMethodData.obj
 0001:00008ec0       ?print_data_on@ProfileData@@UAEXPAVoutputStream@@@Z 08009ec0 f i ciMethodData.obj
 0001:00008ee0       ?kind@CopyMemoryManager@@UAE?AW4Name@MemoryManager@@XZ 08009ee0 f i memoryManager.obj
 0001:00008ee0       ?kind@DefNewGeneration@@UAE?AW4Name@Generation@@XZ 08009ee0 f i defNewGeneration.obj
 0001:00008ee0       ?type@VM_ThreadDump@@UBE?AW4VMOp_Type@VM_Operation@@XZ 08009ee0 f i vm_operations.obj
 0001:00008ee0       ?number_of_generations@TwoGenerationCollectorPolicy@@UAEHXZ 08009ee0 f i collectorPolicy.obj
 0001:00008ee0       ?kind@GCAdaptivePolicyCounters@@UBE?AW4Name@GCPolicyCounters@@XZ 08009ee0 f i gcAdaptivePolicyCounters.obj
 0001:00008ee0       ?kind@CMSAdaptiveSizePolicy@@MBE?AW4GCPolicyKind@AdaptiveSizePolicy@@XZ 08009ee0 f i cmsAdaptiveSizePolicy.obj
 0001:00008ee0       ?cell_count@JumpData@@UAEHXZ 08009ee0 f i ciMethodData.obj
 0001:00008ee0       ?kind@GenCollectedHeap@@UBE?AW4Name@CollectedHeap@@XZ 08009ee0 f i genCollectedHeap.obj
 0001:00008ee0       ?type@virtual_call_Relocation@@EAE?AW4relocType@relocInfo@@XZ 08009ee0 f i relocInfo.obj
 0001:00008ef0       ?cell_count@ReceiverTypeData@@UAEHXZ 08009ef0 f i ciMethodData.obj
 0001:00008ef0       ?cell_count@VirtualCallData@@UAEHXZ 08009ef0 f i ciMethodData.obj
 0001:00008f00       ?cell_count@ArrayData@@UAEHXZ 08009f00 f i ciMethodData.obj
 0001:00008f10       ?data_at@ciMethodData@@QAEPAVProfileData@@H@Z 08009f10 f   ciMethodData.obj
 0001:00009090       ?offset_of_slot@ciMethodData@@QAEHPAVProfileData@@H@Z 0800a090 f   ciMethodData.obj
 0001:000090b0       ??0ciMethodData@@AAE@VmethodDataHandle@@@Z 0800a0b0 f   ciMethodData.obj
 0001:00009160       ?type_string@ciMethodData@@EAEPBDXZ 0800a160 f i ciMethodData.obj
 0001:00009170       ??0ciMethodData@@AAE@XZ    0800a170 f   ciMethodData.obj
 0001:00009220       ?load_data@ciMethodData@@QAEXXZ 0800a220 f   ciMethodData.obj
 0001:00009400       ?translate_receiver_data_from@ciReceiverTypeData@@QAEXPAVProfileData@@@Z 0800a400 f   ciMethodData.obj
 0001:00009470       ?set_compilation_stats@ciMethodData@@QAEXFF@Z 0800a470 f   ciMethodData.obj
 0001:00009530       ?set_would_profile@ciMethodData@@QAEX_N@Z 0800a530 f   ciMethodData.obj
 0001:000095e0       ?translate_from@ciVirtualCallData@@UAEXPAVProfileData@@@Z 0800a5e0 f i ciMethodData.obj
 0001:000095e0       ?translate_from@ciReceiverTypeData@@UAEXPAVProfileData@@@Z 0800a5e0 f i ciMethodData.obj
 0001:000095f0       ?bci_to_data@ciMethodData@@QAEPAVProfileData@@H@Z 0800a5f0 f   ciMethodData.obj
 0001:000096c0       ?print_impl@ciMethodHandle@@MAEXPAVoutputStream@@@Z 0800a6c0 f   ciMethodHandle.obj
 0001:000096f0       ?make@ciMethodKlass@@SAPAV1@XZ 0800a6f0 f   ciMethodKlass.obj
 0001:00009710       ?print_impl@ciNullObject@@EAEXPAVoutputStream@@@Z 0800a710 f   ciNullObject.obj
 0001:00009730       ?make@ciNullObject@@SAPAV1@XZ 0800a730 f   ciNullObject.obj
 0001:00009750       ??0ciObjArrayKlass@@IAE@PAVciSymbol@@PAVciKlass@@H@Z 0800a750 f   ciObjArrayKlass.obj
 0001:00009790       ?type_string@ciObjArrayKlass@@MAEPBDXZ 0800a790 f i ciObjArrayKlass.obj
 0001:000097a0       ?loader@ciObjArrayKlass@@MAEPAVoopDesc@@XZ 0800a7a0 f i ciObjArrayKlass.obj
 0001:000097b0       ?loader_handle@ciObjArrayKlass@@MAEPAV_jobject@@XZ 0800a7b0 f i ciObjArrayKlass.obj
 0001:000097c0       ?protection_domain@ciObjArrayKlass@@MAEPAVoopDesc@@XZ 0800a7c0 f i ciObjArrayKlass.obj
 0001:000097d0       ?protection_domain_handle@ciObjArrayKlass@@MAEPAV_jobject@@XZ 0800a7d0 f i ciObjArrayKlass.obj
 0001:000097e0       ??0ciObjArrayKlass@@IAE@VKlassHandle@@@Z 0800a7e0 f   ciObjArrayKlass.obj
 0001:00009850       ?construct_array_name@ciObjArrayKlass@@KAPAVciSymbol@@PAV2@H@Z 0800a850 f   ciObjArrayKlass.obj
 0001:00009960       ?make_impl@ciObjArrayKlass@@KAPAV1@PAVciKlass@@@Z 0800a960 f   ciObjArrayKlass.obj
 0001:00009a20       ?make@ciObjArrayKlass@@SAPAV1@PAVciKlass@@@Z 0800aa20 f   ciObjArrayKlass.obj
 0001:00009af0       ?element_klass@ciObjArrayKlass@@QAEPAVciKlass@@XZ 0800aaf0 f   ciObjArrayKlass.obj
 0001:00009c10       ?make@ciObjArrayKlassKlass@@SAPAV1@XZ 0800ac10 f   ciObjArrayKlassKlass.obj
 0001:00009c30       ??0ciObject@@IAE@PAVciKlass@@@Z 0800ac30 f   ciObject.obj
 0001:00009c50       ??0ciObject@@IAE@XZ        0800ac50 f   ciObject.obj
 0001:00009c70       ?set_ident@ciObject@@IAEXI@Z 0800ac70 f   ciObject.obj
 0001:00009c90       ?ident@ciObject@@QAEIXZ    0800ac90 f   ciObject.obj
 0001:00009ca0       ?equals@ciObject@@QAE_NPAV1@@Z 0800aca0 f   ciObject.obj
 0001:00009cb0       ?hash@ciObject@@QAEHXZ     0800acb0 f   ciObject.obj
 0001:00009cc0       ??RconstantPoolHandle@@QBEPAVconstantPoolOopDesc@@XZ 0800acc0 f i classFileParser.obj
 0001:00009cc0       ??RHandle@@QBEPAVoopDesc@@XZ 0800acc0 f i ciObject.obj
 0001:00009cc0       ??RtypeArrayHandle@@QBEPAVtypeArrayOopDesc@@XZ 0800acc0 f i ciObjectFactory.obj
 0001:00009cc0       ??RKlassHandle@@QBEPAVklassOopDesc@@XZ 0800acc0 f i ciEnv.obj
 0001:00009cd0       ?type_string@ciObject@@MAEPBDXZ 0800acd0 f i ciObject.obj
 0001:00009ce0       ??0ciObject@@IAE@VHandle@@@Z 0800ace0 f   ciObject.obj
 0001:00009d80       ?klass@ciObject@@QAEPAVciKlass@@XZ 0800ad80 f   ciObject.obj
 0001:00009e80       ?should_be_constant@ciObject@@QAE_NXZ 0800ae80 f   ciObject.obj
 0001:00009ef0       ?print@ciObject@@QAEXPAVoutputStream@@@Z 0800aef0 f   ciObject.obj
 0001:0000a010       ?vm_symbol_at@ciObjectFactory@@SAPAVciSymbol@@H@Z 0800b010 f   ciObjectFactory.obj
 0001:0000a020       ?type2name@@YAPBDW4BasicType@@@Z 0800b020 f i ciObjectFactory.obj
 0001:0000a040       ??0ciKlassKlass@@IAE@VKlassHandle@@@Z 0800b040 f i ciObjectFactory.obj
 0001:0000a070       ?type_string@ciKlassKlass@@MAEPBDXZ 0800b070 f i ciObjectFactory.obj
 0001:0000a080       ??0ciInstanceKlassKlass@@AAE@VKlassHandle@@@Z 0800b080 f i ciObjectFactory.obj
 0001:0000a0b0       ?type_string@ciInstanceKlassKlass@@EAEPBDXZ 0800b0b0 f i ciObjectFactory.obj
 0001:0000a0c0       ?type_string@ciNullObject@@EAEPBDXZ 0800b0c0 f i ciObjectFactory.obj
 0001:0000a0d0       ?type_string@ciInstance@@MAEPBDXZ 0800b0d0 f i ciObjectFactory.obj
 0001:0000a0e0       ?type_string@ciArrayKlassKlass@@MAEPBDXZ 0800b0e0 f i ciObjectFactory.obj
 0001:0000a0f0       ??0ciMethodKlass@@IAE@VKlassHandle@@@Z 0800b0f0 f i ciObjectFactory.obj
 0001:0000a120       ?type_string@ciMethodKlass@@MAEPBDXZ 0800b120 f i ciObjectFactory.obj
 0001:0000a130       ??0ciObjArrayKlassKlass@@AAE@VKlassHandle@@@Z 0800b130 f i ciObjectFactory.obj
 0001:0000a160       ?type_string@ciObjArrayKlassKlass@@EAEPBDXZ 0800b160 f i ciObjectFactory.obj
 0001:0000a170       ??0ciTypeArrayKlassKlass@@AAE@VKlassHandle@@@Z 0800b170 f i ciObjectFactory.obj
 0001:0000a1a0       ?type_string@ciTypeArrayKlassKlass@@EAEPBDXZ 0800b1a0 f i ciObjectFactory.obj
 0001:0000a1b0       ??0ciMethodHandle@@QAE@VinstanceHandle@@@Z 0800b1b0 f i ciObjectFactory.obj
 0001:0000a1f0       ?remove_symbols@ciObjectFactory@@QAEXXZ 0800b1f0 f   ciObjectFactory.obj
 0001:0000a220       ?get_empty_methodData@ciObjectFactory@@QAEPAVciMethodData@@XZ 0800b220 f   ciObjectFactory.obj
 0001:0000a290       ?find@ciObjectFactory@@AAEHPAVoopDesc@@PAV?$GrowableArray@PAVciObject@@@@@Z 0800b290 f   ciObjectFactory.obj
 0001:0000a2e0       ?insert_non_perm@ciObjectFactory@@AAEXAAPAUNonPermObject@1@PAVoopDesc@@PAVciObject@@@Z 0800b2e0 f   ciObjectFactory.obj
 0001:0000a340       ??0?$GrowableArray@PAVciType@@@@QAE@PAVArena@@HHABQAVciType@@@Z 0800b340 f i ciSignature.obj
 0001:0000a340       ??0?$GrowableArray@PAVciField@@@@QAE@PAVArena@@HHABQAVciField@@@Z 0800b340 f i ciInstanceKlass.obj
 0001:0000a340       ??0?$GrowableArray@H@@QAE@PAVArena@@HHABH@Z 0800b340 f i codeBuffer.obj
 0001:0000a340       ??0?$GrowableArray@PAVBasicBlock@MethodLiveness@@@@QAE@PAVArena@@HHABQAVBasicBlock@MethodLiveness@@@Z 0800b340 f i methodLiveness.obj
 0001:0000a340       ??0?$GrowableArray@PAV_jobject@@@@QAE@PAVArena@@HHABQAV_jobject@@@Z 0800b340 f i oopRecorder.obj
 0001:0000a340       ??0?$GrowableArray@PAVciObject@@@@QAE@PAVArena@@HHABQAVciObject@@@Z 0800b340 f i ciObjectFactory.obj
 0001:0000a340       ??0?$GrowableArray@PAVciBlock@@@@QAE@PAVArena@@HHABQAVciBlock@@@Z 0800b340 f i ciMethodBlocks.obj
 0001:0000a340       ??0?$GrowableArray@PAX@@QAE@PAVArena@@HHABQAX@Z 0800b340 f i ciConstantPoolCache.obj
 0001:0000a3b0       ?type_string@ciArray@@MAEPBDXZ 0800b3b0 f i ciObjectFactory.obj
 0001:0000a3c0       ?is_array@oopDesc@@QBE_NXZ 0800b3c0 f i ciObjectFactory.obj
 0001:0000a3e0       ?is_klass@oopDesc@@QBE_NXZ 0800b3e0 f i ciObjectFactory.obj
 0001:0000a400       ?is_methodData@oopDesc@@QBE_NXZ 0800b400 f i ciObjectFactory.obj
 0001:0000a420       ?is_constantPoolCache@oopDesc@@QBE_NXZ 0800b420 f i ciObjectFactory.obj
 0001:0000a440       ?is_instance@java_lang_invoke_MethodHandle@@SA_NPAVoopDesc@@@Z 0800b440 f i ciObjectFactory.obj
 0001:0000a470       ?is_instance@java_lang_invoke_CallSite@@SA_NPAVoopDesc@@@Z 0800b470 f i ciObjectFactory.obj
 0001:0000a4a0       ??0ciObjArray@@IAE@VobjArrayHandle@@@Z 0800b4a0 f i ciObjectFactory.obj
 0001:0000a4f0       ?type_string@ciObjArray@@MAEPBDXZ 0800b4f0 f i ciObjectFactory.obj
 0001:0000a500       ??0ciTypeArray@@IAE@VtypeArrayHandle@@@Z 0800b500 f i ciObjectFactory.obj
 0001:0000a550       ?type_string@ciTypeArray@@MAEPBDXZ 0800b550 f i ciObjectFactory.obj
 0001:0000a560       ?create_new_object@ciObjectFactory@@AAEPAVciObject@@PAVoopDesc@@@Z 0800b560 f   ciObjectFactory.obj
 0001:0000aab0       ?appendAll@?$GrowableArray@PAVciObject@@@@QAEXPBV1@@Z 0800bab0 f i ciObjectFactory.obj
 0001:0000aab0       ?appendAll@?$GrowableArray@PAVPerfData@@@@QAEXPBV1@@Z 0800bab0 f i perfData.obj
 0001:0000aab0       ?appendAll@?$GrowableArray@PAVciField@@@@QAEXPBV1@@Z 0800bab0 f i ciInstanceKlass.obj
 0001:0000ab10       ??0ciObjectFactory@@QAE@PAVArena@@H@Z 0800bb10 f   ciObjectFactory.obj
 0001:0000ae90       ?get_unloaded_method@ciObjectFactory@@QAEPAVciMethod@@PAVciInstanceKlass@@PAVciSymbol@@1@Z 0800be90 f   ciObjectFactory.obj
 0001:0000af70       ?get_unloaded_instance@ciObjectFactory@@AAEPAVciInstance@@PAVciInstanceKlass@@@Z 0800bf70 f   ciObjectFactory.obj
 0001:0000b040       ?get_unloaded_klass_mirror@ciObjectFactory@@QAEPAVciInstance@@PAVciKlass@@@Z 0800c040 f   ciObjectFactory.obj
 0001:0000b050       ?get_unloaded_method_handle_constant@ciObjectFactory@@QAEPAVciInstance@@PAVciKlass@@PAVciSymbol@@1H@Z 0800c050 f   ciObjectFactory.obj
 0001:0000b070       ?get_unloaded_method_type_constant@ciObjectFactory@@QAEPAVciInstance@@PAVciSymbol@@@Z 0800c070 f   ciObjectFactory.obj
 0001:0000b090       ?insert@ciObjectFactory@@AAEXHPAVciObject@@PAV?$GrowableArray@PAVciObject@@@@@Z 0800c090 f   ciObjectFactory.obj
 0001:0000b120       ?get_symbol@ciObjectFactory@@QAEPAVciSymbol@@PAVSymbol@@@Z 0800c120 f   ciObjectFactory.obj
 0001:0000b1b0       ?get@ciObjectFactory@@QAEPAVciObject@@PAVoopDesc@@@Z 0800c1b0 f   ciObjectFactory.obj
 0001:0000b2f0       ?find_non_perm@ciObjectFactory@@AAEAAPAUNonPermObject@1@PAVoopDesc@@@Z 0800c2f0 f   ciObjectFactory.obj
 0001:0000b380       ?init_shared_objects@ciObjectFactory@@QAEXXZ 0800c380 f   ciObjectFactory.obj
 0001:0000bd50       ?get_unloaded_klass@ciObjectFactory@@QAEPAVciKlass@@PAV2@PAVciSymbol@@_N@Z 0800cd50 f   ciObjectFactory.obj
 0001:0000bfd0       ?initialize@ciObjectFactory@@SAXXZ 0800cfd0 f   ciObjectFactory.obj
 0001:0000c050       ?next@SignatureStream@@QAEXXZ 0800d050 f i ciSignature.obj
 0001:0000c150       ?return_type@ciSignature@@QBEPAVciType@@XZ 0800d150 f   ciSignature.obj
 0001:0000c160       ?type_at@ciSignature@@QBEPAVciType@@H@Z 0800d160 f   ciSignature.obj
 0001:0000c180       ??0ciSignature@@AAE@PAVciKlass@@PAVciSymbol@@@Z 0800d180 f   ciSignature.obj
 0001:0000c350       ?reset_to_bci@ciBytecodeStream@@QAEXH@Z 0800d350 f   ciStreams.obj
 0001:0000c370       ?next_wide_or_table@ciBytecodeStream@@AAE?AW4Code@Bytecodes@@W423@@Z 0800d370 f   ciStreams.obj
 0001:0000c450       ?get_field@ciBytecodeStream@@QAEPAVciField@@AA_N@Z 0800d450 f   ciStreams.obj
 0001:0000c4b0       ?get_method_index@ciBytecodeStream@@QAEHXZ 0800d4b0 f   ciStreams.obj
 0001:0000c510       ?get_method_holder_index@ciBytecodeStream@@QAEHXZ 0800d510 f   ciStreams.obj
 0001:0000c590       ?get_cpcache@ciBytecodeStream@@QBEPAVciCPCache@@XZ 0800d590 f   ciStreams.obj
 0001:0000c680       ?get_index_u2@ciBytecodeStream@@QBEH_N@Z 0800d680 f i ciStreams.obj
 0001:0000c6d0       ?force_bci@ciBytecodeStream@@QAEXH@Z 0800d6d0 f   ciStreams.obj
 0001:0000c740       ?get_klass_index@ciBytecodeStream@@QBEHXZ 0800d740 f   ciStreams.obj
 0001:0000c8a0       ?get_klass@ciBytecodeStream@@QAEPAVciKlass@@AA_N@Z 0800d8a0 f   ciStreams.obj
 0001:0000c980       ?get_constant_raw_index@ciBytecodeStream@@QBEHXZ 0800d980 f   ciStreams.obj
 0001:0000ca10       ?get_constant@ciBytecodeStream@@QAE?AVciConstant@@XZ 0800da10 f   ciStreams.obj
 0001:0000cb10       ?get_method@ciBytecodeStream@@QAEPAVciMethod@@AA_N@Z 0800db10 f   ciStreams.obj
 0001:0000cc60       ?get_declared_method_holder@ciBytecodeStream@@QAEPAVciKlass@@XZ 0800dc60 f   ciStreams.obj
 0001:0000cdf0       ??0ciSymbol@@AAE@PAVSymbol@@W4SID@vmSymbols@@@Z 0800ddf0 f   ciSymbol.obj
 0001:0000ce10       ?new_symbol@SymbolTable@@SAPAVSymbol@@PBDPAVThread@@@Z 0800de10 f i ciSymbol.obj
 0001:0000ce40       ?base@ciSymbol@@AAEPBCXZ   0800de40 f   ciSymbol.obj
 0001:0000cf00       ?byte_at@ciSymbol@@QAEHH@Z 0800df00 f   ciSymbol.obj
 0001:0000cfd0       ?starts_with@ciSymbol@@QBE_NPBDH@Z 0800dfd0 f   ciSymbol.obj
 0001:0000d0b0       ?index_of_at@ciSymbol@@QBEHHPBDH@Z 0800e0b0 f   ciSymbol.obj
 0001:0000d190       ?utf8_length@ciSymbol@@QAEHXZ 0800e190 f   ciSymbol.obj
 0001:0000d250       ?print_symbol_on@ciSymbol@@QAEXPAVoutputStream@@@Z 0800e250 f   ciSymbol.obj
 0001:0000d310       ?make_impl@ciSymbol@@CAPAV1@PBD@Z 0800e310 f   ciSymbol.obj
 0001:0000d3c0       ?make@ciSymbol@@SAPAV1@PBD@Z 0800e3c0 f   ciSymbol.obj
 0001:0000d490       ??0ciType@@AAE@W4BasicType@@@Z 0800e490 f   ciType.obj
 0001:0000d4b0       ??0ciType@@AAE@PAVciKlass@@@Z 0800e4b0 f   ciType.obj
 0001:0000d4f0       ?print_impl@ciType@@EAEXPAVoutputStream@@@Z 0800e4f0 f   ciType.obj
 0001:0000d520       ?make@ciType@@SAPAV1@W4BasicType@@@Z 0800e520 f   ciType.obj
 0001:0000d540       ?print_impl@ciReturnAddress@@EAEXPAVoutputStream@@@Z 0800e540 f   ciType.obj
 0001:0000d560       ?type_string@ciType@@EAEPBDXZ 0800e560 f i ciType.obj
 0001:0000d570       ?type_string@ciReturnAddress@@EAEPBDXZ 0800e570 f i ciType.obj
 0001:0000d580       ??0ciType@@AAE@VKlassHandle@@@Z 0800e580 f   ciType.obj
 0001:0000d5c0       ?is_subtype_of@ciType@@QAE_NPAV1@@Z 0800e5c0 f   ciType.obj
 0001:0000d610       ?print_name_on@ciType@@UAEXPAVoutputStream@@@Z 0800e610 f   ciType.obj
 0001:0000d650       ?java_mirror@ciType@@UAEPAVciInstance@@XZ 0800e650 f   ciType.obj
 0001:0000d720       ??0ciTypeArrayKlass@@IAE@VKlassHandle@@@Z 0800e720 f   ciTypeArrayKlass.obj
 0001:0000d740       ?type_string@ciTypeArrayKlass@@MAEPBDXZ 0800e740 f i ciTypeArrayKlass.obj
 0001:0000d750       ?make@ciTypeArrayKlass@@SAPAV1@W4BasicType@@@Z 0800e750 f   ciTypeArrayKlass.obj
 0001:0000d870       ?classfile_parse_error@ClassFileParser@@AAEXPBDPAVThread@@@Z 0800e870 f   classFileError.obj
 0001:0000d8e0       ?classfile_parse_error@ClassFileParser@@AAEXPBDHPAVThread@@@Z 0800e8e0 f   classFileError.obj
 0001:0000d960       ?classfile_parse_error@ClassFileParser@@AAEXPBD0PAVThread@@@Z 0800e960 f   classFileError.obj
 0001:0000d9e0       ?classfile_parse_error@ClassFileParser@@AAEXPBDH0PAVThread@@@Z 0800e9e0 f   classFileError.obj
 0001:0000da60       ?stackmap_format_error@StackMapStream@@SAXPBDPAVThread@@@Z 0800ea60 f   classFileError.obj
 0001:0000dac0       ?valid_cp_range@@YA_NHH@Z  0800eac0 f i classFileParser.obj
 0001:0000dae0       ?hash@@YAIPAVLocalVariableTableElement@@@Z 0800eae0 f   classFileParser.obj
 0001:0000db10       ?clear_hashtable@@YAXPAPAVLVT_Hash@@@Z 0800eb10 f   classFileParser.obj
 0001:0000db60       ?LVT_lookup@@YAPAVLVT_Hash@@PAVLocalVariableTableElement@@HPAPAV1@@Z 0800eb60 f   classFileParser.obj
 0001:0000dbb0       ?LVT_put_after_lookup@@YA_NPAVLocalVariableTableElement@@PAPAVLVT_Hash@@@Z 0800ebb0 f   classFileParser.obj
 0001:0000dc20       ?set_has_final_method@Klass@@QAEXXZ 0800ec20 f i classFileParser.obj
 0001:0000dc30       ?set_has_miranda_methods@Klass@@QAEXXZ 0800ec30 f i classFileParser.obj
 0001:0000dc40       ?has_illegal_visibility@ClassFileParser@@AAE_NH@Z 0800ec40 f   classFileParser.obj
 0001:0000dc80       ?verify_unqualified_name@ClassFileParser@@AAE_NPADIH@Z 0800ec80 f   classFileParser.obj
 0001:0000dd00       ?field_type_should_be_aligned@Universe@@SA_NW4BasicType@@@Z 0800ed00 f i classFileParser.obj
 0001:0000dd20       ?is_within_bounds@constantPoolOopDesc@@QBE_NH@Z 0800ed20 f i classFileParser.obj
 0001:0000dd40       ?start_of_nonstatic_oop_maps@instanceKlass@@QBEPAVOopMapBlock@@XZ 0800ed40 f i classFileParser.obj
 0001:0000dd60       ?write_pair_inline@CompressedLineNumberWriteStream@@QAEXHH@Z 0800ed60 f i classFileParser.obj
 0001:0000dde0       ?write_terminator@CompressedLineNumberWriteStream@@QAEXXZ 0800ede0 f i classFileParser.obj
 0001:0000de00       ?guarantee_property@ClassFileParser@@AAEX_NPBDPAVThread@@@Z 0800ee00 f i classFileParser.obj
 0001:0000de20       ?is_gte_jdk16x_version@JDK_Version@@SA_NXZ 0800ee20 f i classFileParser.obj
 0001:0000de50       ?add_class_method_size@ClassLoadingService@@SAXH@Z 0800ee50 f i classFileParser.obj
 0001:0000de70       ??1ConstantPoolCleaner@@QAE@XZ 0800ee70 f i classFileParser.obj
 0001:0000de90       ?put_after_lookup@@YA_NPAVSymbol@@0PAPAVNameSigHash@@@Z 0800ee90 f   classFileParser.obj
 0001:0000df10       ?compute_oop_map_count@ClassFileParser@@AAEIVinstanceKlassHandle@@IH@Z 0800ef10 f   classFileParser.obj
 0001:0000df80       ?fill_oop_maps@ClassFileParser@@AAEXVinstanceKlassHandle@@IPAHPAI@Z 0800ef80 f   classFileParser.obj
 0001:0000e070       ?set_precomputed_flags@ClassFileParser@@AAEXVinstanceKlassHandle@@@Z 0800f070 f   classFileParser.obj
 0001:0000e1f0       ?is_supported_version@ClassFileParser@@AAE_NGG@Z 0800f1f0 f   classFileParser.obj
 0001:0000e260       ?verify_legal_utf8@ClassFileParser@@AAEXPBEHPAVThread@@@Z 0800f260 f   classFileParser.obj
 0001:0000e4a0       ??0instanceKlassHandle@@QAE@PAVThread@@PAVklassOopDesc@@@Z 0800f4a0 f i classFileParser.obj
 0001:0000e4c0       ?skip_over_field_name@ClassFileParser@@AAEPADPAD_NI@Z 0800f4c0 f   classFileParser.obj
 0001:0000e6e0       ?skip_over_field_signature@ClassFileParser@@AAEPADPAD_NIPAVThread@@@Z 0800f6e0 f   classFileParser.obj
 0001:0000e810       ?set_code@methodOopDesc@@QAEXPAE@Z 0800f810 f i classFileParser.obj
 0001:0000e840       ?size_given_klass@oopDesc@@QAEHPAVKlass@@@Z 0800f840 f i classFileParser.obj
 0001:0000e8a0       ?size@oopDesc@@QAEHXZ      0800f8a0 f i classFileParser.obj
 0001:0000e8f0       ?check_property@ClassFileParser@@AAEX_NPBDHPAVThread@@@Z 0800f8f0 f i classFileParser.obj
 0001:0000e920       ?has_cp_patch_at@ClassFileParser@@AAE_NH@Z 0800f920 f i classFileParser.obj
 0001:0000e950       ??0PerfClassTraceTime@@QAE@PAVPerfLongCounter@@00PAHPAVelapsedTimer@@H@Z 0800f950 f i classFileParser.obj
 0001:0000e9a0       ?is_instance@java_lang_String@@SA_NPAVoopDesc@@@Z 0800f9a0 f i classFileParser.obj
 0001:0000e9c0       ?is_instance@java_lang_Class@@SA_NPAVoopDesc@@@Z 0800f9c0 f i classFileParser.obj
 0001:0000e9e0       ?parse_linenumber_table@ClassFileParser@@AAEXIIPAPAVCompressedLineNumberWriteStream@@PAVThread@@@Z 0800f9e0 f   classFileParser.obj
 0001:0000eb50       ?copy_lvt_element@@YAXPAVClassfile_LVT_Element@@PAVLocalVariableTableElement@@@Z 0800fb50 f   classFileParser.obj
 0001:0000ebc0       ?throwIllegalSignature@ClassFileParser@@AAEXPBDPAVSymbol@@1PAVThread@@@Z 0800fbc0 f   classFileParser.obj
 0001:0000ec50       ?check_super_class_access@ClassFileParser@@SAXVinstanceKlassHandle@@PAVThread@@@Z 0800fc50 f   classFileParser.obj
 0001:0000ed10       ?verify_legal_class_modifiers@ClassFileParser@@AAEXHPAVThread@@@Z 0800fd10 f   classFileParser.obj
 0001:0000ee10       ?verify_legal_field_modifiers@ClassFileParser@@AAEXH_NPAVThread@@@Z 0800fe10 f   classFileParser.obj
 0001:0000ef30       ?verify_legal_method_modifiers@ClassFileParser@@AAEXH_NPAVSymbol@@PAVThread@@@Z 0800ff30 f   classFileParser.obj
 0001:0000f0d0       ?verify_legal_class_name@ClassFileParser@@AAEXPAVSymbol@@PAVThread@@@Z 080100d0 f   classFileParser.obj
 0001:0000f280       ?verify_legal_field_name@ClassFileParser@@AAEXPAVSymbol@@PAVThread@@@Z 08010280 f   classFileParser.obj
 0001:0000f3b0       ?verify_legal_method_name@ClassFileParser@@AAEXPAVSymbol@@PAVThread@@@Z 080103b0 f   classFileParser.obj
 0001:0000f500       ?verify_legal_field_signature@ClassFileParser@@AAEXPAVSymbol@@0PAVThread@@@Z 08010500 f   classFileParser.obj
 0001:0000f5a0       ?verify_legal_method_signature@ClassFileParser@@AAEHPAVSymbol@@0PAVThread@@@Z 080105a0 f   classFileParser.obj
 0001:0000f730       ?unresolved_klass_at_put@constantPoolOopDesc@@QAEXHPAVSymbol@@@Z 08010730 f i classFileParser.obj
 0001:0000f750       ?method_handle_index_at_put@constantPoolOopDesc@@QAEXHHH@Z 08010750 f i classFileParser.obj
 0001:0000f770       ?invoke_dynamic_at_put@constantPoolOopDesc@@QAEXHHH@Z 08010770 f i classFileParser.obj
 0001:0000f790       ?unresolved_string_at_put@constantPoolOopDesc@@QAEXHPAVSymbol@@@Z 08010790 f i classFileParser.obj
 0001:0000f7b0       ?symbol_at_put@constantPoolOopDesc@@QAEXHPAVSymbol@@@Z 080107b0 f i classFileParser.obj
 0001:0000f7d0       ?name_and_type_at_put@constantPoolOopDesc@@QAEXHHH@Z 080107d0 f i classFileParser.obj
 0001:0000f7f0       ?is_klass_reference@ClassFileParser@@AAE_NVconstantPoolHandle@@H@Z 080107f0 f i classFileParser.obj
 0001:0000f850       ??$oop_store_without_check@PAVoopDesc@@@@YAXPCRAVoopDesc@@PAV0@@Z 08010850 f i classFileParser.obj
 0001:0000f8b0       ?parse_constant_pool_entries@ClassFileParser@@AAEXVconstantPoolHandle@@HPAVThread@@@Z 080108b0 f   classFileParser.obj
 0001:000101c0       ?parse_exception_table@ClassFileParser@@AAE?AVtypeArrayHandle@@IIVconstantPoolHandle@@PAVThread@@@Z 080111c0 f   classFileParser.obj
 0001:000103e0       ?parse_stackmap_table@ClassFileParser@@AAEPAVtypeArrayOopDesc@@IPAVThread@@@Z 080113e0 f   classFileParser.obj
 0001:00010460       ?parse_checked_exceptions@ClassFileParser@@AAEPAGPAGIVconstantPoolHandle@@PAVThread@@@Z 08011460 f   classFileParser.obj
 0001:000105b0       ?assemble_annotations@ClassFileParser@@AAE?AVtypeArrayHandle@@PAEH0HPAVThread@@@Z 080115b0 f   classFileParser.obj
 0001:00010670       ?klass_at_put@constantPoolOopDesc@@QAEXHPAVklassOopDesc@@@Z 08011670 f i classFileParser.obj
 0001:000106c0       ?string_at_put@constantPoolOopDesc@@QAEXHPAVoopDesc@@@Z 080116c0 f i classFileParser.obj
 0001:00010740       ?patch_constant_pool@ClassFileParser@@AAEXVconstantPoolHandle@@HVHandle@@PAVThread@@@Z 08011740 f   classFileParser.obj
 0001:00010a20       ?verify_constantvalue@ClassFileParser@@AAEXHHVconstantPoolHandle@@PAVThread@@@Z 08011a20 f   classFileParser.obj
 0001:00010b70       ?parse_field_attributes@ClassFileParser@@AAEXVconstantPoolHandle@@G_NGPAGPA_N2PAVtypeArrayHandle@@PAVThread@@@Z 08011b70 f   classFileParser.obj
 0001:00010e50       ?parse_localvariable_table@ClassFileParser@@AAEPAGIGIVconstantPoolHandle@@PAG_NPAVThread@@@Z 08011e50 f   classFileParser.obj
 0001:00011120       ?sort_methods@ClassFileParser@@AAE?AVtypeArrayHandle@@VobjArrayHandle@@000PAVThread@@@Z 08012120 f   classFileParser.obj
 0001:00011270       ?parse_classfile_sourcefile_attribute@ClassFileParser@@AAEXVconstantPoolHandle@@VinstanceKlassHandle@@PAVThread@@@Z 08012270 f   classFileParser.obj
 0001:00011320       ?parse_classfile_signature_attribute@ClassFileParser@@AAEXVconstantPoolHandle@@VinstanceKlassHandle@@PAVThread@@@Z 08012320 f   classFileParser.obj
 0001:000113c0       ?java_lang_ref_Reference_fix_pre@ClassFileParser@@AAEXPAVtypeArrayHandle@@VconstantPoolHandle@@PAUFieldAllocationCount@@PAVThread@@@Z 080123c0 f   classFileParser.obj
 0001:000115f0       ?java_lang_invoke_MethodHandle_fix_pre@ClassFileParser@@AAEXVconstantPoolHandle@@VtypeArrayHandle@@PAUFieldAllocationCount@@PAVThread@@@Z 080125f0 f   classFileParser.obj
 0001:00011800       ?check_super_interface_access@ClassFileParser@@SAXVinstanceKlassHandle@@PAVThread@@@Z 08012800 f   classFileParser.obj
 0001:00011930       ?check_final_method_override@ClassFileParser@@SAXVinstanceKlassHandle@@PAVThread@@@Z 08012930 f   classFileParser.obj
 0001:00011b10       ?check_illegal_static_method@ClassFileParser@@SAXVinstanceKlassHandle@@PAVThread@@@Z 08012b10 f   classFileParser.obj
 0001:00011c90       ?set_class_loader@instanceKlass@@QAEXPAVoopDesc@@@Z 08012c90 f i classFileParser.obj
 0001:00011cb0       ?set_protection_domain@instanceKlass@@QAEXPAVoopDesc@@@Z 08012cb0 f i classFileParser.obj
 0001:00011cd0       ?parse_constant_pool@ClassFileParser@@AAE?AVconstantPoolHandle@@PAVThread@@@Z 08012cd0 f   classFileParser.obj
 0001:00012a40       ?parse_interfaces@ClassFileParser@@AAE?AVobjArrayHandle@@VconstantPoolHandle@@HVHandle@@1PAVSymbol@@PAVThread@@@Z 08013a40 f   classFileParser.obj
 0001:00012e10       ?parse_fields@ClassFileParser@@AAE?AVtypeArrayHandle@@VconstantPoolHandle@@_NPAUFieldAllocationCount@@PAVobjArrayHandle@@PAVThread@@@Z 08013e10 f   classFileParser.obj
 0001:000134e0       ?append_interfaces@@YAXVobjArrayHandle@@AAHPAVobjArrayOopDesc@@@Z 080144e0 f   classFileParser.obj
 0001:00013590       ?compute_transitive_interfaces@ClassFileParser@@AAE?AVobjArrayHandle@@VinstanceKlassHandle@@V2@PAVThread@@@Z 08014590 f   classFileParser.obj
 0001:00013850       ?set_stackmap_data@constMethodOopDesc@@QAEXPAVtypeArrayOopDesc@@@Z 08014850 f i classFileParser.obj
 0001:00013880       ?set_pool_holder@constantPoolOopDesc@@QAEXPAVklassOopDesc@@@Z 08014880 f i classFileParser.obj
 0001:000138b0       ?set_local_interfaces@instanceKlass@@QAEXPAVobjArrayOopDesc@@@Z 080148b0 f i classFileParser.obj
 0001:000138e0       ?set_transitive_interfaces@instanceKlass@@QAEXPAVobjArrayOopDesc@@@Z 080148e0 f i classFileParser.obj
 0001:00013910       ?set_fields@instanceKlass@@QAEXPAVtypeArrayOopDesc@@@Z 08014910 f i classFileParser.obj
 0001:00013940       ?set_element_klass@objArrayKlass@@QAEXPAVklassOopDesc@@@Z 08014940 f i universe.obj
 0001:00013940       ?set_constants@instanceKlass@@QAEXPAVconstantPoolOopDesc@@@Z 08014940 f i classFileParser.obj
 0001:00013970       ?set_class_annotations@instanceKlass@@QAEXPAVtypeArrayOopDesc@@@Z 08014970 f i classFileParser.obj
 0001:000139a0       ?set_constants@methodOopDesc@@QAEXPAVconstantPoolOopDesc@@@Z 080149a0 f i classFileParser.obj
 0001:000139d0       ?set_exception_table@methodOopDesc@@QAEXPAVtypeArrayOopDesc@@@Z 080149d0 f i classFileParser.obj
 0001:00013a00       ?parse_method@ClassFileParser@@AAE?AVmethodHandle@@VconstantPoolHandle@@_NPAVAccessFlags@@PAVtypeArrayHandle@@33PAVThread@@@Z 08014a00 f   classFileParser.obj
 0001:00014cd0       ?parse_methods@ClassFileParser@@AAE?AVobjArrayHandle@@VconstantPoolHandle@@_NPAVAccessFlags@@PA_NPAPAVobjArrayOopDesc@@44PAVThread@@@Z 08015cd0 f   classFileParser.obj
 0001:00015150       ?parse_classfile_inner_classes_attribute@ClassFileParser@@AAEGVconstantPoolHandle@@VinstanceKlassHandle@@PAVThread@@@Z 08016150 f   classFileParser.obj
 0001:00015540       ?parse_classfile_bootstrap_methods_attribute@ClassFileParser@@AAEXVconstantPoolHandle@@VinstanceKlassHandle@@IPAVThread@@@Z 08016540 f   classFileParser.obj
 0001:00015870       ?parse_classfile_attributes@ClassFileParser@@AAEXVconstantPoolHandle@@VinstanceKlassHandle@@PAVThread@@@Z 08016870 f   classFileParser.obj
 0001:00015e70       ?set_fields_annotations@instanceKlass@@QAEXPAVobjArrayOopDesc@@@Z 08016e70 f i classFileParser.obj
 0001:00015ea0       ?set_methods_annotations@instanceKlass@@QAEXPAVobjArrayOopDesc@@@Z 08016ea0 f i classFileParser.obj
 0001:00015ed0       ?set_methods_parameter_annotations@instanceKlass@@QAEXPAVobjArrayOopDesc@@@Z 08016ed0 f i classFileParser.obj
 0001:00015f00       ?set_methods_default_annotations@instanceKlass@@QAEXPAVobjArrayOopDesc@@@Z 08016f00 f i classFileParser.obj
 0001:00015f30       ?parseClassFile@ClassFileParser@@QAE?AVinstanceKlassHandle@@PAVSymbol@@VHandle@@1VKlassHandle@@PAV?$GrowableArray@VHandle@@@@AAVTempNewSymbol@@_NPAVThread@@@Z 08016f30 f   classFileParser.obj
 0001:00017a90       ??0ClassFileStream@@QAE@PAEHPAD@Z 08018a90 f   classFileStream.obj
 0001:00017ac0       ?truncated_file_error@ClassFileStream@@AAEXPAVThread@@@Z 08018ac0 f   classFileStream.obj
 0001:00017af0       ?get_u2@ClassFileStream@@QAEGPAVThread@@@Z 08018af0 f   classFileStream.obj
 0001:00017b50       ?skip_u1@ClassFileStream@@QAEXHPAVThread@@@Z 08018b50 f   classFileStream.obj
 0001:00017ba0       ?is_jar_file@LazyClassPathEntry@@UAE_NXZ 08018ba0 f   classLoader.obj
 0001:00017bc0       ?new_entry@PackageHashtable@@QAEPAVPackageInfo@@PADH@Z 08018bc0 f i classLoader.obj
 0001:00017c00       ?copy_package_info_buckets@ClassLoader@@SAXPAPADPAD@Z 08018c00 f   classLoader.obj
 0001:00017c20       ?AllocateHeap@@YAPADIPBD@Z 08018c20 f i classLoader.obj
 0001:00017c60       ??0ThreadToNativeFromVM@@QAE@PAVJavaThread@@@Z 08018c60 f i classLoader.obj
 0001:00017cf0       ??0BasicHashtable@@QAE@HH@Z 08018cf0 f i classLoader.obj
 0001:00017d70       ??0MetaIndex@@QAE@PAPADH@Z 08018d70 f   classLoader.obj
 0001:00017de0       ?may_contain@MetaIndex@@QAE_NPBD@Z 08018de0 f   classLoader.obj
 0001:00017e70       ??0ClassPathDirEntry@@QAE@PAD@Z 08018e70 f   classLoader.obj
 0001:00017ef0       ?open_stream@ClassPathDirEntry@@UAEPAVClassFileStream@@PBD@Z 08018ef0 f   classLoader.obj
 0001:00018020       ??0ClassPathZipEntry@@QAE@PAPAXPBD@Z 08019020 f   classLoader.obj
 0001:000180a0       ??1ClassPathZipEntry@@QAE@XZ 080190a0 f   classLoader.obj
 0001:000180d0       ?add_to_list@ClassLoader@@SAXPAVClassPathEntry@@@Z 080190d0 f   classLoader.obj
 0001:00018100       ?load_zip_library@ClassLoader@@CAXXZ 08019100 f   classLoader.obj
 0001:00018220       ?create_package_info_table@ClassLoader@@SAXPAVHashtableBucket@@HH@Z 08019220 f   classLoader.obj
 0001:00018270       ?create_package_info_table@ClassLoader@@SAXXZ 08019270 f   classLoader.obj
 0001:000182a0       ?classloader_time_ms@ClassLoader@@SA_JXZ 080192a0 f   classLoader.obj
 0001:000182d0       ?class_init_count@ClassLoader@@SA_JXZ 080192d0 f   classLoader.obj
 0001:000182f0       ?class_init_time_ms@ClassLoader@@SA_JXZ 080192f0 f   classLoader.obj
 0001:00018320       ?class_verify_time_ms@ClassLoader@@SA_JXZ 08019320 f   classLoader.obj
 0001:00018350       ?initialize@PerfClassTraceTime@@QAEXXZ 08019350 f   classLoader.obj
 0001:000183e0       ??1PerfClassTraceTime@@QAE@XZ 080193e0 f   classLoader.obj
 0001:00018490       ?open_stream@ClassPathZipEntry@@UAEPAVClassFileStream@@PBD@Z 08019490 f   classLoader.obj
 0001:00018610       ?get_entry@PackageHashtable@@AAEPAVPackageInfo@@HIPBDI@Z 08019610 f i classLoader.obj
 0001:00018670       ?copy_pkgnames@PackageHashtable@@QAEXPAPBD@Z 08019670 f i classLoader.obj
 0001:000186b0       ?copy_table@PackageHashtable@@QAEXPAPADPADPAV1@@Z 080196b0 f   classLoader.obj
 0001:000187a0       ?copy_package_info_table@ClassLoader@@SAXPAPADPAD@Z 080197a0 f   classLoader.obj
 0001:000187c0       ?lookup_package@ClassLoader@@CAPAVPackageInfo@@PBD@Z 080197c0 f   classLoader.obj
 0001:00018820       ?add_package@ClassLoader@@CA_NPBDHPAVThread@@@Z 08019820 f   classLoader.obj
 0001:00018920       ?get_system_package@ClassLoader@@SAPAVoopDesc@@PBDPAVThread@@@Z 08019920 f   classLoader.obj
 0001:000189a0       ?load_classfile@ClassLoader@@SA?AVinstanceKlassHandle@@PAVSymbol@@PAVThread@@@Z 080199a0 f   classLoader.obj
 0001:00018c50       ?get_canonical_path@ClassLoader@@CA_NPAD0H@Z 08019c50 f   classLoader.obj
 0001:00018cc0       ??1?$GrowableArray@PAD@@QAE@XZ 08019cc0 f i classLoader.obj
 0001:00018cf0       ?setup_meta_index@ClassLoader@@CAXXZ 08019cf0 f   classLoader.obj
 0001:00019160       ?create_class_path_entry@ClassLoader@@CAXPADUstat@@PAPAVClassPathEntry@@_N@Z 0801a160 f   classLoader.obj
 0001:000194c0       ?create_class_path_zip_entry@ClassLoader@@SAPAVClassPathZipEntry@@PBD@Z 0801a4c0 f   classLoader.obj
 0001:000195f0       ?resolve_entry@LazyClassPathEntry@@AAEPAVClassPathEntry@@XZ 0801a5f0 f   classLoader.obj
 0001:00019670       ?open_stream@LazyClassPathEntry@@UAEPAVClassFileStream@@PBD@Z 0801a670 f   classLoader.obj
 0001:000196b0       ?setup_bootstrap_search_path@ClassLoader@@CAXXZ 0801a6b0 f   classLoader.obj
 0001:00019800       ?initialize@ClassLoader@@SAXXZ 0801a800 f   classLoader.obj
 0001:00019d30       ?classLoader_init@@YAXXZ   0801ad30 f   classLoader.obj
 0001:00019d40       ?get_system_packages@ClassLoader@@SAPAVobjArrayOopDesc@@PAVThread@@@Z 0801ad40 f   classLoader.obj
 0001:00019f10       ?contains_protection_domain@DictionaryEntry@@QBE_NPAVoopDesc@@@Z 0801af10 f   dictionary.obj
 0001:00019f60       ?add_protection_domain@DictionaryEntry@@QAEXPAVoopDesc@@@Z 0801af60 f   dictionary.obj
 0001:00019fc0       ??0SymbolPropertyTable@@QAE@H@Z 0801afc0 f   dictionary.obj
 0001:00019fe0       ?add_entry@SymbolPropertyTable@@QAEPAVSymbolPropertyEntry@@HIPAVSymbol@@H@Z 0801afe0 f   dictionary.obj
 0001:0001a030       ??0Dictionary@@QAE@H@Z     0801b030 f   dictionary.obj
 0001:0001a060       ??0Dictionary@@QAE@HPAVHashtableBucket@@H@Z 0801b060 f   dictionary.obj
 0001:0001a0a0       ?always_strong_classes_do@Dictionary@@QAEXPAVOopClosure@@@Z 0801b0a0 f   dictionary.obj
 0001:0001a140       ?classes_do@Dictionary@@QAEXP6AXPAVklassOopDesc@@@Z@Z 0801b140 f   dictionary.obj
 0001:0001a1a0       ?classes_do@Dictionary@@QAEXP6AXPAVklassOopDesc@@PAVThread@@@Z1@Z 0801b1a0 f   dictionary.obj
 0001:0001a210       ?classes_do@Dictionary@@QAEXP6AXPAVklassOopDesc@@PAVoopDesc@@PAVThread@@@Z2@Z 0801b210 f   dictionary.obj
 0001:0001a260       ?classes_do@Dictionary@@QAEXP6AXPAVklassOopDesc@@PAVoopDesc@@@Z@Z 0801b260 f   dictionary.obj
 0001:0001a2b0       ?oops_do@Dictionary@@QAEXPAVOopClosure@@@Z 0801b2b0 f   dictionary.obj
 0001:0001a340       ?try_get_next_class@Dictionary@@QAEPAVklassOopDesc@@XZ 0801b340 f   dictionary.obj
 0001:0001a390       ?add_klass@Dictionary@@QAEXPAVSymbol@@VHandle@@VKlassHandle@@@Z 0801b390 f   dictionary.obj
 0001:0001a430       ?find@Dictionary@@QAEPAVklassOopDesc@@HIPAVSymbol@@VHandle@@1PAVThread@@@Z 0801b430 f   dictionary.obj
 0001:0001a4b0       ?find_class@Dictionary@@QAEPAVklassOopDesc@@HIPAVSymbol@@VHandle@@@Z 0801b4b0 f   dictionary.obj
 0001:0001a500       ?find_shared_class@Dictionary@@QAEPAVklassOopDesc@@HIPAVSymbol@@@Z 0801b500 f   dictionary.obj
 0001:0001a550       ?add_protection_domain@Dictionary@@QAEXHIVinstanceKlassHandle@@VHandle@@1PAVThread@@@Z 0801b550 f   dictionary.obj
 0001:0001a5c0       ?is_valid_protection_domain@Dictionary@@QAE_NHIPAVSymbol@@VHandle@@1@Z 0801b5c0 f   dictionary.obj
 0001:0001a630       ?reorder_dictionary@Dictionary@@QAEXXZ 0801b630 f   dictionary.obj
 0001:0001a770       ?find_entry@SymbolPropertyTable@@QAEPAVSymbolPropertyEntry@@HIPAVSymbol@@H@Z 0801b770 f   dictionary.obj
 0001:0001a7b0       ?oops_do@SymbolPropertyTable@@QAEXPAVOopClosure@@@Z 0801b7b0 f   dictionary.obj
 0001:0001a800       ?verify@Dictionary@@QAEXXZ 0801b800 f   dictionary.obj
 0001:0001a910       ?do_unloading@Dictionary@@QAE_NPAVBoolObjectClosure@@@Z 0801b910 f   dictionary.obj
 0001:0001af80       ?count@OptionList@JavaAssertions@@SAHPAV12@@Z 0801bf80 f   javaAssertions.obj
 0001:0001afa0       ?match_class@JavaAssertions@@CAPAVOptionList@1@PBD@Z 0801bfa0 f i javaAssertions.obj
 0001:0001aff0       ?match_package@JavaAssertions@@CAPAVOptionList@1@PBD@Z 0801bff0 f   javaAssertions.obj
 0001:0001b080       ?enabled@JavaAssertions@@SA_NPBD_N@Z 0801c080 f   javaAssertions.obj
 0001:0001b0c0       ?addOption@JavaAssertions@@SAXPBD_N@Z 0801c0c0 f   javaAssertions.obj
 0001:0001b1b0       ?allocate_instance_handle@instanceKlass@@QAE?AVinstanceHandle@@PAVThread@@@Z 0801c1b0 f i javaAssertions.obj
 0001:0001b1d0       ?fillJavaArrays@JavaAssertions@@CAXPBVOptionList@1@HVobjArrayHandle@@VtypeArrayHandle@@PAVThread@@@Z 0801c1d0 f   javaAssertions.obj
 0001:0001b260       ?createAssertionStatusDirectives@JavaAssertions@@SAPAVoopDesc@@PAVThread@@@Z 0801c260 f   javaAssertions.obj
 0001:0001b5d0       ?has_signature_field@java_lang_reflect_Method@@SA_NXZ 0801c5d0 f   javaClasses.obj
 0001:0001b5e0       ?has_annotations_field@java_lang_reflect_Method@@SA_NXZ 0801c5e0 f   javaClasses.obj
 0001:0001b5f0       ?has_parameter_annotations_field@java_lang_reflect_Method@@SA_NXZ 0801c5f0 f   javaClasses.obj
 0001:0001b600       ?has_annotation_default_field@java_lang_reflect_Method@@SA_NXZ 0801c600 f   javaClasses.obj
 0001:0001b610       ?has_signature_field@java_lang_reflect_Constructor@@SA_NXZ 0801c610 f   javaClasses.obj
 0001:0001b620       ?has_annotations_field@java_lang_reflect_Constructor@@SA_NXZ 0801c620 f   javaClasses.obj
 0001:0001b630       ?has_parameter_annotations_field@java_lang_reflect_Constructor@@SA_NXZ 0801c630 f   javaClasses.obj
 0001:0001b640       ?has_signature_field@java_lang_reflect_Field@@SA_NXZ 0801c640 f   javaClasses.obj
 0001:0001b650       ?has_annotations_field@java_lang_reflect_Field@@SA_NXZ 0801c650 f   javaClasses.obj
 0001:0001b660       ?print@java_lang_boxing_object@@SAXW4BasicType@@PATjvalue@@PAVoutputStream@@@Z 0801c660 f   javaClasses.obj
 0001:0001b7a0       ?in_offset_in_bytes@java_lang_System@@SAHXZ 0801c7a0 f   javaClasses.obj
 0001:0001b7b0       ?out_offset_in_bytes@java_lang_System@@SAHXZ 0801c7b0 f   javaClasses.obj
 0001:0001b7c0       ?err_offset_in_bytes@java_lang_System@@SAHXZ 0801c7c0 f   javaClasses.obj
 0001:0001b7d0       ?limit_offset@java_nio_Buffer@@SAHXZ 0801c7d0 f   javaClasses.obj
 0001:0001b7e0       ?value_offset@sun_misc_AtomicLongCSImpl@@SAHXZ 0801c7e0 f   javaClasses.obj
 0001:0001b7f0       ??$MIN2@H@@YAHHH@Z         0801c7f0 f i javaClasses.obj
 0001:0001b810       ?pc_desc_at@nmethod@@QAEPAVPcDesc@@PAE@Z 0801c810 f i javaClasses.obj
 0001:0001b840       ?is_gte_jdk14x_version@JDK_Version@@SA_NXZ 0801c840 f i javaClasses.obj
 0001:0001b870       ??0frame@@QAE@PAH0PAE@Z    0801c870 f i javaClasses.obj
 0001:0001b8d0       ??0frame@@QAE@PAH0@Z       0801c8d0 f i javaClasses.obj
 0001:0001b930       ?fill_from_compiled_native_frame@vframeStreamCommon@@IAEXXZ 0801c930 f i javaClasses.obj
 0001:0001b960       ?create_from_platform_dependent_str@java_lang_String@@SA?AVHandle@@PBDPAVThread@@@Z 0801c960 f   javaClasses.obj
 0001:0001ba10       ?oop_size@java_lang_Class@@SAHPAVoopDesc@@@Z 0801ca10 f   javaClasses.obj
 0001:0001ba30       ?static_oop_field_count@java_lang_Class@@SAHPAVoopDesc@@@Z 0801ca30 f   javaClasses.obj
 0001:0001ba50       ?primitive_mirror@java_lang_Class@@SAPAVoopDesc@@W4BasicType@@@Z 0801ca50 f   javaClasses.obj
 0001:0001ba60       ?compute_offsets@java_lang_Class@@CAXXZ 0801ca60 f   javaClasses.obj
 0001:0001bae0       ?classRedefinedCount@java_lang_Class@@SAHPAVoopDesc@@@Z 0801cae0 f   javaClasses.obj
 0001:0001bb20       ?set_classRedefinedCount@java_lang_Class@@SAXPAVoopDesc@@H@Z 0801cb20 f   javaClasses.obj
 0001:0001bb50       ?thread@java_lang_Thread@@SAPAVJavaThread@@PAVoopDesc@@@Z 0801cb50 f   javaClasses.obj
 0001:0001bb70       ?set_thread@java_lang_Thread@@SAXPAVoopDesc@@PAVJavaThread@@@Z 0801cb70 f   javaClasses.obj
 0001:0001bb90       ?priority@java_lang_Thread@@SA?AW4ThreadPriority@@PAVoopDesc@@@Z 0801cb90 f   javaClasses.obj
 0001:0001bbb0       ?set_priority@java_lang_Thread@@SAXPAVoopDesc@@W4ThreadPriority@@@Z 0801cbb0 f   javaClasses.obj
 0001:0001bbd0       ?is_stillborn@java_lang_Thread@@SA_NPAVoopDesc@@@Z 0801cbd0 f   javaClasses.obj
 0001:0001bbf0       ?set_stillborn@java_lang_Thread@@SAXPAVoopDesc@@@Z 0801cbf0 f   javaClasses.obj
 0001:0001bc10       ?is_alive@java_lang_Thread@@SA_NPAVoopDesc@@@Z 0801cc10 f   javaClasses.obj
 0001:0001bc30       ?is_daemon@java_lang_Thread@@SA_NPAVoopDesc@@@Z 0801cc30 f   javaClasses.obj
 0001:0001bc50       ?set_daemon@java_lang_Thread@@SAXPAVoopDesc@@@Z 0801cc50 f   javaClasses.obj
 0001:0001bc70       ?stackSize@java_lang_Thread@@SA_JPAVoopDesc@@@Z 0801cc70 f   javaClasses.obj
 0001:0001bc90       ?set_thread_status@java_lang_Thread@@SAXPAVoopDesc@@W4ThreadStatus@1@@Z 0801cc90 f   javaClasses.obj
 0001:0001bcb0       ?get_thread_status@java_lang_Thread@@SA?AW4ThreadStatus@1@PAVoopDesc@@@Z 0801ccb0 f   javaClasses.obj
 0001:0001bce0       ?thread_id@java_lang_Thread@@SA_JPAVoopDesc@@@Z 0801cce0 f   javaClasses.obj
 0001:0001bd00       ?park_event@java_lang_Thread@@SA_JPAVoopDesc@@@Z 0801cd00 f   javaClasses.obj
 0001:0001bd20       ?set_park_event@java_lang_Thread@@SA_NPAVoopDesc@@_J@Z 0801cd20 f   javaClasses.obj
 0001:0001bd50       ?thread_status_name@java_lang_Thread@@SAPBDPAVoopDesc@@@Z 0801cd50 f   javaClasses.obj
 0001:0001bee0       ?nthreads@java_lang_ThreadGroup@@SAHPAVoopDesc@@@Z 0801cee0 f   javaClasses.obj
 0001:0001bf00       ?ngroups@java_lang_ThreadGroup@@SAHPAVoopDesc@@@Z 0801cf00 f   javaClasses.obj
 0001:0001bf20       ?maxPriority@java_lang_ThreadGroup@@SA?AW4ThreadPriority@@PAVoopDesc@@@Z 0801cf20 f   javaClasses.obj
 0001:0001bf40       ?is_daemon@java_lang_ThreadGroup@@SA_NPAVoopDesc@@@Z 0801cf40 f   javaClasses.obj
 0001:0001bf60       ?backtrace@BacktraceBuilder@@QAEPAVoopDesc@@XZ 0801cf60 f i javaClasses.obj
 0001:0001bf80       ?override@java_lang_reflect_AccessibleObject@@SAEPAVoopDesc@@@Z 0801cf80 f   javaClasses.obj
 0001:0001bfa0       ?set_override@java_lang_reflect_AccessibleObject@@SAXPAVoopDesc@@E@Z 0801cfa0 f   javaClasses.obj
 0001:0001bfc0       ?slot@java_lang_reflect_Method@@SAHPAVoopDesc@@@Z 0801cfc0 f   javaClasses.obj
 0001:0001bfe0       ?set_slot@java_lang_reflect_Method@@SAXPAVoopDesc@@H@Z 0801cfe0 f   javaClasses.obj
 0001:0001c000       ?set_modifiers@java_lang_reflect_Method@@SAXPAVoopDesc@@H@Z 0801d000 f   javaClasses.obj
 0001:0001c020       ?slot@java_lang_reflect_Constructor@@SAHPAVoopDesc@@@Z 0801d020 f   javaClasses.obj
 0001:0001c040       ?set_slot@java_lang_reflect_Constructor@@SAXPAVoopDesc@@H@Z 0801d040 f   javaClasses.obj
 0001:0001c060       ?set_modifiers@java_lang_reflect_Constructor@@SAXPAVoopDesc@@H@Z 0801d060 f   javaClasses.obj
 0001:0001c080       ?slot@java_lang_reflect_Field@@SAHPAVoopDesc@@@Z 0801d080 f   javaClasses.obj
 0001:0001c0a0       ?set_slot@java_lang_reflect_Field@@SAXPAVoopDesc@@H@Z 0801d0a0 f   javaClasses.obj
 0001:0001c0c0       ?modifiers@java_lang_reflect_Field@@SAHPAVoopDesc@@@Z 0801d0c0 f   javaClasses.obj
 0001:0001c0e0       ?set_modifiers@java_lang_reflect_Field@@SAXPAVoopDesc@@H@Z 0801d0e0 f   javaClasses.obj
 0001:0001c100       ?pending_list_lock@java_lang_ref_Reference@@SAPAVoopDesc@@XZ 0801d100 f   javaClasses.obj
 0001:0001c120       ?pending_list_addr@java_lang_ref_Reference@@SAPAVHeapWord@@XZ 0801d120 f   javaClasses.obj
 0001:0001c140       ?pending_list@java_lang_ref_Reference@@SAPAVoopDesc@@XZ 0801d140 f   javaClasses.obj
 0001:0001c160       ?timestamp@java_lang_ref_SoftReference@@SA_JPAVoopDesc@@@Z 0801d160 f   javaClasses.obj
 0001:0001c180       ?clock@java_lang_ref_SoftReference@@SA_JXZ 0801d180 f   javaClasses.obj
 0001:0001c1a0       ?set_clock@java_lang_ref_SoftReference@@SAX_J@Z 0801d1a0 f   javaClasses.obj
 0001:0001c1d0       ?set_vmentry@java_lang_invoke_MethodHandle@@SAXPAVoopDesc@@PAVMethodHandleEntry@@@Z 0801d1d0 f   javaClasses.obj
 0001:0001c1f0       ?flags@java_lang_invoke_MemberName@@SAHPAVoopDesc@@@Z 0801d1f0 f   javaClasses.obj
 0001:0001c210       ?set_flags@java_lang_invoke_MemberName@@SAXPAVoopDesc@@H@Z 0801d210 f   javaClasses.obj
 0001:0001c230       ?vmindex@java_lang_invoke_MemberName@@SAHPAVoopDesc@@@Z 0801d230 f   javaClasses.obj
 0001:0001c250       ?set_vmindex@java_lang_invoke_MemberName@@SAXPAVoopDesc@@H@Z 0801d250 f   javaClasses.obj
 0001:0001c270       ?vmindex@java_lang_invoke_DirectMethodHandle@@SAHPAVoopDesc@@@Z 0801d270 f   javaClasses.obj
 0001:0001c290       ?set_vmindex@java_lang_invoke_DirectMethodHandle@@SAXPAVoopDesc@@H@Z 0801d290 f   javaClasses.obj
 0001:0001c2b0       ?vmargslot@java_lang_invoke_BoundMethodHandle@@SAHPAVoopDesc@@@Z 0801d2b0 f   javaClasses.obj
 0001:0001c2d0       ?conversion@java_lang_invoke_AdapterMethodHandle@@SAHPAVoopDesc@@@Z 0801d2d0 f   javaClasses.obj
 0001:0001c2f0       ?set_conversion@java_lang_invoke_AdapterMethodHandle@@SAXPAVoopDesc@@H@Z 0801d2f0 f   javaClasses.obj
 0001:0001c310       ?compute_offsets@java_lang_invoke_MethodTypeForm@@CAXXZ 0801d310 f   javaClasses.obj
 0001:0001c400       ?compute_offsets@java_security_AccessControlContext@@CAXXZ 0801d400 f   javaClasses.obj
 0001:0001c4e0       ?set_deflt@java_lang_AssertionStatusDirectives@@SAXPAVoopDesc@@_N@Z 0801d4e0 f   javaClasses.obj
 0001:0001c500       ?pd_last_frame@JavaThread@@AAE?AVframe@@XZ 0801d500 f i javaClasses.obj
 0001:0001c590       ?is_a@oopDesc@@QBE_NPAVklassOopDesc@@@Z 0801d590 f i javaClasses.obj
 0001:0001c5c0       ?read_oop@DebugInfoReadStream@@QAEPAVoopDesc@@XZ 0801d5c0 f i javaClasses.obj
 0001:0001c600       ?fill_from_compiled_frame@vframeStreamCommon@@IAEXH@Z 0801d600 f i javaClasses.obj
 0001:0001c7b0       ?as_klassOop@java_lang_Class@@SAPAVklassOopDesc@@PAVoopDesc@@@Z 0801d7b0 f   javaClasses.obj
 0001:0001c7d0       ?resolved_constructor@java_lang_Class@@SAPAVmethodOopDesc@@PAVoopDesc@@@Z 0801d7d0 f   javaClasses.obj
 0001:0001c7f0       ?is_primitive@java_lang_Class@@SA_NPAVoopDesc@@@Z 0801d7f0 f   javaClasses.obj
 0001:0001c810       ?primitive_type@java_lang_Class@@SA?AW4BasicType@@PAVoopDesc@@@Z 0801d810 f   javaClasses.obj
 0001:0001c840       ?as_BasicType@java_lang_Class@@SA?AW4BasicType@@PAVoopDesc@@PAPAVklassOopDesc@@@Z 0801d840 f   javaClasses.obj
 0001:0001c890       ?parallelCapable@java_lang_Class@@SA_NPAVoopDesc@@@Z 0801d890 f   javaClasses.obj
 0001:0001c8d0       ?compute_offsets@java_lang_Thread@@CAXXZ 0801d8d0 f   javaClasses.obj
 0001:0001ca80       ?name@java_lang_Thread@@SAPAVtypeArrayOopDesc@@PAVoopDesc@@@Z 0801da80 f   javaClasses.obj
 0001:0001caa0       ?threadGroup@java_lang_Thread@@SAPAVoopDesc@@PAV2@@Z 0801daa0 f   javaClasses.obj
 0001:0001cac0       ?context_class_loader@java_lang_Thread@@SAPAVoopDesc@@PAV2@@Z 0801dac0 f   javaClasses.obj
 0001:0001cae0       ?inherited_access_control_context@java_lang_Thread@@SAPAVoopDesc@@PAV2@@Z 0801dae0 f   javaClasses.obj
 0001:0001cb00       ?park_blocker@java_lang_Thread@@SAPAVoopDesc@@PAV2@@Z 0801db00 f   javaClasses.obj
 0001:0001cb20       ?parent@java_lang_ThreadGroup@@SAPAVoopDesc@@PAV2@@Z 0801db20 f   javaClasses.obj
 0001:0001cb40       ?name@java_lang_ThreadGroup@@SAPAVtypeArrayOopDesc@@PAVoopDesc@@@Z 0801db40 f   javaClasses.obj
 0001:0001cb60       ?threads@java_lang_ThreadGroup@@SAPAVobjArrayOopDesc@@PAVoopDesc@@@Z 0801db60 f   javaClasses.obj
 0001:0001cb80       ?groups@java_lang_ThreadGroup@@SAPAVobjArrayOopDesc@@PAVoopDesc@@@Z 0801db80 f   javaClasses.obj
 0001:0001cba0       ?compute_offsets@java_lang_ThreadGroup@@CAXXZ 0801dba0 f   javaClasses.obj
 0001:0001ccb0       ?message@java_lang_Throwable@@SAPAVoopDesc@@PAV2@@Z 0801dcb0 f   javaClasses.obj
 0001:0001ccd0       ?print_to_stream@java_lang_Throwable@@CAXVHandle@@PBD@Z 0801dcd0 f   javaClasses.obj
 0001:0001cdd0       ?compute_offsets@java_lang_reflect_Method@@CAXXZ 0801ddd0 f   javaClasses.obj
 0001:0001cf60       ?create@java_lang_reflect_Method@@SA?AVHandle@@PAVThread@@@Z 0801df60 f   javaClasses.obj
 0001:0001cfe0       ?clazz@java_lang_reflect_Method@@SAPAVoopDesc@@PAV2@@Z 0801dfe0 f   javaClasses.obj
 0001:0001d000       ?return_type@java_lang_reflect_Method@@SAPAVoopDesc@@PAV2@@Z 0801e000 f   javaClasses.obj
 0001:0001d020       ?parameter_types@java_lang_reflect_Method@@SAPAVoopDesc@@PAV2@@Z 0801e020 f   javaClasses.obj
 0001:0001d040       ?compute_offsets@java_lang_reflect_Constructor@@CAXXZ 0801e040 f   javaClasses.obj
 0001:0001d170       ?create@java_lang_reflect_Constructor@@SA?AVHandle@@PAVThread@@@Z 0801e170 f   javaClasses.obj
 0001:0001d280       ?clazz@java_lang_reflect_Constructor@@SAPAVoopDesc@@PAV2@@Z 0801e280 f   javaClasses.obj
 0001:0001d2a0       ?parameter_types@java_lang_reflect_Constructor@@SAPAVoopDesc@@PAV2@@Z 0801e2a0 f   javaClasses.obj
 0001:0001d2c0       ?compute_offsets@java_lang_reflect_Field@@CAXXZ 0801e2c0 f   javaClasses.obj
 0001:0001d3c0       ?create@java_lang_reflect_Field@@SA?AVHandle@@PAVThread@@@Z 0801e3c0 f   javaClasses.obj
 0001:0001d4d0       ?clazz@java_lang_reflect_Field@@SAPAVoopDesc@@PAV2@@Z 0801e4d0 f   javaClasses.obj
 0001:0001d4f0       ?create@sun_reflect_ConstantPool@@SA?AVHandle@@PAVThread@@@Z 0801e4f0 f   javaClasses.obj
 0001:0001d5e0       ?initialize_and_allocate@java_lang_boxing_object@@CAPAVoopDesc@@W4BasicType@@PAVThread@@@Z 0801e5e0 f   javaClasses.obj
 0001:0001d670       ?create@java_lang_boxing_object@@SAPAVoopDesc@@W4BasicType@@PATjvalue@@PAVThread@@@Z 0801e670 f   javaClasses.obj
 0001:0001d750       ?basic_type@java_lang_boxing_object@@SA?AW4BasicType@@PAVoopDesc@@@Z 0801e750 f   javaClasses.obj
 0001:0001d780       ?get_value@java_lang_boxing_object@@SA?AW4BasicType@@PAVoopDesc@@PATjvalue@@@Z 0801e780 f   javaClasses.obj
 0001:0001d840       ?compute_offsets@java_lang_invoke_MethodHandle@@CAXXZ 0801e840 f   javaClasses.obj
 0001:0001d8e0       ?compute_offsets@java_lang_invoke_MemberName@@CAXXZ 0801e8e0 f   javaClasses.obj
 0001:0001d9a0       ?compute_offsets@java_lang_invoke_BoundMethodHandle@@CAXXZ 0801e9a0 f   javaClasses.obj
 0001:0001d9f0       ?type@java_lang_invoke_MethodHandle@@SAPAVoopDesc@@PAV2@@Z 0801e9f0 f   javaClasses.obj
 0001:0001da10       ?clazz@java_lang_invoke_MemberName@@SAPAVoopDesc@@PAV2@@Z 0801ea10 f   javaClasses.obj
 0001:0001da30       ?name@java_lang_invoke_MemberName@@SAPAVoopDesc@@PAV2@@Z 0801ea30 f   javaClasses.obj
 0001:0001da50       ?type@java_lang_invoke_MemberName@@SAPAVoopDesc@@PAV2@@Z 0801ea50 f   javaClasses.obj
 0001:0001da70       ?vmtarget@java_lang_invoke_MemberName@@SAPAVoopDesc@@PAV2@@Z 0801ea70 f   javaClasses.obj
 0001:0001da90       ?vmtarget@java_lang_invoke_MethodHandle@@SAPAVoopDesc@@PAV2@@Z 0801ea90 f   javaClasses.obj
 0001:0001dab0       ?argument@java_lang_invoke_BoundMethodHandle@@SAPAVoopDesc@@PAV2@@Z 0801eab0 f   javaClasses.obj
 0001:0001dad0       ?compute_offsets@java_lang_invoke_MethodType@@CAXXZ 0801ead0 f   javaClasses.obj
 0001:0001db30       ?rtype@java_lang_invoke_MethodType@@SAPAVoopDesc@@PAV2@@Z 0801eb30 f   javaClasses.obj
 0001:0001db50       ?ptypes@java_lang_invoke_MethodType@@SAPAVobjArrayOopDesc@@PAVoopDesc@@@Z 0801eb50 f   javaClasses.obj
 0001:0001db70       ?form@java_lang_invoke_MethodType@@SAPAVoopDesc@@PAV2@@Z 0801eb70 f   javaClasses.obj
 0001:0001db90       ?ptype_count@java_lang_invoke_MethodType@@SAHPAVoopDesc@@@Z 0801eb90 f   javaClasses.obj
 0001:0001dbb0       ?vmlayout@java_lang_invoke_MethodTypeForm@@SAPAVoopDesc@@PAV2@@Z 0801ebb0 f   javaClasses.obj
 0001:0001dbd0       ?init_vmlayout@java_lang_invoke_MethodTypeForm@@SAPAVoopDesc@@PAV2@0@Z 0801ebd0 f   javaClasses.obj
 0001:0001dc20       ?erasedType@java_lang_invoke_MethodTypeForm@@SAPAVoopDesc@@PAV2@@Z 0801ec20 f   javaClasses.obj
 0001:0001dc40       ?non_reflection_class_loader@java_lang_ClassLoader@@SAPAVoopDesc@@PAV2@@Z 0801ec40 f   javaClasses.obj
 0001:0001dc90       ?initialize@java_util_concurrent_locks_AbstractOwnableSynchronizer@@SAXPAVThread@@@Z 0801ec90 f   javaClasses.obj
 0001:0001dce0       ?get_owner_threadObj@java_util_concurrent_locks_AbstractOwnableSynchronizer@@SAPAVoopDesc@@PAV2@@Z 0801ece0 f   javaClasses.obj
 0001:0001dd00       ?compute_hard_coded_offsets@JavaClasses@@SAXXZ 0801ed00 f   javaClasses.obj
 0001:0001de50       ?compute_offsets@JavaClasses@@SAXXZ 0801ee50 f   javaClasses.obj
 0001:0001e010       ?javaClasses_init@@YAXXZ   0801f010 f   javaClasses.obj
 0001:0001e020       ?print_signature@java_lang_Class@@SAXPAVoopDesc@@PAVoutputStream@@@Z 0801f020 f   javaClasses.obj
 0001:0001e0c0       ?as_signature@java_lang_Class@@SAPAVSymbol@@PAVoopDesc@@_NPAVThread@@@Z 0801f0c0 f   javaClasses.obj
 0001:0001e1b0       ?is_trusted_loader@java_lang_ClassLoader@@SA_NPAVoopDesc@@@Z 0801f1b0 f   javaClasses.obj
 0001:0001e220       ?fill_from_frame@vframeStreamCommon@@IAE_NXZ 0801f220 f i javaClasses.obj
 0001:0001e340       ?as_unicode_string@java_lang_String@@SAPAGPAVoopDesc@@AAH@Z 0801f340 f   javaClasses.obj
 0001:0001e3a0       ?hash_string@java_lang_String@@SAIPAVoopDesc@@@Z 0801f3a0 f   javaClasses.obj
 0001:0001e3f0       ?as_symbol@java_lang_String@@SAPAVSymbol@@VHandle@@PAVThread@@@Z 0801f3f0 f   javaClasses.obj
 0001:0001e450       ?as_symbol_or_null@java_lang_String@@SAPAVSymbol@@PAVoopDesc@@@Z 0801f450 f   javaClasses.obj
 0001:0001e4a0       ?utf8_length@java_lang_String@@SAHPAVoopDesc@@@Z 0801f4a0 f   javaClasses.obj
 0001:0001e4f0       ?as_utf8_string@java_lang_String@@SAPADPAVoopDesc@@@Z 0801f4f0 f   javaClasses.obj
 0001:0001e540       ?as_utf8_string@java_lang_String@@SAPADPAVoopDesc@@PADH@Z 0801f540 f   javaClasses.obj
 0001:0001e5a0       ?as_utf8_string@java_lang_String@@SAPADPAVoopDesc@@HH@Z 0801f5a0 f   javaClasses.obj
 0001:0001e5d0       ?equals@java_lang_String@@SA_NPAVoopDesc@@PAGH@Z 0801f5d0 f   javaClasses.obj
 0001:0001e630       ?print@java_lang_String@@SAXVHandle@@PAVoutputStream@@@Z 0801f630 f   javaClasses.obj
 0001:0001e710       ?print@java_lang_Throwable@@SAXPAVoopDesc@@PAVoutputStream@@@Z 0801f710 f   javaClasses.obj
 0001:0001e7d0       ?print@java_lang_Throwable@@SAXVHandle@@PAVoutputStream@@@Z 0801f7d0 f   javaClasses.obj
 0001:0001e890       ?vmslots@java_lang_invoke_MethodHandle@@SAHPAVoopDesc@@@Z 0801f890 f   javaClasses.obj
 0001:0001e8d0       ?init_vmslots@java_lang_invoke_MethodHandle@@SAXPAVoopDesc@@@Z 0801f8d0 f   javaClasses.obj
 0001:0001e920       ?next@vframeStreamCommon@@QAEXXZ 0801f920 f i javaClasses.obj
 0001:0001e990       ??0vframeStream@@QAE@PAVJavaThread@@_N@Z 0801f990 f i javaClasses.obj
 0001:0001ea70       ?set_backtrace@java_lang_Throwable@@SAXPAVoopDesc@@0@Z 0801fa70 f   javaClasses.obj
 0001:0001eac0       ?print_stack_element_to_buffer@java_lang_Throwable@@CAPADPAVmethodOopDesc@@H@Z 0801fac0 f   javaClasses.obj
 0001:0001ec40       ?print_stack_element@java_lang_Throwable@@SAXPAVoutputStream@@PAVmethodOopDesc@@H@Z 0801fc40 f   javaClasses.obj
 0001:0001ecb0       ?print_stack_trace@java_lang_Throwable@@SAXPAVoopDesc@@PAVoutputStream@@@Z 0801fcb0 f   javaClasses.obj
 0001:0001f080       ?print_stack_trace@java_lang_Throwable@@SAXPAVoopDesc@@0@Z 08020080 f   javaClasses.obj
 0001:0001f310       ?get_stack_trace_depth@java_lang_Throwable@@SAHPAVoopDesc@@PAVThread@@@Z 08020310 f   javaClasses.obj
 0001:0001f390       ?print_signature@java_lang_invoke_MethodType@@SAXPAVoopDesc@@PAVoutputStream@@@Z 08020390 f   javaClasses.obj
 0001:0001f400       ?as_signature@java_lang_invoke_MethodType@@SAPAVSymbol@@PAVoopDesc@@_NPAVThread@@@Z 08020400 f   javaClasses.obj
 0001:0001f4a0       ?ptype@java_lang_invoke_MethodType@@SAPAVoopDesc@@PAV2@H@Z 080204a0 f   javaClasses.obj
 0001:0001f4c0       ?basic_create@java_lang_String@@CA?AVHandle@@H_NPAVThread@@@Z 080204c0 f   javaClasses.obj
 0001:0001f570       ?basic_create_from_unicode@java_lang_String@@CA?AVHandle@@PAGH_NPAVThread@@@Z 08020570 f   javaClasses.obj
 0001:0001f5e0       ?create_tenured_from_unicode@java_lang_String@@SA?AVHandle@@PAGHPAVThread@@@Z 080205e0 f   javaClasses.obj
 0001:0001f610       ?create_oop_from_unicode@java_lang_String@@SAPAVoopDesc@@PAGHPAVThread@@@Z 08020610 f   javaClasses.obj
 0001:0001f650       ?create_from_str@java_lang_String@@SA?AVHandle@@PBDPAVThread@@@Z 08020650 f   javaClasses.obj
 0001:0001f730       ?create_oop_from_str@java_lang_String@@SAPAVoopDesc@@PBDPAVThread@@@Z 08020730 f   javaClasses.obj
 0001:0001f760       ?create_from_symbol@java_lang_String@@SA?AVHandle@@PAVSymbol@@PAVThread@@@Z 08020760 f   javaClasses.obj
 0001:0001f840       ?char_converter@java_lang_String@@SA?AVHandle@@V2@GGPAVThread@@@Z 08020840 f   javaClasses.obj
 0001:0001fc20       ?set_array_klass@java_lang_Class@@SAXPAVoopDesc@@PAVklassOopDesc@@@Z 08020c20 f   javaClasses.obj
 0001:0001fc40       ?set_resolved_constructor@java_lang_Class@@SAXPAVoopDesc@@PAVmethodOopDesc@@@Z 08020c40 f   javaClasses.obj
 0001:0001fc60       ?set_message@java_lang_Throwable@@SAXPAVoopDesc@@0@Z 08020c60 f   javaClasses.obj
 0001:0001fc80       ?expand@BacktraceBuilder@@QAEXPAVThread@@@Z 08020c80 f i javaClasses.obj
 0001:0001fea0       ?push@BacktraceBuilder@@QAEXPAVmethodOopDesc@@FPAVThread@@@Z 08020ea0 f i javaClasses.obj
 0001:0001ff50       ?allocate_backtrace@java_lang_Throwable@@SAXVHandle@@PAVThread@@@Z 08020f50 f   javaClasses.obj
 0001:000200f0       ?fill_in_stack_trace_of_preallocated_backtrace@java_lang_Throwable@@SAXVHandle@@@Z 080210f0 f   javaClasses.obj
 0001:00020220       ?set_clazz@java_lang_reflect_Method@@SAXPAVoopDesc@@0@Z 08021220 f   javaClasses.obj
 0001:00020240       ?set_name@java_lang_reflect_Method@@SAXPAVoopDesc@@0@Z 08021240 f   javaClasses.obj
 0001:00020260       ?set_return_type@java_lang_reflect_Method@@SAXPAVoopDesc@@0@Z 08021260 f   javaClasses.obj
 0001:00020280       ?set_parameter_types@java_lang_reflect_Method@@SAXPAVoopDesc@@0@Z 08021280 f   javaClasses.obj
 0001:000202a0       ?set_exception_types@java_lang_reflect_Method@@SAXPAVoopDesc@@0@Z 080212a0 f   javaClasses.obj
 0001:000202c0       ?set_signature@java_lang_reflect_Method@@SAXPAVoopDesc@@0@Z 080212c0 f   javaClasses.obj
 0001:000202e0       ?set_annotations@java_lang_reflect_Method@@SAXPAVoopDesc@@0@Z 080212e0 f   javaClasses.obj
 0001:00020300       ?set_parameter_annotations@java_lang_reflect_Method@@SAXPAVoopDesc@@0@Z 08021300 f   javaClasses.obj
 0001:00020320       ?set_annotation_default@java_lang_reflect_Method@@SAXPAVoopDesc@@0@Z 08021320 f   javaClasses.obj
 0001:00020340       ?set_clazz@java_lang_reflect_Constructor@@SAXPAVoopDesc@@0@Z 08021340 f   javaClasses.obj
 0001:00020360       ?set_parameter_types@java_lang_reflect_Constructor@@SAXPAVoopDesc@@0@Z 08021360 f   javaClasses.obj
 0001:00020380       ?set_exception_types@java_lang_reflect_Constructor@@SAXPAVoopDesc@@0@Z 08021380 f   javaClasses.obj
 0001:000203a0       ?set_signature@java_lang_reflect_Constructor@@SAXPAVoopDesc@@0@Z 080213a0 f   javaClasses.obj
 0001:000203c0       ?set_annotations@java_lang_reflect_Constructor@@SAXPAVoopDesc@@0@Z 080213c0 f   javaClasses.obj
 0001:000203e0       ?set_parameter_annotations@java_lang_reflect_Constructor@@SAXPAVoopDesc@@0@Z 080213e0 f   javaClasses.obj
 0001:00020400       ?set_clazz@java_lang_reflect_Field@@SAXPAVoopDesc@@0@Z 08021400 f   javaClasses.obj
 0001:00020420       ?set_name@java_lang_reflect_Field@@SAXPAVoopDesc@@0@Z 08021420 f   javaClasses.obj
 0001:00020440       ?set_type@java_lang_reflect_Field@@SAXPAVoopDesc@@0@Z 08021440 f   javaClasses.obj
 0001:00020460       ?set_signature@java_lang_reflect_Field@@SAXPAVoopDesc@@0@Z 08021460 f   javaClasses.obj
 0001:00020480       ?set_annotations@java_lang_reflect_Field@@SAXPAVoopDesc@@0@Z 08021480 f   javaClasses.obj
 0001:000204a0       ?set_cp_oop@sun_reflect_ConstantPool@@SAXPAVoopDesc@@0@Z 080214a0 f   javaClasses.obj
 0001:000204c0       ?set_clazz@java_lang_invoke_MemberName@@SAXPAVoopDesc@@0@Z 080214c0 f   javaClasses.obj
 0001:000204e0       ?set_name@java_lang_invoke_MemberName@@SAXPAVoopDesc@@0@Z 080214e0 f   javaClasses.obj
 0001:00020500       ?set_type@java_lang_invoke_MemberName@@SAXPAVoopDesc@@0@Z 08021500 f   javaClasses.obj
 0001:00020520       ?set_vmtarget@java_lang_invoke_MemberName@@SAXPAVoopDesc@@0@Z 08021520 f   javaClasses.obj
 0001:00020540       ?set_vmtarget@java_lang_invoke_MethodHandle@@SAXPAVoopDesc@@0@Z 08021540 f   javaClasses.obj
 0001:00020560       ?create@java_security_AccessControlContext@@SAPAVoopDesc@@VobjArrayHandle@@_NVHandle@@PAVThread@@@Z 08021560 f   javaClasses.obj
 0001:000205f0       ?set_classes@java_lang_AssertionStatusDirectives@@SAXPAVoopDesc@@0@Z 080215f0 f   javaClasses.obj
 0001:00020610       ?set_classEnabled@java_lang_AssertionStatusDirectives@@SAXPAVoopDesc@@0@Z 08021610 f   javaClasses.obj
 0001:00020630       ?set_packages@java_lang_AssertionStatusDirectives@@SAXPAVoopDesc@@0@Z 08021630 f   javaClasses.obj
 0001:00020650       ?set_packageEnabled@java_lang_AssertionStatusDirectives@@SAXPAVoopDesc@@0@Z 08021650 f   javaClasses.obj
 0001:00020670       ?create_mirror@java_lang_Class@@SAPAVoopDesc@@VKlassHandle@@PAVThread@@@Z 08021670 f   javaClasses.obj
 0001:000207e0       ?create_basic_type_mirror@java_lang_Class@@SAPAVoopDesc@@PBDW4BasicType@@PAVThread@@@Z 080217e0 f   javaClasses.obj
 0001:00020870       ?fill_in_stack_trace@java_lang_Throwable@@SAXVHandle@@VmethodHandle@@PAVThread@@@Z 08021870 f   javaClasses.obj
 0001:00020e30       ?fill_in_stack_trace@java_lang_Throwable@@SAXVHandle@@VmethodHandle@@@Z 08021e30 f   javaClasses.obj
 0001:00020e90       ?create@java_lang_StackTraceElement@@SAPAVoopDesc@@VmethodHandle@@HPAVThread@@@Z 08021e90 f   javaClasses.obj
 0001:000210f0       ?fixup_mirror@java_lang_Class@@SAXVKlassHandle@@PAVThread@@@Z 080220f0 f   javaClasses.obj
 0001:00021130       ?get_stack_trace_element@java_lang_Throwable@@SAPAVoopDesc@@PAV2@HPAVThread@@@Z 08022130 f   javaClasses.obj
 0001:00021280       ?contains@MemRegion@@QBE_NPBX@Z 08022280 f i loaderConstraints.obj
 0001:000212b0       ?is_shared@oopDesc@@QBE_NXZ 080222b0 f i loaderConstraints.obj
 0001:000212d0       ?ensure_loader_constraint_capacity@LoaderConstraintTable@@QAEXPAVLoaderConstraintEntry@@H@Z 080222d0 f   loaderConstraints.obj
 0001:00021350       ?compute_hash@?$TwoOopHashtable@PAVSymbol@@@@QAEIPAVSymbol@@VHandle@@@Z 08022350 f i loaderConstraints.obj
 0001:00021350       ?compute_hash@?$TwoOopHashtable@PAVklassOopDesc@@@@QAEIPAVSymbol@@VHandle@@@Z 08022350 f i dictionary.obj
 0001:000213b0       ?is_oop@oopDesc@@QBE_N_N@Z 080223b0 f i loaderConstraints.obj
 0001:00021470       ?loader_name@SystemDictionary@@SAPBDPAVoopDesc@@@Z 08022470 f i loaderConstraints.obj
 0001:00021490       ??0LoaderConstraintTable@@QAE@H@Z 08022490 f   loaderConstraints.obj
 0001:000214b0       ?find_loader_constraint@LoaderConstraintTable@@AAEPAPAVLoaderConstraintEntry@@PAVSymbol@@VHandle@@@Z 080224b0 f   loaderConstraints.obj
 0001:00021520       ?purge_loader_constraints@LoaderConstraintTable@@QAEXPAVBoolObjectClosure@@@Z 08022520 f   loaderConstraints.obj
 0001:00021880       ?check_or_update@LoaderConstraintTable@@QAE_NVinstanceKlassHandle@@VHandle@@PAVSymbol@@@Z 08022880 f   loaderConstraints.obj
 0001:000219c0       ?find_constrained_klass@LoaderConstraintTable@@QAEPAVklassOopDesc@@PAVSymbol@@VHandle@@@Z 080229c0 f   loaderConstraints.obj
 0001:00021a00       ?extend_loader_constraint@LoaderConstraintTable@@QAEXPAVLoaderConstraintEntry@@VHandle@@PAVklassOopDesc@@@Z 08022a00 f   loaderConstraints.obj
 0001:00021af0       ?merge_loader_constraints@LoaderConstraintTable@@QAEXPAPAVLoaderConstraintEntry@@0PAVklassOopDesc@@@Z 08022af0 f   loaderConstraints.obj
 0001:00021c60       ?oops_do@LoaderConstraintTable@@QAEXPAVOopClosure@@@Z 08022c60 f   loaderConstraints.obj
 0001:00021d00       ?add_entry@LoaderConstraintTable@@QAE_NPAVSymbol@@PAVklassOopDesc@@VHandle@@12@Z 08022d00 f   loaderConstraints.obj
 0001:000220b0       ?verify@LoaderConstraintTable@@QAEXPAVDictionary@@PAVPlaceholderTable@@@Z 080230b0 f   loaderConstraints.obj
 0001:000222d0       ?add_seen_thread@PlaceholderEntry@@QAEXPAVThread@@W4classloadAction@PlaceholderTable@@@Z 080232d0 f i placeholders.obj
 0001:00022390       ?remove_entry@PlaceholderTable@@QAEXHIPAVSymbol@@VHandle@@@Z 08023390 f   placeholders.obj
 0001:00022410       ?add_entry@PlaceholderTable@@QAEXHIPAVSymbol@@VHandle@@_N0@Z 08023410 f   placeholders.obj
 0001:000224a0       ?get_entry@PlaceholderTable@@QAEPAVPlaceholderEntry@@HIPAVSymbol@@VHandle@@@Z 080234a0 f   placeholders.obj
 0001:000224f0       ?find_entry@PlaceholderTable@@QAEPAVSymbol@@HIPAV2@VHandle@@@Z 080234f0 f   placeholders.obj
 0001:00022540       ?find_and_add@PlaceholderTable@@QAEPAVPlaceholderEntry@@HIPAVSymbol@@VHandle@@W4classloadAction@1@0PAVThread@@@Z 08023540 f   placeholders.obj
 0001:000225f0       ?find_and_remove@PlaceholderTable@@QAEXHIPAVSymbol@@VHandle@@PAVThread@@@Z 080235f0 f   placeholders.obj
 0001:00022660       ??0PlaceholderTable@@QAE@H@Z 08023660 f   placeholders.obj
 0001:00022680       ?oops_do@PlaceholderTable@@QAEXPAVOopClosure@@@Z 08023680 f   placeholders.obj
 0001:000226e0       ?entries_do@PlaceholderTable@@QAEXP6AXPAVSymbol@@PAVoopDesc@@@Z@Z 080236e0 f   placeholders.obj
 0001:00022730       ?verify@PlaceholderTable@@QAEXXZ 08023730 f   placeholders.obj
 0001:000227f0       ??0ResolutionErrorTable@@QAE@H@Z 080237f0 f   resolutionErrors.obj
 0001:00022810       ?purge_resolution_errors@ResolutionErrorTable@@QAEXPAVBoolObjectClosure@@@Z 08023810 f   resolutionErrors.obj
 0001:00022880       ?add_entry@ResolutionErrorTable@@QAEXHIVconstantPoolHandle@@HPAVSymbol@@@Z 08023880 f   resolutionErrors.obj
 0001:000228d0       ?find_entry@ResolutionErrorTable@@QAEPAVResolutionErrorEntry@@HIVconstantPoolHandle@@H@Z 080238d0 f   resolutionErrors.obj
 0001:00022920       ?oops_do@ResolutionErrorTable@@QAEXPAVOopClosure@@@Z 08023920 f   resolutionErrors.obj
 0001:00022970       ??0StackMapFrame@@QAE@HEGGGGPAVVerificationType@@0PAVClassVerifier@@@Z 08023970 f i stackMapFrame.obj
 0001:000229c0       ??0StackMapFrame@@QAE@GGPAVClassVerifier@@@Z 080239c0 f   stackMapFrame.obj
 0001:00022a50       ?has_new_object@StackMapFrame@@QBE_NXZ 08023a50 f   stackMapFrame.obj
 0001:00022aa0       ?initialize_object@StackMapFrame@@QAEXVVerificationType@@0@Z 08023aa0 f   stackMapFrame.obj
 0001:00022b00       ?copy_locals@StackMapFrame@@QAEXPBV1@@Z 08023b00 f   stackMapFrame.obj
 0001:00022b40       ?copy_stack@StackMapFrame@@QAEXPBV1@@Z 08023b40 f   stackMapFrame.obj
 0001:00022b80       ?has_flag_match_exception@StackMapFrame@@QBE_NPBV1@@Z 08023b80 f   stackMapFrame.obj
 0001:00022c30       ?set_local@StackMapFrame@@QAEXHVVerificationType@@PAVThread@@@Z 08023c30 f   stackMapFrame.obj
 0001:00022cb0       ?set_local_2@StackMapFrame@@QAEXHVVerificationType@@0PAVThread@@@Z 08023cb0 f   stackMapFrame.obj
 0001:00022d40       ?is_assignable_from@VerificationType@@QBE_NABV1@PAVClassVerifier@@PAVThread@@@Z 08023d40 f i stackMapFrame.obj
 0001:00022e40       ?change_sig_to_verificationType@ClassVerifier@@QAEHPAVSignatureStream@@PAVVerificationType@@PAVThread@@@Z 08023e40 f i stackMapFrame.obj
 0001:00022f40       ?frame_in_exception_handler@StackMapFrame@@QAEPAV1@E@Z 08023f40 f   stackMapFrame.obj
 0001:00022fc0       ?is_assignable_to@StackMapFrame@@QBE_NPAVVerificationType@@0HPAVThread@@@Z 08023fc0 f   stackMapFrame.obj
 0001:000230e0       ?is_assignable_to@StackMapFrame@@QBE_NPBV1@_NPAVThread@@@Z 080240e0 f   stackMapFrame.obj
 0001:00023190       ?pop_stack_ex@StackMapFrame@@QAE?AVVerificationType@@V2@PAVThread@@@Z 08024190 f   stackMapFrame.obj
 0001:00023210       ?get_local@StackMapFrame@@QAE?AVVerificationType@@HV2@PAVThread@@@Z 08024210 f   stackMapFrame.obj
 0001:000232b0       ?get_local_2@StackMapFrame@@QAEXHVVerificationType@@0PAVThread@@@Z 080242b0 f   stackMapFrame.obj
 0001:00023350       ?set_locals_from_arg@StackMapFrame@@QAE?AVVerificationType@@VmethodHandle@@V2@PAVThread@@@Z 08024350 f   stackMapFrame.obj
 0001:000235a0       ?reset@StackMapFrame@@QAEXXZ 080245a0 f i stackMapTable.obj
 0001:000235f0       ?check_verification_type_array_size@StackMapReader@@AAEXHHPAVThread@@@Z 080245f0 f i stackMapTable.obj
 0001:00023620       ?check_new_object@StackMapTable@@QBEXPBVStackMapFrame@@HPAVThread@@@Z 08024620 f   stackMapTable.obj
 0001:00023660       ?chop@StackMapReader@@AAEHPAVVerificationType@@HH@Z 08024660 f   stackMapTable.obj
 0001:000236c0       ??8Handle@@QBE_NPAVoopDesc@@@Z 080246c0 f i stackMapTable.obj
 0001:000236f0       ?is_uninitialized_this@VerificationType@@QBE_NXZ 080246f0 f i stackMapTable.obj
 0001:00023710       ?match_stackmap@StackMapTable@@QBE_NPAVStackMapFrame@@HH_N1PAVThread@@@Z 08024710 f   stackMapTable.obj
 0001:000237e0       ?match_stackmap@StackMapTable@@QBE_NPAVStackMapFrame@@H_N1PAVThread@@@Z 080247e0 f   stackMapTable.obj
 0001:00023830       ?check_jump_target@StackMapTable@@QBEXPAVStackMapFrame@@HPAVThread@@@Z 08024830 f   stackMapTable.obj
 0001:00023900       ?get_u2@StackMapStream@@QAEGPAVThread@@@Z 08024900 f i stackMapTable.obj
 0001:00023960       ?parse_verification_type@StackMapReader@@AAE?AVVerificationType@@PAEPAVThread@@@Z 08024960 f   stackMapTable.obj
 0001:00023b10       ?next@StackMapReader@@QAEPAVStackMapFrame@@PAV2@_NGGPAVThread@@@Z 08024b10 f   stackMapTable.obj
 0001:00024320       ??0StackMapTable@@QAE@PAVStackMapReader@@PAVStackMapFrame@@GGPADHPAVThread@@@Z 08025320 f   stackMapTable.obj
 0001:00024400       ?allocate_symbols@SymbolTable@@AAE_NHPAPBEPAHPAPAVSymbol@@PAVThread@@@Z 08025400 f   symbolTable.obj
 0001:000244a0       ?_unlink@SymbolTable@@SAXXZ 080254a0 f   symbolTable.obj
 0001:00024550       ?_unlink@StringTable@@SAXPAVBoolObjectClosure@@@Z 08025550 f   symbolTable.obj
 0001:000245d0       ?symbols_do@SymbolTable@@SAXPAVSymbolClosure@@@Z 080255d0 f   symbolTable.obj
 0001:00024630       ?lookup@SymbolTable@@AAEPAVSymbol@@HPBDHI@Z 08025630 f   symbolTable.obj
 0001:00024690       ?lookup_only@SymbolTable@@SAPAVSymbol@@PBDHAAI@Z 08025690 f   symbolTable.obj
 0001:000246e0       ?lookup_only_unicode@SymbolTable@@SAPAVSymbol@@PBGHAAI@Z 080256e0 f   symbolTable.obj
 0001:000247f0       ?basic_add@SymbolTable@@AAEPAVSymbol@@HPAEHIPAVThread@@@Z 080257f0 f   symbolTable.obj
 0001:000248f0       ?verify@SymbolTable@@SAXXZ 080258f0 f   symbolTable.obj
 0001:000249d0       ?lookup@StringTable@@AAEPAVoopDesc@@HPAGHI@Z 080259d0 f   symbolTable.obj
 0001:00024a30       ?basic_add@StringTable@@AAEPAVoopDesc@@HVHandle@@PAGHIPAVThread@@@Z 08025a30 f   symbolTable.obj
 0001:00024b10       ?intern@StringTable@@CAPAVoopDesc@@VHandle@@PAGHPAVThread@@@Z 08025b10 f   symbolTable.obj
 0001:00024b80       ?intern@StringTable@@SAPAVoopDesc@@PAVSymbol@@PAVThread@@@Z 08025b80 f   symbolTable.obj
 0001:00024c20       ?intern@StringTable@@SAPAVoopDesc@@PAV2@PAVThread@@@Z 08025c20 f   symbolTable.obj
 0001:00024cd0       ?intern@StringTable@@SAPAVoopDesc@@PBDPAVThread@@@Z 08025cd0 f   symbolTable.obj
 0001:00024d90       ?oops_do@StringTable@@SAXPAVOopClosure@@@Z 08025d90 f   symbolTable.obj
 0001:00024e10       ?verify@StringTable@@SAXXZ 08025e10 f   symbolTable.obj
 0001:00024ee0       ?lookup@SymbolTable@@SAPAVSymbol@@PBDHPAVThread@@@Z 08025ee0 f   symbolTable.obj
 0001:00024f40       ?lookup@SymbolTable@@SAPAVSymbol@@PBV2@HHPAVThread@@@Z 08025f40 f   symbolTable.obj
 0001:00025090       ?lookup_unicode@SymbolTable@@SAPAVSymbol@@PBGHPAVThread@@@Z 08026090 f   symbolTable.obj
 0001:00025190       ?basic_add@SymbolTable@@AAE_NVconstantPoolHandle@@HPAPBDPAH2PAIPAVThread@@@Z 08026190 f   symbolTable.obj
 0001:00025300       ?add@SymbolTable@@SAXVconstantPoolHandle@@HPAPBDPAH2PAIPAVThread@@@Z 08026300 f   symbolTable.obj
 0001:000253c0       ?remove_seen_thread@PlaceholderEntry@@QAE_NPAVThread@@W4classloadAction@PlaceholderTable@@@Z 080263c0 f i systemDictionary.obj
 0001:000254d0       ?java_system_loader@SystemDictionary@@SAPAVoopDesc@@XZ 080264d0 f   systemDictionary.obj
 0001:000254e0       ?double_lock_wait@SystemDictionary@@CAXVHandle@@PAVThread@@@Z 080264e0 f   systemDictionary.obj
 0001:00025550       ?find_well_known_klass@SystemDictionary@@SAPAVklassOopDesc@@PAVSymbol@@@Z 08026550 f   systemDictionary.obj
 0001:00025950       ?set_shared_dictionary@SystemDictionary@@SAXPAVHashtableBucket@@HH@Z 08026950 f   systemDictionary.obj
 0001:00025990       ?box_klass_type@SystemDictionary@@SA?AW4BasicType@@PAVklassOopDesc@@@Z 08026990 f   systemDictionary.obj
 0001:000259c0       ?do_bool@SignatureInfo@@MAEXXZ 080269c0 f i systemDictionary.obj
 0001:000259d0       ?do_char@SignatureInfo@@MAEXXZ 080269d0 f i systemDictionary.obj
 0001:000259e0       ?do_float@SignatureInfo@@MAEXXZ 080269e0 f i systemDictionary.obj
 0001:000259f0       ?do_double@SignatureInfo@@MAEXXZ 080269f0 f i systemDictionary.obj
 0001:00025a00       ?do_byte@SignatureInfo@@MAEXXZ 08026a00 f i systemDictionary.obj
 0001:00025a10       ?do_short@SignatureInfo@@MAEXXZ 08026a10 f i systemDictionary.obj
 0001:00025a20       ?do_int@SignatureInfo@@MAEXXZ 08026a20 f i systemDictionary.obj
 0001:00025a30       ?do_long@SignatureInfo@@MAEXXZ 08026a30 f i systemDictionary.obj
 0001:00025a40       ?do_void@SignatureInfo@@MAEXXZ 08026a40 f i systemDictionary.obj
 0001:00025a50       ?do_object@SignatureInfo@@MAEXHH@Z 08026a50 f i systemDictionary.obj
 0001:00025a60       ?do_array@SignatureInfo@@MAEXHH@Z 08026a60 f i systemDictionary.obj
 0001:00025a70       ??0ArgumentCount@@QAE@PAVSymbol@@@Z 08026a70 f i systemDictionary.obj
 0001:00025aa0       ?set@ArgumentCount@@EAEXHW4BasicType@@@Z 08026aa0 f i systemDictionary.obj
 0001:00025ab0       ?size@ArgumentCount@@QAEHXZ 08026ab0 f i systemDictionary.obj
 0001:00025ad0       ?is_parallelCapable@SystemDictionary@@CA_NVHandle@@@Z 08026ad0 f   systemDictionary.obj
 0001:00025b10       ?check_loader_lock_contention@SystemDictionary@@CAXVHandle@@PAVThread@@@Z 08026b10 f   systemDictionary.obj
 0001:00025b70       ?find_class@SystemDictionary@@CAPAVklassOopDesc@@HIPAVSymbol@@VHandle@@@Z 08026b70 f   systemDictionary.obj
 0001:00025b90       ?try_get_next_class@SystemDictionary@@SAPAVklassOopDesc@@XZ 08026b90 f   systemDictionary.obj
 0001:00025ba0       ?add_to_hierarchy@SystemDictionary@@CAXVinstanceKlassHandle@@PAVThread@@@Z 08026ba0 f   systemDictionary.obj
 0001:00025bf0       ?do_unloading@SystemDictionary@@SA_NPAVBoolObjectClosure@@@Z 08026bf0 f   systemDictionary.obj
 0001:00025c30       ?classes_do@SystemDictionary@@SAXP6AXPAVklassOopDesc@@@Z@Z 08026c30 f   systemDictionary.obj
 0001:00025c50       ?classes_do@SystemDictionary@@SAXP6AXPAVklassOopDesc@@PAVThread@@@Z1@Z 08026c50 f   systemDictionary.obj
 0001:00025c70       ?classes_do@SystemDictionary@@SAXP6AXPAVklassOopDesc@@PAVoopDesc@@@Z@Z 08026c70 f   systemDictionary.obj
 0001:00025c90       ?classes_do@SystemDictionary@@SAXP6AXPAVklassOopDesc@@PAVoopDesc@@PAVThread@@@Z2@Z 08026c90 f   systemDictionary.obj
 0001:00025cb0       ?placeholders_do@SystemDictionary@@SAXP6AXPAVSymbol@@PAVoopDesc@@@Z@Z 08026cb0 f   systemDictionary.obj
 0001:00025cd0       ?update_dictionary@SystemDictionary@@CAXHIHIVinstanceKlassHandle@@VHandle@@PAVThread@@@Z 08026cd0 f   systemDictionary.obj
 0001:00025db0       ?reorder_dictionary@SystemDictionary@@SAXXZ 08026db0 f   systemDictionary.obj
 0001:00025dc0       ?copy_buckets@SystemDictionary@@SAXPAPADPAD@Z 08026dc0 f   systemDictionary.obj
 0001:00025de0       ?copy_table@SystemDictionary@@SAXPAPADPAD@Z 08026de0 f   systemDictionary.obj
 0001:00025e00       ?reverse@SystemDictionary@@SAXXZ 08026e00 f   systemDictionary.obj
 0001:00025e10       ?number_of_classes@SystemDictionary@@SAHXZ 08026e10 f   systemDictionary.obj
 0001:00025e20       ?verify@SystemDictionary@@SAXXZ 08026e20 f   systemDictionary.obj
 0001:00025f20       ?resolve_cached_constant_at@constantPoolOopDesc@@QAEPAVoopDesc@@HPAVThread@@@Z 08026f20 f i systemDictionary.obj
 0001:00025f80       ?resolve_possibly_cached_constant_at@constantPoolOopDesc@@QAEPAVoopDesc@@HPAVThread@@@Z 08026f80 f i systemDictionary.obj
 0001:00025fe0       ??0JavaCallArguments@@QAE@VHandle@@@Z 08026fe0 f i systemDictionary.obj
 0001:00026020       ?compute_java_system_loader@SystemDictionary@@SAXPAVThread@@@Z 08027020 f   systemDictionary.obj
 0001:00026100       ?handle_resolution_exception@SystemDictionary@@CAPAVklassOopDesc@@PAVSymbol@@VHandle@@1_NVKlassHandle@@PAVThread@@@Z 08027100 f   systemDictionary.obj
 0001:00026270       ?resolve_super_or_fail@SystemDictionary@@SAPAVklassOopDesc@@PAVSymbol@@0VHandle@@1_NPAVThread@@@Z 08027270 f   systemDictionary.obj
 0001:000265c0       ?validate_protection_domain@SystemDictionary@@CAXVinstanceKlassHandle@@VHandle@@1PAVThread@@@Z 080275c0 f   systemDictionary.obj
 0001:000266e0       ?handle_parallel_super_load@SystemDictionary@@CA?AVinstanceKlassHandle@@PAVSymbol@@0VHandle@@11PAVThread@@@Z 080276e0 f   systemDictionary.obj
 0001:00026910       ?find@SystemDictionary@@SAPAVklassOopDesc@@PAVSymbol@@VHandle@@1PAVThread@@@Z 08027910 f   systemDictionary.obj
 0001:000269d0       ?find_instance_or_array_klass@SystemDictionary@@SAPAVklassOopDesc@@PAVSymbol@@VHandle@@1PAVThread@@@Z 080279d0 f   systemDictionary.obj
 0001:00026ac0       ?find_shared_class@SystemDictionary@@CAPAVklassOopDesc@@PAVSymbol@@@Z 08027ac0 f   systemDictionary.obj
 0001:00026b00       ?find_placeholder@SystemDictionary@@CAPAVSymbol@@PAV2@VHandle@@@Z 08027b00 f   systemDictionary.obj
 0001:00026b60       ?find_class@SystemDictionary@@CAPAVklassOopDesc@@PAVSymbol@@VHandle@@@Z 08027b60 f   systemDictionary.obj
 0001:00026c00       ?always_strong_classes_do@SystemDictionary@@SAXPAVOopClosure@@@Z 08027c00 f   systemDictionary.obj
 0001:00026c30       ?preloaded_oops_do@SystemDictionary@@CAXPAVOopClosure@@@Z 08027c30 f   systemDictionary.obj
 0001:00026cc0       ?check_constraints@SystemDictionary@@CAXHIVinstanceKlassHandle@@VHandle@@_NPAVThread@@@Z 08027cc0 f   systemDictionary.obj
 0001:00026e60       ?find_constrained_instance_or_array_klass@SystemDictionary@@SAPAVklassOopDesc@@PAVSymbol@@VHandle@@PAVThread@@@Z 08027e60 f   systemDictionary.obj
 0001:00026f80       ?add_loader_constraint@SystemDictionary@@SA_NPAVSymbol@@VHandle@@1PAVThread@@@Z 08027f80 f   systemDictionary.obj
 0001:00027100       ?add_resolution_error@SystemDictionary@@SAXVconstantPoolHandle@@HPAVSymbol@@@Z 08028100 f   systemDictionary.obj
 0001:00027190       ?find_resolution_error@SystemDictionary@@SAPAVSymbol@@VconstantPoolHandle@@H@Z 08028190 f   systemDictionary.obj
 0001:00027240       ?check_signature_loaders@SystemDictionary@@SAPADPAVSymbol@@VHandle@@1_NPAVThread@@@Z 08028240 f   systemDictionary.obj
 0001:00027380       ?verify_obj_klass_present@SystemDictionary@@SAXVHandle@@PAVSymbol@@0@Z 08028380 f   systemDictionary.obj
 0001:00027420       ?define_instance_class@SystemDictionary@@CAXVinstanceKlassHandle@@PAVThread@@@Z 08028420 f   systemDictionary.obj
 0001:00027700       ?find_or_define_instance_class@SystemDictionary@@CA?AVinstanceKlassHandle@@PAVSymbol@@VHandle@@V2@PAVThread@@@Z 08028700 f   systemDictionary.obj
 0001:00027a60       ?always_strong_oops_do@SystemDictionary@@SAXPAVOopClosure@@@Z 08028a60 f   systemDictionary.obj
 0001:00027ab0       ?oops_do@SystemDictionary@@SAXPAVOopClosure@@@Z 08028ab0 f   systemDictionary.obj
 0001:00027b20       ?make_dynamic_call_site@SystemDictionary@@SA?AVHandle@@V2@PAVSymbol@@VmethodHandle@@02HPAVThread@@@Z 08028b20 f   systemDictionary.obj
 0001:00027d50       ?resolve_from_stream@SystemDictionary@@SAPAVklassOopDesc@@PAVSymbol@@VHandle@@1PAVClassFileStream@@_NPAVThread@@@Z 08028d50 f   systemDictionary.obj
 0001:000280b0       ?invoke_dynamic_bootstrap_method_ref_index_at@constantPoolOopDesc@@QAEHH@Z 080290b0 f i systemDictionary.obj
 0001:000280e0       ?invoke_dynamic_argument_count_at@constantPoolOopDesc@@QAEHH@Z 080290e0 f i systemDictionary.obj
 0001:00028110       ?invoke_dynamic_argument_index_at@constantPoolOopDesc@@QAEHHH@Z 08029110 f i systemDictionary.obj
 0001:00028140       ?load_shared_class@SystemDictionary@@CA?AVinstanceKlassHandle@@V2@VHandle@@PAVThread@@@Z 08029140 f   systemDictionary.obj
 0001:00028580       ?parse_stream@SystemDictionary@@SAPAVklassOopDesc@@PAVSymbol@@VHandle@@1PAVClassFileStream@@VKlassHandle@@PAV?$GrowableArray@VHandle@@@@PAVThread@@@Z 08029580 f   systemDictionary.obj
 0001:00028730       ?load_shared_class@SystemDictionary@@CA?AVinstanceKlassHandle@@PAVSymbol@@VHandle@@PAVThread@@@Z 08029730 f   systemDictionary.obj
 0001:000287d0       ?load_instance_class@SystemDictionary@@CA?AVinstanceKlassHandle@@PAVSymbol@@VHandle@@PAVThread@@@Z 080297d0 f   systemDictionary.obj
 0001:00028ba0       ?find_method_handle_type@SystemDictionary@@SA?AVHandle@@PAVSymbol@@VKlassHandle@@_NAA_NPAVThread@@@Z 08029ba0 f   systemDictionary.obj
 0001:00029220       ?link_method_handle_constant@SystemDictionary@@SA?AVHandle@@VKlassHandle@@H0PAVSymbol@@1PAVThread@@@Z 0802a220 f   systemDictionary.obj
 0001:00029540       ?find_bootstrap_method@SystemDictionary@@SA?AVHandle@@VmethodHandle@@HHAAV2@PAVThread@@@Z 0802a540 f   systemDictionary.obj
 0001:000297a0       ?resolve_instance_class_or_null@SystemDictionary@@CAPAVklassOopDesc@@PAVSymbol@@VHandle@@1PAVThread@@@Z 0802a7a0 f   systemDictionary.obj
 0001:00029f90       ?find_method_handle_invoke@SystemDictionary@@SAPAVmethodOopDesc@@PAVSymbol@@0VKlassHandle@@PAVThread@@@Z 0802af90 f   systemDictionary.obj
 0001:0002a140       ?resolve_array_class_or_null@SystemDictionary@@CAPAVklassOopDesc@@PAVSymbol@@VHandle@@1PAVThread@@@Z 0802b140 f   systemDictionary.obj
 0001:0002a210       ?resolve_or_null@SystemDictionary@@SAPAVklassOopDesc@@PAVSymbol@@VHandle@@1PAVThread@@@Z 0802b210 f   systemDictionary.obj
 0001:0002a350       ?resolve_or_null@SystemDictionary@@SAPAVklassOopDesc@@PAVSymbol@@PAVThread@@@Z 0802b350 f   systemDictionary.obj
 0001:0002a370       ?resolve_or_fail@SystemDictionary@@SAPAVklassOopDesc@@PAVSymbol@@VHandle@@1_NPAVThread@@@Z 0802b370 f   systemDictionary.obj
 0001:0002a400       ?resolve_or_fail@SystemDictionary@@SAPAVklassOopDesc@@PAVSymbol@@_NPAVThread@@@Z 0802b400 f   systemDictionary.obj
 0001:0002a420       ?load_abstract_ownable_synchronizer_klass@SystemDictionary@@SAXPAVThread@@@Z 0802b420 f   systemDictionary.obj
 0001:0002a470       ?initialize_wk_klasses_until@SystemDictionary@@SAXW4WKID@1@AAW421@PAVThread@@@Z 0802b470 f   systemDictionary.obj
 0001:0002a560       ?initialize_preloaded_classes@SystemDictionary@@CAXPAVThread@@@Z 0802b560 f   systemDictionary.obj
 0001:0002a750       ?initialize@SystemDictionary@@SAXPAVThread@@@Z 0802b750 f   systemDictionary.obj
 0001:0002a840       ?from_tag@VerificationType@@SA?AV1@E@Z 0802b840 f   verificationType.obj
 0001:0002a8c0       ?is_object@VerificationType@@QBE_NXZ 0802b8c0 f i verificationType.obj
 0001:0002a8e0       ?is_array@VerificationType@@QBE_NXZ 0802b8e0 f i verificationType.obj
 0001:0002a900       ?get_component@VerificationType@@QBE?AV1@PAVClassVerifier@@PAVThread@@@Z 0802b900 f   verificationType.obj
 0001:0002aa20       ?is_reference_assignable_from@VerificationType@@ABE_NABV1@PAVClassVerifier@@PAVThread@@@Z 0802ba20 f   verificationType.obj
 0001:0002ac30       ?should_verify_for@Verifier@@SA_NPAVoopDesc@@_N@Z 0802bc30 f   verifier.obj
 0001:0002ac50       ?relax_verify_for@Verifier@@SA_NPAVoopDesc@@@Z 0802bc50 f   verifier.obj
 0001:0002aca0       ?verify_iinc@ClassVerifier@@AAEXGPAVStackMapFrame@@PAVThread@@@Z 0802bca0 f   verifier.obj
 0001:0002acf0       ??8Handle@@QBE_NABV0@@Z    0802bcf0 f i verifier.obj
 0001:0002ad20       ??0ArgumentSizeComputer@@QAE@PAVSymbol@@@Z 0802bd20 f i verifier.obj
 0001:0002ad50       ?set@ArgumentSizeComputer@@EAEXHW4BasicType@@@Z 0802bd50 f i verifier.obj
 0001:0002ad60       ?dimensions@VerificationType@@QBEHXZ 0802bd60 f i verifier.obj
 0001:0002ad70       ?was_recursively_verified@ClassVerifier@@AAE_NXZ 0802bd70 f i verifier.obj
 0001:0002ad90       ?cp_index_to_type@ClassVerifier@@QAE?AVVerificationType@@HVconstantPoolHandle@@PAVThread@@@Z 0802bd90 f i verifier.obj
 0001:0002adb0       ?pop_stack@StackMapFrame@@QAE?AVVerificationType@@V2@PAVThread@@@Z 0802bdb0 f i verifier.obj
 0001:0002ae20       ?pop_stack_2@StackMapFrame@@QAEXVVerificationType@@0PAVThread@@@Z 0802be20 f i verifier.obj
 0001:0002aec0       ?bytecode@BaseBytecodeStream@@QBE?AVBytecode@@XZ 0802bec0 f i verifier.obj
 0001:0002af10       ?raw_next@RawBytecodeStream@@QAE?AW4Code@Bytecodes@@XZ 0802bf10 f i verifier.obj
 0001:0002af50       ?is_eligible_for_verification@Verifier@@CA_NVinstanceKlassHandle@@_N@Z 0802bf50 f   verifier.obj
 0001:0002b000       ??1ClassVerifier@@QAE@XZ   0802c000 f   verifier.obj
 0001:0002b030       ?load_class@ClassVerifier@@QAEPAVklassOopDesc@@PAVSymbol@@PAVThread@@@Z 0802c030 f   verifier.obj
 0001:0002b110       ?name_in_supers@ClassVerifier@@AAE_NPAVSymbol@@VinstanceKlassHandle@@@Z 0802c110 f   verifier.obj
 0001:0002b140       ?verify_istore@ClassVerifier@@AAEXGPAVStackMapFrame@@PAVThread@@@Z 0802c140 f   verifier.obj
 0001:0002b190       ?verify_lstore@ClassVerifier@@AAEXGPAVStackMapFrame@@PAVThread@@@Z 0802c190 f   verifier.obj
 0001:0002b1e0       ?verify_fstore@ClassVerifier@@AAEXGPAVStackMapFrame@@PAVThread@@@Z 0802c1e0 f   verifier.obj
 0001:0002b230       ?verify_dstore@ClassVerifier@@AAEXGPAVStackMapFrame@@PAVThread@@@Z 0802c230 f   verifier.obj
 0001:0002b280       ?verify_astore@ClassVerifier@@AAEXGPAVStackMapFrame@@PAVThread@@@Z 0802c280 f   verifier.obj
 0001:0002b2d0       ?is_int_array@VerificationType@@QBE_NXZ 0802c2d0 f i verifier.obj
 0001:0002b300       ?is_byte_array@VerificationType@@QBE_NXZ 0802c300 f i verifier.obj
 0001:0002b330       ?is_bool_array@VerificationType@@QBE_NXZ 0802c330 f i verifier.obj
 0001:0002b360       ?is_char_array@VerificationType@@QBE_NXZ 0802c360 f i verifier.obj
 0001:0002b390       ?is_short_array@VerificationType@@QBE_NXZ 0802c390 f i verifier.obj
 0001:0002b3c0       ?is_long_array@VerificationType@@QBE_NXZ 0802c3c0 f i verifier.obj
 0001:0002b3f0       ?is_float_array@VerificationType@@QBE_NXZ 0802c3f0 f i verifier.obj
 0001:0002b420       ?is_double_array@VerificationType@@QBE_NXZ 0802c420 f i verifier.obj
 0001:0002b450       ?is_reference_array@VerificationType@@QBE_NXZ 0802c450 f i verifier.obj
 0001:0002b490       ?dest@BaseBytecodeStream@@QBEHXZ 0802c490 f i verifier.obj
 0001:0002b4e0       ?dest_w@BaseBytecodeStream@@QBEHXZ 0802c4e0 f i verifier.obj
 0001:0002b520       ?inference_verify@Verifier@@CAPAVSymbol@@VinstanceKlassHandle@@PADIPAVThread@@@Z 0802c520 f   verifier.obj
 0001:0002b770       ??0ClassVerifier@@QAE@VinstanceKlassHandle@@PADIPAVThread@@@Z 0802c770 f   verifier.obj
 0001:0002b830       ?format_error_message@ClassVerifier@@QAEXPBDHPAD@Z 0802c830 f   verifier.obj
 0001:0002b8e0       ?verify_error@ClassVerifier@@QAAXGPBDZZ 0802c8e0 f   verifier.obj
 0001:0002b910       ?verify_error@ClassVerifier@@QAAXPBDZZ 0802c910 f   verifier.obj
 0001:0002b930       ?class_format_error@ClassVerifier@@QAAXPBDZZ 0802c930 f   verifier.obj
 0001:0002b950       ?is_protected_access@ClassVerifier@@AAE_NVinstanceKlassHandle@@PAVklassOopDesc@@PAVSymbol@@2_N@Z 0802c950 f   verifier.obj
 0001:0002ba10       ?verify_switch@ClassVerifier@@AAEXPAVRawBytecodeStream@@IPADPAVStackMapFrame@@PAVStackMapTable@@PAVThread@@@Z 0802ca10 f   verifier.obj
 0001:0002bc20       ?verify_return_value@ClassVerifier@@AAEXVVerificationType@@0GPAVThread@@@Z 0802cc20 f   verifier.obj
 0001:0002bc80       ?push_stack@StackMapFrame@@QAEXVVerificationType@@PAVThread@@@Z 0802cc80 f i verifier.obj
 0001:0002bcc0       ?push_stack_2@StackMapFrame@@QAEXVVerificationType@@0PAVThread@@@Z 0802ccc0 f i verifier.obj
 0001:0002bd20       ?pop_stack@StackMapFrame@@QAE?AVVerificationType@@PAVThread@@@Z 0802cd20 f i verifier.obj
 0001:0002bd60       ?get_index@RawBytecodeStream@@QBEHXZ 0802cd60 f i verifier.obj
 0001:0002bda0       ?get_index_u2@RawBytecodeStream@@QBEHXZ 0802cda0 f i verifier.obj
 0001:0002bdd0       ?generate_code_data@ClassVerifier@@AAEPADVmethodHandle@@IPAVThread@@@Z 0802cdd0 f   verifier.obj
 0001:0002beb0       ?verify_local_variable_table@ClassVerifier@@AAEXIPADPAVThread@@@Z 0802ceb0 f   verifier.obj
 0001:0002bf70       ?verify_stackmap_table@ClassVerifier@@AAEGGGPAVStackMapFrame@@PAVStackMapTable@@_NPAVThread@@@Z 0802cf70 f   verifier.obj
 0001:0002c060       ?verify_iload@ClassVerifier@@AAEXGPAVStackMapFrame@@PAVThread@@@Z 0802d060 f   verifier.obj
 0001:0002c0d0       ?verify_lload@ClassVerifier@@AAEXGPAVStackMapFrame@@PAVThread@@@Z 0802d0d0 f   verifier.obj
 0001:0002c120       ?verify_fload@ClassVerifier@@AAEXGPAVStackMapFrame@@PAVThread@@@Z 0802d120 f   verifier.obj
 0001:0002c190       ?verify_dload@ClassVerifier@@AAEXGPAVStackMapFrame@@PAVThread@@@Z 0802d190 f   verifier.obj
 0001:0002c1e0       ?verify_aload@ClassVerifier@@AAEXGPAVStackMapFrame@@PAVThread@@@Z 0802d1e0 f   verifier.obj
 0001:0002c250       ??0StackMapReader@@QAE@PAVClassVerifier@@PAVStackMapStream@@PADHPAVThread@@@Z 0802d250 f i verifier.obj
 0001:0002c300       ?verify_exception_handler_table@ClassVerifier@@AAEXIPADAAH1PAVThread@@@Z 0802d300 f   verifier.obj
 0001:0002c540       ?verify_exception_handler_targets@ClassVerifier@@AAEXG_NPAVStackMapFrame@@PAVStackMapTable@@PAVThread@@@Z 0802d540 f   verifier.obj
 0001:0002c720       ?verify_cp_type@ClassVerifier@@AAEXHVconstantPoolHandle@@IPAVThread@@@Z 0802d720 f   verifier.obj
 0001:0002c7d0       ?verify_cp_class_type@ClassVerifier@@AAEXHVconstantPoolHandle@@PAVThread@@@Z 0802d7d0 f   verifier.obj
 0001:0002c860       ?verify_ldc@ClassVerifier@@AAEXHGPAVStackMapFrame@@VconstantPoolHandle@@GPAVThread@@@Z 0802d860 f   verifier.obj
 0001:0002ca90       ?verify_invoke_init@ClassVerifier@@AAEXPAVRawBytecodeStream@@VVerificationType@@PAVStackMapFrame@@IPA_NVconstantPoolHandle@@PAVThread@@@Z 0802da90 f   verifier.obj
 0001:0002cd30       ?create_temporary_symbol@ClassVerifier@@QAEPAVSymbol@@PBV2@HHPAVThread@@@Z 0802dd30 f   verifier.obj
 0001:0002cd90       ?create_temporary_symbol@ClassVerifier@@QAEPAVSymbol@@PBDHPAVThread@@@Z 0802dd90 f   verifier.obj
 0001:0002cdf0       ?verify_field_instructions@ClassVerifier@@AAEXPAVRawBytecodeStream@@PAVStackMapFrame@@VconstantPoolHandle@@PAVThread@@@Z 0802ddf0 f   verifier.obj
 0001:0002d260       ?verify_invoke_instructions@ClassVerifier@@AAEXPAVRawBytecodeStream@@IPAVStackMapFrame@@PA_NVVerificationType@@VconstantPoolHandle@@PAVThread@@@Z 0802e260 f   verifier.obj
 0001:0002d970       ?get_newarray_type@ClassVerifier@@AAE?AVVerificationType@@GGPAVThread@@@Z 0802e970 f   verifier.obj
 0001:0002da60       ?verify_anewarray@ClassVerifier@@AAEXGVconstantPoolHandle@@PAVStackMapFrame@@PAVThread@@@Z 0802ea60 f   verifier.obj
 0001:0002db90       ?verify_method@ClassVerifier@@AAEXVmethodHandle@@PAVThread@@@Z 0802eb90 f   verifier.obj
 0001:00030040       ?verify_class@ClassVerifier@@QAEXPAVThread@@@Z 08031040 f   verifier.obj
 0001:000301e0       ?verify@Verifier@@SA_NVinstanceKlassHandle@@W4Mode@1@_NPAVThread@@@Z 080311e0 f   verifier.obj
 0001:000304a0       ?symbols_do@vmSymbols@@SAXPAVSymbolClosure@@@Z 080314a0 f   vmSymbols.obj
 0001:000304f0       ?serialize@vmSymbols@@SAXPAVSerializeOopClosure@@@Z 080314f0 f   vmSymbols.obj
 0001:00030520       ?signature_type@vmSymbols@@SA?AW4BasicType@@PAVSymbol@@@Z 08031520 f   vmSymbols.obj
 0001:00030550       ?name_at@vmIntrinsics@@SAPBDW4ID@1@@Z 08031550 f   vmSymbols.obj
 0001:000305c0       ?find_id_impl@vmIntrinsics@@CA?AW4ID@1@W4SID@vmSymbols@@00F@Z 080315c0 f   vmSymbols.obj
 0001:00031d90       ?initialize@vmSymbols@@SAXPAVThread@@@Z 08032d90 f   vmSymbols.obj
 0001:00031ea0       ?find_sid@vmSymbols@@SA?AW4SID@1@PAVSymbol@@@Z 08032ea0 f   vmSymbols.obj
 0001:00031f50       ?method_for@vmIntrinsics@@SAPAVmethodOopDesc@@W4ID@1@@Z 08032f50 f   vmSymbols.obj
 0001:00031fe0       ?verify@CodeBlob@@UAEXXZ   08032fe0 f   codeBlob.obj
 0001:00032000       ?print_on@CodeBlob@@UBEXPAVoutputStream@@@Z 08033000 f   codeBlob.obj
 0001:00032030       ?print_value_on@CodeBlob@@UBEXPAVoutputStream@@@Z 08033030 f   codeBlob.obj
 0001:00032050       ?print_on@BufferBlob@@UBEXPAVoutputStream@@@Z 08033050 f   codeBlob.obj
 0001:00032090       ?print_value_on@DeoptimizationBlob@@UBEXPAVoutputStream@@@Z 08033090 f   codeBlob.obj
 0001:000320b0       ?trace_new_stub@CodeBlob@@SAXPAV1@PBD1@Z 080330b0 f   codeBlob.obj
 0001:00032190       ?flush@CodeBlob@@QAEXXZ    08033190 f   codeBlob.obj
 0001:000321b0       ?oop_map_for_return_address@CodeBlob@@QAEPAVOopMap@@PAE@Z 080331b0 f   codeBlob.obj
 0001:000321d0       ?print_value_on@BufferBlob@@UBEXPAVoutputStream@@@Z 080331d0 f   codeBlob.obj
 0001:000321f0       ?print_on@RuntimeStub@@UBEXPAVoutputStream@@@Z 080331f0 f   codeBlob.obj
 0001:00032240       ?print_value_on@RuntimeStub@@UBEXPAVoutputStream@@@Z 08033240 f   codeBlob.obj
 0001:00032270       ?print_on@SingletonBlob@@UBEXPAVoutputStream@@@Z 08033270 f   codeBlob.obj
 0001:000322b0       ?print_value_on@SingletonBlob@@UBEXPAVoutputStream@@@Z 080332b0 f   codeBlob.obj
 0001:000322d0       ?allocation_size@CodeBlob@@SAIPAVCodeBuffer@@H@Z 080332d0 f   codeBlob.obj
 0001:00032340       ?preserve_callee_argument_oops@CodeBlob@@UAEXVframe@@PBVRegisterMap@@PAVOopClosure@@@Z 08033340 f i codeBlob.obj
 0001:00032360       ??0CodeBlob@@QAE@PBDPAVCodeBuffer@@HHHHPAVOopMapSet@@@Z 08033360 f   codeBlob.obj
 0001:00032450       ??0BufferBlob@@AAE@PBDH@Z  08033450 f   codeBlob.obj
 0001:000324c0       ?create@BufferBlob@@SAPAV1@PBDH@Z 080334c0 f   codeBlob.obj
 0001:00032580       ?free@BufferBlob@@SAXPAV1@@Z 08033580 f   codeBlob.obj
 0001:00032610       ?create@AdapterBlob@@SAPAV1@PAVCodeBuffer@@@Z 08033610 f   codeBlob.obj
 0001:000326f0       ?caller_must_gc_arguments@RuntimeStub@@UBE_NPAVJavaThread@@@Z 080336f0 f i codeBlob.obj
 0001:00032700       ?new_runtime_stub@RuntimeStub@@SAPAV1@PBDPAVCodeBuffer@@HHPAVOopMapSet@@_N@Z 08033700 f   codeBlob.obj
 0001:000327f0       ??0MethodHandlesAdapterBlob@@AAE@H@Z 080337f0 f i codeBlob.obj
 0001:00032860       ?create@MethodHandlesAdapterBlob@@SAPAV1@H@Z 08033860 f   codeBlob.obj
 0001:00032920       ?create@RicochetBlob@@SAPAV1@PAVCodeBuffer@@HHH@Z 08033920 f   codeBlob.obj
 0001:00032a20       ?create@DeoptimizationBlob@@SAPAV1@PAVCodeBuffer@@PAVOopMapSet@@HHHH@Z 08033a20 f   codeBlob.obj
 0001:00032b30       ?preserve_callee_argument_oops@SafepointBlob@@UAEXVframe@@PBVRegisterMap@@PAVOopClosure@@@Z 08033b30 f i codeBlob.obj
 0001:00032b30       ?preserve_callee_argument_oops@RicochetBlob@@UAEXVframe@@PBVRegisterMap@@PAVOopClosure@@@Z 08033b30 f i codeBlob.obj
 0001:00032b30       ?preserve_callee_argument_oops@DeoptimizationBlob@@UAEXVframe@@PBVRegisterMap@@PAVOopClosure@@@Z 08033b30 f i codeBlob.obj
 0001:00032b30       ?preserve_callee_argument_oops@RuntimeStub@@UAEXVframe@@PBVRegisterMap@@PAVOopClosure@@@Z 08033b30 f i codeBlob.obj
 0001:00032b30       ?preserve_callee_argument_oops@BufferBlob@@UAEXVframe@@PBVRegisterMap@@PAVOopClosure@@@Z 08033b30 f i codeBlob.obj
 0001:00032b40       ?create@SafepointBlob@@SAPAV1@PAVCodeBuffer@@PAVOopMapSet@@H@Z 08033b40 f   codeBlob.obj
 0001:00032c30       ?number_of_nmethods_with_dependencies@CodeCache@@SAHXZ 08033c30 f   codeCache.obj
 0001:00032c40       ?do_oop_v@OopClosure@@UAEXPAPAVoopDesc@@@Z 08033c40 f i codeCache.obj
 0001:00032c50       ?do_oop_v@OopClosure@@UAEXPAI@Z 08033c50 f i codeCache.obj
 0001:00032c60       ?find_blob_unsafe@CodeCache@@SAPAVCodeBlob@@PAX@Z 08033c60 f i codeCache.obj
 0001:00032c90       ?first@CodeCache@@SAPAVCodeBlob@@XZ 08033c90 f   codeCache.obj
 0001:00032cb0       ?next@CodeCache@@SAPAVCodeBlob@@PAV2@@Z 08033cb0 f   codeCache.obj
 0001:00032ce0       ?alive@CodeCache@@SAPAVCodeBlob@@PAV2@@Z 08033ce0 f   codeCache.obj
 0001:00032d30       ?alive_nmethod@CodeCache@@SAPAVnmethod@@PAVCodeBlob@@@Z 08033d30 f   codeCache.obj
 0001:00032d90       ?first_nmethod@CodeCache@@SAPAVnmethod@@XZ 08033d90 f   codeCache.obj
 0001:00032df0       ?next_nmethod@CodeCache@@SAPAVnmethod@@PAVCodeBlob@@@Z 08033df0 f   codeCache.obj
 0001:00032e60       ?free@CodeCache@@SAXPAVCodeBlob@@@Z 08033e60 f   codeCache.obj
 0001:00032ec0       ?commit@CodeCache@@SAXPAVCodeBlob@@@Z 08033ec0 f   codeCache.obj
 0001:00032f20       ?contains@CodeCache@@SA_NPAX@Z 08033f20 f   codeCache.obj
 0001:00032f50       ?find_blob@CodeCache@@SAPAVCodeBlob@@PAX@Z 08033f50 f   codeCache.obj
 0001:00032fd0       ?find_nmethod@CodeCache@@SAPAVnmethod@@PAX@Z 08033fd0 f   codeCache.obj
 0001:00032fe0       ?blobs_do@CodeCache@@SAXP6AXPAVCodeBlob@@@Z@Z 08033fe0 f   codeCache.obj
 0001:00033040       ?do_unloading@CodeCache@@SAXPAVBoolObjectClosure@@PAVOopClosure@@_N@Z 08034040 f   codeCache.obj
 0001:000330c0       ?blobs_do@CodeCache@@SAXPAVCodeBlobClosure@@@Z 080340c0 f   codeCache.obj
 0001:00033130       ?scavenge_root_nmethods_do@CodeCache@@SAXPAVCodeBlobClosure@@@Z 08034130 f   codeCache.obj
 0001:00033170       ?add_scavenge_root_nmethod@CodeCache@@SAXPAVnmethod@@@Z 08034170 f   codeCache.obj
 0001:00033190       ?drop_scavenge_root_nmethod@CodeCache@@SAXPAVnmethod@@@Z 08034190 f   codeCache.obj
 0001:000331f0       ?prune_scavenge_root_nmethods@CodeCache@@SAXXZ 080341f0 f   codeCache.obj
 0001:00033260       ?remove_saved_code@CodeCache@@SAXPAVnmethod@@@Z 08034260 f   codeCache.obj
 0001:00033310       ?gc_epilogue@CodeCache@@SAXXZ 08034310 f   codeCache.obj
 0001:000333a0       ?first_address@CodeCache@@SAPAEXZ 080343a0 f   codeCache.obj
 0001:000333b0       ?initialize@CodeCache@@SAXXZ 080343b0 f   codeCache.obj
 0001:00033450       ?codeCache_init@@YAXXZ     08034450 f   codeCache.obj
 0001:00033460       ?mark_all_nmethods_for_deoptimization@CodeCache@@SAXXZ 08034460 f   codeCache.obj
 0001:000334f0       ?make_marked_nmethods_zombies@CodeCache@@SAXXZ 080344f0 f   codeCache.obj
 0001:00033580       ?make_marked_nmethods_not_entrant@CodeCache@@SAXXZ 08034580 f   codeCache.obj
 0001:000335f0       ?verify@CodeCache@@SAXXZ   080345f0 f   codeCache.obj
 0001:00033660       ?largest_free_block@CodeCache@@SAIXZ 08034660 f   codeCache.obj
 0001:000336b0       ?allocate@CodeCache@@SAPAVCodeBlob@@H@Z 080346b0 f   codeCache.obj
 0001:00033720       ?verify_oops@CodeCache@@SAXXZ 08034720 f   codeCache.obj
 0001:000337e0       ?mark_for_deoptimization@CodeCache@@SAHAAVDepChange@@@Z 080347e0 f   codeCache.obj
 0001:00033870       ?mark_for_deoptimization@CodeCache@@SAHPAVmethodOopDesc@@@Z 08034870 f   codeCache.obj
 0001:00033960       ?print_bounds@CodeCache@@SAXPAVoutputStream@@@Z 08034960 f   codeCache.obj
 0001:00033a20       ?log_state@CodeCache@@SAXPAVoutputStream@@@Z 08034a20 f   codeCache.obj
 0001:00033ac0       ?find_and_remove_saved_code@CodeCache@@SAPAVnmethod@@PAVmethodOopDesc@@@Z 08034ac0 f   codeCache.obj
 0001:00033bc0       ?speculatively_disconnect@CodeCache@@SAXPAVnmethod@@@Z 08034bc0 f   codeCache.obj
 0001:00033c60       ?mark_for_evol_deoptimization@CodeCache@@SAHVinstanceKlassHandle@@@Z 08034c60 f   codeCache.obj
 0001:00033df0       ?is_in_transition_state@CompiledIC@@ABE_NXZ 08034df0 f   compiledIC.obj
 0001:00033e10       ?stub_address@CompiledIC@@ABEPAEXZ 08034e10 f   compiledIC.obj
 0001:00033e20       ?value@CallRelocation@@UAEPAEXZ 08034e20 f i compiledIC.obj
 0001:00033e30       ?set_value@CallRelocation@@UAEXPAE@Z 08034e30 f i compiledIC.obj
 0001:00033e40       ?opt_virtual_call_reloc@RelocIterator@@QAEPAVopt_virtual_call_Relocation@@XZ 08034e40 f i compiledIC.obj
 0001:00033e60       ?static_call_reloc@RelocIterator@@QAEPAVstatic_call_Relocation@@XZ 08034e60 f i compiledIC.obj
 0001:00033e80       ??0RelocIterator@@QAE@PAVnmethod@@PAE1@Z 08034e80 f i compiledIC.obj
 0001:00033ec0       ?cached_oop@CompiledIC@@QBEPAVoopDesc@@XZ 08034ec0 f   compiledIC.obj
 0001:00033f00       ?set_ic_destination@CompiledIC@@AAEXPAE@Z 08034f00 f   compiledIC.obj
 0001:00033f40       ?ic_destination@CompiledIC@@QBEPAEXZ 08034f40 f   compiledIC.obj
 0001:00033f70       ?is_megamorphic@CompiledIC@@QBE_NXZ 08034f70 f   compiledIC.obj
 0001:00033fb0       ?is_clean@CompiledIC@@QBE_NXZ 08034fb0 f   compiledIC.obj
 0001:00034000       ?compute_monomorphic_entry@CompiledIC@@SAXVmethodHandle@@VKlassHandle@@_N2AAVCompiledICInfo@@PAVThread@@@Z 08035000 f   compiledIC.obj
 0001:000340c0       ??0CompiledIC@@AAE@PAVNativeCall@@@Z 080350c0 f   compiledIC.obj
 0001:00034110       ??0CompiledIC@@AAE@PAVRelocation@@@Z 08035110 f   compiledIC.obj
 0001:00034170       ?set_to_clean@CompiledStaticCall@@QAEXXZ 08035170 f   compiledIC.obj
 0001:000341b0       ?is_clean@CompiledStaticCall@@QBE_NXZ 080351b0 f   compiledIC.obj
 0001:000341d0       ?compute_entry@CompiledStaticCall@@SAXVmethodHandle@@AAVStaticCallInfo@@@Z 080351d0 f   compiledIC.obj
 0001:00034210       ?set_stub_to_clean@CompiledStaticCall@@SAXPAVstatic_stub_Relocation@@@Z 08035210 f   compiledIC.obj
 0001:00034250       ?find_stub@CompiledStaticCall@@QAEPAEXZ 08035250 f   compiledIC.obj
 0001:00034340       ?set_value@DataRelocation@@UAEXPAE@Z 08035340 f i compiledIC.obj
 0001:00034390       ?value@oop_Relocation@@UAEPAEXZ 08035390 f i compiledIC.obj
 0001:000343a0       ?set_cached_oop@CompiledIC@@AAEXPAVoopDesc@@@Z 080353a0 f   compiledIC.obj
 0001:00034480       ?set_to_megamorphic@CompiledIC@@QAEXPAVCallInfo@@W4Code@Bytecodes@@PAVThread@@@Z 08035480 f   compiledIC.obj
 0001:00034530       ?set_to_clean@CompiledIC@@QAEXXZ 08035530 f   compiledIC.obj
 0001:000345d0       ?set_to_interpreted@CompiledStaticCall@@AAEXVmethodHandle@@PAE@Z 080355d0 f   compiledIC.obj
 0001:00034630       ?set@CompiledStaticCall@@QAEXABVStaticCallInfo@@@Z 08035630 f   compiledIC.obj
 0001:000346d0       ?set_to_monomorphic@CompiledIC@@QAEXABVCompiledICInfo@@@Z 080356d0 f   compiledIC.obj
 0001:00034870       ?reverse_int@CompressedStream@@KAII@Z 08035870 f i compressedStream.obj
 0001:000348e0       ?grow@CompressedWriteStream@@AAEXXZ 080358e0 f   compressedStream.obj
 0001:00034910       ??0CompressedWriteStream@@QAE@H@Z 08035910 f   compressedStream.obj
 0001:00034950       ?read_int_mb@CompressedReadStream@@AAEHH@Z 08035950 f   compressedStream.obj
 0001:000349c0       ?write_int_mb@CompressedWriteStream@@AAEXH@Z 080359c0 f   compressedStream.obj
 0001:00034a90       ?read_signed_int@CompressedReadStream@@QAEHXZ 08035a90 f   compressedStream.obj
 0001:00034ac0       ?read_double@CompressedReadStream@@QAENXZ 08035ac0 f   compressedStream.obj
 0001:00034b40       ?read_long@CompressedReadStream@@QAE_JXZ 08035b40 f   compressedStream.obj
 0001:00034bb0       ?write_signed_int@CompressedWriteStream@@QAEXH@Z 08035bb0 f   compressedStream.obj
 0001:00034bf0       ?write_double@CompressedWriteStream@@QAEXN@Z 08035bf0 f   compressedStream.obj
 0001:00034c80       ?write_long@CompressedWriteStream@@QAEX_J@Z 08035c80 f   compressedStream.obj
 0001:00034cf0       ??0DebugInfoWriteStream@@QAE@PAVDebugInformationRecorder@@H@Z 08035cf0 f   debugInfo.obj
 0001:00034d10       ?write_on@ConstantOopReadValue@@UAEXPAVDebugInfoWriteStream@@@Z 08035d10 f   debugInfo.obj
 0001:00034d30       ?get_cached_object@DebugInfoReadStream@@QAEPAVScopeValue@@XZ 08035d30 f   debugInfo.obj
 0001:00034d90       ??0LocationValue@@QAE@PAVDebugInfoReadStream@@@Z 08035d90 f   debugInfo.obj
 0001:00034dc0       ?write_on@LocationValue@@UAEXPAVDebugInfoWriteStream@@@Z 08035dc0 f   debugInfo.obj
 0001:00034e00       ?write_on@ObjectValue@@UAEXPAVDebugInfoWriteStream@@@Z 08035e00 f   debugInfo.obj
 0001:00034f10       ??0ConstantIntValue@@QAE@PAVDebugInfoReadStream@@@Z 08035f10 f   debugInfo.obj
 0001:00034f30       ?write_on@ConstantIntValue@@UAEXPAVDebugInfoWriteStream@@@Z 08035f30 f   debugInfo.obj
 0001:00034f80       ??0ConstantLongValue@@QAE@PAVDebugInfoReadStream@@@Z 08035f80 f   debugInfo.obj
 0001:00034fb0       ?write_on@ConstantLongValue@@UAEXPAVDebugInfoWriteStream@@@Z 08035fb0 f   debugInfo.obj
 0001:00034ff0       ??0ConstantDoubleValue@@QAE@PAVDebugInfoReadStream@@@Z 08035ff0 f   debugInfo.obj
 0001:00035010       ?write_on@ConstantDoubleValue@@UAEXPAVDebugInfoWriteStream@@@Z 08036010 f   debugInfo.obj
 0001:00035050       ?write_on@ConstantOopWriteValue@@UAEXPAVDebugInfoWriteStream@@@Z 08036050 f   debugInfo.obj
 0001:000350d0       ??0MonitorValue@@QAE@PAVScopeValue@@VLocation@@_N@Z 080360d0 f   debugInfo.obj
 0001:00035100       ?write_on@MonitorValue@@QAEXPAVDebugInfoWriteStream@@@Z 08036100 f   debugInfo.obj
 0001:00035150       ??0ConstantOopReadValue@@QAE@PAVDebugInfoReadStream@@@Z 08036150 f   debugInfo.obj
 0001:000351b0       ?read_object@ObjectValue@@QAEXPAVDebugInfoReadStream@@@Z 080361b0 f   debugInfo.obj
 0001:00035230       ?read_object_value@DebugInfoReadStream@@QAEPAVScopeValue@@XZ 08036230 f   debugInfo.obj
 0001:000352f0       ?read_from@ScopeValue@@SAPAV1@PAVDebugInfoReadStream@@@Z 080362f0 f   debugInfo.obj
 0001:00035410       ??0MonitorValue@@QAE@PAVDebugInfoReadStream@@@Z 08036410 f   debugInfo.obj
 0001:00035460       ?add_new_pc_offset@DebugInformationRecorder@@AAEXH@Z 08036460 f   debugInfoRec.obj
 0001:00035510       ??0DIR_Chunk@@AAE@HHPAVDebugInformationRecorder@@@Z 08036510 f i debugInfoRec.obj
 0001:00035560       ?find_match@DIR_Chunk@@AAEPAV1@PAV?$GrowableArray@PAVDIR_Chunk@@@@HPAVDebugInformationRecorder@@@Z 08036560 f i debugInfoRec.obj
 0001:00035650       ?add_safepoint@DebugInformationRecorder@@QAEXHPAVOopMap@@@Z 08036650 f   debugInfoRec.obj
 0001:00035680       ?add_non_safepoint@DebugInformationRecorder@@QAEXH@Z 08036680 f   debugInfoRec.obj
 0001:00035690       ?end_scopes@DebugInformationRecorder@@AAEXH_N@Z 08036690 f   debugInfoRec.obj
 0001:00035750       ?data_size@DebugInformationRecorder@@QAEHXZ 08036750 f   debugInfoRec.obj
 0001:00035760       ?pcs_size@DebugInformationRecorder@@QAEHXZ 08036760 f   debugInfoRec.obj
 0001:000357b0       ?copy_to@DebugInformationRecorder@@QAEXPAVnmethod@@@Z 080367b0 f   debugInfoRec.obj
 0001:000357e0       ??0DebugInformationRecorder@@QAE@PAVOopRecorder@@@Z 080367e0 f   debugInfoRec.obj
 0001:00035920       ?find_sharable_decode_offset@DebugInformationRecorder@@AAEHH@Z 08036920 f   debugInfoRec.obj
 0001:00035a30       ?describe_scope@DebugInformationRecorder@@QAEXHPAVciMethod@@H_N11PAVDebugToken@@22@Z 08036a30 f   debugInfoRec.obj
 0001:00035be0       ?serialize_monitor_values@DebugInformationRecorder@@AAEHPAV?$GrowableArray@PAVMonitorValue@@@@@Z 08036be0 f   debugInfoRec.obj
 0001:00035c60       ?serialize_scope_values@DebugInformationRecorder@@AAEHPAV?$GrowableArray@PAVScopeValue@@@@@Z 08036c60 f   debugInfoRec.obj
 0001:00035cf0       ?create_scope_values@DebugInformationRecorder@@QAEPAVDebugToken@@PAV?$GrowableArray@PAVScopeValue@@@@@Z 08036cf0 f   debugInfoRec.obj
 0001:00035d00       ?create_monitor_values@DebugInformationRecorder@@QAEPAVDebugToken@@PAV?$GrowableArray@PAVMonitorValue@@@@@Z 08036d00 f   debugInfoRec.obj
 0001:00035e30       ?ignore_witness@ClassHierarchyWalker@@QAE_NPAVklassOopDesc@@@Z 08036e30 f i dependencies.obj
 0001:00035e70       ?has_finalizable_subclass@Dependencies@@SA_NPAVciInstanceKlass@@@Z 08036e70 f   dependencies.obj
 0001:00035e80       ?next@DepStream@Dependencies@@QAE_NXZ 08036e80 f   dependencies.obj
 0001:00035f60       ?find_finalizable_subclass@Dependencies@@SAPAVKlass@@PAV2@@Z 08036f60 f   dependencies.obj
 0001:00035fb0       ?check_evol_method@Dependencies@@SAPAVklassOopDesc@@PAVmethodOopDesc@@@Z 08036fb0 f   dependencies.obj
 0001:00035fe0       ?check_leaf_type@Dependencies@@SAPAVklassOopDesc@@PAV2@@Z 08036fe0 f   dependencies.obj
 0001:00036020       ?check_has_no_finalizable_subclasses@Dependencies@@SAPAVklassOopDesc@@PAV2@PAVDepChange@@@Z 08037020 f   dependencies.obj
 0001:00036050       ?initialize@Dependencies@@AAEXPAVciEnv@@@Z 08037050 f   dependencies.obj
 0001:00036190       ?copy_to@Dependencies@@QAEXPAVnmethod@@@Z 08037190 f   dependencies.obj
 0001:000361f0       ?sort_all_deps@Dependencies@@AAEXXZ 080371f0 f   dependencies.obj
 0001:000362b0       ?encode_content_bytes@Dependencies@@QAEXXZ 080372b0 f   dependencies.obj
 0001:00036510       ?write_dependency_to@Dependencies@@SAXPAVCompileLog@@W4DepType@1@HQAPAVciObject@@PAVklassOopDesc@@@Z 08037510 f   dependencies.obj
 0001:000366c0       ?write_dependency_to@Dependencies@@SAXPAVxmlStream@@W4DepType@1@HQAPAVoopDesc@@PAVklassOopDesc@@@Z 080376c0 f   dependencies.obj
 0001:00036830       ?context_type@DepStream@Dependencies@@QAEPAVklassOopDesc@@XZ 08037830 f   dependencies.obj
 0001:000368f0       ?is_witness@ClassHierarchyWalker@@QAE_NPAVklassOopDesc@@@Z 080378f0 f i dependencies.obj
 0001:00036950       ?find_witness_in@ClassHierarchyWalker@@AAEPAVklassOopDesc@@AAVDepChange@@PAV2@_N@Z 08037950 f   dependencies.obj
 0001:00036a20       ?find_witness_anywhere@ClassHierarchyWalker@@AAEPAVklassOopDesc@@PAV2@_N1@Z 08037a20 f   dependencies.obj
 0001:00036cc0       ?note_dep_seen@Dependencies@@AAE_NHPAVciObject@@@Z 08037cc0 f i dependencies.obj
 0001:00036d30       ?type_argument@DepStream@Dependencies@@QAEPAVklassOopDesc@@H@Z 08037d30 f i dependencies.obj
 0001:00036d30       ?argument@DepStream@Dependencies@@QAEPAVoopDesc@@H@Z 08037d30 f i dependencies.obj
 0001:00036d30       ?method_argument@DepStream@Dependencies@@QAEPAVmethodOopDesc@@H@Z 08037d30 f i dependencies.obj
 0001:00036d70       ?assert_common_2@Dependencies@@AAEXW4DepType@1@PAVciKlass@@PAVciObject@@@Z 08037d70 f   dependencies.obj
 0001:00036e80       ?log_all_dependencies@Dependencies@@QAEXXZ 08037e80 f   dependencies.obj
 0001:00036f50       ?write_dependency_to@Dependencies@@SAXPAVCompileLog@@W4DepType@1@HQAPAVoopDesc@@PAVklassOopDesc@@@Z 08037f50 f   dependencies.obj
 0001:00036fd0       ?log_dependency@DepStream@Dependencies@@QAEXPAVklassOopDesc@@@Z 08037fd0 f   dependencies.obj
 0001:000370c0       ?find_witness_subtype@ClassHierarchyWalker@@QAEPAVklassOopDesc@@PAV2@PAVDepChange@@@Z 080380c0 f i dependencies.obj
 0001:00037410       ?check_abstract_with_unique_concrete_subtype@Dependencies@@SAPAVklassOopDesc@@PAV2@0PAVDepChange@@@Z 08038410 f   dependencies.obj
 0001:00037460       ?check_abstract_with_no_concrete_subtype@Dependencies@@SAPAVklassOopDesc@@PAV2@PAVDepChange@@@Z 08038460 f   dependencies.obj
 0001:00037490       ?check_concrete_with_no_concrete_subtype@Dependencies@@SAPAVklassOopDesc@@PAV2@PAVDepChange@@@Z 08038490 f   dependencies.obj
 0001:000374d0       ?check_abstract_with_exclusive_concrete_subtypes@Dependencies@@SAPAVklassOopDesc@@PAV2@00PAVDepChange@@@Z 080384d0 f   dependencies.obj
 0001:00037520       ?assert_evol_method@Dependencies@@QAEXPAVciMethod@@@Z 08038520 f   dependencies.obj
 0001:00037590       ?assert_leaf_type@Dependencies@@QAEXPAVciKlass@@@Z 08038590 f   dependencies.obj
 0001:00037620       ?assert_unique_concrete_method@Dependencies@@QAEXPAVciKlass@@PAVciMethod@@@Z 08038620 f   dependencies.obj
 0001:00037640       ?assert_has_no_finalizable_subclasses@Dependencies@@QAEXPAVciKlass@@@Z 08038640 f   dependencies.obj
 0001:000376b0       ?check_unique_concrete_method@Dependencies@@SAPAVklassOopDesc@@PAV2@PAVmethodOopDesc@@PAVDepChange@@@Z 080386b0 f   dependencies.obj
 0001:00037730       ?find_unique_concrete_method@Dependencies@@SAPAVmethodOopDesc@@PAVklassOopDesc@@PAV2@@Z 08038730 f   dependencies.obj
 0001:000377c0       ?check_exclusive_concrete_methods@Dependencies@@SAPAVklassOopDesc@@PAV2@PAVmethodOopDesc@@1PAVDepChange@@@Z 080387c0 f   dependencies.obj
 0001:00037850       ?check_dependency_impl@DepStream@Dependencies@@AAEPAVklassOopDesc@@PAVDepChange@@@Z 08038850 f   dependencies.obj
 0001:000379c0       ?spot_check_dependency_at@DepStream@Dependencies@@QAEPAVklassOopDesc@@AAVDepChange@@@Z 080389c0 f   dependencies.obj
 0001:00037a00       ?next@ContextStream@DepChange@@QAE_NXZ 08038a00 f   dependencies.obj
 0001:00037ab0       ?initialize@DepChange@@AAEXXZ 08038ab0 f   dependencies.obj
 0001:00037b10       ??1DepChange@@QAE@XZ       08038b10 f   dependencies.obj
 0001:00037b70       ?set_size@ImplicitExceptionTable@@QAEXI@Z 08038b70 f   exceptionHandlerTable.obj
 0001:00037ba0       ?add_entry@ExceptionHandlerTable@@AAEXVHandlerTableEntry@@@Z 08038ba0 f   exceptionHandlerTable.obj
 0001:00037c20       ??0ExceptionHandlerTable@@QAE@H@Z 08038c20 f   exceptionHandlerTable.obj
 0001:00037c70       ??0ExceptionHandlerTable@@QAE@PBVnmethod@@@Z 08038c70 f   exceptionHandlerTable.obj
 0001:00037cb0       ?add_subtable@ExceptionHandlerTable@@QAEXHPAV?$GrowableArray@H@@00@Z 08038cb0 f   exceptionHandlerTable.obj
 0001:00037d30       ?copy_to@ExceptionHandlerTable@@QAEXPAVnmethod@@@Z 08038d30 f   exceptionHandlerTable.obj
 0001:00037d60       ?entry_for@ExceptionHandlerTable@@QBEPAVHandlerTableEntry@@HHH@Z 08038d60 f   exceptionHandlerTable.obj
 0001:00037dc0       ?print@ExceptionHandlerTable@@QBEXXZ 08038dc0 f   exceptionHandlerTable.obj
 0001:00037e80       ?append@ImplicitExceptionTable@@QAEXII@Z 08038e80 f   exceptionHandlerTable.obj
 0001:00037ee0       ?at@ImplicitExceptionTable@@QBEII@Z 08038ee0 f   exceptionHandlerTable.obj
 0001:00037f20       ??0ImplicitExceptionTable@@QAE@PBVnmethod@@@Z 08038f20 f   exceptionHandlerTable.obj
 0001:00037f60       ?copy_to@ImplicitExceptionTable@@QAEXPAVnmethod@@@Z 08038f60 f   exceptionHandlerTable.obj
 0001:00037fa0       ?clear@ICStub@@QAEXXZ      08038fa0 f   icBuffer.obj
 0001:00037fb0       ?evaluate_at_safepoint@VM_Operation@@UBE_NXZ 08038fb0 f i icBuffer.obj
 0001:00037fe0       ?evaluate_concurrently@VM_Operation@@UBE_NXZ 08038fe0 f i icBuffer.obj
 0001:00038010       ?CompiledIC_at@@YAPAVCompiledIC@@PAE@Z 08039010 f i icBuffer.obj
 0001:00038040       ?initialize@ICStubInterface@@UAEXPAVStub@@H@Z 08039040 f i icBuffer.obj
 0001:00038060       ?size@ICStubInterface@@UBEHPAVStub@@@Z 08039060 f i icBuffer.obj
 0001:00038060       ?size@InterpreterCodeletInterface@@UBEHPAVStub@@@Z 08039060 f i templateInterpreter.obj
 0001:00038070       ?code_size_to_size@InterpreterCodeletInterface@@UBEHH@Z 08039070 f i templateInterpreter.obj
 0001:00038070       ?code_begin@ICStubInterface@@UBEPAEPAVStub@@@Z 08039070 f i icBuffer.obj
 0001:00038070       ?code_size_to_size@ICStubInterface@@UBEHH@Z 08039070 f i icBuffer.obj
 0001:00038070       ?code_begin@InterpreterCodeletInterface@@UBEPAEPAVStub@@@Z 08039070 f i templateInterpreter.obj
 0001:00038080       ?update_inline_caches@InlineCacheBuffer@@SAXXZ 08039080 f   icBuffer.obj
 0001:000380b0       ?contains@InlineCacheBuffer@@SA_NPAE@Z 080390b0 f   icBuffer.obj
 0001:000380e0       ?is_empty@InlineCacheBuffer@@SA_NXZ 080390e0 f   icBuffer.obj
 0001:000380f0       ?ic_destination_for@InlineCacheBuffer@@SAPAEPAVCompiledIC@@@Z 080390f0 f   icBuffer.obj
 0001:00038110       ?cached_oop_for@InlineCacheBuffer@@SAPAVoopDesc@@PAVCompiledIC@@@Z 08039110 f   icBuffer.obj
 0001:00038130       ?finalize@ICStub@@IAEXXZ   08039130 f   icBuffer.obj
 0001:000381e0       ?initialize@InlineCacheBuffer@@SAXXZ 080391e0 f   icBuffer.obj
 0001:00038250       ?new_ic_stub@InlineCacheBuffer@@CAPAVICStub@@XZ 08039250 f   icBuffer.obj
 0001:00038300       ?InlineCacheBuffer_init@@YAXXZ 08039300 f   icBuffer.obj
 0001:00038310       ?create_transition_stub@InlineCacheBuffer@@SAXPAVCompiledIC@@PAVoopDesc@@PAE@Z 08039310 f   icBuffer.obj
 0001:00038370       ?finalize@ICStubInterface@@UAEXPAVStub@@@Z 08039370 f i icBuffer.obj
 0001:00038380       ?legal_offset_in_bytes@Location@@SA_NH@Z 08039380 f   location.obj
 0001:000383b0       ??0Location@@QAE@PAVDebugInfoReadStream@@@Z 080393b0 f   location.obj
 0001:000383e0       ?write_on@Location@@QAEXPAVDebugInfoWriteStream@@@Z 080393e0 f   location.obj
 0001:00038410       ??0Bytecode_field@@QAE@VmethodHandle@@H@Z 08039410 f i nmethod.obj
 0001:00038410       ??0Bytecode_invoke@@QAE@VmethodHandle@@H@Z 08039410 f i nmethod.obj
 0001:00038470       ?is_compiled_by_c1@nmethod@@UBE_NXZ 08039470 f   nmethod.obj
 0001:00038490       ?is_compiled_by_c2@nmethod@@UBE_NXZ 08039490 f   nmethod.obj
 0001:000384b0       ?add_address_and_handler@ExceptionCache@@QAE_NPAE0@Z 080394b0 f   nmethod.obj
 0001:00038510       ?find_pc_desc@PcDescCache@@QAEPAVPcDesc@@H_N@Z 08039510 f   nmethod.obj
 0001:00038580       ?total_size@nmethod@@QBEHXZ 08039580 f   nmethod.obj
 0001:000385a0       ?log_identity@nmethod@@QBEXPAVxmlStream@@@Z 080395a0 f   nmethod.obj
 0001:00038640       ?print_on@nmethod@@QBEXPAVoutputStream@@PBD@Z 08039640 f   nmethod.obj
 0001:000386a0       ?is_at_poll_return@nmethod@@QAE_NPAE@Z 080396a0 f   nmethod.obj
 0001:00038750       ?clear_inline_caches@nmethod@@QAEXXZ 08039750 f   nmethod.obj
 0001:000387f0       ?mark_as_seen_on_stack@nmethod@@QAEXXZ 080397f0 f   nmethod.obj
 0001:00038800       ?can_not_entrant_be_converted@nmethod@@QAE_NXZ 08039800 f   nmethod.obj
 0001:00038830       ?log_state_change@nmethod@@QBEXXZ 08039830 f   nmethod.obj
 0001:00038910       ?flush@nmethod@@IAEXXZ     08039910 f   nmethod.obj
 0001:00038980       ?flush_dependencies@nmethod@@QAEXPAVBoolObjectClosure@@@Z 08039980 f   nmethod.obj
 0001:00038a20       ?post_compiled_method_unload@nmethod@@AAEXXZ 08039a20 f   nmethod.obj
 0001:00038ab0       ?test_set_oops_do_mark@nmethod@@QAE_NXZ 08039ab0 f   nmethod.obj
 0001:00038b40       ?oops_do_marking_prologue@nmethod@@SAXXZ 08039b40 f   nmethod.obj
 0001:00038ba0       ?do_oop@DetectScavengeRoot@@UAEXPAI@Z 08039ba0 f i nmethod.obj
 0001:00038bc0       ?do_oop@DetectScavengeRoot@@UAEXPAPAVoopDesc@@@Z 08039bc0 f i nmethod.obj
 0001:00038bf0       ?copy_scopes_pcs@nmethod@@QAEXPAVPcDesc@@H@Z 08039bf0 f   nmethod.obj
 0001:00038c90       ?copy_scopes_data@nmethod@@QAEXPAEH@Z 08039c90 f   nmethod.obj
 0001:00038cb0       ?find_pc_desc_internal@nmethod@@AAEPAVPcDesc@@PAE_N@Z 08039cb0 f   nmethod.obj
 0001:00038da0       ?check_dependency_on@nmethod@@QAE_NAAVDepChange@@@Z 08039da0 f   nmethod.obj
 0001:00038e30       ?is_dependent_on_method@nmethod@@QAE_NPAVmethodOopDesc@@@Z 08039e30 f   nmethod.obj
 0001:00038ec0       ?continuation_for_implicit_exception@nmethod@@QAEPAEPAE@Z 08039ec0 f   nmethod.obj
 0001:00038f00       ?lock_nmethod@nmethodLocker@@SAXPAVnmethod@@_N@Z 08039f00 f   nmethod.obj
 0001:00038f70       ?unlock_nmethod@nmethodLocker@@SAXPAVnmethod@@@Z 08039f70 f   nmethod.obj
 0001:00038fd0       ?do_oop@VerifyOopsClosure@@UAEXPAI@Z 08039fd0 f i nmethod.obj
 0001:00038ff0       ?java_code_at@methodOopDesc@@QBE?AW4Code@Bytecodes@@H@Z 08039ff0 f i nmethod.obj
 0001:00039030       ??0nmethodLocker@@QAE@PAVnmethod@@@Z 0803a030 f i nmethod.obj
 0001:000390a0       ?is_compiledICHolder@oopDesc@@QBE_NXZ 0803a0a0 f i nmethod.obj
 0001:000390c0       ??0SimpleScopeDesc@@QAE@PAVnmethod@@PAE@Z 0803a0c0 f i nmethod.obj
 0001:00039190       ?handler_for_exception_and_pc@nmethod@@QAEPAEVHandle@@PAE@Z 0803a190 f   nmethod.obj
 0001:000391f0       ?add_handler_for_exception_and_pc@nmethod@@QAEXVHandle@@PAE1@Z 0803a1f0 f   nmethod.obj
 0001:000392b0       ?fix_oop_relocations@nmethod@@AAEXPAE0_N@Z 0803a2b0 f   nmethod.obj
 0001:000393b0       ?verify_oop_relocations@nmethod@@QAEXXZ 0803a3b0 f   nmethod.obj
 0001:00039470       ?scope_desc_at@nmethod@@QAEPAVScopeDesc@@PAE@Z 0803a470 f   nmethod.obj
 0001:00039510       ?cleanup_inline_caches@nmethod@@QAEXXZ 0803a510 f   nmethod.obj
 0001:00039720       ?make_unloaded@nmethod@@QAEXPAVBoolObjectClosure@@PAVoopDesc@@@Z 0803a720 f   nmethod.obj
 0001:000397b0       ?can_unload@nmethod@@QAE_NPAVBoolObjectClosure@@PAVOopClosure@@PAPAVoopDesc@@_N@Z 0803a7b0 f   nmethod.obj
 0001:00039840       ?do_unloading@nmethod@@QAEXPAVBoolObjectClosure@@PAVOopClosure@@_N@Z 0803a840 f   nmethod.obj
 0001:00039ba0       ?oops_do@nmethod@@QAEXPAVOopClosure@@_N@Z 0803aba0 f   nmethod.obj
 0001:00039d20       ?embeddedOop_at@nmethod@@QAEPAVoopDesc@@PAE@Z 0803ad20 f   nmethod.obj
 0001:00039de0       ?get_deopt_original_pc@nmethod@@SAPAEPBVframe@@@Z 0803ade0 f   nmethod.obj
 0001:00039e30       ?is_method_handle_return@nmethod@@QAE_NPAE@Z 0803ae30 f   nmethod.obj
 0001:00039e80       ?verify_interrupt_point@nmethod@@QAEXPAE@Z 0803ae80 f   nmethod.obj
 0001:00039fe0       ?verify_scopes@nmethod@@QAEXXZ 0803afe0 f   nmethod.obj
 0001:0003a120       ?print@nmethod@@QBEXXZ     0803b120 f   nmethod.obj
 0001:0003a450       ?print_code@nmethod@@QAEXXZ 0803b450 f   nmethod.obj
 0001:0003a4d0       ?reloc_string_for@nmethod@@AAEPBDPAE0@Z 0803b4d0 f   nmethod.obj
 0001:0003a700       ?scope_desc_in@nmethod@@AAEPAVScopeDesc@@PAE0@Z 0803b700 f   nmethod.obj
 0001:0003a790       ?print_code_comment_on@nmethod@@QAEXPAVoutputStream@@HPAE1@Z 0803b790 f   nmethod.obj
 0001:0003aa50       ?jmethod_id@methodOopDesc@@QAEPAU_jmethodID@@XZ 0803ba50 f i nmethod.obj
 0001:0003aa80       ?log_new_nmethod@nmethod@@QBEXXZ 0803ba80 f   nmethod.obj
 0001:0003aca0       ?print_nmethod@nmethod@@QAEX_N@Z 0803bca0 f   nmethod.obj
 0001:0003ad20       ?copy_oops@nmethod@@QAEXPAV?$GrowableArray@PAV_jobject@@@@@Z 0803bd20 f   nmethod.obj
 0001:0003ad80       ?make_not_entrant_or_zombie@nmethod@@AAE_NI@Z 0803bd80 f   nmethod.obj
 0001:0003afb0       ?get_and_cache_jmethod_id@nmethod@@QAEPAU_jmethodID@@XZ 0803bfb0 f   nmethod.obj
 0001:0003b000       ?oops_do_marking_epilogue@nmethod@@SAXXZ 0803c000 f   nmethod.obj
 0001:0003b090       ?detect_scavenge_root_oops@nmethod@@QAE_NXZ 0803c090 f   nmethod.obj
 0001:0003b0c0       ?preserve_callee_argument_oops@nmethod@@UAEXVframe@@PBVRegisterMap@@PAVOopClosure@@@Z 0803c0c0 f   nmethod.obj
 0001:0003b180       ?do_oop@VerifyOopsClosure@@UAEXPAPAVoopDesc@@@Z 0803c180 f i nmethod.obj
 0001:0003b1e0       ?verify@nmethod@@UAEXXZ    0803c1e0 f   nmethod.obj
 0001:0003b3c0       ??0nmethod@@AAE@PAVmethodOopDesc@@HHPAVCodeOffsets@@PAVCodeBuffer@@HHHPAVOopMapSet@@@Z 0803c3c0 f   nmethod.obj
 0001:0003b5f0       ?is_alive@nmethod@@UBE_NXZ 0803c5f0 f i nmethod.obj
 0001:0003b610       ?is_not_entrant@nmethod@@UBE_NXZ 0803c610 f i nmethod.obj
 0001:0003b620       ?is_zombie@nmethod@@UBE_NXZ 0803c620 f i nmethod.obj
 0001:0003b630       ?is_unloaded@nmethod@@UBE_NXZ 0803c630 f i nmethod.obj
 0001:0003b640       ?is_locked_by_vm@nmethod@@UBE_NXZ 0803c640 f i nmethod.obj
 0001:0003b650       ?print_on@nmethod@@UBEXPAVoutputStream@@@Z 0803c650 f i nmethod.obj
 0001:0003b660       ??0nmethod@@AAE@PAVmethodOopDesc@@HHHPAVCodeOffsets@@HPAVDebugInformationRecorder@@PAVDependencies@@PAVCodeBuffer@@HPAVOopMapSet@@PAVExceptionHandlerTable@@PAVImplicitExceptionTable@@PAVAbstractCompiler@@H@Z 0803c660 f   nmethod.obj
 0001:0003b950       ?post_compiled_method_load_event@nmethod@@QAEXXZ 0803c950 f   nmethod.obj
 0001:0003b9e0       ?new_native_nmethod@nmethod@@SAPAV1@VmethodHandle@@HPAVCodeBuffer@@HHHHHPAVOopMapSet@@@Z 0803c9e0 f   nmethod.obj
 0001:0003bac0       ?new_nmethod@nmethod@@SAPAV1@VmethodHandle@@HHPAVCodeOffsets@@HPAVDebugInformationRecorder@@PAVDependencies@@PAVCodeBuffer@@HPAVOopMapSet@@PAVExceptionHandlerTable@@PAVImplicitExceptionTable@@PAVAbstractCompiler@@H@Z 0803cac0 f   nmethod.obj
 0001:0003bcc0       ?is_evol_dependent_on@nmethod@@QAE_NPAVklassOopDesc@@@Z 0803ccc0 f   nmethod.obj
 0001:0003bfb0       ?print_nmethod_labels@nmethod@@QAEXPAVoutputStream@@PAE@Z 0803cfb0 f   nmethod.obj
 0001:0003c430       ?print_block_comment@nmethod@@UAEXPAVoutputStream@@PAE@Z 0803d430 f i nmethod.obj
 0001:0003c440       ??0OopRecorder@@QAE@PAVArena@@@Z 0803d440 f   oopRecorder.obj
 0001:0003c460       ?oop_size@OopRecorder@@QAEHXZ 0803d460 f   oopRecorder.obj
 0001:0003c480       ?handle_at@OopRecorder@@QAEPAV_jobject@@H@Z 0803d480 f   oopRecorder.obj
 0001:0003c4a0       ??0?$GrowableArray@VHandle@@@@QAE@HHABVHandle@@_N@Z 0803d4a0 f i unsafe.obj
 0001:0003c4a0       ??0?$GrowableArray@H@@QAE@HHABH_N@Z 0803d4a0 f i oopRecorder.obj
 0001:0003c4a0       ??0?$GrowableArray@PAV_jobject@@@@QAE@HHABQAV_jobject@@_N@Z 0803d4a0 f i oopRecorder.obj
 0001:0003c510       ?maybe_initialize@OopRecorder@@AAEXXZ 0803d510 f   oopRecorder.obj
 0001:0003c630       ?maybe_find_index@OopRecorder@@QAEHPAV_jobject@@@Z 0803d630 f   oopRecorder.obj
 0001:0003c730       ?copy_to@OopRecorder@@QAEXPAVnmethod@@@Z 0803d730 f   oopRecorder.obj
 0001:0003c750       ?add_handle@OopRecorder@@AAEHPAV_jobject@@_N@Z 0803d750 f   oopRecorder.obj
 0001:0003c8b0       ??0PcDesc@@QAE@HHH@Z       0803d8b0 f   pcDesc.obj
 0001:0003c8e0       ?real_pc@PcDesc@@QBEPAEPBVnmethod@@@Z 0803d8e0 f   pcDesc.obj
 0001:0003c900       ?value@Relocation@@UAEPAEXZ 0803d900 f   relocInfo.obj
 0001:0003c920       ?set_value@Relocation@@UAEXPAE@Z 0803d920 f   relocInfo.obj
 0001:0003c940       ?set_destination@CallRelocation@@QAEXPAE@Z 0803d940 f   relocInfo.obj
 0001:0003c950       ?clear_inline_cache@static_stub_Relocation@@UAEXXZ 0803d950 f   relocInfo.obj
 0001:0003c960       ?fix_relocation_after_move@external_word_Relocation@@UAEXPBVCodeBuffer@@PAV2@@Z 0803d960 f   relocInfo.obj
 0001:0003c980       ?pack_2_ints_to@Relocation@@IAEPAFPAFHH@Z 0803d980 f i relocInfo.obj
 0001:0003ca00       ?value@internal_word_Relocation@@UAEPAEXZ 0803da00 f i relocInfo.obj
 0001:0003ca00       ?value@external_word_Relocation@@UAEPAEXZ 0803da00 f i relocInfo.obj
 0001:0003ca10       ?type@internal_word_Relocation@@EAE?AW4relocType@relocInfo@@XZ 0803da10 f i relocInfo.obj
 0001:0003ca10       ?kind@G1YoungGenMemoryManager@@UAE?AW4Name@MemoryManager@@XZ 0803da10 f i memoryManager.obj
 0001:0003ca10       ?type@VM_DeoptimizeFrame@@UBE?AW4VMOp_Type@VM_Operation@@XZ 0803da10 f i vm_operations.obj
 0001:0003ca10       ?header_size@CodeHeap@@SAIXZ 0803da10 f i heap.obj
 0001:0003ca20       ?type@VM_HandleFullCodeCache@@UBE?AW4VMOp_Type@VM_Operation@@XZ 0803da20 f i sweeper.obj
 0001:0003ca20       ?type@breakpoint_Relocation@@EAE?AW4relocType@relocInfo@@XZ 0803da20 f i relocInfo.obj
 0001:0003ca30       ?runtime_call_reloc@RelocIterator@@QAEPAVruntime_call_Relocation@@XZ 0803da30 f i relocInfo.obj
 0001:0003ca50       ?type@poll_Relocation@@EAE?AW4relocType@relocInfo@@XZ 0803da50 f i relocInfo.obj
 0001:0003ca60       ?type@poll_return_Relocation@@EAE?AW4relocType@relocInfo@@XZ 0803da60 f i relocInfo.obj
 0001:0003ca60       ?ic_stub_code_size@InlineCacheBuffer@@CAHXZ 0803da60 f i icBuffer_x86.obj
 0001:0003ca70       ?addr_in_const@RelocIterator@@QBE_NXZ 0803da70 f   relocInfo.obj
 0001:0003ca90       ?advance_over_prefix@RelocIterator@@AAEXXZ 0803da90 f   relocInfo.obj
 0001:0003caf0       ?new_addr_for@Relocation@@IAEPAEPAEPBVCodeBuffer@@PAV2@@Z 0803daf0 f   relocInfo.obj
 0001:0003cb60       ?fix_relocation_after_move@CallRelocation@@UAEXPBVCodeBuffer@@PAV2@@Z 0803db60 f   relocInfo.obj
 0001:0003cbd0       ?pack_data_to@oop_Relocation@@UAEXPAVCodeSection@@@Z 0803dbd0 f   relocInfo.obj
 0001:0003cbf0       ?pack_data_to@virtual_call_Relocation@@UAEXPAVCodeSection@@@Z 0803dbf0 f   relocInfo.obj
 0001:0003cc90       ?pack_data_to@static_stub_Relocation@@UAEXPAVCodeSection@@@Z 0803dc90 f   relocInfo.obj
 0001:0003cd00       ?pack_data_to@external_word_Relocation@@UAEXPAVCodeSection@@@Z 0803dd00 f   relocInfo.obj
 0001:0003cd70       ?pack_data_to@internal_word_Relocation@@UAEXPAVCodeSection@@@Z 0803dd70 f   relocInfo.obj
 0001:0003cf00       ?oop_addr@oop_Relocation@@QAEPAPAVoopDesc@@XZ 0803df00 f   relocInfo.obj
 0001:0003cf20       ?oop_value@oop_Relocation@@QAEPAVoopDesc@@XZ 0803df20 f   relocInfo.obj
 0001:0003cf60       ?fix_oop_relocation@oop_Relocation@@QAEXXZ 0803df60 f   relocInfo.obj
 0001:0003cf80       ?clear_inline_cache@static_call_Relocation@@UAEXXZ 0803df80 f   relocInfo.obj
 0001:0003cf90       ?unpack_2_ints@Relocation@@IAEXAAH0@Z 0803df90 f i relocInfo.obj
 0001:0003d020       ?poll_reloc@RelocIterator@@QAEPAVpoll_Relocation@@XZ 0803e020 f i relocInfo.obj
 0001:0003d040       ?poll_return_reloc@RelocIterator@@QAEPAVpoll_return_Relocation@@XZ 0803e040 f i relocInfo.obj
 0001:0003d060       ?initialize@relocInfo@@QAEXPAVCodeSection@@PAVRelocation@@@Z 0803e060 f   relocInfo.obj
 0001:0003d100       ?change_reloc_info_for_address@relocInfo@@SAXPAVRelocIterator@@PAEW4relocType@1@2@Z 0803e100 f   relocInfo.obj
 0001:0003d1f0       ?create_index@RelocIterator@@SAXPAVrelocInfo@@H0@Z 0803e1f0 f   relocInfo.obj
 0001:0003d220       ?set_limits@RelocIterator@@AAEXPAE0@Z 0803e220 f   relocInfo.obj
 0001:0003d310       ?unpack_data@oop_Relocation@@UAEXXZ 0803e310 f   relocInfo.obj
 0001:0003d320       ?unpack_data@virtual_call_Relocation@@UAEXXZ 0803e320 f   relocInfo.obj
 0001:0003d370       ?unpack_data@static_stub_Relocation@@UAEXXZ 0803e370 f   relocInfo.obj
 0001:0003d3b0       ?unpack_data@external_word_Relocation@@UAEXXZ 0803e3b0 f   relocInfo.obj
 0001:0003d410       ?unpack_data@internal_word_Relocation@@UAEXXZ 0803e410 f   relocInfo.obj
 0001:0003d460       ?unpack_data@section_word_Relocation@@UAEXXZ 0803e460 f   relocInfo.obj
 0001:0003d4a0       ?pack_data_to@breakpoint_Relocation@@UAEXPAVCodeSection@@@Z 0803e4a0 f   relocInfo.obj
 0001:0003d580       ?unpack_data@breakpoint_Relocation@@UAEXXZ 0803e580 f   relocInfo.obj
 0001:0003d640       ?verify_oop_relocation@oop_Relocation@@QAEXXZ 0803e640 f   relocInfo.obj
 0001:0003d680       ?clear_inline_cache@opt_virtual_call_Relocation@@UAEXXZ 0803e680 f   relocInfo.obj
 0001:0003d680       ?clear_inline_cache@virtual_call_Relocation@@UAEXXZ 0803e680 f   relocInfo.obj
 0001:0003d6f0       ?fix_relocation_after_move@internal_word_Relocation@@UAEXPBVCodeBuffer@@PAV2@@Z 0803e6f0 f   relocInfo.obj
 0001:0003d740       ?virtual_call_reloc@RelocIterator@@QAEPAVvirtual_call_Relocation@@XZ 0803e740 f i relocInfo.obj
 0001:0003d7b0       ?static_stub_reloc@RelocIterator@@QAEPAVstatic_stub_Relocation@@XZ 0803e7b0 f i relocInfo.obj
 0001:0003d810       ?external_word_reloc@RelocIterator@@QAEPAVexternal_word_Relocation@@XZ 0803e810 f i relocInfo.obj
 0001:0003d890       ?internal_word_reloc@RelocIterator@@QAEPAVinternal_word_Relocation@@XZ 0803e890 f i relocInfo.obj
 0001:0003d8f0       ?breakpoint_reloc@RelocIterator@@QAEPAVbreakpoint_Relocation@@XZ 0803e8f0 f i relocInfo.obj
 0001:0003d920       ?section_word_reloc@RelocIterator@@QAEPAVsection_word_Relocation@@XZ 0803e920 f i relocInfo.obj
 0001:0003d980       ?initialize@RelocIterator@@AAEXPAVnmethod@@PAE1@Z 0803e980 f   relocInfo.obj
 0001:0003da40       ??0RelocIterator@@QAE@PAVCodeSection@@PAE1@Z 0803ea40 f   relocInfo.obj
 0001:0003dad0       ?reloc@RelocIterator@@QAEPAVRelocation@@XZ 0803ead0 f   relocInfo.obj
 0001:0003dba0       ?spec_simple@Relocation@@SA?AVRelocationHolder@@W4relocType@relocInfo@@@Z 0803eba0 f   relocInfo.obj
 0001:0003dc40       ?parse_ic@virtual_call_Relocation@@SA?AVRelocIterator@@AAPAVnmethod@@AAPAE1AAPAPAVoopDesc@@PA_N@Z 0803ec40 f   relocInfo.obj
 0001:0003e130       ?static_stub@static_call_Relocation@@QAEPAEXZ 0803f130 f   relocInfo.obj
 0001:0003e130       ?static_stub@opt_virtual_call_Relocation@@QAEPAEXZ 0803f130 f   relocInfo.obj
 0001:0003e270       ?is_top@ScopeDesc@@QBE_NXZ 0803f270 f   scopeDesc.obj
 0001:0003e280       ?decode_object_values@ScopeDesc@@AAEPAV?$GrowableArray@PAVScopeValue@@@@H@Z 0803f280 f   scopeDesc.obj
 0001:0003e350       ?decode_body@ScopeDesc@@AAEXXZ 0803f350 f   scopeDesc.obj
 0001:0003e4b0       ??0ScopeDesc@@QAE@PBVnmethod@@HH_N1@Z 0803f4b0 f   scopeDesc.obj
 0001:0003e4f0       ??0ScopeDesc@@QAE@PBVnmethod@@H_N1@Z 0803f4f0 f   scopeDesc.obj
 0001:0003e530       ?decode_scope_values@ScopeDesc@@AAEPAV?$GrowableArray@PAVScopeValue@@@@H@Z 0803f530 f   scopeDesc.obj
 0001:0003e630       ?decode_monitor_values@ScopeDesc@@AAEPAV?$GrowableArray@PAVMonitorValue@@@@H@Z 0803f630 f   scopeDesc.obj
 0001:0003e730       ?locals@ScopeDesc@@QAEPAV?$GrowableArray@PAVScopeValue@@@@XZ 0803f730 f   scopeDesc.obj
 0001:0003e740       ?expressions@ScopeDesc@@QAEPAV?$GrowableArray@PAVScopeValue@@@@XZ 0803f740 f   scopeDesc.obj
 0001:0003e750       ?monitors@ScopeDesc@@QAEPAV?$GrowableArray@PAVMonitorValue@@@@XZ 0803f750 f   scopeDesc.obj
 0001:0003e760       ?sender@ScopeDesc@@QBEPAV1@XZ 0803f760 f   scopeDesc.obj
 0001:0003e7b0       ?verify@ScopeDesc@@QAEXXZ  0803f7b0 f   scopeDesc.obj
 0001:0003e840       ??0StubQueue@@QAE@PAVStubInterface@@HPAVMutex@@PBD@Z 0803f840 f   stubs.obj
 0001:0003e920       ?stub_containing@StubQueue@@QBEPAVStub@@PAE@Z 0803f920 f   stubs.obj
 0001:0003e9a0       ?request@StubQueue@@QAEPAVStub@@H@Z 0803f9a0 f   stubs.obj
 0001:0003ea50       ?commit@StubQueue@@QAEXH@Z 0803fa50 f   stubs.obj
 0001:0003eaa0       ?remove_first@StubQueue@@QAEXH@Z 0803faa0 f   stubs.obj
 0001:0003eb30       ?remove_all@StubQueue@@QAEXXZ 0803fb30 f   stubs.obj
 0001:0003eb40       ?print@StubQueue@@QAEXXZ   0803fb40 f   stubs.obj
 0001:0003ebb0       ?request_committed@StubQueue@@QAEPAVStub@@H@Z 0803fbb0 f   stubs.obj
 0001:0003ec10       ?print_on@VMRegImpl@@QBEXPAVoutputStream@@@Z 0803fc10 f   vmreg.obj
 0001:0003ec80       ?print_on@VtableStub@@QBEXPAVoutputStream@@@Z 0803fc80 f   vtableStubs.obj
 0001:0003ecc0       ?stub_containing@VtableStubs@@SAPAVVtableStub@@PAE@Z 0803fcc0 f   vtableStubs.obj
 0001:0003ed20       ??2VtableStub@@CAPAXIH@Z   0803fd20 f   vtableStubs.obj
 0001:0003ee30       ?lookup@VtableStubs@@CAPAVVtableStub@@_NH@Z 0803fe30 f   vtableStubs.obj
 0001:0003ee90       ?is_entry_point@VtableStubs@@SA_NPAE@Z 0803fe90 f   vtableStubs.obj
 0001:0003eef0       ?contains@VtableStubs@@SA_NPAE@Z 0803fef0 f   vtableStubs.obj
 0001:0003ef10       ?vtableStubs_init@@YAXXZ   0803ff10 f   vtableStubs.obj
 0001:0003ef40       ?create_stub@VtableStubs@@SAPAE_NHPAVmethodOopDesc@@@Z 0803ff40 f   vtableStubs.obj
 0001:0003f020       ?initialize_runtimes@AbstractCompiler@@IAEXP6AXXZPCH@Z 08040020 f   abstractCompiler.obj
 0001:0003f140       ?should_compile_new_jobs@CompileBroker@@SA_NXZ 08040140 f i compileBroker.obj
 0001:0003f160       ?set_should_block@CompileBroker@@SAXXZ 08040160 f   compileBroker.obj
 0001:0003f170       ?create_constant@PerfDataManager@@SAPAVPerfLongConstant@@W4CounterNS@@PBDW4Units@PerfData@@_JPAVThread@@@Z 08040170 f i compileBroker.obj
 0001:0003f1a0       ?create_variable@PerfDataManager@@SAPAVPerfLongVariable@@W4CounterNS@@PBDW4Units@PerfData@@_JPAVThread@@@Z 080401a0 f i compileBroker.obj
 0001:0003f1d0       ?lookup_osr_nmethod_for@methodOopDesc@@QAEPAVnmethod@@HH_N@Z 080401d0 f i compileBroker.obj
 0001:0003f200       ?needs_flushing@CodeCache@@SA_NXZ 08040200 f i compileBroker.obj
 0001:0003f210       ?compile_queue@CompileBroker@@CAPAVCompileQueue@@H@Z 08040210 f i compileBroker.obj
 0001:0003f240       ?initialize@CompileTask@@QAEXHVmethodHandle@@HH0HPBD_N@Z 08040240 f   compileBroker.obj
 0001:0003f2e0       ?set_code@CompileTask@@QAEXPAVnmethod@@@Z 080402e0 f   compileBroker.obj
 0001:0003f350       ?get@CompileQueue@@QAEPAVCompileTask@@XZ 08040350 f   compileBroker.obj
 0001:0003f440       ?compilation_is_complete@CompileBroker@@CA_NVmethodHandle@@HH@Z 08040440 f   compileBroker.obj
 0001:0003f4d0       ?assign_compile_id@CompileBroker@@CAIVmethodHandle@@H@Z 080404d0 f   compileBroker.obj
 0001:0003f510       ?allocate_task@CompileBroker@@CAPAVCompileTask@@XZ 08040510 f   compileBroker.obj
 0001:0003f5b0       ?free_task@CompileBroker@@CAXPAVCompileTask@@@Z 080405b0 f   compileBroker.obj
 0001:0003f630       ?handle_full_code_cache@CompileBroker@@SAXXZ 08040630 f   compileBroker.obj
 0001:0003f720       ?print_times@CompileBroker@@SAXXZ 08040720 f   compileBroker.obj
 0001:0003f8e0       ?resolve_string_constants@constantPoolOopDesc@@QAEXPAVThread@@@Z 080408e0 f i compileBroker.obj
 0001:0003f960       ?print_compilation_impl@CompileTask@@CAXPAVoutputStream@@PAVmethodOopDesc@@HH_NH2PBD@Z 08040960 f   compileBroker.obj
 0001:0003fad0       ?log_task@CompileTask@@QAEXPAVxmlStream@@@Z 08040ad0 f   compileBroker.obj
 0001:0003fc10       ?log_task_queued@CompileTask@@QAEXXZ 08040c10 f   compileBroker.obj
 0001:0003fdb0       ?log_task_done@CompileTask@@QAEXPAVCompileLog@@@Z 08040db0 f   compileBroker.obj
 0001:0003ff20       ??0CompilerCounters@@QAE@PBDHPAVThread@@@Z 08040f20 f   compileBroker.obj
 0001:00040090       ?make_compiler_thread@CompileBroker@@CAPAVCompilerThread@@PBDPAVCompileQueue@@PAVCompilerCounters@@PAVThread@@@Z 08041090 f   compileBroker.obj
 0001:00040290       ?compilation_is_prohibited@CompileBroker@@CA_NVmethodHandle@@HH@Z 08041290 f   compileBroker.obj
 0001:00040410       ?wait_for_completion@CompileBroker@@CAXPAVCompileTask@@@Z 08041410 f   compileBroker.obj
 0001:000404c0       ?init_compiler_thread_log@CompileBroker@@SAXXZ 080414c0 f   compileBroker.obj
 0001:00040670       ?collect_statistics@CompileBroker@@CAXPAVCompilerThread@@VelapsedTimer@@PAVCompileTask@@@Z 08041670 f   compileBroker.obj
 0001:00040a00       ?print_line_on_error@CompileTask@@QAEXPAVoutputStream@@PADH@Z 08041a00 f   compileBroker.obj
 0001:00040a80       ?init_compiler_threads@CompileBroker@@CAXHH@Z 08041a80 f   compileBroker.obj
 0001:00040d30       ?add@CompileQueue@@QAEXPAVCompileTask@@@Z 08041d30 f   compileBroker.obj
 0001:00040da0       ?compilation_init@CompileBroker@@SAXXZ 08041da0 f   compileBroker.obj
 0001:00041160       ?create_compile_task@CompileBroker@@CAPAVCompileTask@@PAVCompileQueue@@HVmethodHandle@@HH1HPBD_N@Z 08042160 f   compileBroker.obj
 0001:000411a0       ?compile_method_base@CompileBroker@@CAXVmethodHandle@@HH0HPBDPAVThread@@@Z 080421a0 f   compileBroker.obj
 0001:000412e0       ?compile_method@CompileBroker@@SAPAVnmethod@@VmethodHandle@@HH0HPBDPAVThread@@@Z 080422e0 f   compileBroker.obj
 0001:00041550       ?set_last_compile@CompileBroker@@CAXPAVCompilerThread@@VmethodHandle@@_NH@Z 08042550 f   compileBroker.obj
 0001:00041720       ?invoke_compiler_on_method@CompileBroker@@CAXPAVCompileTask@@@Z 08042720 f   compileBroker.obj
 0001:00041bc0       ?compiler_thread_loop@CompileBroker@@SAXXZ 08042bc0 f   compileBroker.obj
 0001:00041f20       ?name@CompileLog@@QAEXPAVciSymbol@@@Z 08042f20 f   compileLog.obj
 0001:00041f60       ?clear_identities@CompileLog@@QAEXXZ 08042f60 f   compileLog.obj
 0001:00041f70       ?print_raw_cr@outputStream@@QAEXPBD@Z 08042f70 f i compileLog.obj
 0001:00041fb0       ??_GfileStream@@UAEPAXI@Z  08042fb0 f i compileLog.obj
 0001:00041fb0       ??_EfileStream@@UAEPAXI@Z  08042fb0 f i compileLog.obj
 0001:00041fe0       ?ReallocateHeap@@YAPADPADIPBD@Z 08042fe0 f i compileLog.obj
 0001:00042020       ??0CompileLog@@QAE@PBDPAU_iobuf@@H@Z 08043020 f   compileLog.obj
 0001:00042130       ?see_tag@CompileLog@@UAEXPBD_N@Z 08043130 f   compileLog.obj
 0001:00042180       ?pop_tag@CompileLog@@UAEXPBD@Z 08043180 f   compileLog.obj
 0001:000421a0       ?identify@CompileLog@@QAEHPAVciObject@@@Z 080431a0 f   compileLog.obj
 0001:00042540       ?finish_log_on_error@CompileLog@@SAXPAVoutputStream@@PADH@Z 08043540 f   compileLog.obj
 0001:000427c0       ?finish_log@CompileLog@@SAXPAVoutputStream@@@Z 080437c0 f   compileLog.obj
 0001:00042800       ??_GxmlStream@@UAEPAXI@Z   08043800 f i compileLog.obj
 0001:00042800       ??_ExmlStream@@UAEPAXI@Z   08043800 f i compileLog.obj
 0001:00042830       ??_GCompileLog@@UAEPAXI@Z  08043830 f i compileLog.obj
 0001:00042830       ??_ECompileLog@@UAEPAXI@Z  08043830 f i compileLog.obj
 0001:00042b60       ?parse_from_string@CompilerOracle@@SAXPBDP6AXPAD@Z@Z 08043b60 f   compilerOracle.obj
 0001:00042dc0       ?parse_from_line@CompilerOracle@@SAXPAD@Z 08043dc0 f   compilerOracle.obj
 0001:000431f0       ?parse_from_file@CompilerOracle@@SAXXZ 080441f0 f   compilerOracle.obj
 0001:000432b0       ?print_symbol@MethodMatcher@@SAXPAVSymbol@@W4Mode@1@@Z 080442b0 f i compilerOracle.obj
 0001:00043360       ?print_base@MethodMatcher@@QAEXXZ 08044360 f i compilerOracle.obj
 0001:000433c0       ?print@MethodMatcher@@UAEXXZ 080443c0 f i compilerOracle.obj
 0001:000433d0       ?match@MethodMatcher@@KA_NPAVSymbol@@0W4Mode@1@@Z 080443d0 f   compilerOracle.obj
 0001:00043520       ?print@MethodOptionMatcher@@UAEXXZ 08044520 f i compilerOracle.obj
 0001:00043550       ?parse_compile_only@CompilerOracle@@SAXPAD@Z 08044550 f   compilerOracle.obj
 0001:00043910       ?compilerOracle_init@@YAXXZ 08044910 f   compilerOracle.obj
 0001:00043980       ?find@MethodMatcher@@QAEPAV1@VmethodHandle@@@Z 08044980 f i compilerOracle.obj
 0001:00043a10       ?match@MethodOptionMatcher@@QAE_NVmethodHandle@@PBD@Z 08044a10 f i compilerOracle.obj
 0001:00043b80       ?has_option_string@CompilerOracle@@SA_NVmethodHandle@@PBD@Z 08044b80 f   compilerOracle.obj
 0001:00043bb0       ?should_exclude@CompilerOracle@@SA_NVmethodHandle@@AA_N@Z 08044bb0 f   compilerOracle.obj
 0001:00043c00       ?should_print@CompilerOracle@@SA_NVmethodHandle@@@Z 08044c00 f   compilerOracle.obj
 0001:00043c30       ?should_log@CompilerOracle@@SA_NVmethodHandle@@@Z 08044c30 f   compilerOracle.obj
 0001:00043c70       ?should_break_at@CompilerOracle@@SA_NVmethodHandle@@@Z 08044c70 f   compilerOracle.obj
 0001:00043ca0       ?match@decode_env@@CA_NPBD0@Z 08044ca0 f i disassembler.obj
 0001:00043d00       ?bol@outputStream@@QAEXXZ  08044d00 f i disassembler.obj
 0001:00043d10       ?contains@StubRoutines@@SA_NPAE@Z 08044d10 f i disassembler.obj
 0001:00043d50       ?load_library@Disassembler@@CA_NXZ 08044d50 f   disassembler.obj
 0001:00043f30       ?collect_options@decode_env@@AAEXPBD@Z 08044f30 f i disassembler.obj
 0001:00043ff0       ??0decode_env@@QAE@PAVCodeBlob@@PAVoutputStream@@@Z 08044ff0 f   disassembler.obj
 0001:00044160       ?print_insn_bytes@decode_env@@AAEXPAE0@Z 08045160 f   disassembler.obj
 0001:000442d0       ?end_insn@decode_env@@QAEXPAE@Z 080452d0 f i disassembler.obj
 0001:00044380       ?print_address@decode_env@@AAEXPAE@Z 08045380 f   disassembler.obj
 0001:00044530       ?handle_event@decode_env@@QAEPAEPBDPAE@Z 08045530 f   disassembler.obj
 0001:00044690       ?decode_instructions@decode_env@@QAEPAEPAE0@Z 08045690 f   disassembler.obj
 0001:00044720       ?decode@Disassembler@@SAXPAVCodeBlob@@PAVoutputStream@@@Z 08045720 f   disassembler.obj
 0001:00044790       ?decode@Disassembler@@SAXPAE0PAVoutputStream@@@Z 08045790 f   disassembler.obj
 0001:00044800       ?decode@Disassembler@@SAXPAVnmethod@@PAVoutputStream@@@Z 08045800 f   disassembler.obj
 0001:00044990       ??0MethodLiveness@@QAE@PAVArena@@PAVciMethod@@@Z 08045990 f   methodLiveness.obj
 0001:00044a20       ?load_one@BasicBlock@MethodLiveness@@AAEXH@Z 08045a20 f   methodLiveness.obj
 0001:00044a60       ?store_one@BasicBlock@MethodLiveness@@AAEXH@Z 08045a60 f   methodLiveness.obj
 0001:00044aa0       ?propagate@BasicBlock@MethodLiveness@@AAEXPAV2@@Z 08045aa0 f   methodLiveness.obj
 0001:00044b90       ?propagate_liveness@MethodLiveness@@AAEXXZ 08045b90 f   methodLiveness.obj
 0001:00044be0       ??0BasicBlock@MethodLiveness@@AAE@PAV1@HH@Z 08045be0 f   methodLiveness.obj
 0001:00044ed0       ?load_two@BasicBlock@MethodLiveness@@AAEXH@Z 08045ed0 f   methodLiveness.obj
 0001:00044f30       ?store_two@BasicBlock@MethodLiveness@@AAEXH@Z 08045f30 f   methodLiveness.obj
 0001:00044f90       ?get_index@ciBytecodeStream@@QBEHXZ 08045f90 f i methodLiveness.obj
 0001:00045000       ?init_basic_blocks@MethodLiveness@@AAEXXZ 08046000 f   methodLiveness.obj
 0001:000459f0       ?compute_gen_kill_single@BasicBlock@MethodLiveness@@AAEXPAVciBytecodeStream@@@Z 080469f0 f   methodLiveness.obj
 0001:00045cc0       ?compute_gen_kill_range@BasicBlock@MethodLiveness@@AAEXPAVciBytecodeStream@@@Z 08046cc0 f   methodLiveness.obj
 0001:00045d50       ?get_liveness_at@BasicBlock@MethodLiveness@@AAE?AVMethodLivenessResult@@PAVciMethod@@H@Z 08046d50 f   methodLiveness.obj
 0001:00045e80       ?get_liveness_at@MethodLiveness@@QAE?AVMethodLivenessResult@@H@Z 08046e80 f   methodLiveness.obj
 0001:00045f30       ?init_gen_kill@MethodLiveness@@AAEXXZ 08046f30 f   methodLiveness.obj
 0001:00045fd0       ?compute_liveness@MethodLiveness@@QAEXXZ 08046fd0 f   methodLiveness.obj
 0001:00046130       ??0OopMap@@QAE@HH@Z        08047130 f   oopMap.obj
 0001:00046170       ??0OopMapSet@@QAE@XZ       08047170 f   oopMap.obj
 0001:000461a0       ?copy_to@OopMapSet@@QAEXPAE@Z 080471a0 f   oopMap.obj
 0001:00046270       ?add_gc_map@OopMapSet@@QAEXHPAVOopMap@@@Z 08047270 f   oopMap.obj
 0001:000462d0       ?heap_size@OopMapSet@@QBEHXZ 080472d0 f   oopMap.obj
 0001:00046310       ?find_map_at_offset@OopMapSet@@QBEPAVOopMap@@H@Z 08047310 f   oopMap.obj
 0001:00046360       ?write_on@OopMapValue@@QAEXPAVCompressedWriteStream@@@Z 08047360 f i oopMap.obj
 0001:000463d0       ??0OopMapStream@@QAE@PAVOopMap@@@Z 080473d0 f   oopMap.obj
 0001:00046440       ??0OopMapStream@@QAE@PAVOopMap@@H@Z 08047440 f   oopMap.obj
 0001:000464b0       ?find_next@OopMapStream@@AAEXXZ 080474b0 f   oopMap.obj
 0001:00046540       ?set_oop@OopMap@@QAEXPAVVMRegImpl@@@Z 08047540 f   oopMap.obj
 0001:00046570       ?set_callee_saved@OopMap@@QAEXPAVVMRegImpl@@0@Z 08047570 f   oopMap.obj
 0001:000465a0       ??0OopMap@@AAE@W4DeepCopyToken@0@PAV0@@Z 080475a0 f   oopMap.obj
 0001:00046680       ?deep_copy@OopMap@@QAEPAV1@XZ 08047680 f   oopMap.obj
 0001:000466b0       ?all_do@OopMapSet@@SAXPBVframe@@PBVRegisterMap@@PAVOopClosure@@P6AXPAPAVoopDesc@@3@Z2@Z 080476b0 f   oopMap.obj
 0001:00046820       ?update_register_map@OopMapSet@@SAXPBVframe@@PAVRegisterMap@@@Z 08047820 f   oopMap.obj
 0001:00046940       ?print_on@OopMap@@QBEXPAVoutputStream@@@Z 08047940 f   oopMap.obj
 0001:000469e0       ?print_on@OopMapSet@@QBEXPAVoutputStream@@@Z 080479e0 f   oopMap.obj
 0001:00046b30       ?oops_do@OopMapSet@@SAXPBVframe@@PBVRegisterMap@@PAVOopClosure@@@Z 08047b30 f   oopMap.obj
 0001:00046b60       ?allocate_new_tlab@CollectedHeap@@MAEPAVHeapWord@@I@Z 08047b60 f   collectedHeap.obj
 0001:00046b90       ?accumulate_statistics_all_tlabs@CollectedHeap@@MAEXXZ 08047b90 f   collectedHeap.obj
 0001:00046ba0       ?resize_all_tlabs@CollectedHeap@@MAEXXZ 08047ba0 f   collectedHeap.obj
 0001:00046bb0       ?type@VM_GC_HeapInspection@@UBE?AW4VMOp_Type@VM_Operation@@XZ 08047bb0 f i collectedHeap.obj
 0001:00046bc0       ?flush_deferred_store_barrier@CollectedHeap@@UAEXPAVJavaThread@@@Z 08047bc0 f   collectedHeap.obj
 0001:00046c10       ?ensure_parsability@CollectedHeap@@UAEX_N@Z 08047c10 f   collectedHeap.obj
 0001:00046c50       ?pre_full_gc_dump@CollectedHeap@@QAEXXZ 08047c50 f   collectedHeap.obj
 0001:00046d20       ?post_full_gc_dump@CollectedHeap@@QAEXXZ 08047d20 f   collectedHeap.obj
 0001:00046df0       ?new_store_pre_barrier@CollectedHeap@@UAEPAVoopDesc@@PAVJavaThread@@PAV2@@Z 08047df0 f   collectedHeap.obj
 0001:00046e70       ?max_array_length@arrayOopDesc@@SAHW4BasicType@@@Z 08047e70 f i collectedHeap.obj
 0001:00046ec0       ?compute_size@ThreadLocalAllocBuffer@@QAEII@Z 08047ec0 f i collectedHeap.obj
 0001:00046f60       ?allocate_from_tlab_slow@CollectedHeap@@KAPAVHeapWord@@PAVThread@@I@Z 08047f60 f   collectedHeap.obj
 0001:00047000       ??0CollectedHeap@@IAE@XZ   08048000 f   collectedHeap.obj
 0001:00047100       ?is_in_closed_subset@CollectedHeap@@UBE_NPBX@Z 08048100 f i collectedHeap.obj
 0001:00047130       ?set_par_threads@CollectedHeap@@UAEXH@Z 08048130 f i collectedHeap.obj
 0001:00047140       ?preload_and_dump@CollectedHeap@@UAEXPAVThread@@@Z 08048140 f i collectedHeap.obj
 0001:00047160       ?top_addr@CollectedHeap@@UBEPAPAVHeapWord@@XZ 08048160 f i collectedHeap.obj
 0001:00047180       ?end_addr@CollectedHeap@@UBEPAPAVHeapWord@@XZ 08048180 f i collectedHeap.obj
 0001:000471a0       ?tlab_capacity@CollectedHeap@@UBEIPAVThread@@@Z 080481a0 f i collectedHeap.obj
 0001:000471d0       ?unsafe_max_tlab_alloc@CollectedHeap@@UBEIPAVThread@@@Z 080481d0 f i collectedHeap.obj
 0001:00047200       ?post_allocation_setup_common@CollectedHeap@@KAXVKlassHandle@@PAVHeapWord@@I@Z 08048200 f i collectedHeap.obj
 0001:00047270       ?fill_with_object_impl@CollectedHeap@@KAXPAVHeapWord@@I_N@Z 08048270 f i collectedHeap.obj
 0001:000472e0       ?fill_with_object@CollectedHeap@@SAXPAVHeapWord@@I_N@Z 080482e0 f   collectedHeap.obj
 0001:000472e0       ?fill_with_objects@CollectedHeap@@SAXPAVHeapWord@@I_N@Z 080482e0 f   collectedHeap.obj
 0001:00047320       ?to_string@GCCause@@SAPBDW4Cause@1@@Z 08048320 f   gcCause.obj
 0001:00047430       ?set@ResultTypeFinder@@EAEXHW4BasicType@@@Z 08048430 f i bytecode.obj
 0001:00047440       ?resolve_constant_at@constantPoolOopDesc@@QAEPAVoopDesc@@HPAVThread@@@Z 08048440 f i bytecode.obj
 0001:000474a0       ?dest_offset_at@Bytecode_tableswitch@@QBEHH@Z 080484a0 f   bytecode.obj
 0001:000474c0       ?index@Bytecode_member_ref@@QBEHXZ 080484c0 f   bytecode.obj
 0001:000474e0       ?signature@Bytecode_member_ref@@QBEPAVSymbol@@XZ 080484e0 f   bytecode.obj
 0001:00047510       ?name@Bytecode_member_ref@@QBEPAVSymbol@@XZ 08048510 f   bytecode.obj
 0001:00047540       ?result_type@Bytecode_member_ref@@QBE?AW4BasicType@@XZ 08048540 f   bytecode.obj
 0001:000475b0       ?static_target@Bytecode_invoke@@QAE?AVmethodHandle@@PAVThread@@@Z 080485b0 f   bytecode.obj
 0001:000476c0       ?pool_index@Bytecode_loadconstant@@QBEHXZ 080486c0 f   bytecode.obj
 0001:00047720       ?resolve_constant@Bytecode_loadconstant@@QBEPAVoopDesc@@PAVThread@@@Z 08048720 f   bytecode.obj
 0001:00047790       ?result_type@Bytecode_loadconstant@@QBE?AW4BasicType@@XZ 08048790 f   bytecode.obj
 0001:000477c0       ?non_breakpoint_code_at@Bytecodes@@SA?AW4Code@1@PBVmethodOopDesc@@PAE@Z 080487c0 f   bytecodes.obj
 0001:000477e0       ?compute_flags@Bytecodes@@SAHPBDH@Z 080487e0 f   bytecodes.obj
 0001:00047aa0       ?def@Bytecodes@@CAXW4Code@1@PBD11W4BasicType@@H_N0@Z 08048aa0 f   bytecodes.obj
 0001:00047b60       ?special_length_at@Bytecodes@@SAHW4Code@1@PAE1@Z 08048b60 f   bytecodes.obj
 0001:00047d10       ?raw_special_length_at@Bytecodes@@SAHPAE0@Z 08048d10 f   bytecodes.obj
 0001:00047d40       ?initialize@Bytecodes@@SAXXZ 08048d40 f   bytecodes.obj
 0001:0004a3d0       ?bytecodes_init@@YAXXZ     0804b3d0 f   bytecodes.obj
 0001:0004a3e0       ?raw_next_special@RawBytecodeStream@@QAE?AW4Code@Bytecodes@@W423@@Z 0804b3e0 f   bytecodeStream.obj
 0001:0004a450       ??0AbstractInterpreterGenerator@@QAE@PAVStubQueue@@@Z 0804b450 f   interpreter.obj
 0001:0004a460       ?bytecode_should_reexecute@AbstractInterpreter@@SA_NW4Code@Bytecodes@@@Z 0804b460 f   interpreter.obj
 0001:0004a530       ?bang_stack_shadow_pages@AbstractInterpreterGenerator@@IAEX_N@Z 0804b530 f   interpreter.obj
 0001:0004a590       ?as_TosState@@YA?AW4TosState@@W4BasicType@@@Z 0804b590 f i interpreter.obj
 0001:0004a620       ??0Address@@QAE@PAVRegisterImpl@@H@Z 0804b620 f i interpreter.obj
 0001:0004a660       ?bang_stack_with_offset@MacroAssembler@@UAEXH@Z 0804b660 f i interpreter.obj
 0001:0004a6c0       ?print_on@InterpreterCodelet@@QBEXPAVoutputStream@@@Z 0804b6c0 f   interpreter.obj
 0001:0004a760       ?initialize@AbstractInterpreter@@SAXXZ 0804b760 f   interpreter.obj
 0001:0004a780       ?print@AbstractInterpreter@@SAXXZ 0804b780 f   interpreter.obj
 0001:0004a8f0       ?interpreter_init@@YAXXZ   0804b8f0 f   interpreter.obj
 0001:0004a940       ?method_kind@AbstractInterpreter@@SA?AW4MethodKind@1@VmethodHandle@@@Z 0804b940 f   interpreter.obj
 0001:0004aa90       ?set_parameter_size@ConstantPoolCacheEntry@@QAEXH@Z 0804ba90 f i interpreter.obj
 0001:0004ab10       ??0CodeletMark@@QAE@AAPAVInterpreterMacroAssembler@@PBDW4Code@Bytecodes@@@Z 0804bb10 f i interpreter.obj
 0001:0004ac00       ??1CodeletMark@@QAE@XZ     0804bc00 f i interpreter.obj
 0001:0004ac70       ??0Bytecode_loadconstant@@QAE@VmethodHandle@@H@Z 0804bc70 f i interpreter.obj
 0001:0004acd0       ?generate_all@AbstractInterpreterGenerator@@IAEXXZ 0804bcd0 f   interpreter.obj
 0001:0004ad10       ?deopt_continue_after_entry@AbstractInterpreter@@SAPAEPAVmethodOopDesc@@PAEH_N@Z 0804bd10 f   interpreter.obj
 0001:0004b0c0       ?deopt_reexecute_entry@AbstractInterpreter@@SAPAEPAVmethodOopDesc@@PAE@Z 0804c0c0 f   interpreter.obj
 0001:0004b100       ?find@?$GrowableArray@_K@@QBEHAB_K@Z 0804c100 f i interpreterRuntime.obj
 0001:0004b140       ?contains@TemplateInterpreter@@SA_NPAE@Z 0804c140 f i interpreterRuntime.obj
 0001:0004b170       ?fingerprint@Fingerprinter@@QAE_KXZ 0804c170 f i interpreterRuntime.obj
 0001:0004b280       ?transition@ThreadStateTransition@@SAXPAVJavaThread@@W4JavaThreadState@@1@Z 0804c280 f i interpreterRuntime.obj
 0001:0004b2f0       ??1ThreadInVMfromJava@@QAE@XZ 0804c2f0 f i interpreterRuntime.obj
 0001:0004b330       ??1ThreadInVMfromJavaNoAsyncException@@QAE@XZ 0804c330 f i interpreterRuntime.obj
 0001:0004b370       ?to_jfieldID@jfieldIDWorkaround@@SAPAU_jfieldID@@VinstanceKlassHandle@@H_N@Z 0804c370 f i interpreterRuntime.obj
 0001:0004b3b0       ?newarray@InterpreterRuntime@@SAXPAVJavaThread@@W4BasicType@@H@Z 0804c3b0 f   interpreterRuntime.obj
 0001:0004b490       ?register_finalizer@InterpreterRuntime@@SAXPAVJavaThread@@PAVoopDesc@@@Z 0804c490 f   interpreterRuntime.obj
 0001:0004b560       ?throw_StackOverflowError@InterpreterRuntime@@SAXPAVJavaThread@@@Z 0804c560 f   interpreterRuntime.obj
 0001:0004b680       ?throw_pending_exception@InterpreterRuntime@@SAXPAVJavaThread@@@Z 0804c680 f   interpreterRuntime.obj
 0001:0004b700       ?throw_AbstractMethodError@InterpreterRuntime@@SAXPAVJavaThread@@@Z 0804c700 f   interpreterRuntime.obj
 0001:0004b790       ?throw_IncompatibleClassChangeError@InterpreterRuntime@@SAXPAVJavaThread@@@Z 0804c790 f   interpreterRuntime.obj
 0001:0004b820       ?monitorenter@InterpreterRuntime@@SAXPAVJavaThread@@PAVBasicObjectLock@@@Z 0804c820 f   interpreterRuntime.obj
 0001:0004b9f0       ?monitorexit@InterpreterRuntime@@SAXPAVJavaThread@@PAVBasicObjectLock@@@Z 0804c9f0 f   interpreterRuntime.obj
 0001:0004bb00       ?throw_illegal_monitor_state_exception@InterpreterRuntime@@SAXPAVJavaThread@@@Z 0804cb00 f   interpreterRuntime.obj
 0001:0004bb90       ?get_original_bytecode_at@InterpreterRuntime@@SA?AW4Code@Bytecodes@@PAVJavaThread@@PAVmethodOopDesc@@PAE@Z 0804cb90 f   interpreterRuntime.obj
 0001:0004bc20       ?set_original_bytecode_at@InterpreterRuntime@@SAXPAVJavaThread@@PAVmethodOopDesc@@PAEW4Code@Bytecodes@@@Z 0804cc20 f   interpreterRuntime.obj
 0001:0004bcb0       ?_breakpoint@InterpreterRuntime@@SAXPAVJavaThread@@PAVmethodOopDesc@@PAE@Z 0804ccb0 f   interpreterRuntime.obj
 0001:0004bd40       ?bcp_to_di@InterpreterRuntime@@SAHPAVmethodOopDesc@@PAE@Z 0804cd40 f   interpreterRuntime.obj
 0001:0004bd80       ?interpreter_contains@InterpreterRuntime@@SAHPAE@Z 0804cd80 f   interpreterRuntime.obj
 0001:0004bdc0       ?set_handler@SignatureHandlerLibrary@@CAPAEPAVCodeBuffer@@@Z 0804cdc0 f   interpreterRuntime.obj
 0001:0004be40       ??0?$GrowableArray@VHandle@@@@QAE@XZ 0804ce40 f i interpreterRuntime.obj
 0001:0004be80       ?grow@?$GrowableArray@_K@@AAEXH@Z 0804ce80 f i interpreterRuntime.obj
 0001:0004bf20       ?klass_at@constantPoolOopDesc@@QAEPAVklassOopDesc@@HPAVThread@@@Z 0804cf20 f i interpreterRuntime.obj
 0001:0004bf90       ?_new@InterpreterRuntime@@SAXPAVJavaThread@@PAVconstantPoolOopDesc@@H@Z 0804cf90 f   interpreterRuntime.obj
 0001:0004c140       ?anewarray@InterpreterRuntime@@SAXPAVJavaThread@@PAVconstantPoolOopDesc@@HH@Z 0804d140 f   interpreterRuntime.obj
 0001:0004c230       ?new_illegal_monitor_state_exception@InterpreterRuntime@@SAXPAVJavaThread@@@Z 0804d230 f   interpreterRuntime.obj
 0001:0004c390       ?initialize@SignatureHandlerLibrary@@CAXXZ 0804d390 f   interpreterRuntime.obj
 0001:0004c4c0       ?append@?$GrowableArray@_K@@QAEHAB_K@Z 0804d4c0 f i interpreterRuntime.obj
 0001:0004c500       ?get_index_u2@InterpreterRuntime@@CAHPAVJavaThread@@W4Code@Bytecodes@@@Z 0804d500 f i interpreterRuntime.obj
 0001:0004c570       ?cache_entry@InterpreterRuntime@@CAPAVConstantPoolCacheEntry@@PAVJavaThread@@@Z 0804d570 f i interpreterRuntime.obj
 0001:0004c5c0       ?set_bcp_and_mdp@InterpreterRuntime@@CAXPAEPAVJavaThread@@@Z 0804d5c0 f   interpreterRuntime.obj
 0001:0004c640       ?resolve_ldc@InterpreterRuntime@@SAXPAVJavaThread@@W4Code@Bytecodes@@@Z 0804d640 f   interpreterRuntime.obj
 0001:0004c810       ?multianewarray@InterpreterRuntime@@SAXPAVJavaThread@@PAH@Z 0804d810 f   interpreterRuntime.obj
 0001:0004ca00       ?quicken_io_cc@InterpreterRuntime@@SAXPAVJavaThread@@@Z 0804da00 f   interpreterRuntime.obj
 0001:0004cb00       ?create_exception@InterpreterRuntime@@SAXPAVJavaThread@@PAD1@Z 0804db00 f   interpreterRuntime.obj
 0001:0004cc30       ?create_klass_exception@InterpreterRuntime@@SAXPAVJavaThread@@PADPAVoopDesc@@@Z 0804dc30 f   interpreterRuntime.obj
 0001:0004cd50       ?throw_ArrayIndexOutOfBoundsException@InterpreterRuntime@@SAXPAVJavaThread@@PADH@Z 0804dd50 f   interpreterRuntime.obj
 0001:0004ceb0       ?throw_ClassCastException@InterpreterRuntime@@SAXPAVJavaThread@@PAVoopDesc@@@Z 0804deb0 f   interpreterRuntime.obj
 0001:0004cf90       ?exception_handler_for_exception@InterpreterRuntime@@SAPAEPAVJavaThread@@PAVoopDesc@@@Z 0804df90 f   interpreterRuntime.obj
 0001:0004d380       ?resolve_invokedynamic@InterpreterRuntime@@SAXPAVJavaThread@@@Z 0804e380 f   interpreterRuntime.obj
 0001:0004d7f0       ?frequency_counter_overflow_inner@InterpreterRuntime@@CAPAVnmethod@@PAVJavaThread@@PAE@Z 0804e7f0 f   interpreterRuntime.obj
 0001:0004da60       ?profile_method@InterpreterRuntime@@SAXPAVJavaThread@@@Z 0804ea60 f   interpreterRuntime.obj
 0001:0004db60       ?update_mdp_for_ret@InterpreterRuntime@@SAXPAVJavaThread@@H@Z 0804eb60 f   interpreterRuntime.obj
 0001:0004dce0       ?at_safepoint@InterpreterRuntime@@SAXPAVJavaThread@@@Z 0804ece0 f   interpreterRuntime.obj
 0001:0004dda0       ?post_method_entry@InterpreterRuntime@@SAXPAVJavaThread@@@Z 0804eda0 f   interpreterRuntime.obj
 0001:0004de70       ?post_method_exit@InterpreterRuntime@@SAXPAVJavaThread@@@Z 0804ee70 f   interpreterRuntime.obj
 0001:0004df40       ?popframe_move_outgoing_args@InterpreterRuntime@@SAXPAVJavaThread@@PAX1@Z 0804ef40 f   interpreterRuntime.obj
 0001:0004e0e0       ?already_resolved@InterpreterRuntime@@CA_NPAVJavaThread@@@Z 0804f0e0 f i interpreterRuntime.obj
 0001:0004e170       ?ldc@InterpreterRuntime@@SAXPAVJavaThread@@_N@Z 0804f170 f   interpreterRuntime.obj
 0001:0004e2d0       ?resolve_get_put@InterpreterRuntime@@SAXPAVJavaThread@@W4Code@Bytecodes@@@Z 0804f2d0 f   interpreterRuntime.obj
 0001:0004e5e0       ?frequency_counter_overflow@InterpreterRuntime@@SAPAVnmethod@@PAVJavaThread@@PAE@Z 0804f5e0 f   interpreterRuntime.obj
 0001:0004e640       ?post_field_access@InterpreterRuntime@@SAXPAVJavaThread@@PAVoopDesc@@PAVConstantPoolCacheEntry@@@Z 0804f640 f   interpreterRuntime.obj
 0001:0004e870       ?post_field_modification@InterpreterRuntime@@SAXPAVJavaThread@@PAVoopDesc@@PAVConstantPoolCacheEntry@@PATjvalue@@@Z 0804f870 f   interpreterRuntime.obj
 0001:0004ead0       ?do_bool@Fingerprinter@@UAEXXZ 0804fad0 f i interpreterRuntime.obj
 0001:0004eb00       ?do_char@Fingerprinter@@UAEXXZ 0804fb00 f i interpreterRuntime.obj
 0001:0004eb30       ?do_byte@Fingerprinter@@UAEXXZ 0804fb30 f i interpreterRuntime.obj
 0001:0004eb60       ?do_short@Fingerprinter@@UAEXXZ 0804fb60 f i interpreterRuntime.obj
 0001:0004eb90       ?do_int@Fingerprinter@@UAEXXZ 0804fb90 f i interpreterRuntime.obj
 0001:0004ebc0       ?do_long@Fingerprinter@@UAEXXZ 0804fbc0 f i interpreterRuntime.obj
 0001:0004ebf0       ?do_float@Fingerprinter@@UAEXXZ 0804fbf0 f i interpreterRuntime.obj
 0001:0004ec20       ?do_double@Fingerprinter@@UAEXXZ 0804fc20 f i interpreterRuntime.obj
 0001:0004ec50       ?do_object@Fingerprinter@@UAEXHH@Z 0804fc50 f i interpreterRuntime.obj
 0001:0004ec50       ?do_array@Fingerprinter@@UAEXHH@Z 0804fc50 f i interpreterRuntime.obj
 0001:0004ec80       ?do_void@Fingerprinter@@UAEXXZ 0804fc80 f i interpreterRuntime.obj
 0001:0004eca0       ?do_bool@NativeSignatureIterator@@EAEXXZ 0804fca0 f i interpreterRuntime.obj
 0001:0004eca0       ?do_char@NativeSignatureIterator@@EAEXXZ 0804fca0 f i interpreterRuntime.obj
 0001:0004eca0       ?do_short@NativeSignatureIterator@@EAEXXZ 0804fca0 f i interpreterRuntime.obj
 0001:0004eca0       ?do_int@NativeSignatureIterator@@EAEXXZ 0804fca0 f i interpreterRuntime.obj
 0001:0004eca0       ?do_byte@NativeSignatureIterator@@EAEXXZ 0804fca0 f i interpreterRuntime.obj
 0001:0004ecc0       ?do_float@NativeSignatureIterator@@EAEXXZ 0804fcc0 f i interpreterRuntime.obj
 0001:0004ece0       ?do_double@NativeSignatureIterator@@EAEXXZ 0804fce0 f i interpreterRuntime.obj
 0001:0004ed00       ?do_long@NativeSignatureIterator@@EAEXXZ 0804fd00 f i interpreterRuntime.obj
 0001:0004ed20       ?do_void@NativeSignatureIterator@@EAEXXZ 0804fd20 f i interpreterRuntime.obj
 0001:0004ed40       ?do_object@NativeSignatureIterator@@EAEXHH@Z 0804fd40 f i interpreterRuntime.obj
 0001:0004ed40       ?do_array@NativeSignatureIterator@@EAEXHH@Z 0804fd40 f i interpreterRuntime.obj
 0001:0004ed60       ?pass_double@NativeSignatureIterator@@UAEXXZ 0804fd60 f i interpreterRuntime.obj
 0001:0004ed70       ??0SignatureHandlerGenerator@InterpreterRuntime@@QAE@VmethodHandle@@PAVCodeBuffer@@@Z 0804fd70 f i interpreterRuntime.obj
 0001:0004edf0       ?resolve_invoke@InterpreterRuntime@@SAXPAVJavaThread@@W4Code@Bytecodes@@@Z 0804fdf0 f   interpreterRuntime.obj
 0001:0004f260       ?add@SignatureHandlerLibrary@@SAXVmethodHandle@@@Z 08050260 f   interpreterRuntime.obj
 0001:0004f470       ?prepare_native_call@InterpreterRuntime@@SAXPAVJavaThread@@PAVmethodOopDesc@@@Z 08050470 f   interpreterRuntime.obj
 0001:0004f5a0       ?dummy_invocation_counter_overflow@@YAPAEVmethodHandle@@PAVThread@@@Z 080505a0 f   invocationCounter.obj
 0001:0004f5c0       ?set_carry@InvocationCounter@@QAEXXZ 080505c0 f   invocationCounter.obj
 0001:0004f600       ?set_state@InvocationCounter@@QAEXW4State@1@@Z 08050600 f   invocationCounter.obj
 0001:0004f700       ?reinitialize@InvocationCounter@@SAX_N@Z 08050700 f   invocationCounter.obj
 0001:0004f7d0       ?invocationCounter_init@@YAXXZ 080507d0 f   invocationCounter.obj
 0001:0004f7e0       ?reset@InvocationCounter@@QAEXXZ 080507e0 f   invocationCounter.obj
 0001:0004f810       ?init@InvocationCounter@@QAEXXZ 08050810 f   invocationCounter.obj
 0001:0004f830       ?is_method_handle_invoke_name@methodOopDesc@@SA_NPAVSymbol@@@Z 08050830 f i linkResolver.obj
 0001:0004f850       ?set_common@CallInfo@@AAEXVKlassHandle@@0VmethodHandle@@1HPAVThread@@@Z 08050850 f   linkResolver.obj
 0001:0004f8c0       ?set_interface@CallInfo@@AAEXVKlassHandle@@0VmethodHandle@@1PAVThread@@@Z 080508c0 f   linkResolver.obj
 0001:0004f900       ?check_klass_accessability@LinkResolver@@SAXVKlassHandle@@0PAVThread@@@Z 08050900 f   linkResolver.obj
 0001:0004f9b0       ?resolve_klass@LinkResolver@@CAXAAVKlassHandle@@VconstantPoolHandle@@HPAVThread@@@Z 080509b0 f   linkResolver.obj
 0001:0004fa30       ?resolve_klass_no_update@LinkResolver@@CAXAAVKlassHandle@@VconstantPoolHandle@@HPAVThread@@@Z 08050a30 f   linkResolver.obj
 0001:0004fab0       ?lookup_method_in_klasses@LinkResolver@@CAXAAVmethodHandle@@VKlassHandle@@PAVSymbol@@2PAVThread@@@Z 08050ab0 f   linkResolver.obj
 0001:0004fb50       ?lookup_instance_method_in_klasses@LinkResolver@@CAXAAVmethodHandle@@VKlassHandle@@PAVSymbol@@2PAVThread@@@Z 08050b50 f   linkResolver.obj
 0001:0004fc90       ?vtable_index_of_miranda_method@LinkResolver@@CAHVKlassHandle@@PAVSymbol@@1PAVThread@@@Z 08050c90 f   linkResolver.obj
 0001:0004fd00       ?lookup_method_in_interfaces@LinkResolver@@CAXAAVmethodHandle@@VKlassHandle@@PAVSymbol@@2PAVThread@@@Z 08050d00 f   linkResolver.obj
 0001:0004fd80       ?lookup_implicit_method@LinkResolver@@CAXAAVmethodHandle@@VKlassHandle@@PAVSymbol@@21PAVThread@@@Z 08050d80 f   linkResolver.obj
 0001:0004fe70       ?resolve_interface_method@LinkResolver@@CAXAAVmethodHandle@@VKlassHandle@@PAVSymbol@@21_NPAVThread@@@Z 08050e70 f   linkResolver.obj
 0001:00050250       ?linktime_resolve_interface_method_or_null@LinkResolver@@SA?AVmethodHandle@@VKlassHandle@@PAVSymbol@@10_N@Z 08051250 f   linkResolver.obj
 0001:000502d0       ?resolve_pool@LinkResolver@@CAXAAVKlassHandle@@AAPAVSymbol@@10VconstantPoolHandle@@HPAVThread@@@Z 080512d0 f   linkResolver.obj
 0001:00050380       ?resolve_invokedynamic@LinkResolver@@SAXAAVCallInfo@@VconstantPoolHandle@@HPAVThread@@@Z 08051380 f   linkResolver.obj
 0001:00050520       ?resolve_interface_method@LinkResolver@@SAXAAVmethodHandle@@AAVKlassHandle@@VconstantPoolHandle@@HPAVThread@@@Z 08051520 f   linkResolver.obj
 0001:000505e0       ?check_method_accessability@LinkResolver@@CAXVKlassHandle@@00VmethodHandle@@PAVThread@@@Z 080515e0 f   linkResolver.obj
 0001:00050700       ?resolve_method@LinkResolver@@CAXAAVmethodHandle@@VKlassHandle@@PAVSymbol@@21_NPAVThread@@@Z 08051700 f   linkResolver.obj
 0001:00050bd0       ?check_field_accessability@LinkResolver@@CAXVKlassHandle@@00AAVfieldDescriptor@@PAVThread@@@Z 08051bd0 f   linkResolver.obj
 0001:00050ca0       ?resolve_field@LinkResolver@@SAXAAVFieldAccessInfo@@VconstantPoolHandle@@HW4Code@Bytecodes@@_N3PAVThread@@@Z 08051ca0 f   linkResolver.obj
 0001:00051320       ?linktime_resolve_static_method@LinkResolver@@CAXAAVmethodHandle@@VKlassHandle@@PAVSymbol@@21_NPAVThread@@@Z 08052320 f   linkResolver.obj
 0001:00051440       ?linktime_resolve_special_method@LinkResolver@@CAXAAVmethodHandle@@VKlassHandle@@PAVSymbol@@21_NPAVThread@@@Z 08052440 f   linkResolver.obj
 0001:00051650       ?runtime_resolve_special_method@LinkResolver@@CAXAAVCallInfo@@VmethodHandle@@VKlassHandle@@2_NPAVThread@@@Z 08052650 f   linkResolver.obj
 0001:00051a70       ?linktime_resolve_virtual_method@LinkResolver@@CAXAAVmethodHandle@@VKlassHandle@@PAVSymbol@@21_NPAVThread@@@Z 08052a70 f   linkResolver.obj
 0001:00051b90       ?runtime_resolve_virtual_method@LinkResolver@@CAXAAVCallInfo@@VmethodHandle@@VKlassHandle@@VHandle@@2_NPAVThread@@@Z 08052b90 f   linkResolver.obj
 0001:00051e20       ?runtime_resolve_interface_method@LinkResolver@@CAXAAVCallInfo@@VmethodHandle@@VKlassHandle@@VHandle@@2_NPAVThread@@@Z 08052e20 f   linkResolver.obj
 0001:000521c0       ?linktime_resolve_virtual_method_or_null@LinkResolver@@SA?AVmethodHandle@@VKlassHandle@@PAVSymbol@@10_N@Z 080531c0 f   linkResolver.obj
 0001:00052240       ?resolve_method@LinkResolver@@SAXAAVmethodHandle@@AAVKlassHandle@@VconstantPoolHandle@@HPAVThread@@@Z 08053240 f   linkResolver.obj
 0001:00052300       ?resolve_dynamic_method@LinkResolver@@SAXAAVmethodHandle@@AAVKlassHandle@@VconstantPoolHandle@@HPAVThread@@@Z 08053300 f   linkResolver.obj
 0001:000523a0       ?resolve_field@LinkResolver@@SAXAAVFieldAccessInfo@@VconstantPoolHandle@@HW4Code@Bytecodes@@_NPAVThread@@@Z 080533a0 f   linkResolver.obj
 0001:000523d0       ?resolve_static_call@LinkResolver@@SAXAAVCallInfo@@AAVKlassHandle@@PAVSymbol@@2V3@_N4PAVThread@@@Z 080533d0 f   linkResolver.obj
 0001:000524e0       ?resolve_special_call@LinkResolver@@SAXAAVCallInfo@@VKlassHandle@@PAVSymbol@@21_NPAVThread@@@Z 080534e0 f   linkResolver.obj
 0001:00052540       ?resolve_virtual_call@LinkResolver@@SAXAAVCallInfo@@VHandle@@VKlassHandle@@2PAVSymbol@@32_N4PAVThread@@@Z 08053540 f   linkResolver.obj
 0001:000525a0       ?resolve_interface_call@LinkResolver@@SAXAAVCallInfo@@VHandle@@VKlassHandle@@2PAVSymbol@@32_N4PAVThread@@@Z 080535a0 f   linkResolver.obj
 0001:00052600       ?resolve_virtual_call_or_null@LinkResolver@@SA?AVmethodHandle@@VKlassHandle@@0PAVSymbol@@10@Z 08053600 f   linkResolver.obj
 0001:00052840       ?resolve_interface_call_or_null@LinkResolver@@SA?AVmethodHandle@@VKlassHandle@@0PAVSymbol@@10@Z 08053840 f   linkResolver.obj
 0001:00052b80       ?resolve_static_call_or_null@LinkResolver@@SA?AVmethodHandle@@VKlassHandle@@PAVSymbol@@10@Z 08053b80 f   linkResolver.obj
 0001:00052c00       ?resolve_special_call_or_null@LinkResolver@@SA?AVmethodHandle@@VKlassHandle@@PAVSymbol@@10@Z 08053c00 f   linkResolver.obj
 0001:00052cb0       ?resolve_invokestatic@LinkResolver@@SAXAAVCallInfo@@VconstantPoolHandle@@HPAVThread@@@Z 08053cb0 f   linkResolver.obj
 0001:00052d20       ?resolve_invokespecial@LinkResolver@@SAXAAVCallInfo@@VconstantPoolHandle@@HPAVThread@@@Z 08053d20 f   linkResolver.obj
 0001:00052db0       ?resolve_invokevirtual@LinkResolver@@SAXAAVCallInfo@@VHandle@@VconstantPoolHandle@@HPAVThread@@@Z 08053db0 f   linkResolver.obj
 0001:00052e90       ?resolve_invokeinterface@LinkResolver@@SAXAAVCallInfo@@VHandle@@VconstantPoolHandle@@HPAVThread@@@Z 08053e90 f   linkResolver.obj
 0001:00052f70       ?resolve_invoke@LinkResolver@@SAXAAVCallInfo@@VHandle@@VconstantPoolHandle@@HW4Code@Bytecodes@@PAVThread@@@Z 08053f70 f   linkResolver.obj
 0001:00053030       ??1InterpreterOopMap@@QAE@XZ 08054030 f   oopMapCache.obj
 0001:00053060       ?iterate_oop@InterpreterOopMap@@QAEXPAVOffsetClosure@@@Z 08054060 f   oopMapCache.obj
 0001:000530c0       ?resource_copy@InterpreterOopMap@@QAEXPAVOopMapCacheEntry@@@Z 080540c0 f   oopMapCache.obj
 0001:00053140       ?oop_iterate@OopMapCache@@QAEXPAVOopClosure@@@Z 08054140 f   oopMapCache.obj
 0001:00053180       ?offset_do@VerifyClosure@@UAEXH@Z 08054180 f i oopMapCache.obj
 0001:000531d0       ??0InterpreterOopMap@@QAE@XZ 080541d0 f   oopMapCache.obj
 0001:000531f0       ?set_mask@OopMapCacheEntry@@IAEXPAVCellTypeState@@0H@Z 080541f0 f   oopMapCache.obj
 0001:000532e0       ??0OopMapCache@@QAE@XZ     080542e0 f   oopMapCache.obj
 0001:00053360       ?flush@OopMapCache@@AAEXXZ 08054360 f   oopMapCache.obj
 0001:000533c0       ?oop_iterate@OopMapCache@@QAEXPAVOopClosure@@VMemRegion@@@Z 080543c0 f   oopMapCache.obj
 0001:00053410       ?compute_map@OopMapForCacheEntry@@QAEXPAVThread@@@Z 08054410 f   oopMapCache.obj
 0001:00053500       ?fill_stackmap_for_opcodes@OopMapForCacheEntry@@EAEXPAVBytecodeStream@@PAVCellTypeState@@1H@Z 08054500 f   oopMapCache.obj
 0001:00053530       ??1OopMapCache@@QAE@XZ     08054530 f   oopMapCache.obj
 0001:00053550       ?verify@OopMapCache@@QAEXXZ 08054550 f   oopMapCache.obj
 0001:000535b0       ?iterate@NativeSignatureIterator@@QAEXXZ 080545b0 f i oopMapCache.obj
 0001:00053620       ??0MaskFillerForNative@@QAE@VmethodHandle@@PAIH@Z 08054620 f i oopMapCache.obj
 0001:000536a0       ?pass_object@MaskFillerForNative@@UAEXXZ 080546a0 f i oopMapCache.obj
 0001:000536d0       ?fill_for_native@OopMapCacheEntry@@IAEXVmethodHandle@@@Z 080546d0 f   oopMapCache.obj
 0001:00053760       ?fill@OopMapCacheEntry@@IAEXVmethodHandle@@H@Z 08054760 f   oopMapCache.obj
 0001:00053870       ?flush_obsolete_entries@OopMapCache@@QAEXXZ 08054870 f   oopMapCache.obj
 0001:000539b0       ?compute_one_oop_map@OopMapCache@@SAXVmethodHandle@@HPAVInterpreterOopMap@@@Z 080549b0 f   oopMapCache.obj
 0001:00053a20       ?lookup@OopMapCache@@QAEXVmethodHandle@@HPAVInterpreterOopMap@@@Z 08054a20 f   oopMapCache.obj
 0001:00053c90       ?init_cp_map@Rewriter@@AAEXH@Z 08054c90 f i rewriter.obj
 0001:00053d00       ?fill_init_vars@ResolveOopMapConflicts@@EAEXPAV?$GrowableArray@H@@@Z 08054d00 f i rewriter.obj
 0001:00053d20       ?rewrite_member_reference@Rewriter@@AAEXPAEH_N@Z 08054d20 f   rewriter.obj
 0001:00053d80       ?rewrite_invokedynamic@Rewriter@@AAEXPAEH_N@Z 08054d80 f   rewriter.obj
 0001:00053e70       ?rewrite_jsrs@Rewriter@@CA?AVmethodHandle@@V2@PAVThread@@@Z 08054e70 f   rewriter.obj
 0001:00053f80       ?rewrite_Object_init@Rewriter@@AAEXVmethodHandle@@PAVThread@@@Z 08054f80 f   rewriter.obj
 0001:00054110       ?compute_index_maps@Rewriter@@AAEXXZ 08055110 f   rewriter.obj
 0001:000541f0       ?scan_method@Rewriter@@AAEXPAVmethodOopDesc@@_N@Z 080551f0 f   rewriter.obj
 0001:00054530       ?relocate_and_link@Rewriter@@SAXVinstanceKlassHandle@@VobjArrayHandle@@PAVThread@@@Z 08055530 f   rewriter.obj
 0001:00054610       ?make_constant_pool_cache@Rewriter@@AAEXPAVThread@@@Z 08055610 f   rewriter.obj
 0001:00054710       ??0Rewriter@@AAE@VinstanceKlassHandle@@VconstantPoolHandle@@VobjArrayHandle@@PAVThread@@@Z 08055710 f   rewriter.obj
 0001:00054860       ?relocate_and_link@Rewriter@@SAXVinstanceKlassHandle@@PAVThread@@@Z 08055860 f   rewriter.obj
 0001:000548e0       ?rewrite@Rewriter@@SAXVinstanceKlassHandle@@PAVThread@@@Z 080558e0 f   rewriter.obj
 0001:00054990       ?entry@EntryPoint@@QBEPAEW4TosState@@@Z 08055990 f   templateInterpreter.obj
 0001:000549a0       ??0TemplateInterpreterGenerator@@QAE@PAVStubQueue@@@Z 080559a0 f   templateInterpreter.obj
 0001:000549c0       ?return_entry@TemplateInterpreter@@SAPAEW4TosState@@H@Z 080559c0 f   templateInterpreter.obj
 0001:00054a00       ?deopt_entry@TemplateInterpreter@@SAPAEW4TosState@@H@Z 08055a00 f   templateInterpreter.obj
 0001:00054a40       ?notice_safepoints@TemplateInterpreter@@SAXXZ 08055a40 f   templateInterpreter.obj
 0001:00054a70       ?deopt_continue_after_entry@TemplateInterpreter@@SAPAEPAVmethodOopDesc@@PAEH_N@Z 08055a70 f   templateInterpreter.obj
 0001:00054a80       ?bytecode_should_reexecute@TemplateInterpreter@@SA_NW4Code@Bytecodes@@@Z 08055a80 f   templateInterpreter.obj
 0001:00054aa0       ?initialize@InterpreterCodeletInterface@@UAEXPAVStub@@H@Z 08055aa0 f i templateInterpreter.obj
 0001:00054ab0       ?finalize@InterpreterCodeletInterface@@UAEXPAVStub@@@Z 08055ab0 f i templateInterpreter.obj
 0001:00054ad0       ?code_end@InterpreterCodeletInterface@@UBEPAEPAVStub@@@Z 08055ad0 f i templateInterpreter.obj
 0001:00054ad0       ?code_end@ICStubInterface@@UBEPAEPAVStub@@@Z 08055ad0 f i icBuffer.obj
 0001:00054ae0       ?verify@InterpreterCodeletInterface@@UAEXPAVStub@@@Z 08055ae0 f i templateInterpreter.obj
 0001:00054af0       ?print@InterpreterCodeletInterface@@UAEXPAVStub@@@Z 08055af0 f i templateInterpreter.obj
 0001:00054b10       ?generate_and_dispatch@TemplateInterpreterGenerator@@IAEXPAVTemplate@@W4TosState@@@Z 08055b10 f   templateInterpreter.obj
 0001:00054ba0       ?ignore_safepoints@TemplateInterpreter@@SAXXZ 08055ba0 f   templateInterpreter.obj
 0001:00054bd0       ?initialize@TemplateInterpreter@@SAXXZ 08055bd0 f   templateInterpreter.obj
 0001:00054cd0       ?set_safepoints_for_all_bytes@TemplateInterpreterGenerator@@IAEXXZ 08055cd0 f   templateInterpreter.obj
 0001:00054ec0       ?set_wide_entry_point@TemplateInterpreterGenerator@@IAEXPAVTemplate@@AAPAE@Z 08055ec0 f   templateInterpreter.obj
 0001:00054f60       ?set_short_entry_points@TemplateInterpreterGenerator@@IAEXPAVTemplate@@AAPAE11111111@Z 08055f60 f   templateInterpreter.obj
 0001:000550f0       ?deopt_reexecute_entry@TemplateInterpreter@@SAPAEPAVmethodOopDesc@@PAE@Z 080560f0 f   templateInterpreter.obj
 0001:00055140       ?set_entry_points@TemplateInterpreterGenerator@@IAEXW4Code@Bytecodes@@@Z 08056140 f   templateInterpreter.obj
 0001:00055280       ?set_entry_points_for_all_bytes@TemplateInterpreterGenerator@@IAEXXZ 08056280 f   templateInterpreter.obj
 0001:00055300       ?generate_all@TemplateInterpreterGenerator@@IAEXXZ 08056300 f   templateInterpreter.obj
 0001:00056950       ?generate@Template@@QAEXPAVInterpreterMacroAssembler@@@Z 08057950 f   templateTable.obj
 0001:00056980       ?call_VM@TemplateTable@@CAXPAVRegisterImpl@@PAE@Z 08057980 f   templateTable.obj
 0001:000569a0       ?call_VM@TemplateTable@@CAXPAVRegisterImpl@@PAE0@Z 080579a0 f   templateTable.obj
 0001:000569c0       ?call_VM@TemplateTable@@CAXPAVRegisterImpl@@PAE00@Z 080579c0 f   templateTable.obj
 0001:000569f0       ?call_VM@TemplateTable@@CAXPAVRegisterImpl@@PAE000@Z 080579f0 f   templateTable.obj
 0001:00056a20       ?compute_new_size@CompactingPermGenGen@@UAEXXZ 08057a20 f   compactingPermGenGen.obj
 0001:00056a20       ?print@ImmutableSpace@@UBEXXZ 08057a20 f   mutableSpace.obj
 0001:00056a20       ?notify_gc_begin@VM_GC_Operation@@SAX_N@Z 08057a20 f   vmGCOperations.obj
 0001:00056a20       ?InterfaceSupport_init@@YAXXZ 08057a20 f   interfaceSupport.obj
 0001:00056a20       ?print@DeoptimizedRFrame@@UAEXXZ 08057a20 f   rframe.obj
 0001:00056a20       ?eventlog_init@@YAXXZ      08057a20 f   events.obj
 0001:00056a20       ?doit@VM_Dummy@@EAEXXZ     08057a20 f   vmThread.obj
 0001:00056a20       ?verify@SingletonBlob@@UAEXXZ 08057a20 f   codeBlob.obj
 0001:00056a20       ?set_top_for_allocations@MutableSpace@@UAEXXZ 08057a20 f   mutableSpace.obj
 0001:00056a20       ?pd_gc_epilog@frame@@QAEXXZ 08057a20 f   frame_x86.obj
 0001:00056a20       ?pass_long@MaskFillerForNative@@UAEXXZ 08057a20 f   oopMapCache.obj
 0001:00056a20       ?print_signal_handlers@os@@SAXPAVoutputStream@@PADI@Z 08057a20 f   os_windows.obj
 0001:00056a20       ?record_spaces_top@OneContigSpaceCardGeneration@@UAEXXZ 08057a20 f   generation.obj
 0001:00056a20       ?destruct@GCTaskQueue@@MAEXXZ 08057a20 f   gcTaskManager.obj
 0001:00056a20       ?hint_no_preempt@os@@SAXXZ 08057a20 f   os_windows.obj
 0001:00056a20       ?mangle_unused_area@ContiguousSpace@@UAEXXZ 08057a20 f   compactingPermGenGen.obj
 0001:00056a20       ?doit@VM_ForceAsyncSafepoint@@UAEXXZ 08057a20 f   synchronizer.obj
 0001:00056a20       ?sample@PerfStringConstant@@EAEXXZ 08057a20 f   perfData.obj
 0001:00056a20       ?realign_memory@os@@SAXPADII@Z 08057a20 f   os_windows.obj
 0001:00056a20       ?update_counters@GCPolicyCounters@@UAEXXZ 08057a20 f   gcPolicyCounters.obj
 0001:00056a20       ?ensure_parsability@Generation@@UAEXXZ 08057a20 f   compactingPermGenGen.obj
 0001:00056a20       ?vmStructs_init@@YAXXZ     08057a20 f   vmStructs.obj
 0001:00056a20       ?mangle_unused_area@MutableNUMASpace@@UAEXXZ 08057a20 f   mutableNUMASpace.obj
 0001:00056a20       ?record_spaces_top@Generation@@UAEXXZ 08057a20 f   generation.obj
 0001:00056a20       ?numa_make_local@os@@SAXPADIH@Z 08057a20 f   os_windows.obj
 0001:00056a20       ?print@CompiledRFrame@@UAEXXZ 08057a20 f   rframe.obj
 0001:00056a20       ?verify@InterpreterCodelet@@QAEXXZ 08057a20 f   interpreter.obj
 0001:00056a20       ?flush@outputStream@@UAEXXZ 08057a20 f   compileLog.obj
 0001:00056a20       ?run_periodic_checks@os@@SAXXZ 08057a20 f   os_windows.obj
 0001:00056a20       ?reset_scratch@Generation@@UAEXXZ 08057a20 f   compactingPermGenGen.obj
 0001:00056a20       ?fill_stackmap_epilog@GeneratePairingInfo@@EAEXXZ 08057a20 f   ciMethod.obj
 0001:00056a20       ?pass_float@MaskFillerForNative@@UAEXXZ 08057a20 f   oopMapCache.obj
 0001:00056a20       ?report_untested@@YAXPBDH0@Z 08057a20 f   debug.obj
 0001:00056a20       ?unused_initial_virtual@Klass_vtbl@@MAEXXZ 08057a20 f   universe.obj
 0001:00056a20       ?ensure_parsability@MutableSpace@@UAEXXZ 08057a20 f   mutableSpace.obj
 0001:00056a20       ?unpack_data@Relocation@@UAEXXZ 08057a20 f   compiledIC.obj
 0001:00056a20       ?marksweep_init@@YAXXZ     08057a20 f   markSweep.obj
 0001:00056a20       ?prepare_for_verify@CardGeneration@@UAEXXZ 08057a20 f   generation.obj
 0001:00056a20       ?update_pointers@ProfileData@@UAEXXZ 08057a20 f   ciMethodData.obj
 0001:00056a20       ?initialize_thread@os@@SAXXZ 08057a20 f   os_windows_x86.obj
 0001:00056a20       ?check_mangled_unused_area_complete@MutableSpace@@UAEXXZ 08057a20 f   mutableSpace.obj
 0001:00056a20       ?verify@BufferBlob@@UAEXXZ 08057a20 f   codeBlob.obj
 0001:00056a20       ?print_yg_surv_rate_info@G1CollectorPolicy@@QBEXXZ 08057a20 f   g1CollectorPolicy.obj
 0001:00056a20       ?check_ThreadShadow@@YAXXZ 08057a20 f   exceptions.obj
 0001:00056a20       ?transition@TemplateTable@@CAXW4TosState@@0@Z 08057a20 f   templateTable.obj
 0001:00056a20       ?invalidate_remembered_set@Generation@@UAEXXZ 08057a20 f   defNewGeneration.obj
 0001:00056a20       ?update@MutableSpace@@UAEXXZ 08057a20 f   mutableSpace.obj
 0001:00056a20       ?clear_inline_cache@Relocation@@UAEXXZ 08057a20 f   compiledIC.obj
 0001:00056a20       ?sample@PerfStringVariable@@MAEXXZ 08057a20 f   perfData.obj
 0001:00056a20       ?mangle_unused_area@MutableSpace@@UAEXXZ 08057a20 f   mutableSpace.obj
 0001:00056a20       ?setup@ReferencePolicy@@UAEXXZ 08057a20 f   referencePolicy.obj
 0001:00056a20       ?verify@LIR_OpRTCall@@UBEXXZ 08057a20 f   c1_LIR.obj
 0001:00056a20       ?set_top_for_allocations@MutableNUMASpace@@UAEXXZ 08057a20 f   mutableNUMASpace.obj
 0001:00056a20       ?pass_int@MaskFillerForNative@@UAEXXZ 08057a20 f   oopMapCache.obj
 0001:00056a20       ?sample@PerfLongConstant@@EAEXXZ 08057a20 f   perfData.obj
 0001:00056a20       ??1LIR_Assembler@@QAE@XZ   08057a20 f   c1_LIRAssembler.obj
 0001:00056a20       ?register_stub@Forte@@SAXPBDPAE1@Z 08057a20 f   forte.obj
 0001:00056a20       ?destruct@GCTask@@MAEXXZ   08057a20 f   gcTaskManager.obj
 0001:00056a20       ?mangle_unused_area_complete@MutableNUMASpace@@UAEXXZ 08057a20 f   mutableNUMASpace.obj
 0001:00056a20       ?pass_double@MaskFillerForNative@@UAEXXZ 08057a20 f   oopMapCache.obj
 0001:00056a20       ?gc_prologue@CodeCache@@SAXXZ 08057a20 f   codeCache.obj
 0001:00056a20       ?reset_saved_marks@Generation@@UAEXXZ 08057a20 f   generation.obj
 0001:00056a20       ?verify@Bytecode_invoke@@QBEXXZ 08057a20 f   bytecode.obj
 0001:00056a20       ?print@GenRemSet@@UAEXXZ   08057a20 f   cardTableRS.obj
 0001:00056a20       ?post_compact@ConcurrentMarkSweepGeneration@@UAEXXZ 08057a20 f   concurrentMarkSweepGeneration.obj
 0001:00056a20       ?fill_stackmap_epilog@OopMapForCacheEntry@@EAEXXZ 08057a20 f   oopMapCache.obj
 0001:00056a20       ?unwind_callee_save_values@Deoptimization@@SAXPAVframe@@PAVvframeArray@@@Z 08057a20 f   interpreter_x86_32.obj
 0001:00056a20       ?initialize_pd@Runtime1@@SAXXZ 08057a20 f   c1_Runtime1_x86.obj
 0001:00056a20       ?flush@fdStream@@UAEXXZ    08057a20 f   thread.obj
 0001:00056a20       ?reset@ParCompactionManager@@SAXXZ 08057a20 f   psCompactionManager.obj
 0001:00056a20       ?mangle_unused_area_complete@MutableSpace@@UAEXXZ 08057a20 f   mutableSpace.obj
 0001:00056a20       ?verify@LIR_Op@@UBEXXZ     08057a20 f   c1_LinearScan_x86.obj
 0001:00056a20       ?print_compiler_threads_on@CompileBroker@@SAXPAVoutputStream@@@Z 08057a20 f   compileBroker.obj
 0001:00056a20       ?promotion_failure_occurred@Generation@@UAEXXZ 08057a20 f   compactingPermGenGen.obj
 0001:00056a20       ?pre_initialize@CollectedHeap@@IAEXXZ 08057a20 f   collectedHeap.obj
 0001:00056a20       ?mangle_unused_area@Space@@UAEXXZ 08057a20 f   space.obj
 0001:00056a20       ?membar_acquire@LIR_Assembler@@QAEXXZ 08057a20 f   c1_LIRAssembler_x86.obj
 0001:00056a20       ?init_3@os@@SAXXZ          08057a20 f   os_windows.obj
 0001:00056a20       ?mangle_unused_area_complete@Space@@UAEXXZ 08057a20 f   space.obj
 0001:00056a20       ?set_single_threaded_mode@AbstractRefProcTaskExecutor@@UAEXXZ 08057a20 f   concurrentMarkSweepGeneration.obj
 0001:00056a20       ?log@Events@@SAXPBDZZ      08057a20 f   compiledIC.obj
 0001:00056a20       ?destruct@NoopGCTask@@MAEXXZ 08057a20 f   gcTaskManager.obj
 0001:00056a20       ?adjust_desired_tenuring_threshold@ASParNewGeneration@@EAEXXZ 08057a20 f   asParNewGeneration.obj
 0001:00056a20       ?dispose@DTraceJSDT@@SAX_J@Z 08057a20 f   dtraceJSDT.obj
 0001:00056a20       ?pd_destroy@OSThread@@AAEXXZ 08057a20 f   osThread_windows.obj
 0001:00056a20       ?numa_make_global@os@@SAXPADI@Z 08057a20 f   os_windows.obj
 0001:00056a20       ?verify@LIR_Op1@@UBEXXZ    08057a20 f   c1_LIR.obj
 0001:00056a20       ?prepare_for_verify@G1RemSet@@UAEXXZ 08057a20 f   g1RemSet.obj
 0001:00056a20       ?found_bad_method_frame@vframeStreamCommon@@IAEXXZ 08057a20 f   vframe.obj
 0001:00056a20       ?verify@RuntimeStub@@UAEXXZ 08057a20 f   codeBlob.obj
 0001:00056a20       ?do_void@JNI_ArgumentPusher@@UAEXXZ 08057a20 f   jni.obj
 0001:00056a20       ?notify_gc_end@VM_GC_Operation@@SAXXZ 08057a20 f   vmGCOperations.obj
 0001:00056a20       ?unused_initial_virtual@ThreadShadow@@MAEXXZ 08057a20 f   jvmtiImpl.obj
 0001:00056a20       ?membar_release@LIR_Assembler@@QAEXXZ 08057a20 f   c1_LIRAssembler_x86.obj
 0001:00056a20       ?pd_initialize@TemplateTable@@SAXXZ 08057a20 f   templateTable_x86_32.obj
 0001:00056a20       ?prepare_for_verify@Generation@@UAEXXZ 08057a20 f   defNewGeneration.obj
 0001:00056a20       ?save_marks@Generation@@UAEXXZ 08057a20 f   generation.obj
 0001:00056a20       ?prepare_for_verify@OneContigSpaceCardGeneration@@UAEXXZ 08057a20 f   generation.obj
 0001:00056a20       ?cache_global_variables@JavaThread@@QAEXXZ 08057a20 f   thread_windows_x86.obj
 0001:00056a20       ?verify@Bytecode_field@@QBEXXZ 08057a20 f   bytecode.obj
 0001:00056a20       ?check_mangled_unused_area_complete@MutableNUMASpace@@UAEXXZ 08057a20 f   mutableNUMASpace.obj
 0001:00056a20       ?doit@VM_ForceSafepoint@@UAEXXZ 08057a20 f   icBuffer.obj
 0001:00056a20       ?pd_set_handler@SignatureHandlerLibrary@@CAXPAE@Z 08057a20 f   interpreterRT_x86_32.obj
 0001:00056a20       ?mangle_unused_area_complete@ContiguousSpace@@UAEXXZ 08057a20 f   compactingPermGenGen.obj
 0001:00056a20       ?pd_init@ThreadLocalStorage@@CAXXZ 08057a20 f   threadLS_windows_x86.obj
 0001:00056a20       ?fill_stackmap_epilog@ResolveOopMapConflicts@@EAEXXZ 08057a20 f   rewriter.obj
 0001:00056a20       ?reset_scratch@DefNewGeneration@@UAEXXZ 08057a20 f   defNewGeneration.obj
 0001:00056a20       ?notify_vm_shutdown@@YAXXZ 08057a20 f   java.obj
 0001:00056a20       ?yield@ConcurrentGCThread@@UAEXXZ 08057a20 f   concurrentGCThread.obj
 0001:00056a20       ??1Monitor@@QAE@XZ         08057a20 f   mutex.obj
 0001:00056a20       ?free_memory@os@@SAXPADI@Z 08057a20 f   os_windows.obj
 0001:00056a20       ?accumulate_statistics@MutableSpace@@UAEXXZ 08057a20 f   mutableSpace.obj
 0001:00056a20       ?destruct@BarrierGCTask@@MAEXXZ 08057a20 f   gcTaskManager.obj
 0001:00056a20       ?clear_remembered_set@Generation@@UAEXXZ 08057a20 f   defNewGeneration.obj
 0001:00056a20       ?verify@LIR_Op2@@MBEXXZ    08057a20 f   c1_LIR.obj
 0001:00056a20       ??1Mutex@@QAE@XZ           08057a20 f   mutex.obj
 0001:00056a20       ?adjust_pointers@ProfileData@@UAEXXZ 08057a20 f   ciMethodData.obj
 0001:00056a20       ?record_spaces_top@DefNewGeneration@@UAEXXZ 08057a20 f   defNewGeneration.obj
 0001:00056a20       ?print@InterpretedRFrame@@UAEXXZ 08057a20 f   rframe.obj
 0001:00056a20       ?record_concurrent_pause_end@G1CollectorPolicy@@UAEXXZ 08057a20 f   g1CollectorPolicy.obj
 0001:00056a20       ?accessFlags_init@@YAXXZ   08057a20 f   accessFlags.obj
 0001:00056a20       ?pd_initialize@Bytecodes@@CAXXZ 08057a20 f   bytecodes_x86.obj
 0001:00056a20       ?pd_detachall@AttachListener@@SAXXZ 08057a20 f   attachListener_windows.obj
 0001:00056a20       ?reset_after_compaction@CompactibleSpace@@UAEXXZ 08057a20 f   space.obj
 0001:00056a20       ?pre_adjust_pointers@ConcurrentMarkSweepGeneration@@UAEXXZ 08057a20 f   concurrentMarkSweepGeneration.obj
 0001:00056a20       ?doit_epilogue@VM_Operation@@UAEXXZ 08057a20 f   icBuffer.obj
 0001:00056a20       ?post_compact@CompactingPermGenGen@@UAEXXZ 08057a20 f   compactingPermGenGen.obj
 0001:00056a20       ?print_short@ImmutableSpace@@UBEXXZ 08057a20 f   mutableSpace.obj
 0001:00056a20       ?follow_contents@ProfileData@@UAEXXZ 08057a20 f   ciMethodData.obj
 0001:00056a30       ?bytecode@Template@@QBE?AW4Code@Bytecodes@@XZ 08057a30 f   templateTable.obj
 0001:00056a70       ?float_cmp@TemplateTable@@CAXH@Z 08057a70 f   templateTable.obj
 0001:00056a90       ?double_cmp@TemplateTable@@CAXH@Z 08057a90 f   templateTable.obj
 0001:00056ab0       ?_goto@TemplateTable@@CAXXZ 08057ab0 f   templateTable.obj
 0001:00056ac0       ?goto_w@TemplateTable@@CAXXZ 08057ac0 f   templateTable.obj
 0001:00056ad0       ?jsr_w@TemplateTable@@CAXXZ 08057ad0 f   templateTable.obj
 0001:00056ae0       ?jsr@TemplateTable@@CAXXZ  08057ae0 f   templateTable.obj
 0001:00056af0       ?initialize@TemplateTable@@SAXXZ 08057af0 f   templateTable.obj
 0001:00058d30       ?templateTable_init@@YAXXZ 08059d30 f   templateTable.obj
 0001:00058d40       ??3_ValueObj@@SAXPAX@Z     08059d40 f   allocation.obj
 0001:00058d60       ?signal_out_of_memory@Arena@@IBEXIPBD@Z 08059d60 f   allocation.obj
 0001:00058d90       ??2CHeapObj@@SAPAXI@Z      08059d90 f   allocation.obj
 0001:00058dd0       ??2ResourceObj@@SAPAXIW4allocation_type@0@@Z 08059dd0 f   allocation.obj
 0001:00058e30       ?OSR_migration_end@SharedRuntime@@SAXPAH@Z 08059e30 f   sharedRuntime.obj
 0001:00058e30       ??3CHeapObj@@SAXPAX@Z      08059e30 f   allocation.obj
 0001:00058e30       ??3ResourceObj@@SAXPAX@Z   08059e30 f   allocation.obj
 0001:00058e40       ?allocate@ChunkPool@@QAEPAXI@Z 08059e40 f i allocation.obj
 0001:00058eb0       ?free_all_but@ChunkPool@@QAEXI@Z 08059eb0 f i allocation.obj
 0001:00058f20       ?initialize@ChunkPool@@SAXXZ 08059f20 f i allocation.obj
 0001:00058fb0       ?chunkpool_init@@YAXXZ     08059fb0 f   allocation.obj
 0001:00058fc0       ?task@ChunkPoolCleaner@@UAEXXZ 08059fc0 f i allocation.obj
 0001:00058ff0       ??2Chunk@@SAPAXII@Z        08059ff0 f   allocation.obj
 0001:00059080       ?chop@Chunk@@QAEXXZ        0805a080 f   allocation.obj
 0001:00059120       ?next_chop@Chunk@@QAEXXZ   0805a120 f   allocation.obj
 0001:00059140       ?start_chunk_pool_cleaner_task@Chunk@@SAXXZ 0805a140 f   allocation.obj
 0001:00059190       ??0Arena@@QAE@XZ           0805a190 f   allocation.obj
 0001:000591e0       ?grow@Arena@@IAEPAXI@Z     0805a1e0 f   allocation.obj
 0001:00059280       ??1Arena@@QAE@XZ           0805a280 f   allocation.obj
 0001:000592a0       ?Arealloc@Arena@@QAEPAXPAXII@Z 0805a2a0 f   allocation.obj
 0001:00059320       ?static_write_ref_array_pre@BarrierSet@@SAXPAVHeapWord@@I@Z 0805a320 f   barrierSet.obj
 0001:00059340       ?static_write_ref_array_post@BarrierSet@@SAXPAVHeapWord@@I@Z 0805a340 f   barrierSet.obj
 0001:00059380       ?serialize@BlockOffsetArrayContigSpace@@QAEXPAVSerializeOopClosure@@@Z 0805a380 f   blockOffsetTable.obj
 0001:000593c0       ?last_active_index@BlockOffsetArrayContigSpace@@UBEIXZ 0805a3c0 f   blockOffsetTable.obj
 0001:000593d0       ?set_bottom@BlockOffsetTable@@UAEXPAVHeapWord@@@Z 0805a3d0 f i blockOffsetTable.obj
 0001:000593d0       ?set_bottom@G1BlockOffsetTable@@UAEXPAVHeapWord@@@Z 0805a3d0 f i g1BlockOffsetTable.obj
 0001:000593f0       ?resize@BlockOffsetSharedArray@@QAEXI@Z 0805a3f0 f   blockOffsetTable.obj
 0001:00059480       ?serialize@BlockOffsetSharedArray@@QAEXPAVSerializeOopClosure@@PAVHeapWord@@1@Z 0805a480 f   blockOffsetTable.obj
 0001:000594c0       ?check_all_cards@BlockOffsetArray@@QBEXII@Z 0805a4c0 f   blockOffsetTable.obj
 0001:00059650       ?verify@BlockOffsetArray@@QBEXXZ 0805a650 f   blockOffsetTable.obj
 0001:000596b0       ?block_start_unsafe@BlockOffsetArrayNonContigSpace@@UBEPAVHeapWord@@PBX@Z 0805a6b0 f   blockOffsetTable.obj
 0001:00059760       ?block_start_careful@BlockOffsetArrayNonContigSpace@@QBEPAVHeapWord@@PBX@Z 0805a760 f   blockOffsetTable.obj
 0001:000597d0       ?last_active_index@BlockOffsetArrayNonContigSpace@@UBEIXZ 0805a7d0 f   blockOffsetTable.obj
 0001:000597f0       ?block_start_unsafe@BlockOffsetArrayContigSpace@@UBEPAVHeapWord@@PBX@Z 0805a7f0 f   blockOffsetTable.obj
 0001:000598b0       ?initialize_threshold@BlockOffsetArrayContigSpace@@QAEPAVHeapWord@@XZ 0805a8b0 f   blockOffsetTable.obj
 0001:000598d0       ?set_offset_array@BlockOffsetSharedArray@@IAEXIIE_N@Z 0805a8d0 f i blockOffsetTable.obj
 0001:00059930       ??0BlockOffsetSharedArray@@QAE@VMemRegion@@I@Z 0805a930 f   blockOffsetTable.obj
 0001:000599e0       ?set_remainder_to_point_to_start_incl@BlockOffsetArray@@IAEXII_N@Z 0805a9e0 f   blockOffsetTable.obj
 0001:00059ae0       ?split_block@BlockOffsetArrayNonContigSpace@@QAEXPAVHeapWord@@II@Z 0805aae0 f   blockOffsetTable.obj
 0001:00059cd0       ?set_remainder_to_point_to_start@BlockOffsetArray@@IAEXPAVHeapWord@@0_N@Z 0805acd0 f   blockOffsetTable.obj
 0001:00059d10       ?do_block_internal@BlockOffsetArray@@IAEXPAVHeapWord@@0W4Action@1@_N@Z 0805ad10 f   blockOffsetTable.obj
 0001:00059de0       ?alloc_block@BlockOffsetArray@@UAEXPAVHeapWord@@0@Z 0805ade0 f   blockOffsetTable.obj
 0001:00059de0       ?single_block@BlockOffsetArray@@QAEXPAVHeapWord@@0@Z 0805ade0 f   blockOffsetTable.obj
 0001:00059e00       ?alloc_block@BlockOffsetArrayNonContigSpace@@UAEXPAVHeapWord@@0@Z 0805ae00 f   blockOffsetTable.obj
 0001:00059e40       ?mark_block@BlockOffsetArrayNonContigSpace@@QAEXPAVHeapWord@@0_N@Z 0805ae40 f   blockOffsetTable.obj
 0001:00059ed0       ?alloc_block_work@BlockOffsetArrayContigSpace@@AAEXPAVHeapWord@@0@Z 0805aed0 f   blockOffsetTable.obj
 0001:00059f60       ??0BlockOffsetArray@@QAE@PAVBlockOffsetSharedArray@@VMemRegion@@_N@Z 0805af60 f   blockOffsetTable.obj
 0001:00059fd0       ?set_offset_array@BlockOffsetSharedArray@@IAEXPAVHeapWord@@0E_N@Z 0805afd0 f i blockOffsetTable.obj
 0001:0005a030       ?resize@BlockOffsetArray@@UAEXI@Z 0805b030 f i blockOffsetTable.obj
 0001:0005a070       ?find_covering_region_containing@CardTableModRefBS@@IAEHPAVHeapWord@@@Z 0805b070 f   cardTableModRefBS.obj
 0001:0005a0b0       ?committed_unique_to_self@CardTableModRefBS@@IBE?AVMemRegion@@HV2@@Z 0805b0b0 f   cardTableModRefBS.obj
 0001:0005a140       ?ct_max_alignment_constraint@CardTableModRefBS@@SAIXZ 0805b140 f   cardTableModRefBS.obj
 0001:0005a150       ?verify@CardTableModRefBS@@QAEXXZ 0805b150 f   cardTableModRefBS.obj
 0001:0005a180       ?write_ref_field_pre_work@BarrierSet@@EAEXPAXPAVoopDesc@@@Z 0805b180 f i cardTableModRefBS.obj
 0001:0005a1a0       ?is_a@ModRefBarrierSet@@UAE_NW4Name@BarrierSet@@@Z 0805b1a0 f i cardTableModRefBS.obj
 0001:0005a1b0       ?write_prim_needs_barrier@ModRefBarrierSet@@UAE_NPAVHeapWord@@III@Z 0805b1b0 f i cardTableModRefBS.obj
 0001:0005a1c0       ?write_prim_field@ModRefBarrierSet@@UAEXPAVHeapWord@@III@Z 0805b1c0 f i cardTableModRefBS.obj
 0001:0005a1c0       ?fill_stackmap_for_opcodes@ResolveOopMapConflicts@@EAEXPAVBytecodeStream@@PAVCellTypeState@@1H@Z 0805b1c0 f i rewriter.obj
 0001:0005a1c0       ?interval_moved@IntervalWalker@@MAEXPAVInterval@@W4IntervalKind@@W4IntervalState@@2@Z 0805b1c0 f i c1_LinearScan.obj
 0001:0005a1c0       ?fill_stackmap_for_opcodes@GeneratePairingInfo@@EAEXPAVBytecodeStream@@PAVCellTypeState@@1H@Z 0805b1c0 f i ciMethod.obj
 0001:0005a1d0       ?card_will_be_scanned@CardTableModRefBS@@MAE_NC@Z 0805b1d0 f i cardTableModRefBS.obj
 0001:0005a1d0       ?card_may_have_been_dirty@CardTableModRefBS@@MAE_NC@Z 0805b1d0 f i cardTableModRefBS.obj
 0001:0005a1f0       ??0CardTableModRefBS@@QAE@VMemRegion@@H@Z 0805b1f0 f   cardTableModRefBS.obj
 0001:0005a4a0       ?is_a@CardTableModRefBS@@UAE_NW4Name@BarrierSet@@@Z 0805b4a0 f i cardTableModRefBS.obj
 0001:0005a4c0       ?write_ref_needs_barrier@CardTableModRefBS@@UAE_NPAXPAVoopDesc@@@Z 0805b4c0 f i cardTableModRefBS.obj
 0001:0005a4f0       ?find_covering_region_by_base@CardTableModRefBS@@IAEHPAVHeapWord@@@Z 0805b4f0 f   cardTableModRefBS.obj
 0001:0005a580       ?resize_covered_region@CardTableModRefBS@@MAEXVMemRegion@@@Z 0805b580 f   cardTableModRefBS.obj
 0001:0005a790       ?write_ref_field_work@CardTableModRefBS@@MAEXPAXPAVoopDesc@@@Z 0805b790 f   cardTableModRefBS.obj
 0001:0005a7b0       ?mark_card_deferred@CardTableModRefBS@@QAE_NI@Z 0805b7b0 f   cardTableModRefBS.obj
 0001:0005a810       ?non_clean_card_iterate_possibly_parallel@CardTableModRefBS@@IAEXPAVSpace@@VMemRegion@@PAVOopsInGenClosure@@PAVCardTableRS@@@Z 0805b810 f   cardTableModRefBS.obj
 0001:0005a8a0       ?invalidate@CardTableModRefBS@@UAEXVMemRegion@@_N@Z 0805b8a0 f   cardTableModRefBS.obj
 0001:0005a920       ?clear@CardTableModRefBS@@UAEXVMemRegion@@@Z 0805b920 f   cardTableModRefBS.obj
 0001:0005a9b0       ?dirty@CardTableModRefBS@@QAEXVMemRegion@@@Z 0805b9b0 f   cardTableModRefBS.obj
 0001:0005a9f0       ?dirty_card_iterate@CardTableModRefBS@@QAEXVMemRegion@@PAVMemRegionClosure@@@Z 0805b9f0 f   cardTableModRefBS.obj
 0001:0005aab0       ?dirty_card_range_after_reset@CardTableModRefBS@@QAE?AVMemRegion@@V2@_NH@Z 0805bab0 f   cardTableModRefBS.obj
 0001:0005aba0       ?card_will_be_scanned@CardTableModRefBSForCTRS@@MAE_NC@Z 0805bba0 f   cardTableModRefBS.obj
 0001:0005abd0       ?card_may_have_been_dirty@CardTableModRefBSForCTRS@@MAE_NC@Z 0805bbd0 f   cardTableModRefBS.obj
 0001:0005ac00       ?write_region_work@CardTableModRefBS@@MAEXVMemRegion@@@Z 0805bc00 f i cardTableModRefBS.obj
 0001:0005ac00       ?dirty_MemRegion@CardTableModRefBS@@IAEXVMemRegion@@@Z 0805bc00 f i cardTableModRefBS.obj
 0001:0005ac00       ?write_ref_array_work@CardTableModRefBS@@MAEXVMemRegion@@@Z 0805bc00 f i cardTableModRefBS.obj
 0001:0005ac40       ?find_unused_youngergenP_card_value@CardTableRS@@AAECXZ 0805bc40 f   cardTableRS.obj
 0001:0005ac80       ?prepare_for_younger_refs_iterate@CardTableRS@@UAEX_N@Z 0805bc80 f   cardTableRS.obj
 0001:0005acb0       ?get_gen@GenCollectedHeap@@QBEPAVGeneration@@H@Z 0805bcb0 f i cardTableRS.obj
 0001:0005acd0       ??0CardTableRS@@QAE@VMemRegion@@H@Z 0805bcd0 f   cardTableRS.obj
 0001:0005adb0       ?write_ref_field_gc_work@CardTableRS@@UAEXPAXPAVoopDesc@@@Z 0805bdb0 f i cardTableRS.obj
 0001:0005add0       ?clear@CardTableRS@@UAEXVMemRegion@@@Z 0805bdd0 f i cardTableRS.obj
 0001:0005ae00       ?invalidate@CardTableRS@@UAEXVMemRegion@@_N@Z 0805be00 f i cardTableRS.obj
 0001:0005ae30       ?resize_covered_region@CardTableRS@@UAEXVMemRegion@@@Z 0805be30 f   cardTableRS.obj
 0001:0005ae60       ?younger_refs_iterate@CardTableRS@@UAEXPAVGeneration@@PAVOopsInGenClosure@@@Z 0805be60 f   cardTableRS.obj
 0001:0005ae90       ?clear_card_parallel@ClearNoncleanCardWrapper@@AAE_NPAC@Z 0805be90 f i cardTableRS.obj
 0001:0005af00       ??0ClearNoncleanCardWrapper@@QAE@PAVDirtyCardToOopClosure@@PAVCardTableRS@@@Z 0805bf00 f   cardTableRS.obj
 0001:0005af30       ?write_ref_field_gc_par@CardTableRS@@UAEXPAXPAVoopDesc@@@Z 0805bf30 f   cardTableRS.obj
 0001:0005af90       ?younger_refs_in_space_iterate@CardTableRS@@EAEXPAVSpace@@PAVOopsInGenClosure@@@Z 0805bf90 f   cardTableRS.obj
 0001:0005afd0       ?clear_into_younger@CardTableRS@@UAEXPAVGeneration@@_N@Z 0805bfd0 f   cardTableRS.obj
 0001:0005b050       ?invalidate_or_clear@CardTableRS@@UAEXPAVGeneration@@_N1@Z 0805c050 f   cardTableRS.obj
 0001:0005b1a0       ?do_generation@VerifyCTGenClosure@@UAEXPAVGeneration@@@Z 0805c1a0 f i cardTableRS.obj
 0001:0005b1e0       ?verify@CardTableRS@@UAEXXZ 0805c1e0 f   cardTableRS.obj
 0001:0005b2b0       ?verify_aligned_region_empty@CardTableRS@@UAEXVMemRegion@@@Z 0805c2b0 f   cardTableRS.obj
 0001:0005b320       ?is_aligned@CardTableModRefBS@@UAE_NPAVHeapWord@@@Z 0805c320 f i cardTableModRefBS.obj
 0001:0005b320       ?is_aligned@CardTableRS@@UAE_NPAVHeapWord@@@Z 0805c320 f i cardTableRS.obj
 0001:0005b340       ?do_MemRegion@ClearNoncleanCardWrapper@@UAEXVMemRegion@@@Z 0805c340 f   cardTableRS.obj
 0001:0005b400       ?do_oop@VerifyCleanCardClosure@@UAEXPAPAVoopDesc@@@Z 0805c400 f i cardTableRS.obj
 0001:0005b470       ?do_oop@VerifyCleanCardClosure@@UAEXPAI@Z 0805c470 f i cardTableRS.obj
 0001:0005b4f0       ?verify_space@CardTableRS@@AAEXPAVSpace@@PAVHeapWord@@@Z 0805c4f0 f   cardTableRS.obj
 0001:0005b6d0       ?do_space@VerifyCTSpaceClosure@@UAEXPAVSpace@@@Z 0805c6d0 f i cardTableRS.obj
 0001:0005b6f0       ?reset@ClassifyObjectClosure@@QAEXXZ 0805c6f0 f   classify.obj
 0001:0005b720       ?print@ClassifyObjectClosure@@QAEIXZ 0805c720 f   classify.obj
 0001:0005b7b0       ?print@ClassifyInstanceKlassClosure@@QAEXXZ 0805c7b0 f   classify.obj
 0001:0005b7d0       ?reset@ClassifyInstanceKlassClosure@@QAEXXZ 0805c7d0 f   classify.obj
 0001:0005b7e0       ?is_constantPool@oopDesc@@QBE_NXZ 0805c7e0 f i classify.obj
 0001:0005b800       ?classify_object@ClassifyObjectClosure@@SA?AW4oop_type@@PAVoopDesc@@_N@Z 0805c800 f   classify.obj
 0001:0005b960       ?do_object@ClassifyObjectClosure@@UAEXPAVoopDesc@@@Z 0805c960 f   classify.obj
 0001:0005ba00       ?do_object@ClassifyInstanceKlassClosure@@UAEXPAVoopDesc@@@Z 0805ca00 f   classify.obj
 0001:0005bb70       ?initialize_perm_generation@CollectorPolicy@@IAEXW4Name@PermGen@@@Z 0805cb70 f   collectorPolicy.obj
 0001:0005bbe0       ?initialize_size_policy@GenCollectorPolicy@@UAEXIII@Z 0805cbe0 f   collectorPolicy.obj
 0001:0005bc60       ?initialize_generations@MarkSweepPolicy@@MAEXXZ 0805cc60 f   collectorPolicy.obj
 0001:0005bd70       ?initialize_gc_policy_counters@MarkSweepPolicy@@UAEXXZ 0805cd70 f   collectorPolicy.obj
 0001:0005bde0       ??0GCCauseSetter@@QAE@PAVCollectedHeap@@W4Cause@GCCause@@@Z 0805cde0 f i collectorPolicy.obj
 0001:0005be50       ??1GCCauseSetter@@QAE@XZ   0805ce50 f i collectorPolicy.obj
 0001:0005be90       ?constant_encoding@ciObject@@QAEPAV_jobject@@XZ 0805ce90 f i ciObject.obj
 0001:0005be90       ?permanent_generation@CollectorPolicy@@UAEPAVPermanentGenerationSpec@@XZ 0805ce90 f i collectorPolicy.obj
 0001:0005bea0       ?initialize_gc_policy_counters@CollectorPolicy@@UAEXXZ 0805cea0 f i collectorPolicy.obj
 0001:0005bec0       ?initialize_all@GenCollectorPolicy@@UAEXXZ 0805cec0 f i collectorPolicy.obj
 0001:0005bee0       ?type@VM_GenCollectForAllocation@@UBE?AW4VMOp_Type@VM_Operation@@XZ 0805cee0 f i collectorPolicy.obj
 0001:0005bef0       ?initialize_flags@CollectorPolicy@@MAEXXZ 0805cef0 f   collectorPolicy.obj
 0001:0005bff0       ?initialize_size_info@CollectorPolicy@@MAEXXZ 0805cff0 f   collectorPolicy.obj
 0001:0005c100       ?create_rem_set@CollectorPolicy@@UAEPAVGenRemSet@@VMemRegion@@H@Z 0805d100 f   collectorPolicy.obj
 0001:0005c160       ?initialize_flags@GenCollectorPolicy@@MAEXXZ 0805d160 f   collectorPolicy.obj
 0001:0005c210       ?initialize_flags@TwoGenerationCollectorPolicy@@MAEXXZ 0805d210 f   collectorPolicy.obj
 0001:0005c270       ?initialize_size_info@GenCollectorPolicy@@MAEXXZ 0805d270 f   collectorPolicy.obj
 0001:0005c400       ?adjust_gen0_sizes@TwoGenerationCollectorPolicy@@QAE_NPAI0II@Z 0805d400 f   collectorPolicy.obj
 0001:0005c470       ?initialize_size_info@TwoGenerationCollectorPolicy@@MAEXXZ 0805d470 f   collectorPolicy.obj
 0001:0005c5a0       ?expand_heap_and_allocate@GenCollectorPolicy@@MAEPAVHeapWord@@I_N@Z 0805d5a0 f   collectorPolicy.obj
 0001:0005c630       ?should_try_older_generation_allocation@GenCollectorPolicy@@MBE_NI@Z 0805d630 f   collectorPolicy.obj
 0001:0005c6a0       ?cleared_all_soft_refs@CollectorPolicy@@QAEXXZ 0805d6a0 f   collectorPolicy.obj
 0001:0005c6c0       ?mem_allocate_work@GenCollectorPolicy@@UAEPAVHeapWord@@I_NPA_N@Z 0805d6c0 f   collectorPolicy.obj
 0001:0005c9d0       ?satisfy_failed_allocation@GenCollectorPolicy@@UAEPAVHeapWord@@I_N@Z 0805d9d0 f   collectorPolicy.obj
 0001:0005cbd0       ?initialize_generations@TwoGenerationCollectorPolicy@@MAEXXZ 0805dbd0 f i collectorPolicy.obj
 0001:0005cbf0       ??0MarkSweepPolicy@@QAE@XZ 0805dbf0 f   collectorPolicy.obj
 0001:0005cc40       ?initialize_performance_counters@CompactingPermGenGen@@AAEXXZ 0805dc40 f   compactingPermGenGen.obj
 0001:0005ccc0       ?contiguous_available@CompactingPermGenGen@@UBEIXZ 0805dcc0 f   compactingPermGenGen.obj
 0001:0005ccd0       ?max_capacity@CompactingPermGenGen@@UBEIXZ 0805dcd0 f   compactingPermGenGen.obj
 0001:0005cce0       ?invalidate_remembered_set@CompactingPermGenGen@@UAEXXZ 0805dce0 f   compactingPermGenGen.obj
 0001:0005cce0       ?invalidate_remembered_set@CardGeneration@@UAEXXZ 0805dce0 f   generation.obj
 0001:0005cd10       ?remap_shared_readonly_as_readwrite@CompactingPermGenGen@@SA_NXZ 0805dd10 f   compactingPermGenGen.obj
 0001:0005cd30       ?next_compaction_space@CompactibleSpace@@UBEPAV1@XZ 0805dd30 f i compactingPermGenGen.obj
 0001:0005cd40       ?adjust_object_size_v@CompactibleSpace@@UBEII@Z 0805dd40 f i compactingPermGenGen.obj
 0001:0005cd50       ?set_saved_mark@ContiguousSpace@@UAEXXZ 0805dd50 f i compactingPermGenGen.obj
 0001:0005cd60       ?used@ContiguousSpace@@UBEIXZ 0805dd60 f i compactingPermGenGen.obj
 0001:0005cd70       ?free@ContiguousSpace@@UBEIXZ 0805dd70 f i compactingPermGenGen.obj
 0001:0005cd80       ?used_region@ContiguousSpace@@UBE?AVMemRegion@@XZ 0805dd80 f i compactingPermGenGen.obj
 0001:0005cda0       ?used_region_at_save_marks@ContiguousSpace@@UBE?AVMemRegion@@XZ 0805dda0 f i compactingPermGenGen.obj
 0001:0005cda0       ?used_region_at_save_marks@Space@@UBE?AVMemRegion@@XZ 0805dda0 f i space.obj
 0001:0005cdd0       ?obj_allocated_since_save_marks@ContiguousSpace@@UBE_NQAVoopDesc@@@Z 0805ddd0 f i compactingPermGenGen.obj
 0001:0005cdf0       ?block_is_obj@ContiguousSpace@@UBE_NPBVHeapWord@@@Z 0805ddf0 f i compactingPermGenGen.obj
 0001:0005ce10       ?allocate@OffsetTableContigSpace@@UAEPAVHeapWord@@I@Z 0805de10 f i compactingPermGenGen.obj
 0001:0005ce40       ?par_allocate@OffsetTableContigSpace@@UAEPAVHeapWord@@I@Z 0805de40 f i compactingPermGenGen.obj
 0001:0005ce90       ?update_counters@CompactingPermGenGen@@UAEXXZ 0805de90 f   compactingPermGenGen.obj
 0001:0005cef0       ?space_iterate@CompactingPermGenGen@@UAEXPAVSpaceClosure@@_N@Z 0805def0 f   compactingPermGenGen.obj
 0001:0005cf40       ?print_on@CompactingPermGenGen@@UBEXPAVoutputStream@@@Z 0805df40 f   compactingPermGenGen.obj
 0001:0005cfc0       ?younger_refs_iterate@CompactingPermGenGen@@UAEXPAVOopsInGenClosure@@@Z 0805dfc0 f   compactingPermGenGen.obj
 0001:0005d020       ?adjust_pointers@CompactingPermGenGen@@UAEXXZ 0805e020 f   compactingPermGenGen.obj
 0001:0005d030       ?compact@CompactingPermGenGen@@UAEXXZ 0805e030 f   compactingPermGenGen.obj
 0001:0005d040       ?clear_remembered_set@CompactingPermGenGen@@UAEXXZ 0805e040 f   compactingPermGenGen.obj
 0001:0005d070       ?verify@CompactingPermGenGen@@UAEX_N@Z 0805e070 f   compactingPermGenGen.obj
 0001:0005d0d0       ?reset_after_compaction@ContiguousSpace@@UAEXXZ 0805e0d0 f i compactingPermGenGen.obj
 0001:0005d0e0       ?oop_iterate@oopDesc@@QAEHPAVOopClosure@@@Z 0805e0e0 f i compactingPermGenGen.obj
 0001:0005d110       ?type@VM_ForceAsyncSafepoint@@UBE?AW4VMOp_Type@VM_Operation@@XZ 0805e110 f i synchronizer.obj
 0001:0005d110       ?kind@PSScavengeMemoryManager@@UAE?AW4Name@MemoryManager@@XZ 0805e110 f i memoryManager.obj
 0001:0005d110       ?type@runtime_call_Relocation@@EAE?AW4relocType@relocInfo@@XZ 0805e110 f i relocInfo.obj
 0001:0005d110       ?kind@Generation@@UAE?AW4Name@1@XZ 0805e110 f i compactingPermGenGen.obj
 0001:0005d120       ?is_maximal_no_gc@Generation@@UBE_NXZ 0805e120 f i compactingPermGenGen.obj
 0001:0005d130       ?save_used_region@Generation@@UAEXXZ 0805e130 f i compactingPermGenGen.obj
 0001:0005d160       ?should_allocate@Generation@@UAE_NI_N@Z 0805e160 f i compactingPermGenGen.obj
 0001:0005d1a0       ?allocation_limit_reached@Generation@@UAEPAVHeapWord@@PAVSpace@@PAV2@I@Z 0805e1a0 f i compactingPermGenGen.obj
 0001:0005d1b0       ?tlab_capacity@Generation@@UBEIXZ 0805e1b0 f i compactingPermGenGen.obj
 0001:0005d1d0       ?unsafe_max_tlab_alloc@Generation@@UBEIXZ 0805e1d0 f i compactingPermGenGen.obj
 0001:0005d1f0       ?collection_attempt_is_safe@Generation@@UAE_NXZ 0805e1f0 f i compactingPermGenGen.obj
 0001:0005d210       ?time_of_last_gc@Generation@@UAE_J_J@Z 0805e210 f i compactingPermGenGen.obj
 0001:0005d220       ?update_time_of_last_gc@Generation@@UAEX_J@Z 0805e220 f i compactingPermGenGen.obj
 0001:0005d240       ?pre_adjust_pointers@Generation@@UAEXXZ 0805e240 f i compactingPermGenGen.obj
 0001:0005d260       ?post_compact@Generation@@UAEXXZ 0805e260 f i compactingPermGenGen.obj
 0001:0005d280       ?counters@Generation@@UAEPAVCollectorCounters@@XZ 0805e280 f i compactingPermGenGen.obj
 0001:0005d290       ?is_in@OneContigSpaceCardGeneration@@UBE_NPBX@Z 0805e290 f i compactingPermGenGen.obj
 0001:0005d2b0       ?first_compaction_space@OneContigSpaceCardGeneration@@UBEPAVCompactibleSpace@@XZ 0805e2b0 f i compactingPermGenGen.obj
 0001:0005d2c0       ?allocate@OneContigSpaceCardGeneration@@UAEPAVHeapWord@@I_N@Z 0805e2c0 f i compactingPermGenGen.obj
 0001:0005d2e0       ?par_allocate@OneContigSpaceCardGeneration@@UAEPAVHeapWord@@I_N@Z 0805e2e0 f i compactingPermGenGen.obj
 0001:0005d300       ?block_is_obj@OneContigSpaceCardGeneration@@UBE_NPBVHeapWord@@@Z 0805e300 f i compactingPermGenGen.obj
 0001:0005d320       ?block_size@OneContigSpaceCardGeneration@@UBEIPBVHeapWord@@@Z 0805e320 f i compactingPermGenGen.obj
 0001:0005d350       ?do_object@AdjustSharedObjectClosure@@UAEXPAVoopDesc@@@Z 0805e350 f i compactingPermGenGen.obj
 0001:0005d3a0       ??0CompactingPermGenGen@@QAE@VReservedSpace@@0IHPAVGenRemSet@@PAVContiguousSpace@@PAVPermanentGenerationSpec@@@Z 0805e3a0 f   compactingPermGenGen.obj
 0001:0005db10       ?name@CompactingPermGenGen@@UBEPBDXZ 0805eb10 f i compactingPermGenGen.obj
 0001:0005db20       ?short_name@CompactingPermGenGen@@UBEPBDXZ 0805eb20 f i compactingPermGenGen.obj
 0001:0005db30       ?is_in@CompactingPermGenGen@@UBE_NPBX@Z 0805eb30 f i compactingPermGenGen.obj
 0001:0005db70       ?block_is_obj@CompactingPermGenGen@@UBE_NPBVHeapWord@@@Z 0805eb70 f i compactingPermGenGen.obj
 0001:0005dbc0       ?block_size@CompactingPermGenGen@@UBEIPBVHeapWord@@@Z 0805ebc0 f i compactingPermGenGen.obj
 0001:0005dc10       ??$do_oop_work@PAVoopDesc@@@RecursiveAdjustSharedObjectClosure@@IAEXPAPAVoopDesc@@@Z 0805ec10 f i compactingPermGenGen.obj
 0001:0005dca0       ??$do_oop_work@I@RecursiveAdjustSharedObjectClosure@@IAEXPAI@Z 0805eca0 f i compactingPermGenGen.obj
 0001:0005dd40       ?do_oop@RecursiveAdjustSharedObjectClosure@@UAEXPAPAVoopDesc@@@Z 0805ed40 f i compactingPermGenGen.obj
 0001:0005dd50       ?do_oop@RecursiveAdjustSharedObjectClosure@@UAEXPAI@Z 0805ed50 f i compactingPermGenGen.obj
 0001:0005dd60       ?placeholders_do@TraversePlaceholdersClosure@@SAXPAVSymbol@@PAVoopDesc@@@Z 0805ed60 f i compactingPermGenGen.obj
 0001:0005ddb0       ?pre_adjust_pointers@CompactingPermGenGen@@UAEXXZ 0805edb0 f   compactingPermGenGen.obj
 0001:0005de30       ?do_void@EvacuateFollowersClosure@DefNewGeneration@@UAEXXZ 0805ee30 f   defNewGeneration.obj
 0001:0005de60       ?expand_and_allocate@DefNewGeneration@@UAEPAVHeapWord@@I_N0@Z 0805ee60 f   defNewGeneration.obj
 0001:0005de80       ?name@DefNewGeneration@@UBEPBDXZ 0805ee80 f   defNewGeneration.obj
 0001:0005de90       ?unsafe_max_tlab_alloc@DefNewGeneration@@UBEIXZ 0805ee90 f   defNewGeneration.obj
 0001:0005dea0       ?incr_age@markOopDesc@@QBEPAV1@XZ 0805eea0 f i defNewGeneration.obj
 0001:0005ded0       ?set_end@Space@@UAEXPAVHeapWord@@@Z 0805eed0 f i defNewGeneration.obj
 0001:0005ded0       ?initialize_bootstrap_method_index_in_cache@ConstantPoolCacheEntry@@QAEXH@Z 0805eed0 f i cpCacheOop.obj
 0001:0005ded0       ?set_end@MutableSpace@@UAEXPAVHeapWord@@@Z 0805eed0 f i mutableNUMASpace.obj
 0001:0005dee0       ?cross_threshold@CompactibleSpace@@MAEPAVHeapWord@@PAV2@0@Z 0805eee0 f i defNewGeneration.obj
 0001:0005def0       ?set_end@EdenSpace@@UAEXPAVHeapWord@@@Z 0805eef0 f i defNewGeneration.obj
 0001:0005df00       ?incr_age@oopDesc@@QAEXXZ  0805ef00 f i defNewGeneration.obj
 0001:0005df90       ??0IsAliveClosure@DefNewGeneration@@QAE@PAVGeneration@@@Z 0805ef90 f   defNewGeneration.obj
 0001:0005dfb0       ?do_object_b@IsAliveClosure@DefNewGeneration@@UAE_NPAVoopDesc@@@Z 0805efb0 f   defNewGeneration.obj
 0001:0005dfe0       ??0KeepAliveClosure@DefNewGeneration@@QAE@PAVScanWeakRefClosure@@@Z 0805efe0 f   defNewGeneration.obj
 0001:0005e010       ??0ScanWeakRefClosure@@QAE@PAVDefNewGeneration@@@Z 0805f010 f   defNewGeneration.obj
 0001:0005e040       ?do_oop@FilteringClosure@@UAEXPAPAVoopDesc@@@Z 0805f040 f   defNewGeneration.obj
 0001:0005e060       ?do_oop@FilteringClosure@@UAEXPAI@Z 0805f060 f   defNewGeneration.obj
 0001:0005e0a0       ?compute_space_boundaries@DefNewGeneration@@IAEXI_N0@Z 0805f0a0 f   defNewGeneration.obj
 0001:0005e1f0       ?swap_spaces@DefNewGeneration@@IAEXXZ 0805f1f0 f   defNewGeneration.obj
 0001:0005e240       ?expand@DefNewGeneration@@QAE_NI@Z 0805f240 f   defNewGeneration.obj
 0001:0005e290       ?compute_new_size@DefNewGeneration@@UAEXXZ 0805f290 f   defNewGeneration.obj
 0001:0005e3c0       ?object_iterate_since_last_GC@DefNewGeneration@@UAEXPAVObjectClosure@@@Z 0805f3c0 f   defNewGeneration.obj
 0001:0005e3e0       ?capacity@DefNewGeneration@@UBEIXZ 0805f3e0 f   defNewGeneration.obj
 0001:0005e400       ?used@DefNewGeneration@@UBEIXZ 0805f400 f   defNewGeneration.obj
 0001:0005e430       ?free@DefNewGeneration@@UBEIXZ 0805f430 f   defNewGeneration.obj
 0001:0005e460       ?max_capacity@DefNewGeneration@@UBEIXZ 0805f460 f   defNewGeneration.obj
 0001:0005e4a0       ?contiguous_available@DefNewGeneration@@UBEIXZ 0805f4a0 f   defNewGeneration.obj
 0001:0005e4a0       ?unsafe_max_alloc_nogc@DefNewGeneration@@UBEIXZ 0805f4a0 f   defNewGeneration.obj
 0001:0005e4b0       ?top_addr@DefNewGeneration@@UBEPAPAVHeapWord@@XZ 0805f4b0 f   defNewGeneration.obj
 0001:0005e4c0       ?end_addr@DefNewGeneration@@UBEPAPAVHeapWord@@XZ 0805f4c0 f   defNewGeneration.obj
 0001:0005e4d0       ?object_iterate@DefNewGeneration@@UAEXPAVObjectClosure@@@Z 0805f4d0 f   defNewGeneration.obj
 0001:0005e500       ?space_iterate@DefNewGeneration@@UAEXPAVSpaceClosure@@_N@Z 0805f500 f   defNewGeneration.obj
 0001:0005e540       ?init_assuming_no_promotion_failure@DefNewGeneration@@IAEXXZ 0805f540 f   defNewGeneration.obj
 0001:0005e560       ?save_marks@DefNewGeneration@@UAEXXZ 0805f560 f   defNewGeneration.obj
 0001:0005e5a0       ?reset_saved_marks@DefNewGeneration@@UAEXXZ 0805f5a0 f   defNewGeneration.obj
 0001:0005e5d0       ?no_allocs_since_save_marks@DefNewGeneration@@UAE_NXZ 0805f5d0 f   defNewGeneration.obj
 0001:0005e5f0       ?oop_since_save_marks_iterate_v@DefNewGeneration@@UAEXPAVOopsInGenClosure@@@Z 0805f5f0 f   defNewGeneration.obj
 0001:0005e660       ?oop_since_save_marks_iterate_nv@DefNewGeneration@@UAEXPAVScanClosure@@@Z 0805f660 f   defNewGeneration.obj
 0001:0005e6d0       ?oop_since_save_marks_iterate_nv@DefNewGeneration@@UAEXPAVFastScanClosure@@@Z 0805f6d0 f   defNewGeneration.obj
 0001:0005e740       ?oop_since_save_marks_iterate_nv@DefNewGeneration@@UAEXPAVParScanWithBarrierClosure@@@Z 0805f740 f   defNewGeneration.obj
 0001:0005e7b0       ?oop_since_save_marks_iterate_nv@DefNewGeneration@@UAEXPAVParScanWithoutBarrierClosure@@@Z 0805f7b0 f   defNewGeneration.obj
 0001:0005e820       ?contribute_scratch@DefNewGeneration@@UAEXAAPAUScratchBlock@@PAVGeneration@@I@Z 0805f820 f   defNewGeneration.obj
 0001:0005e860       ?collection_attempt_is_safe@DefNewGeneration@@UAE_NXZ 0805f860 f   defNewGeneration.obj
 0001:0005e8c0       ?gc_epilogue@DefNewGeneration@@UAEX_N@Z 0805f8c0 f   defNewGeneration.obj
 0001:0005e940       ?update_counters@DefNewGeneration@@UAEXXZ 0805f940 f   defNewGeneration.obj
 0001:0005ea00       ?verify@DefNewGeneration@@UAEX_N@Z 0805fa00 f   defNewGeneration.obj
 0001:0005ea50       ?print_on@DefNewGeneration@@UBEXPAVoutputStream@@@Z 0805fa50 f   defNewGeneration.obj
 0001:0005ead0       ?first_compaction_space@DefNewGeneration@@UBEPAVCompactibleSpace@@XZ 0805fad0 f   defNewGeneration.obj
 0001:0005eae0       ?par_allocate@DefNewGeneration@@UAEPAVHeapWord@@I_N@Z 0805fae0 f   defNewGeneration.obj
 0001:0005eb00       ?gc_prologue@DefNewGeneration@@UAEX_N@Z 0805fb00 f   defNewGeneration.obj
 0001:0005eb10       ?tlab_capacity@DefNewGeneration@@UBEIXZ 0805fb10 f   defNewGeneration.obj
 0001:0005eb10       ?capacity_before_gc@DefNewGeneration@@UBEIXZ 0805fb10 f   defNewGeneration.obj
 0001:0005eb20       ?do_void@FastEvacuateFollowersClosure@DefNewGeneration@@UAEXXZ 0805fb20 f   defNewGeneration.obj
 0001:0005eb70       ??0ScanClosure@@QAE@PAVDefNewGeneration@@_N@Z 0805fb70 f   defNewGeneration.obj
 0001:0005ebd0       ?allocate_from_space@DefNewGeneration@@QAEPAVHeapWord@@I@Z 0805fbd0 f   defNewGeneration.obj
 0001:0005ec50       ?allocate@DefNewGeneration@@UAEPAVHeapWord@@I_N@Z 0805fc50 f   defNewGeneration.obj
 0001:0005ed10       ?do_object@RemoveForwardPointerClosure@@UAEXPAVoopDesc@@@Z 0805fd10 f i defNewGeneration.obj
 0001:0005ed30       ?must_be_preserved_for_promotion_failure@markOopDesc@@QBE_NPAVoopDesc@@@Z 0805fd30 f i defNewGeneration.obj
 0001:0005ed90       ?drain_promo_failure_scan_stack@DefNewGeneration@@IAEXXZ 0805fd90 f   defNewGeneration.obj
 0001:0005ee60       ?remove_forwarding_pointers@DefNewGeneration@@IAEXXZ 0805fe60 f   defNewGeneration.obj
 0001:0005f060       ?preserve_mark@DefNewGeneration@@IAEXPAVoopDesc@@PAVmarkOopDesc@@@Z 08060060 f   defNewGeneration.obj
 0001:0005f0d0       ?handle_promotion_failure@DefNewGeneration@@IAEXPAVoopDesc@@@Z 080600d0 f   defNewGeneration.obj
 0001:0005f190       ?copy_to_survivor_space@DefNewGeneration@@QAEPAVoopDesc@@PAV2@@Z 08060190 f   defNewGeneration.obj
 0001:0005f2a0       ??$do_oop_work@PAVoopDesc@@@ScanClosure@@IAEXPAPAVoopDesc@@@Z 080602a0 f i defNewGeneration.obj
 0001:0005f310       ??$do_oop_work@I@ScanClosure@@IAEXPAI@Z 08060310 f i defNewGeneration.obj
 0001:0005f3b0       ??$do_oop_work@PAVoopDesc@@@FastScanClosure@@IAEXPAPAVoopDesc@@@Z 080603b0 f i defNewGeneration.obj
 0001:0005f420       ??$do_oop_work@I@FastScanClosure@@IAEXPAI@Z 08060420 f i defNewGeneration.obj
 0001:0005f4c0       ??$do_oop_work@PAVoopDesc@@@ScanWeakRefClosure@@IAEXPAPAVoopDesc@@@Z 080604c0 f i defNewGeneration.obj
 0001:0005f530       ??$do_oop_work@I@ScanWeakRefClosure@@IAEXPAI@Z 08060530 f i defNewGeneration.obj
 0001:0005f5b0       ?do_oop@ScanClosure@@UAEXPAPAVoopDesc@@@Z 080605b0 f   defNewGeneration.obj
 0001:0005f5c0       ?do_oop@ScanClosure@@UAEXPAI@Z 080605c0 f   defNewGeneration.obj
 0001:0005f5d0       ?do_oop@FastScanClosure@@UAEXPAPAVoopDesc@@@Z 080605d0 f   defNewGeneration.obj
 0001:0005f5e0       ?do_oop@FastScanClosure@@UAEXPAI@Z 080605e0 f   defNewGeneration.obj
 0001:0005f5f0       ?do_oop@ScanWeakRefClosure@@UAEXPAPAVoopDesc@@@Z 080605f0 f   defNewGeneration.obj
 0001:0005f600       ?do_oop@ScanWeakRefClosure@@UAEXPAI@Z 08060600 f   defNewGeneration.obj
 0001:0005f610       ??0DefNewGeneration@@QAE@VReservedSpace@@IHPBD@Z 08060610 f   defNewGeneration.obj
 0001:0005f9c0       ?used_region@Generation@@UBE?AVMemRegion@@XZ 080609c0 f i defNewGeneration.obj
 0001:0005f9e0       ?should_allocate@DefNewGeneration@@UAE_NI_N@Z 080609e0 f i defNewGeneration.obj
 0001:0005fa30       ?short_name@DefNewGeneration@@UBEPBDXZ 08060a30 f i defNewGeneration.obj
 0001:0005fa40       ?is_range_check_stub@CodeStub@@UBE_NXZ 08060a40 f i c1_CodeStubs_x86.obj
 0001:0005fa40       ?is_runtime_stub@CodeBlob@@UBE_NXZ 08060a40 f i codeBlob.obj
 0001:0005fa40       ?is_method_klass@ciObject@@UAE_NXZ 08060a40 f i ciArrayKlass.obj
 0001:0005fa40       ?oop_is_typeArray_slow@Klass@@UBE_NXZ 08060a40 f i universe.obj
 0001:0005fa40       ?is_obj_array_klass@ciObject@@UAE_NXZ 08060a40 f i ciArrayKlass.obj
 0001:0005fa40       ?is_stub@ProfilerNode@@UBE_NXZ 08060a40 f i fprofiler.obj
 0001:0005fa40       ?full_collects_younger_generations@Generation@@UBE_NXZ 08060a40 f i compactingPermGenGen.obj
 0001:0005fa40       ?is_collected_pool@MemoryPool@@UAE_NXZ 08060a40 f i memoryPool.obj
 0001:0005fa40       ?oop_is_objArrayKlass@Klass@@UBE_NXZ 08060a40 f i universe.obj
 0001:0005fa40       ?oop_is_klass@Klass@@UBE_NXZ 08060a40 f i universe.obj
 0001:0005fa40       ?oop_is_instanceKlass@Klass@@UBE_NXZ 08060a40 f i universe.obj
 0001:0005fa40       ?is_widen@ChangeItem@@UAE_NXZ 08060a40 f i relocator.obj
 0001:0005fa40       ?is_symbol_klass@ciObject@@UAE_NXZ 08060a40 f i ciArrayKlass.obj
 0001:0005fa40       ?regions_empty@HumongousRegionSet@@MAE_NXZ 08060a40 f i concurrentMark.obj
 0001:0005fa40       ?can_commit_large_page_memory@os@@SA_NXZ 08060a40 f i os_windows.obj
 0001:0005fa40       ?is_classless@ciObject@@UBE_NXZ 08060a40 f i ciMethod.obj
 0001:0005fa40       ?supports_inline_contig_alloc@CollectedHeap@@UBE_NXZ 08060a40 f i collectedHeap.obj
 0001:0005fa40       ?is_array_klass_klass@ciObject@@UAE_NXZ 08060a40 f i ciArrayKlass.obj
 0001:0005fa40       ?is_commutative@Op2@@UBE_NXZ 08060a40 f i c1_GraphBuilder.obj
 0001:0005fa40       ?is_type_array_klass@ciObject@@UAE_NXZ 08060a40 f i ciArrayKlass.obj
 0001:0005fa40       ?must_be_youngest@TenuredGeneration@@UBE_NXZ 08060a40 f i tenuredGeneration.obj
 0001:0005fa40       ?is_symbol@ciObject@@UAE_NXZ 08060a40 f i ciArrayKlass.obj
 0001:0005fa40       ?is_jar_file@ClassPathDirEntry@@UAE_NXZ 08060a40 f i classLoader.obj
 0001:0005fa40       ?is_unloaded@CodeBlob@@UBE_NXZ 08060a40 f i codeBlob.obj
 0001:0005fa40       ?is_abstract@ciKlass@@UAE_NXZ 08060a40 f i ciArrayKlass.obj
 0001:0005fa40       ?skip_operation@VM_GC_HeapInspection@@UBE_NXZ 08060a40 f i vmGCOperations.obj
 0001:0005fa40       ?supports_tlab_allocation@Generation@@UBE_NXZ 08060a40 f i compactingPermGenGen.obj
 0001:0005fa40       ?is_Named_thread@Thread@@UBE_NXZ 08060a40 f i jvmtiImpl.obj
 0001:0005fa40       ?is_interpreted@ProfilerNode@@UBE_NXZ 08060a40 f i fprofiler.obj
 0001:0005fa40       ?is_locked_by_vm@CodeBlob@@UBE_NXZ 08060a40 f i codeBlob.obj
 0001:0005fa40       ?oop_is_instanceMirror@Klass@@UBE_NXZ 08060a40 f i universe.obj
 0001:0005fa40       ?must_be_youngest@CompactingPermGenGen@@UBE_NXZ 08060a40 f i compactingPermGenGen.obj
 0001:0005fa40       ?refs_discovery_is_mt@Generation@@UBE_NXZ 08060a40 f i compactingPermGenGen.obj
 0001:0005fa40       ?has_soft_ended_eden@CollectorPolicy@@UAE_NXZ 08060a40 f i collectorPolicy.obj
 0001:0005fa40       ?reading@WriteClosure@@UBE_NXZ 08060a40 f i dump.obj
 0001:0005fa40       ?is_method@ciObject@@UAE_NXZ 08060a40 f i ciArrayKlass.obj
 0001:0005fa40       ?must_be_oldest@CMSPermGenGen@@UBE_NXZ 08060a40 f i cmsPermGen.obj
 0001:0005fa40       ?is_type@ciObject@@UAE_NXZ 08060a40 f i ciMethod.obj
 0001:0005fa40       ?supports_vtime@os@@SA_NXZ 08060a40 f i os_windows.obj
 0001:0005fa40       ?needs_exception_state@Invoke@@UBE_NXZ 08060a40 f i c1_Instruction.obj
 0001:0005fa40       ?is_type_array_klass_klass@ciObject@@UAE_NXZ 08060a40 f i ciArrayKlass.obj
 0001:0005fa40       ?has_read_ref_barrier@ModRefBarrierSet@@UAE_NXZ 08060a40 f i cardTableModRefBS.obj
 0001:0005fa40       ?is_cheap_allocated@VM_GenCollectFullConcurrent@@UBE_NXZ 08060a40 f i genCollectedHeap.obj
 0001:0005fa40       ?is_null_object@ciObject@@UBE_NXZ 08060a40 f i ciArrayKlass.obj
 0001:0005fa40       ?needs_stubs@Compiler@@UAE_NXZ 08060a40 f i c1_Compiler.obj
 0001:0005fa40       ?report_results@OopMapForCacheEntry@@EBE_NXZ 08060a40 f i oopMapCache.obj
 0001:0005fa40       ?skip_operation@VM_HeapDumper@@EBE_NXZ 08060a40 f i heapDumper.obj
 0001:0005fa40       ?oop_is_thread@Klass@@UBE_NXZ 08060a40 f i universe.obj
 0001:0005fa40       ?is_Compiler_thread@Thread@@UBE_NXZ 08060a40 f i jvmtiImpl.obj
 0001:0005fa40       ?is_zombie@CodeBlob@@UBE_NXZ 08060a40 f i codeBlob.obj
 0001:0005fa40       ?should_remember_mdo@PushAndMarkClosure@@UBE?B_NXZ 08060a40 f i concurrentMarkSweepGeneration.obj
 0001:0005fa40       ?can_elide_tlab_store_barriers@G1CollectedHeap@@UBE_NXZ 08060a40 f i g1CollectedHeap.obj
 0001:0005fa40       ?is_ConcurrentGC_thread@Thread@@UBE_NXZ 08060a40 f i jvmtiImpl.obj
 0001:0005fa40       ?is_probe_enabled@DTraceJSDT@@SAEPAU_jmethodID@@@Z 08060a40 f i dtraceJSDT.obj
 0001:0005fa40       ?is_safepoint_stub@CodeBlob@@UBE_NXZ 08060a40 f i codeBlob.obj
 0001:0005fa40       ?is_java_object@ciObject@@UAE_NXZ 08060a40 f i ciArrayKlass.obj
 0001:0005fa40       ?needs_exception_state@InstanceOf@@UBE_NXZ 08060a40 f i c1_GraphBuilder.obj
 0001:0005fa40       ?oop_is_typeArrayKlass@Klass@@UBE_NXZ 08060a40 f i universe.obj
 0001:0005fa40       ?oop_is_array@Klass@@UBE_NXZ 08060a40 f i universe.obj
 0001:0005fa40       ?is_instance_klass_klass@ciObject@@UAE_NXZ 08060a40 f i ciArrayKlass.obj
 0001:0005fa40       ?is_method_handles_adapter_blob@CodeBlob@@UBE_NXZ 08060a40 f i codeBlob.obj
 0001:0005fa40       ?is_array_klass@ciObject@@UAE_NXZ 08060a40 f i ciInstanceKlass.obj
 0001:0005fa40       ?has_write_ref_pre_barrier@CardTableModRefBS@@UAE_NXZ 08060a40 f i cardTableModRefBS.obj
 0001:0005fa40       ?is_buffer_blob@CodeBlob@@UBE_NXZ 08060a40 f i codeBlob.obj
 0001:0005fa40       ?is_java_frame@vframe@@UBE_NXZ 08060a40 f i vframe.obj
 0001:0005fa40       ?should_remember_mdo@Par_PushOrMarkClosure@@UBE?B_NXZ 08060a40 f i concurrentMarkSweepGeneration.obj
 0001:0005fa40       ?is_init_trigger@AttachListener@@SA_NXZ 08060a40 f i attachListener_windows.obj
 0001:0005fa40       ?is_BitData@ProfileData@@UAE_NXZ 08060a40 f i ciMethodData.obj
 0001:0005fa40       ?has_read_region_opt@ModRefBarrierSet@@UAE_NXZ 08060a40 f i cardTableModRefBS.obj
 0001:0005fa40       ?is_data@Relocation@@UAE_NXZ 08060a40 f i compiledIC.obj
 0001:0005fa40       ?is_constant_long@ScopeValue@@UBE_NXZ 08060a40 f i debugInfo.obj
 0001:0005fa40       ?is_compiled_frame@vframe@@UBE_NXZ 08060a40 f i vframe.obj
 0001:0005fa40       ?is_cheap_allocated@VM_CMS_Operation@@UBE_NXZ 08060a40 f i concurrentMarkSweepGeneration.obj
 0001:0005fa40       ?is_call@Relocation@@UAE_NXZ 08060a40 f i compiledIC.obj
 0001:0005fa40       ?is_gc_memory_manager@MemoryManager@@UAE_NXZ 08060a40 f i memoryManager.obj
 0001:0005fa40       ?is_BranchData@ProfileData@@UAE_NXZ 08060a40 f i ciMethodData.obj
 0001:0005fa40       ?allow_rewrites@GenerateOopMap@@UBE_NXZ 08060a40 f i oopMapCache.obj
 0001:0005fa40       ?idempotent@OopClosure@@UAE_NXZ 08060a40 f i codeCache.obj
 0001:0005fa40       ?is_java_klass@ciObject@@UAE_NXZ 08060a40 f i ciKlass.obj
 0001:0005fa40       ?is_obj_array@ciObject@@UAE_NXZ 08060a40 f i ciArrayKlass.obj
 0001:0005fa40       ?is_runtime_stub@ProfilerNode@@UBE_NXZ 08060a40 f i fprofiler.obj
 0001:0005fa40       ?is_Worker_thread@Thread@@UBE_NXZ 08060a40 f i jvmtiImpl.obj
 0001:0005fa40       ?is_exception_throw_stub@CodeStub@@UBE_NXZ 08060a40 f i c1_CodeStubs_x86.obj
 0001:0005fa40       ?is_methodCompiler@VM_Operation@@UBE_NXZ 08060a40 f i icBuffer.obj
 0001:0005fa40       ?is_deoptimization_stub@CodeBlob@@UBE_NXZ 08060a40 f i codeBlob.obj
 0001:0005fa40       ?is_leaf_type@ciKlass@@UAE_NXZ 08060a40 f i ciKlass.obj
 0001:0005fa40       ?regions_humongous@FreeRegionList@@MAE_NXZ 08060a40 f i concurrentMark.obj
 0001:0005fa40       ?is_constant_oop@ScopeValue@@UBE_NXZ 08060a40 f i debugInfo.obj
 0001:0005fa40       ?is_compiled@ProfilerNode@@UBE_NXZ 08060a40 f i fprofiler.obj
 0001:0005fa40       ?is_cheap_allocated@VM_Operation@@UBE_NXZ 08060a40 f i icBuffer.obj
 0001:0005fa40       ?has_write_prim_array_opt@ModRefBarrierSet@@UAE_NXZ 08060a40 f i cardTableModRefBS.obj
 0001:0005fa40       ?is_JumpData@ProfileData@@UAE_NXZ 08060a40 f i ciMethodData.obj
 0001:0005fa40       ?is_exception_stub@CodeBlob@@UBE_NXZ 08060a40 f i codeBlob.obj
 0001:0005fa40       ?report_init_vars@GeneratePairingInfo@@EBE_NXZ 08060a40 f i ciMethod.obj
 0001:0005fa40       ?oop_is_methodData@Klass@@UBE_NXZ 08060a40 f i universe.obj
 0001:0005fa40       ?is_VM_thread@Thread@@UBE_NXZ 08060a40 f i jvmtiImpl.obj
 0001:0005fa40       ?card_mark_must_follow_store@ParallelScavengeHeap@@UBE_NXZ 08060a40 f i universe.obj
 0001:0005fa40       ?has_read_prim_barrier@ModRefBarrierSet@@UAE_NXZ 08060a40 f i cardTableModRefBS.obj
 0001:0005fa40       ?is_method_handle@ciObject@@UBE_NXZ 08060a40 f i ciArrayKlass.obj
 0001:0005fa40       ?is_VirtualCallData@ProfileData@@UAE_NXZ 08060a40 f i ciMethodData.obj
 0001:0005fa40       ?find@os@@SA_NPAEPAVoutputStream@@@Z 08060a40 f i os_windows.obj
 0001:0005fa40       ?can_trap@Instruction@@UBE_NXZ 08060a40 f i c1_Canonicalizer.obj
 0001:0005fa40       ?is_type_array@ciObject@@UAE_NXZ 08060a40 f i ciArrayKlass.obj
 0001:0005fa40       ?have_special_privileges@os@@SA_NXZ 08060a40 f i os_windows.obj
 0001:0005fa40       ?oop_is_method@Klass@@UBE_NXZ 08060a40 f i universe.obj
 0001:0005fa40       ?is_constant_double@ScopeValue@@UBE_NXZ 08060a40 f i debugInfo.obj
 0001:0005fa40       ?allow_nested_vm_operations@VM_CMS_Operation@@UBE_NXZ 08060a40 f i concurrentMarkSweepGeneration.obj
 0001:0005fa40       ?is_CounterData@ProfileData@@UAE_NXZ 08060a40 f i ciMethodData.obj
 0001:0005fa40       ?is_ReceiverTypeData@ProfileData@@UAE_NXZ 08060a40 f i ciMethodData.obj
 0001:0005fa40       ?is_vm_object_alloc_event@JvmtiEventCollector@@UAE_NXZ 08060a40 f i jvmtiExport.obj
 0001:0005fa40       ?is_location@ScopeValue@@UBE_NXZ 08060a40 f i debugInfo.obj
 0001:0005fa40       ?oop_is_constantPoolCache@Klass@@UBE_NXZ 08060a40 f i universe.obj
 0001:0005fa40       ?is_constant@ValueType@@UBE_NXZ 08060a40 f i c1_Canonicalizer.obj
 0001:0005fa40       ?is_constant_int@ScopeValue@@UBE_NXZ 08060a40 f i debugInfo.obj
 0001:0005fa40       ?is_Java_thread@Thread@@UBE_NXZ 08060a40 f i thread.obj
 0001:0005fa40       ?is_interpreted@RFrame@@UBE_NXZ 08060a40 f i rframe.obj
 0001:0005fa40       ?apply_to_weak_ref_discovered_field@OopClosure@@UAE_NXZ 08060a40 f i codeCache.obj
 0001:0005fa40       ?needs_pll@VM_CMS_Initial_Mark@@UBE?B_NXZ 08060a40 f i concurrentMarkSweepGeneration.obj
 0001:0005fa40       ?enable_vtime@os@@SA_NXZ   08060a40 f i os_windows.obj
 0001:0005fa40       ?has_read_prim_array_opt@ModRefBarrierSet@@UAE_NXZ 08060a40 f i cardTableModRefBS.obj
 0001:0005fa40       ?is_headless_jre@os@@SA_NXZ 08060a40 f i os_windows.obj
 0001:0005fa40       ?has_write_prim_barrier@ModRefBarrierSet@@UAE_NXZ 08060a40 f i cardTableModRefBS.obj
 0001:0005fa40       ?report_results@ResolveOopMapConflicts@@EBE_NXZ 08060a40 f i rewriter.obj
 0001:0005fa40       ?get_page_info@os@@SA_NPADPAUpage_info@1@@Z 08060a40 f i os_windows.obj
 0001:0005fa40       ?refs_discovery_is_atomic@ConcurrentMarkSweepGeneration@@UBE_NXZ 08060a40 f i generationSpec.obj
 0001:0005fa40       ?oop_is_arrayKlass@Klass@@UBE_NXZ 08060a40 f i universe.obj
 0001:0005fa40       ?is_klass@ciObject@@UAE_NXZ 08060a40 f i ciMethod.obj
 0001:0005fa40       ?is_object@ScopeValue@@UBE_NXZ 08060a40 f i debugInfo.obj
 0001:0005fa40       ?is_interface@ciKlass@@UAE_NXZ 08060a40 f i ciArrayKlass.obj
 0001:0005fa40       ?oop_is_instanceRef@Klass@@UBE_NXZ 08060a40 f i universe.obj
 0001:0005fa40       ?is_not_entrant@CodeBlob@@UBE_NXZ 08060a40 f i codeBlob.obj
 0001:0005fa40       ?needs_exception_state@NewArray@@UBE_NXZ 08060a40 f i c1_GraphBuilder.obj
 0001:0005fa40       ?is_array@ciObject@@UAE_NXZ 08060a40 f i ciArrayKlass.obj
 0001:0005fa40       ?oop_is_objArray_slow@Klass@@UBE_NXZ 08060a40 f i universe.obj
 0001:0005fa40       ?is_method_data@ciObject@@UAE_NXZ 08060a40 f i ciArrayKlass.obj
 0001:0005fa40       ?is_adapter_blob@CodeBlob@@UBE_NXZ 08060a40 f i codeBlob.obj
 0001:0005fa40       ?allow_nested_vm_operations@VM_EnableBiasedLocking@@UBE_NXZ 08060a40 f i biasedLocking.obj
 0001:0005fa40       ?is_GC_task_thread@Thread@@UBE_NXZ 08060a40 f i jvmtiImpl.obj
 0001:0005fa40       ?performs_in_place_marking@DefNewGeneration@@UBE_NXZ 08060a40 f i defNewGeneration.obj
 0001:0005fa40       ?should_be_initialized@Klass@@UBE_NXZ 08060a40 f i universe.obj
 0001:0005fa40       ?should_remember_mdo@PushOrMarkClosure@@UBE?B_NXZ 08060a40 f i concurrentMarkSweepGeneration.obj
 0001:0005fa40       ?is_return_address@ciObject@@UAE_NXZ 08060a40 f i ciArrayKlass.obj
 0001:0005fa40       ?is_obj_array_klass_klass@ciObject@@UAE_NXZ 08060a40 f i ciArrayKlass.obj
 0001:0005fa40       ?supports_inline_contig_alloc@Generation@@UBE_NXZ 08060a40 f i compactingPermGenGen.obj
 0001:0005fa40       ?oop_is_compiledICHolder@Klass@@UBE_NXZ 08060a40 f i universe.obj
 0001:0005fa40       ?is_switch_pad@ChangeItem@@UAE_NXZ 08060a40 f i relocator.obj
 0001:0005fa40       ?should_remember_klasses@OopClosure@@UBE?B_NXZ 08060a40 f i codeCache.obj
 0001:0005fa40       ?is_instance@ciObject@@UAE_NXZ 08060a40 f i ciArrayKlass.obj
 0001:0005fa40       ?must_be_oldest@CompactingPermGenGen@@UBE_NXZ 08060a40 f i compactingPermGenGen.obj
 0001:0005fa40       ?needs_exception_state@NewInstance@@UBE_NXZ 08060a40 f i c1_GraphBuilder.obj
 0001:0005fa40       ?should_remember_mdo@OopClosure@@UBE?B_NXZ 08060a40 f i codeCache.obj
 0001:0005fa40       ?is_call_site@ciObject@@UBE_NXZ 08060a40 f i ciArrayKlass.obj
 0001:0005fa40       ?is_MultiBranchData@ProfileData@@UAE_NXZ 08060a40 f i ciMethodData.obj
 0001:0005fa40       ?is_ArrayData@ProfileData@@UAE_NXZ 08060a40 f i ciMethodData.obj
 0001:0005fa40       ?is_lazy@ClassPathEntry@@UAE_NXZ 08060a40 f i classLoader.obj
 0001:0005fa40       ?is_supported@DTraceJSDT@@SAEXZ 08060a40 f i dtraceJSDT.obj
 0001:0005fa40       ?allow_rewrites@GeneratePairingInfo@@EBE_NXZ 08060a40 f i ciMethod.obj
 0001:0005fa40       ?must_be_oldest@DefNewGeneration@@UBE_NXZ 08060a40 f i defNewGeneration.obj
 0001:0005fa40       ?oop_is_instance_slow@Klass@@UBE_NXZ 08060a40 f i universe.obj
 0001:0005fa40       ?is_compiled_by_c1@CodeBlob@@UBE_NXZ 08060a40 f i codeBlob.obj
 0001:0005fa40       ?is_dynamic_code_event@JvmtiEventCollector@@UAE_NXZ 08060a40 f i jvmtiExport.obj
 0001:0005fa40       ?is_java_lang_Object@ciObject@@UAE_NXZ 08060a40 f i ciArrayKlass.obj
 0001:0005fa40       ?is_ArgInfoData@ProfileData@@UAE_NXZ 08060a40 f i ciMethodData.obj
 0001:0005fa40       ?numa_topology_changed@os@@SA_NXZ 08060a40 f i os_windows.obj
 0001:0005fa40       ?is_Watcher_thread@Thread@@UBE_NXZ 08060a40 f i jvmtiImpl.obj
 0001:0005fa40       ?report_results@GeneratePairingInfo@@EBE_NXZ 08060a40 f i ciMethod.obj
 0001:0005fa40       ?oop_is_constMethod@Klass@@UBE_NXZ 08060a40 f i universe.obj
 0001:0005fa40       ?is_jvmti_agent_thread@Thread@@UBE_NXZ 08060a40 f i serviceThread.obj
 0001:0005fa40       ?should_remember_mdo@Par_PushAndMarkClosure@@UBE?B_NXZ 08060a40 f i concurrentMarkSweepGeneration.obj
 0001:0005fa40       ?oop_is_constantPool@Klass@@UBE_NXZ 08060a40 f i universe.obj
 0001:0005fa40       ?distribute_processes@os@@SA_NIPAI@Z 08060a40 f i os_windows.obj
 0001:0005fa40       ?has_read_ref_array_opt@ModRefBarrierSet@@UAE_NXZ 08060a40 f i cardTableModRefBS.obj
 0001:0005fa40       ?supports_tlab_allocation@CollectedHeap@@UBE_NXZ 08060a40 f i collectedHeap.obj
 0001:0005fa40       ?is_divbyzero_stub@CodeStub@@UBE_NXZ 08060a40 f i c1_CodeStubs_x86.obj
 0001:0005fa40       ?allow_nested_vm_operations@VM_Operation@@UBE_NXZ 08060a40 f i icBuffer.obj
 0001:0005fa40       ?is_hidden_from_external_view@Thread@@UBE_NXZ 08060a40 f i jvmtiImpl.obj
 0001:0005fa40       ?needs_exception_state@Switch@@UBE_NXZ 08060a40 f i c1_GraphBuilder.obj
 0001:0005fa40       ?adapter_match@ProfilerNode@@UBE_NXZ 08060a40 f i fprofiler.obj
 0001:0005fa40       ?is_entry_frame@vframe@@UBE_NXZ 08060a40 f i vframe.obj
 0001:0005fa40       ?is_cpcache@ciObject@@UBE_NXZ 08060a40 f i ciArrayKlass.obj
 0001:0005fa40       ?is_RetData@ProfileData@@UAE_NXZ 08060a40 f i ciMethodData.obj
 0001:0005fa40       ?is_jump_widen@ChangeItem@@UAE_NXZ 08060a40 f i relocator.obj
 0001:0005fa40       ?is_compiled_by_c2@CodeBlob@@UBE_NXZ 08060a40 f i codeBlob.obj
 0001:0005fa40       ?needs_adapters@Compiler@@UAE_NXZ 08060a40 f i c1_Compiler.obj
 0001:0005fa40       ?is_instance_klass@ciObject@@UAE_NXZ 08060a40 f i ciArrayKlass.obj
 0001:0005fa40       ?bind_to_processor@os@@SA_NI@Z 08060a40 f i os_windows.obj
 0001:0005fa40       ?getting_receiver@VM_GetOrSetLocal@@MBE_NXZ 08060a40 f i jvmtiImpl.obj
 0001:0005fa40       ?is_ricochet_stub@CodeBlob@@UBE_NXZ 08060a40 f i codeBlob.obj
 0001:0005fa40       ?is_uncommon_trap_stub@CodeBlob@@UBE_NXZ 08060a40 f i codeBlob.obj
 0001:0005fa40       ?is_klass_klass@ciObject@@UAE_NXZ 08060a40 f i ciArrayKlass.obj
 0001:0005fa40       ?is_compiled@RFrame@@UBE_NXZ 08060a40 f i rframe.obj
 0001:0005fa40       ?is_nmethod@CodeBlob@@UBE_NXZ 08060a40 f i codeBlob.obj
 0001:0005fa40       ?must_be_youngest@CMSPermGenGen@@UBE_NXZ 08060a40 f i cmsPermGen.obj
 0001:0005fa40       ?is_interpreted_frame@vframe@@UBE_NXZ 08060a40 f i vframe.obj
 0001:0005fa40       ?must_be_youngest@ConcurrentMarkSweepGeneration@@UBE_NXZ 08060a40 f i generationSpec.obj
 0001:0005fa50       ?collect@DefNewGeneration@@UAEX_N0I0@Z 08060a50 f   defNewGeneration.obj
 0001:0005fe00       ?do_oop@KeepAliveClosure@DefNewGeneration@@UAEXPAPAVoopDesc@@@Z 08060e00 f   defNewGeneration.obj
 0001:0005fe40       ?do_oop@KeepAliveClosure@DefNewGeneration@@UAEXPAI@Z 08060e40 f   defNewGeneration.obj
 0001:0005fe80       ?do_oop@FastKeepAliveClosure@DefNewGeneration@@UAEXPAPAVoopDesc@@@Z 08060e80 f   defNewGeneration.obj
 0001:0005fed0       ?do_oop@FastKeepAliveClosure@DefNewGeneration@@UAEXPAI@Z 08060ed0 f   defNewGeneration.obj
 0001:0005ff30       ?do_oop@StringHashCodeClosure@@UAEXPAI@Z 08060f30 f i dump.obj
 0001:0005ff50       ?do_space@ClearSpaceClosure@@UAEXPAVSpace@@@Z 08060f50 f i dump.obj
 0001:0005ff70       ?type@VM_PopulateDumpSharedSpace@@UBE?AW4VMOp_Type@VM_Operation@@XZ 08060f70 f i dump.obj
 0001:0005ffd0       ?do_oop@ResolveForwardingClosure@@UAEXPAI@Z 08060fd0 f i dump.obj
 0001:0005fff0       ?do_oop@ResolveForwardingClosure@@UAEXPAPAVoopDesc@@@Z 08060ff0 f i dump.obj
 0001:00060060       ?patch@PatchKlassVtables@@QAEXPAPAXPAX@Z 08061060 f i dump.obj
 0001:000600d0       ?do_oop@MarkObjectsOopClosure@@UAEXPAI@Z 080610d0 f i dump.obj
 0001:000600f0       ?do_oop@MarkObjectsOopClosure@@UAEXPAPAVoopDesc@@@Z 080610f0 f i dump.obj
 0001:00060130       ?do_oop@MarkObjectsSkippingKlassesOopClosure@@UAEXPAI@Z 08061130 f i dump.obj
 0001:00060150       ?dump_shared@CompactingPermGenGen@@SAHPAV?$GrowableArray@PAVoopDesc@@@@PAVThread@@@Z 08061150 f   dump.obj
 0001:00060210       ?do_object@ClearAllocCountClosure@@UAEXPAVoopDesc@@@Z 08061210 f i dump.obj
 0001:00060240       ?do_oop@StringHashCodeClosure@@UAEXPAPAVoopDesc@@@Z 08061240 f i dump.obj
 0001:00060270       ?do_object@RemoveUnshareableInfoClosure@@UAEXPAVoopDesc@@@Z 08061270 f i dump.obj
 0001:00060300       ?make_shared_copy@MoveSymbols@@AAEPAVSymbol@@PAV2@@Z 08061300 f i dump.obj
 0001:00060370       ?do_symbol@MoveSymbols@@UAEXPAPAVSymbol@@@Z 08061370 f i dump.obj
 0001:000603b0       ?do_oop@MarkObjectsSkippingKlassesOopClosure@@UAEXPAPAVoopDesc@@@Z 080613b0 f i dump.obj
 0001:00060450       ?do_object@MarkCommonReadOnly@@UAEXPAVoopDesc@@@Z 08061450 f i dump.obj
 0001:000605c0       ?do_object@MarkStringValues@@UAEXPAVoopDesc@@@Z 080615c0 f i dump.obj
 0001:00060620       ?do_object@MarkReadWriteObjects@@UAEXPAVoopDesc@@@Z 08061620 f i dump.obj
 0001:00060740       ?do_object@MarkStringObjects@@UAEXPAVoopDesc@@@Z 08061740 f i dump.obj
 0001:00060770       ?do_object@SortMethodsClosure@@UAEXPAVoopDesc@@@Z 08061770 f i dump.obj
 0001:000607c0       ?reinitialize_vtables@ReinitializeTables@@QAEXPAVklassOopDesc@@@Z 080617c0 f i dump.obj
 0001:00060830       ?do_object@ReinitializeTables@@UAEXPAVoopDesc@@@Z 08061830 f i dump.obj
 0001:00060900       ?do_object@PatchOopsClosure@@UAEXPAVoopDesc@@@Z 08061900 f i dump.obj
 0001:000609d0       ?do_ptr@WriteClosure@@UAEXPAPAX@Z 080619d0 f i dump.obj
 0001:000609d0       ?do_size_t@WriteClosure@@UAEXPAI@Z 080619d0 f i dump.obj
 0001:000609d0       ?do_oop@WriteClosure@@UAEXPAPAVoopDesc@@@Z 080619d0 f i dump.obj
 0001:000609d0       ?do_int@WriteClosure@@UAEXPAH@Z 080619d0 f i dump.obj
 0001:00060a00       ?do_oop@WriteClosure@@UAEXPAI@Z 08061a00 f i dump.obj
 0001:00060a20       ?do_tag@WriteClosure@@UAEXH@Z 08061a20 f i dump.obj
 0001:00060a50       ?do_region@WriteClosure@@UAEXPAEI@Z 08061a50 f i dump.obj
 0001:00060cf0       ?do_object@LinkClassesClosure@@UAEXPAVoopDesc@@@Z 08061cf0 f i dump.obj
 0001:00060d90       ?do_object@MoveMarkedObjects@@UAEXPAVoopDesc@@@Z 08061d90 f i dump.obj
 0001:00060e60       ?do_object@PatchKlassVtables@@UAEXPAVoopDesc@@@Z 08061e60 f i dump.obj
 0001:00060ec0       ?preload_and_dump@GenCollectedHeap@@UAEXPAVThread@@@Z 08061ec0 f   dump.obj
 0001:00061520       ?do_object@CommonSymbolsClosure@@UAEXPAVoopDesc@@@Z 08062520 f i dump.obj
 0001:00061630       ?do_object@FingerprintMethodsClosure@@UAEXPAVoopDesc@@@Z 08062630 f i dump.obj
 0001:000616f0       ?do_object@MarkAndMoveOrderedReadOnly@@UAEXPAVoopDesc@@@Z 080626f0 f i dump.obj
 0001:00061bd0       ?do_object@MarkAndMoveOrderedReadWrite@@UAEXPAVoopDesc@@@Z 08062bd0 f i dump.obj
 0001:00061ed0       ?doit@VM_PopulateDumpSharedSpace@@UAEXXZ 08062ed0 f i dump.obj
 0001:00062980       ?error_stream@defaultStream@@SAPAU_iobuf@@XZ 08063980 f i filemap.obj
 0001:00062a20       ?fail_stop@FileMapInfo@@SAXPBDZZ 08063a20 f   filemap.obj
 0001:00062a40       ?_close@FileMapInfo@@QAEXXZ 08063a40 f   filemap.obj
 0001:00062a80       ?assert_mark@FileMapInfo@@SAX_N@Z 08063a80 f   filemap.obj
 0001:00062aa0       ?is_in_shared_space@FileMapInfo@@QAE_NPBX@Z 08063aa0 f   filemap.obj
 0001:00062ae0       ?fail_continue@FileMapInfo@@QAAXPBDZZ 08063ae0 f   filemap.obj
 0001:00062b40       ?populate_header@FileMapInfo@@QAEXI@Z 08063b40 f   filemap.obj
 0001:00062c90       ?init_from_file@FileMapInfo@@AAE_NH@Z 08063c90 f   filemap.obj
 0001:00062d00       ?open_for_read@FileMapInfo@@QAE_NXZ 08063d00 f   filemap.obj
 0001:00062d70       ?open_for_write@FileMapInfo@@QAEXXZ 08063d70 f   filemap.obj
 0001:00062e10       ?write_bytes@FileMapInfo@@QAEXPBXH@Z 08063e10 f   filemap.obj
 0001:00062ea0       ?align_file_position@FileMapInfo@@AAEXXZ 08063ea0 f   filemap.obj
 0001:00062f10       ?remap_shared_readonly_as_readwrite@FileMapInfo@@QAE_NXZ 08063f10 f   filemap.obj
 0001:00062fe0       ?validate@FileMapInfo@@QAE_NXZ 08063fe0 f   filemap.obj
 0001:000631f0       ?write_header@FileMapInfo@@QAEXXZ 080641f0 f   filemap.obj
 0001:00063210       ?write_region@FileMapInfo@@QAEXHPADII_N1@Z 08064210 f   filemap.obj
 0001:000632c0       ?map_region@FileMapInfo@@QAEPADHVReservedSpace@@@Z 080642c0 f   filemap.obj
 0001:00063390       ?initialize@FileMapInfo@@QAE_NXZ 08064390 f   filemap.obj
 0001:00063400       ?write_space@FileMapInfo@@QAEXHPAVCompactibleSpace@@_N@Z 08064400 f   filemap.obj
 0001:00063440       ?map_space@FileMapInfo@@QAE_NHVReservedSpace@@PAVContiguousSpace@@@Z 08064440 f   filemap.obj
 0001:000634e0       ?jni_lock_slow@GC_locker@@CAXXZ 080644e0 f   gcLocker.obj
 0001:00063550       ?jni_unlock_slow@GC_locker@@CAXXZ 08064550 f   gcLocker.obj
 0001:00063600       ?stall_until_clear@GC_locker@@SAXXZ 08064600 f   gcLocker.obj
 0001:000636d0       ??0GenCollectedHeap@@QAE@PAVGenCollectorPolicy@@@Z 080646d0 f   genCollectedHeap.obj
 0001:00063750       ?ref_processing_init@GenCollectedHeap@@UAEXXZ 08064750 f   genCollectedHeap.obj
 0001:00063780       ?capacity@GenCollectedHeap@@UBEIXZ 08064780 f   genCollectedHeap.obj
 0001:000637c0       ?used@GenCollectedHeap@@UBEIXZ 080647c0 f   genCollectedHeap.obj
 0001:00063800       ?max_capacity@GenCollectedHeap@@UBEIXZ 08064800 f   genCollectedHeap.obj
 0001:00063840       ?attempt_allocation@GenCollectedHeap@@IAEPAVHeapWord@@I_N0@Z 08064840 f   genCollectedHeap.obj
 0001:000638b0       ?mem_allocate@GenCollectedHeap@@UAEPAVHeapWord@@I_N0PA_N@Z 080648b0 f   genCollectedHeap.obj
 0001:000638e0       ?must_clear_all_soft_refs@GenCollectedHeap@@IAE_NXZ 080648e0 f   genCollectedHeap.obj
 0001:000638f0       ?satisfy_failed_allocation@GenCollectedHeap@@IAEPAVHeapWord@@I_N@Z 080648f0 f   genCollectedHeap.obj
 0001:00063910       ?set_par_threads@GenCollectedHeap@@UAEXH@Z 08064910 f   genCollectedHeap.obj
 0001:00063940       ?supports_inline_contig_alloc@GenCollectedHeap@@UBE_NXZ 08064940 f   genCollectedHeap.obj
 0001:00063950       ?top_addr@GenCollectedHeap@@UBEPAPAVHeapWord@@XZ 08064950 f   genCollectedHeap.obj
 0001:00063960       ?end_addr@GenCollectedHeap@@UBEPAPAVHeapWord@@XZ 08064960 f   genCollectedHeap.obj
 0001:00063970       ?unsafe_max_alloc@GenCollectedHeap@@UAEIXZ 08064970 f   genCollectedHeap.obj
 0001:00063980       ?oop_iterate@GenCollectedHeap@@UAEXPAVOopClosure@@@Z 08064980 f   genCollectedHeap.obj
 0001:000639c0       ?object_iterate_since_last_GC@GenCollectedHeap@@UAEXPAVObjectClosure@@@Z 080649c0 f   genCollectedHeap.obj
 0001:00063a00       ?supports_tlab_allocation@GenCollectedHeap@@UBE_NXZ 08064a00 f   genCollectedHeap.obj
 0001:00063a40       ?tlab_capacity@GenCollectedHeap@@UBEIPAVThread@@@Z 08064a40 f   genCollectedHeap.obj
 0001:00063a90       ?unsafe_max_tlab_alloc@GenCollectedHeap@@UBEIPAVThread@@@Z 08064a90 f   genCollectedHeap.obj
 0001:00063ae0       ?allocate_new_tlab@GenCollectedHeap@@UAEPAVHeapWord@@I@Z 08064ae0 f   genCollectedHeap.obj
 0001:00063b00       ?gather_scratch@GenCollectedHeap@@QAEPAUScratchBlock@@PAVGeneration@@I@Z 08064b00 f   genCollectedHeap.obj
 0001:00063b90       ?release_scratch@GenCollectedHeap@@QAEXXZ 08064b90 f   genCollectedHeap.obj
 0001:00063bc0       ?generation_iterate@GenCollectedHeap@@QAEXPAVGenClosure@1@_N@Z 08064bc0 f   genCollectedHeap.obj
 0001:00063c30       ?is_maximal_no_gc@GenCollectedHeap@@UBE_NXZ 08064c30 f   genCollectedHeap.obj
 0001:00063c70       ?heap@GenCollectedHeap@@SAPAV1@XZ 08064c70 f   genCollectedHeap.obj
 0001:00063c80       ?print@G1CollectedHeap@@UBEXXZ 08064c80 f   g1CollectedHeap.obj
 0001:00063c80       ?print@GenCollectedHeap@@UBEXXZ 08064c80 f   genCollectedHeap.obj
 0001:00063c80       ?print@ParallelScavengeHeap@@UBEXXZ 08064c80 f   parallelScavengeHeap.obj
 0001:00063ca0       ?print_heap_change@ParallelScavengeHeap@@QAEXI@Z 08064ca0 f   parallelScavengeHeap.obj
 0001:00063ca0       ?print_heap_change@GenCollectedHeap@@QBEXI@Z 08064ca0 f   genCollectedHeap.obj
 0001:00063ce0       ?do_generation@GenGCPrologueClosure@@UAEXPAVGeneration@@@Z 08064ce0 f i genCollectedHeap.obj
 0001:00063d00       ?do_generation@GenGCEpilogueClosure@@UAEXPAVGeneration@@@Z 08064d00 f i genCollectedHeap.obj
 0001:00063d20       ?do_generation@GenEnsureParsabilityClosure@@UAEXPAVGeneration@@@Z 08064d20 f i genCollectedHeap.obj
 0001:00063d40       ?collector_policy@ParallelScavengeHeap@@UBEPAVCollectorPolicy@@XZ 08064d40 f i universe.obj
 0001:00063d40       ?collector_policy@SharedHeap@@UBEPAVCollectorPolicy@@XZ 08064d40 f i genCollectedHeap.obj
 0001:00063d50       ?permanent_capacity@SharedHeap@@UBEIXZ 08064d50 f i genCollectedHeap.obj
 0001:00063d70       ?permanent_used@SharedHeap@@UBEIXZ 08064d70 f i genCollectedHeap.obj
 0001:00063d90       ?is_in_permanent@SharedHeap@@UBE_NPBX@Z 08064d90 f i genCollectedHeap.obj
 0001:00063dc0       ?is_permanent@SharedHeap@@UBE_NPBX@Z 08064dc0 f i genCollectedHeap.obj
 0001:00063de0       ?permanent_mem_allocate@SharedHeap@@UAEPAVHeapWord@@I@Z 08064de0 f i genCollectedHeap.obj
 0001:00063df0       ?permanent_oop_iterate@SharedHeap@@UAEXPAVOopClosure@@@Z 08064df0 f i genCollectedHeap.obj
 0001:00063e00       ?permanent_object_iterate@SharedHeap@@UAEXPAVObjectClosure@@@Z 08064e00 f i genCollectedHeap.obj
 0001:00063e10       ?print_test@AdaptiveSizePolicyOutput@@AAE_NI@Z 08064e10 f i genCollectedHeap.obj
 0001:00063e60       ?size_policy@GenCollectedHeap@@UAEPAVAdaptiveSizePolicy@@XZ 08064e60 f i genCollectedHeap.obj
 0001:00063e70       ?is_in_closed_subset@GenCollectedHeap@@UBE_NPBX@Z 08064e70 f i genCollectedHeap.obj
 0001:00063eb0       ?card_mark_must_follow_store@GenCollectedHeap@@UBE_NXZ 08064eb0 f i genCollectedHeap.obj
 0001:00063ec0       ?can_elide_permanent_oop_store_barriers@GenCollectedHeap@@UBE_NXZ 08064ec0 f i genCollectedHeap.obj
 0001:00063ed0       ?type@VM_GenCollectFull@@UBE?AW4VMOp_Type@VM_Operation@@XZ 08064ed0 f i genCollectedHeap.obj
 0001:00063ee0       ?type@VM_GenCollectFullConcurrent@@UBE?AW4VMOp_Type@VM_Operation@@XZ 08064ee0 f i genCollectedHeap.obj
 0001:00063ef0       ?allocate@GenCollectedHeap@@QAEPADIPAVPermanentGenerationSpec@@PAIPAHPAVReservedSpace@@@Z 08064ef0 f   genCollectedHeap.obj
 0001:00064080       ?post_initialize@GenCollectedHeap@@UAEXXZ 08065080 f   genCollectedHeap.obj
 0001:00064130       ?save_used_regions@GenCollectedHeap@@QAEXH_N@Z 08065130 f   genCollectedHeap.obj
 0001:00064180       ?update_full_collections_completed@GenCollectedHeap@@QAEII@Z 08065180 f   genCollectedHeap.obj
 0001:000641e0       ?gen_process_weak_roots@GenCollectedHeap@@QAEXPAVOopClosure@@PAVCodeBlobClosure@@0@Z 080651e0 f   genCollectedHeap.obj
 0001:00064230       ?oop_since_save_marks_iterate@GenCollectedHeap@@QAEXHPAVOopsInGenClosure@@0@Z 08065230 f   genCollectedHeap.obj
 0001:000642a0       ?oop_since_save_marks_iterate@GenCollectedHeap@@QAEXHPAVScanClosure@@0@Z 080652a0 f   genCollectedHeap.obj
 0001:00064310       ?oop_since_save_marks_iterate@GenCollectedHeap@@QAEXHPAVFastScanClosure@@0@Z 08065310 f   genCollectedHeap.obj
 0001:00064380       ?no_allocs_since_save_marks@GenCollectedHeap@@QAE_NH@Z 08065380 f   genCollectedHeap.obj
 0001:000643e0       ?collect_locked@GenCollectedHeap@@AAEXW4Cause@GCCause@@H@Z 080653e0 f   genCollectedHeap.obj
 0001:00064480       ?collect_mostly_concurrent@GenCollectedHeap@@AAEXW4Cause@GCCause@@@Z 08065480 f   genCollectedHeap.obj
 0001:00064530       ?is_in@GenCollectedHeap@@UBE_NPBX@Z 08065530 f   genCollectedHeap.obj
 0001:000645f0       ?oop_iterate@GenCollectedHeap@@UAEXVMemRegion@@PAVOopClosure@@@Z 080655f0 f   genCollectedHeap.obj
 0001:00064640       ?object_iterate@GenCollectedHeap@@UAEXPAVObjectClosure@@@Z 08065640 f   genCollectedHeap.obj
 0001:00064690       ?safe_object_iterate@GenCollectedHeap@@UAEXPAVObjectClosure@@@Z 08065690 f   genCollectedHeap.obj
 0001:000646e0       ?space_containing@GenCollectedHeap@@UBEPAVSpace@@PBX@Z 080656e0 f   genCollectedHeap.obj
 0001:00064730       ?block_start@GenCollectedHeap@@UBEPAVHeapWord@@PBX@Z 08065730 f   genCollectedHeap.obj
 0001:000647c0       ?block_size@GenCollectedHeap@@UBEIPBVHeapWord@@@Z 080657c0 f   genCollectedHeap.obj
 0001:00064850       ?block_is_obj@GenCollectedHeap@@UBE_NPBVHeapWord@@@Z 08065850 f   genCollectedHeap.obj
 0001:000648e0       ?large_typearray_limit@GenCollectedHeap@@UAEIXZ 080658e0 f   genCollectedHeap.obj
 0001:000648f0       ?do_generation@GenPrepareForVerifyClosure@@EAEXPAVGeneration@@@Z 080658f0 f i genCollectedHeap.obj
 0001:00064910       ?space_iterate@GenCollectedHeap@@UAEXPAVSpaceClosure@@@Z 08065910 f   genCollectedHeap.obj
 0001:00064960       ?save_marks@GenCollectedHeap@@QAEXXZ 08065960 f   genCollectedHeap.obj
 0001:000649a0       ?prepare_for_compaction@GenCollectedHeap@@AAEXXZ 080659a0 f   genCollectedHeap.obj
 0001:00064a00       ?gc_stats@GenCollectedHeap@@QBEPAVGCStats@@H@Z 08065a00 f   genCollectedHeap.obj
 0001:00064a20       ?verify@GenCollectedHeap@@UAEX_N00@Z 08065a20 f   genCollectedHeap.obj
 0001:00064b10       ?print_on@GenCollectedHeap@@UBEXPAVoutputStream@@@Z 08065b10 f   genCollectedHeap.obj
 0001:00064b60       ?gc_threads_do@GenCollectedHeap@@UBEXPAVThreadClosure@@@Z 08065b60 f   genCollectedHeap.obj
 0001:00064b90       ?print_gc_threads_on@GenCollectedHeap@@UBEXPAVoutputStream@@@Z 08065b90 f   genCollectedHeap.obj
 0001:00064bc0       ?print_tracing_info@GenCollectedHeap@@UBEXXZ 08065bc0 f   genCollectedHeap.obj
 0001:00064c10       ?gc_prologue@GenCollectedHeap@@MAEX_N@Z 08065c10 f   genCollectedHeap.obj
 0001:00064c90       ?gc_epilogue@GenCollectedHeap@@MAEX_N@Z 08065c90 f   genCollectedHeap.obj
 0001:00064d10       ?ensure_parsability@GenCollectedHeap@@UAEX_N@Z 08065d10 f   genCollectedHeap.obj
 0001:00064d70       ?do_generation@GenTimeOfLastGCClosure@@UAEXPAVGeneration@@@Z 08065d70 f i genCollectedHeap.obj
 0001:00064dc0       ?millis_since_last_gc@GenCollectedHeap@@UAE_JXZ 08065dc0 f   genCollectedHeap.obj
 0001:00064e70       ??0TraceCollectorStats@@QAE@PAVCollectorCounters@@@Z 08065e70 f i genCollectedHeap.obj
 0001:00064ee0       ?is_in_young@GenCollectedHeap@@QAE_NPAVoopDesc@@@Z 08065ee0 f i genCollectedHeap.obj
 0001:00064ee0       ?can_elide_initializing_store_barrier@GenCollectedHeap@@UAE_NPAVoopDesc@@@Z 08065ee0 f i genCollectedHeap.obj
 0001:00064ee0       ?is_scavengable@GenCollectedHeap@@UAE_NPBX@Z 08065ee0 f i genCollectedHeap.obj
 0001:00064f10       ?do_collection@GenCollectedHeap@@IAEX_N0I0H@Z 08065f10 f   genCollectedHeap.obj
 0001:00065730       ?do_full_collection@GenCollectedHeap@@IAEX_NH@Z 08066730 f   genCollectedHeap.obj
 0001:000657b0       ?prepare_for_verify@GenCollectedHeap@@UAEXXZ 080667b0 f   genCollectedHeap.obj
 0001:00065810       ?handle_failed_promotion@GenCollectedHeap@@QAEPAVoopDesc@@PAVGeneration@@PAV2@I@Z 08066810 f   genCollectedHeap.obj
 0001:000658c0       ?gen_process_strong_roots@GenCollectedHeap@@QAEXH_N00W4ScanningOption@SharedHeap@@PAVOopsInGenClosure@@02@Z 080668c0 f   genCollectedHeap.obj
 0001:00065a00       ?collect@GenCollectedHeap@@UAEXW4Cause@GCCause@@@Z 08066a00 f   genCollectedHeap.obj
 0001:00065a70       ?collect_as_vm_thread@GenCollectedHeap@@UAEXW4Cause@GCCause@@@Z 08066a70 f   genCollectedHeap.obj
 0001:00065b40       ??1CMSCollector@@QAE@XZ    08066b40 f i genCollectedHeap.obj
 0001:00065c10       ?create_cms_collector@GenCollectedHeap@@AAE_NXZ 08066c10 f   genCollectedHeap.obj
 0001:00065ca0       ?initialize@GenCollectedHeap@@UAEHXZ 08066ca0 f   genCollectedHeap.obj
 0001:00065f70       ?print_heap_change@Generation@@QBEXI@Z 08066f70 f   generation.obj
 0001:00065fb0       ?print@Generation@@UBEXXZ  08066fb0 f   generation.obj
 0001:00065fd0       ?print_summary_info@Generation@@UAEXXZ 08066fd0 f   generation.obj
 0001:00065ff0       ?do_space@GenerationIsInClosure@@UAEXPAVSpace@@@Z 08066ff0 f i generation.obj
 0001:00066020       ?is_in@Generation@@UBE_NPBX@Z 08067020 f   generation.obj
 0001:00066060       ?promotion_attempt_is_safe@Generation@@UBE_NI@Z 08067060 f   generation.obj
 0001:00066080       ?par_promote@Generation@@UAEPAVoopDesc@@HPAV2@PAVmarkOopDesc@@I@Z 08067080 f   generation.obj
 0001:000660a0       ?par_promote_alloc_undo@Generation@@UAEXHPAVHeapWord@@I@Z 080670a0 f   generation.obj
 0001:000660c0       ?block_start@Generation@@UBEPAVHeapWord@@PBX@Z 080670c0 f   generation.obj
 0001:000660f0       ?block_size@Generation@@UBEIPBVHeapWord@@@Z 080670f0 f   generation.obj
 0001:00066120       ?block_is_obj@Generation@@UBE_NPBVHeapWord@@@Z 08067120 f   generation.obj
 0001:00066150       ?do_space@GenerationObjIterateClosure@@UAEXPAVSpace@@@Z 08067150 f i generation.obj
 0001:00066170       ?object_iterate@Generation@@UAEXPAVObjectClosure@@@Z 08067170 f   generation.obj
 0001:000661a0       ?do_space@GenerationSafeObjIterateClosure@@UAEXPAVSpace@@@Z 080671a0 f i generation.obj
 0001:000661c0       ?safe_object_iterate@Generation@@UAEXPAVObjectClosure@@@Z 080671c0 f   generation.obj
 0001:000661f0       ?prepare_for_compaction@Generation@@UAEXPAVCompactPoint@@@Z 080671f0 f   generation.obj
 0001:00066230       ?do_space@AdjustPointersClosure@@UAEXPAVSpace@@@Z 08067230 f i generation.obj
 0001:00066250       ?compact@Generation@@UAEXXZ 08067250 f   generation.obj
 0001:00066280       ?expand@CardGeneration@@UAE_NII@Z 08067280 f   generation.obj
 0001:00066300       ?used@OneContigSpaceCardGeneration@@UBEIXZ 08067300 f   generation.obj
 0001:00066310       ?unsafe_max_alloc_nogc@OneContigSpaceCardGeneration@@UBEIXZ 08067310 f   generation.obj
 0001:00066310       ?free@OneContigSpaceCardGeneration@@UBEIXZ 08067310 f   generation.obj
 0001:00066320       ?contiguous_available@OneContigSpaceCardGeneration@@UBEIXZ 08067320 f   generation.obj
 0001:00066340       ?grow_to_reserved@OneContigSpaceCardGeneration@@MAE_NXZ 08067340 f   generation.obj
 0001:00066340       ?grow_to_reserved@ConcurrentMarkSweepGeneration@@UAE_NXZ 08067340 f   concurrentMarkSweepGeneration.obj
 0001:00066370       ?object_iterate@OneContigSpaceCardGeneration@@UAEXPAVObjectClosure@@@Z 08067370 f   generation.obj
 0001:00066390       ?space_iterate@OneContigSpaceCardGeneration@@UAEXPAVSpaceClosure@@_N@Z 08067390 f   generation.obj
 0001:000663b0       ?save_marks@OneContigSpaceCardGeneration@@UAEXXZ 080673b0 f   generation.obj
 0001:000663c0       ?spec@Generation@@QAEPAVGenerationSpec@@XZ 080673c0 f   generation.obj
 0001:000663e0       ?max_capacity@Generation@@UBEIXZ 080673e0 f   generation.obj
 0001:000663f0       ?ref_processor_init@Generation@@UAEXXZ 080673f0 f   generation.obj
 0001:00066450       ?print_on@Generation@@UBEXPAVoutputStream@@@Z 08067450 f   generation.obj
 0001:000664c0       ?print_summary_info_on@Generation@@UAEXPAVoutputStream@@@Z 080674c0 f   generation.obj
 0001:00066510       ?do_space@GenerationIsInReservedClosure@@UAEXPAVSpace@@@Z 08067510 f i generation.obj
 0001:00066530       ?next_gen@Generation@@IBEPAV1@XZ 08067530 f   generation.obj
 0001:00066550       ?max_contiguous_available@Generation@@UBEIXZ 08067550 f   generation.obj
 0001:00066590       ?space_containing@Generation@@UBEPAVSpace@@PBX@Z 08067590 f   generation.obj
 0001:000665c0       ?do_space@GenerationBlockStartClosure@@UAEXPAVSpace@@@Z 080675c0 f i generation.obj
 0001:000665f0       ?do_space@GenerationBlockSizeClosure@@UAEXPAVSpace@@@Z 080675f0 f i generation.obj
 0001:00066620       ?do_space@GenerationBlockIsObjClosure@@UAEXPAVSpace@@@Z 08067620 f i generation.obj
 0001:00066650       ?do_space@GenerationOopIterateClosure@@UAEXPAVSpace@@@Z 08067650 f i generation.obj
 0001:00066680       ?oop_iterate@Generation@@UAEXPAVOopClosure@@@Z 08067680 f   generation.obj
 0001:000666c0       ?oop_iterate@Generation@@UAEXVMemRegion@@PAVOopClosure@@@Z 080676c0 f   generation.obj
 0001:00066700       ?younger_refs_in_space_iterate@Generation@@IAEXPAVSpace@@PAVOopsInGenClosure@@@Z 08067700 f   generation.obj
 0001:00066720       ?adjust_pointers@Generation@@UAEXXZ 08067720 f   generation.obj
 0001:00066740       ?clear_remembered_set@CardGeneration@@UAEXXZ 08067740 f   generation.obj
 0001:00066760       ?collect@OneContigSpaceCardGeneration@@UAEX_N0I0@Z 08067760 f   generation.obj
 0001:000667b0       ?expand@OneContigSpaceCardGeneration@@MAE_NII@Z 080677b0 f   generation.obj
 0001:00066800       ?capacity@OneContigSpaceCardGeneration@@UBEIXZ 08067800 f   generation.obj
 0001:00066810       ?used_region@OneContigSpaceCardGeneration@@UBE?AVMemRegion@@XZ 08067810 f   generation.obj
 0001:00066830       ?grow_by@OneContigSpaceCardGeneration@@MAE_NI@Z 08067830 f   generation.obj
 0001:000668c0       ?shrink_by@OneContigSpaceCardGeneration@@IAEXI@Z 080678c0 f   generation.obj
 0001:00066930       ?object_iterate_since_last_GC@OneContigSpaceCardGeneration@@UAEXPAVObjectClosure@@@Z 08067930 f   generation.obj
 0001:00066980       ?younger_refs_iterate@OneContigSpaceCardGeneration@@UAEXPAVOopsInGenClosure@@@Z 08067980 f   generation.obj
 0001:000669d0       ?reset_saved_marks@OneContigSpaceCardGeneration@@UAEXXZ 080679d0 f   generation.obj
 0001:000669e0       ?no_allocs_since_save_marks@OneContigSpaceCardGeneration@@UAE_NXZ 080679e0 f   generation.obj
 0001:00066a00       ?oop_since_save_marks_iterate_v@OneContigSpaceCardGeneration@@UAEXPAVOopsInGenClosure@@@Z 08067a00 f   generation.obj
 0001:00066a50       ?oop_since_save_marks_iterate_nv@OneContigSpaceCardGeneration@@UAEXPAVScanClosure@@@Z 08067a50 f   generation.obj
 0001:00066aa0       ?oop_since_save_marks_iterate_nv@OneContigSpaceCardGeneration@@UAEXPAVFastScanClosure@@@Z 08067aa0 f   generation.obj
 0001:00066af0       ?oop_since_save_marks_iterate_nv@OneContigSpaceCardGeneration@@UAEXPAVParScanWithBarrierClosure@@@Z 08067af0 f   generation.obj
 0001:00066b40       ?oop_since_save_marks_iterate_nv@OneContigSpaceCardGeneration@@UAEXPAVParScanWithoutBarrierClosure@@@Z 08067b40 f   generation.obj
 0001:00066b90       ?gc_epilogue@OneContigSpaceCardGeneration@@UAEX_N@Z 08067b90 f   generation.obj
 0001:00066bc0       ?verify@OneContigSpaceCardGeneration@@UAEX_N@Z 08067bc0 f   generation.obj
 0001:00066be0       ?print_on@OneContigSpaceCardGeneration@@UBEXPAVoutputStream@@@Z 08067be0 f   generation.obj
 0001:00066c20       ??0Generation@@IAE@VReservedSpace@@IH@Z 08067c20 f   generation.obj
 0001:00066cc0       ?oop_since_save_marks_iterate_nv@Generation@@UAEXPAVScanClosure@@@Z 08067cc0 f i generation.obj
 0001:00066cc0       ?oop_since_save_marks_iterate_nv@Generation@@UAEXPAVParScanWithBarrierClosure@@@Z 08067cc0 f i generation.obj
 0001:00066cc0       ?oop_since_save_marks_iterate_nv@Generation@@UAEXPAVParScanWithoutBarrierClosure@@@Z 08067cc0 f i generation.obj
 0001:00066cc0       ?oop_since_save_marks_iterate_nv@Generation@@UAEXPAVFastScanClosure@@@Z 08067cc0 f i generation.obj
 0001:00066cd0       ?promote@Generation@@UAEPAVoopDesc@@PAV2@I@Z 08067cd0 f   generation.obj
 0001:00066d30       ??0CardGeneration@@IAE@VReservedSpace@@IHPAVGenRemSet@@@Z 08067d30 f   generation.obj
 0001:00066e80       ?expand_and_allocate@OneContigSpaceCardGeneration@@UAEPAVHeapWord@@I_N0@Z 08067e80 f   generation.obj
 0001:00066f40       ?shrink@OneContigSpaceCardGeneration@@IAEXI@Z 08067f40 f   generation.obj
 0001:00066f70       ??0PermanentGenerationSpec@@QAE@W4Name@PermGen@@IIIIII@Z 08067f70 f   generationSpec.obj
 0001:00067010       ?init@PermanentGenerationSpec@@QAEPAVPermGen@@VReservedSpace@@IPAVGenRemSet@@@Z 08068010 f   generationSpec.obj
 0001:000671d0       ?align@PermanentGenerationSpec@@QAEXI@Z 080681d0 f   generationSpec.obj
 0001:00067230       ??0ASConcurrentMarkSweepGeneration@@QAE@VReservedSpace@@IHPAVCardTableRS@@_NW4DictionaryChoice@FreeBlockDictionary@@@Z 08068230 f i generationSpec.obj
 0001:00067280       ?refs_discovery_is_mt@ConcurrentMarkSweepGeneration@@UBE_NXZ 08068280 f i generationSpec.obj
 0001:00067290       ?full_collects_younger_generations@ConcurrentMarkSweepGeneration@@UBE_NXZ 08068290 f i generationSpec.obj
 0001:000672b0       ?block_start@Space@@UAEPAVHeapWord@@PBX@Z 080682b0 f i compactingPermGenGen.obj
 0001:000672b0       ?par_allocate@ConcurrentMarkSweepGeneration@@UAEPAVHeapWord@@I_N@Z 080682b0 f i generationSpec.obj
 0001:000672c0       ?time_of_last_gc@ConcurrentMarkSweepGeneration@@UAE_J_J@Z 080682c0 f i generationSpec.obj
 0001:000672f0       ?update_time_of_last_gc@ConcurrentMarkSweepGeneration@@UAEX_J@Z 080682f0 f i generationSpec.obj
 0001:00067310       ?counters@ConcurrentMarkSweepGeneration@@UAEPAVCollectorCounters@@XZ 08068310 f i generationSpec.obj
 0001:00067320       ?get_data_recorder@ConcurrentMarkSweepGeneration@@UAEPAXH@Z 08068320 f i generationSpec.obj
 0001:00067330       ?short_name@ASConcurrentMarkSweepGeneration@@UBEPBDXZ 08068330 f i generationSpec.obj
 0001:00067340       ?type@oop_Relocation@@EAE?AW4relocType@relocInfo@@XZ 08068340 f i compiledIC.obj
 0001:00067340       ?numa_get_groups_num@os@@SAIXZ 08068340 f i os_windows.obj
 0001:00067340       ?kind@GCPolicyCounters@@UBE?AW4Name@1@XZ 08068340 f i gcPolicyCounters.obj
 0001:00067340       ?kind@TwoGenerationCollectorPolicy@@UAE?AW4Name@CollectorPolicy@@XZ 08068340 f i collectorPolicy.obj
 0001:00067340       ?kind@ASConcurrentMarkSweepGeneration@@UAE?AW4Name@Generation@@XZ 08068340 f i generationSpec.obj
 0001:00067340       ?n_covered_regions@GenerationSpec@@UBEHXZ 08068340 f i collectorPolicy.obj
 0001:00067340       ?type@VM_ThreadStop@@UBE?AW4VMOp_Type@VM_Operation@@XZ 08068340 f i thread.obj
 0001:00067340       ?cell_count@CounterData@@UAEHXZ 08068340 f i ciMethodData.obj
 0001:00067340       ?kind@CMSGCStats@@UAE?AW4Name@GCStats@@XZ 08068340 f i gcStats.obj
 0001:00067340       ?barrier_set_name@TwoGenerationCollectorPolicy@@UAE?AW4Name@BarrierSet@@XZ 08068340 f i collectorPolicy.obj
 0001:00067340       ?kind@CodeCacheMemoryManager@@UAE?AW4Name@MemoryManager@@XZ 08068340 f i memoryManager.obj
 0001:00067340       ?pd_breakpoint_size@Relocation@@KAHXZ 08068340 f i relocInfo_x86.obj
 0001:00067340       ?kind@PSAdaptiveSizePolicy@@MBE?AW4GCPolicyKind@AdaptiveSizePolicy@@XZ 08068340 f i psAdaptiveSizePolicy.obj
 0001:00067350       ?init@GenerationSpec@@QAEPAVGeneration@@VReservedSpace@@HPAVGenRemSet@@@Z 08068350 f   generationSpec.obj
 0001:000675e0       ?allocate_stacks@GenMarkSweep@@CAXXZ 080685e0 f   genMarkSweep.obj
 0001:00067640       ?do_generation@GenCompactClosure@@UAEXPAVGeneration@@@Z 08068640 f i genMarkSweep.obj
 0001:00067660       ?mark_sweep_phase2@GenMarkSweep@@CAXXZ 08068660 f   genMarkSweep.obj
 0001:000676d0       ?do_generation@GenAdjustPointersClosure@@UAEXPAVGeneration@@@Z 080686d0 f i genMarkSweep.obj
 0001:000676f0       ?mark_sweep_phase4@GenMarkSweep@@CAXXZ 080686f0 f   genMarkSweep.obj
 0001:00067760       ?mark_sweep_phase1@GenMarkSweep@@CAXH_N@Z 08068760 f   genMarkSweep.obj
 0001:00067870       ?free_segments@?$Stack@VObjArrayTask@@@@IAEXPAVObjArrayTask@@@Z 08068870 f i genMarkSweep.obj
 0001:000678c0       ?mark_sweep_phase3@GenMarkSweep@@CAXH@Z 080688c0 f   genMarkSweep.obj
 0001:00067a00       ?free_segments@?$Stack@PAVKlass@@@@IAEXPAPAVKlass@@@Z 08068a00 f i genMarkSweep.obj
 0001:00067a00       ?free_segments@?$Stack@PAVoopDesc@@@@IAEXPAPAVoopDesc@@@Z 08068a00 f i defNewGeneration.obj
 0001:00067a00       ?free_segments@?$Stack@PAVDataLayout@@@@IAEXPAPAVDataLayout@@@Z 08068a00 f i genMarkSweep.obj
 0001:00067a00       ?free_segments@?$Stack@PAVmarkOopDesc@@@@IAEXPAPAVmarkOopDesc@@@Z 08068a00 f i defNewGeneration.obj
 0001:00067a50       ?deallocate_stacks@GenMarkSweep@@CAXXZ 08068a50 f   genMarkSweep.obj
 0001:00067bf0       ?invoke_at_safepoint@GenMarkSweep@@SAXHPAVReferenceProcessor@@_N@Z 08068bf0 f   genMarkSweep.obj
 0001:00067de0       ?max_alignment_constraint@GenRemSet@@SAIW4Name@1@@Z 08068de0 f   genRemSet.obj
 0001:00067e10       ??0CodeHeap@@QAE@XZ        08068e10 f   heap.obj
 0001:00067e50       ?capacity@CodeHeap@@QBEIXZ 08068e50 f   heap.obj
 0001:00067e60       ?max_capacity@CodeHeap@@QBEIXZ 08068e60 f   heap.obj
 0001:00067e70       ?exact_log2@@YAHH@Z        08068e70 f i heap.obj
 0001:00067e90       ?expand_by@CodeHeap@@QAE_NI@Z 08068e90 f   heap.obj
 0001:00067f60       ?find_start@CodeHeap@@QBEPAXPAX@Z 08068f60 f   heap.obj
 0001:00067fc0       ?first_block@CodeHeap@@ABEPAVHeapBlock@@XZ 08068fc0 f   heap.obj
 0001:00067fe0       ?block_start@CodeHeap@@ABEPAVHeapBlock@@PAX@Z 08068fe0 f   heap.obj
 0001:00068000       ?next_block@CodeHeap@@ABEPAVHeapBlock@@PAV2@@Z 08069000 f   heap.obj
 0001:00068040       ?allocated_capacity@CodeHeap@@QBEIXZ 08069040 f   heap.obj
 0001:00068070       ?largest_free_block@CodeHeap@@QBEIXZ 08069070 f   heap.obj
 0001:000680f0       ?merge_right@CodeHeap@@AAEXPAVFreeBlock@@@Z 080690f0 f   heap.obj
 0001:00068150       ?search_freelist@CodeHeap@@AAEPAVFreeBlock@@I@Z 08069150 f   heap.obj
 0001:00068240       ?verify@CodeHeap@@QAEXXZ   08069240 f   heap.obj
 0001:000682b0       ?reserve@CodeHeap@@QAE_NIII@Z 080692b0 f   heap.obj
 0001:00068440       ?allocate@CodeHeap@@QAEPAXI@Z 08069440 f   heap.obj
 0001:000684d0       ?next_free@CodeHeap@@ABEPAXPAVHeapBlock@@@Z 080694d0 f   heap.obj
 0001:00068520       ?add_to_freelist@CodeHeap@@AAEXPAVHeapBlock@@@Z 08069520 f   heap.obj
 0001:000685a0       ?deallocate@CodeHeap@@QAEXPAX@Z 080695a0 f   heap.obj
 0001:000685c0       ?lookup@KlassInfoTable@@AAEPAVKlassInfoEntry@@QAVklassOopDesc@@@Z 080695c0 f   heapInspection.obj
 0001:00068620       ?iterate@KlassInfoTable@@QAEXPAVKlassInfoClosure@@@Z 08069620 f   heapInspection.obj
 0001:00068660       ?sort_helper@KlassInfoHisto@@CAHPAPAVKlassInfoEntry@@0@Z 08069660 f   heapInspection.obj
 0001:00068690       ??1KlassInfoTable@@QAE@XZ  08069690 f   heapInspection.obj
 0001:000686e0       ?find_instances_at_safepoint@HeapInspection@@SAXPAVklassOopDesc@@PAV?$GrowableArray@PAVoopDesc@@@@@Z 080696e0 f   heapInspection.obj
 0001:00068730       ??0KlassInfoHisto@@QAE@PBDH@Z 08069730 f   heapInspection.obj
 0001:000687b0       ?print_elements@KlassInfoHisto@@ABEXPAVoutputStream@@@Z 080697b0 f   heapInspection.obj
 0001:00068a20       ?do_object@RecordInstanceClosure@@UAEXPAVoopDesc@@@Z 08069a20 f i heapInspection.obj
 0001:00068a60       ?do_cinfo@HistoClosure@@UAEXPAVKlassInfoEntry@@@Z 08069a60 f i heapInspection.obj
 0001:00068a90       ?do_object@FindInstanceClosure@@UAEXPAVoopDesc@@@Z 08069a90 f i heapInspection.obj
 0001:00068ae0       ?heap_inspection@HeapInspection@@SAXPAVoutputStream@@_N@Z 08069ae0 f   heapInspection.obj
 0001:00068d30       ?do_void@VoidClosure@@UAEXXZ 08069d30 f   iterator.obj
 0001:00068d50       ??0MarkScope@MarkingCodeBlobClosure@@QAE@_N@Z 08069d50 f   iterator.obj
 0001:00068d70       ??1MarkScope@MarkingCodeBlobClosure@@QAE@XZ 08069d70 f   iterator.obj
 0001:00068d80       ?do_newly_marked_nmethod@CodeBlobToOopClosure@@UAEXPAVnmethod@@@Z 08069d80 f   iterator.obj
 0001:00068da0       ?do_code_blob@MarkingCodeBlobClosure@@UAEXPAVCodeBlob@@@Z 08069da0 f   iterator.obj
 0001:00068de0       ?do_code_blob@CodeBlobToOopClosure@@UAEXPAVCodeBlob@@@Z 08069de0 f   iterator.obj
 0001:00068e50       ?do_object@ObjectToOopClosure@@UAEXPAVoopDesc@@@Z 08069e50 f   iterator.obj
 0001:00068e80       ?intersection@MemRegion@@QBE?AV1@V1@@Z 08069e80 f   memRegion.obj
 0001:00068ed0       ?_union@MemRegion@@QBE?AV1@V1@@Z 08069ed0 f   memRegion.obj
 0001:00068f40       ?minus@MemRegion@@QBE?AV1@V1@@Z 08069f40 f   memRegion.obj
 0001:00069020       ?common_permanent_mem_allocate_noinit@CollectedHeap@@KAPAVHeapWord@@IPAVThread@@@Z 0806a020 f i oopFactory.obj
 0001:00069090       ?new_permanent_charArray@oopFactory@@SAPAVtypeArrayOopDesc@@HPAVThread@@@Z 0806a090 f   oopFactory.obj
 0001:000690b0       ?new_permanent_byteArray@oopFactory@@SAPAVtypeArrayOopDesc@@HPAVThread@@@Z 0806a0b0 f   oopFactory.obj
 0001:000690d0       ?new_permanent_shortArray@oopFactory@@SAPAVtypeArrayOopDesc@@HPAVThread@@@Z 0806a0d0 f   oopFactory.obj
 0001:000690f0       ?new_permanent_intArray@oopFactory@@SAPAVtypeArrayOopDesc@@HPAVThread@@@Z 0806a0f0 f   oopFactory.obj
 0001:00069110       ?new_typeArray@oopFactory@@SAPAVtypeArrayOopDesc@@W4BasicType@@HPAVThread@@@Z 0806a110 f   oopFactory.obj
 0001:00069130       ?new_objArray@oopFactory@@SAPAVobjArrayOopDesc@@PAVklassOopDesc@@HPAVThread@@@Z 0806a130 f   oopFactory.obj
 0001:00069180       ?new_constantPool@oopFactory@@SAPAVconstantPoolOopDesc@@H_NPAVThread@@@Z 0806a180 f   oopFactory.obj
 0001:000691a0       ?new_constantPoolCache@oopFactory@@SAPAVconstantPoolCacheOopDesc@@HPAVThread@@@Z 0806a1a0 f   oopFactory.obj
 0001:000691c0       ?new_instanceKlass@oopFactory@@SAPAVklassOopDesc@@PAVSymbol@@HHHIW4ReferenceType@@PAVThread@@@Z 0806a1c0 f   oopFactory.obj
 0001:000691f0       ?new_methodData@oopFactory@@SAPAVmethodDataOopDesc@@VmethodHandle@@PAVThread@@@Z 0806a1f0 f   oopFactory.obj
 0001:00069210       ?detect_low_memory_for_collected_pools@LowMemoryDetector@@SAXXZ 0806a210 f i oopFactory.obj
 0001:00069290       ?new_method@oopFactory@@SAPAVmethodOopDesc@@HVAccessFlags@@HHH_NPAVThread@@@Z 0806a290 f   oopFactory.obj
 0001:00069340       ?new_charArray@oopFactory@@SAPAVtypeArrayOopDesc@@PBDPAVThread@@@Z 0806a340 f   oopFactory.obj
 0001:000693a0       ?new_compiledICHolder@oopFactory@@SAPAVcompiledICHolderOopDesc@@VmethodHandle@@VKlassHandle@@PAVThread@@@Z 0806a3a0 f   oopFactory.obj
 0001:00069420       ?post_allocation_setup_array@CollectedHeap@@KAXVKlassHandle@@PAVHeapWord@@IH@Z 0806a420 f i oopFactory.obj
 0001:00069480       ?permanent_array_allocate@CollectedHeap@@SAPAVoopDesc@@VKlassHandle@@HHPAVThread@@@Z 0806a480 f i oopFactory.obj
 0001:000694e0       ?new_system_objArray@oopFactory@@SAPAVobjArrayOopDesc@@HPAVThread@@@Z 0806a4e0 f   oopFactory.obj
 0001:000695c0       ?request_expand_and_allocate@PermGen@@MAEPAVHeapWord@@PAVGeneration@@IW4Cause@GCCause@@@Z 0806a5c0 f   permGen.obj
 0001:00069610       ?oop_iterate@PermGen@@UAEXPAVOopClosure@@@Z 0806a610 f i permGen.obj
 0001:00069630       ?object_iterate@PermGen@@UAEXPAVObjectClosure@@@Z 0806a630 f i permGen.obj
 0001:00069650       ?update_counters@PermGen@@UAEXXZ 0806a650 f i permGen.obj
 0001:00069670       ?type@VM_GenCollectForPermanentAllocation@@UBE?AW4VMOp_Type@VM_Operation@@XZ 0806a670 f i permGen.obj
 0001:00069680       ??0CompactingPermGen@@QAE@VReservedSpace@@0IPAVGenRemSet@@PAVPermanentGenerationSpec@@@Z 0806a680 f   permGen.obj
 0001:00069740       ?compute_new_size@CompactingPermGen@@UAEXXZ 0806a740 f   permGen.obj
 0001:000697b0       ?mem_allocate_in_gen@PermGen@@IAEPAVHeapWord@@IPAVGeneration@@@Z 0806a7b0 f   permGen.obj
 0001:00069990       ?mem_allocate@CompactingPermGen@@UAEPAVHeapWord@@I@Z 0806a990 f   permGen.obj
 0001:000699b0       ?should_clear_reference@LRUCurrentHeapPolicy@@UAE_NPAVoopDesc@@@Z 0806a9b0 f   referencePolicy.obj
 0001:000699b0       ?should_clear_reference@LRUMaxHeapPolicy@@UAE_NPAVoopDesc@@@Z 0806a9b0 f   referencePolicy.obj
 0001:000699f0       ?should_clear_reference@ReferencePolicy@@UAE_NPAVoopDesc@@@Z 0806a9f0 f i referencePolicy.obj
 0001:00069a10       ?setup@LRUCurrentHeapPolicy@@UAEXXZ 0806aa10 f   referencePolicy.obj
 0001:00069a30       ?setup@LRUMaxHeapPolicy@@UAEXXZ 0806aa30 f   referencePolicy.obj
 0001:00069a50       ??0LRUCurrentHeapPolicy@@QAE@XZ 0806aa50 f   referencePolicy.obj
 0001:00069a80       ?weak_oops_do@ReferenceProcessor@@QAEXPAVOopClosure@@@Z 0806aa80 f   referenceProcessor.obj
 0001:00069ac0       ??0ReferenceProcessor@@QAE@VMemRegion@@_NH1H1PAVBoolObjectClosure@@1@Z 0806aac0 f   referenceProcessor.obj
 0001:00069be0       ?oops_do@ReferenceProcessor@@SAXPAVOopClosure@@@Z 0806abe0 f   referenceProcessor.obj
 0001:00069c00       ?init_statics@ReferenceProcessor@@SAXXZ 0806ac00 f   referenceProcessor.obj
 0001:00069cf0       ?pp2_work@ReferenceProcessor@@QAEXAAVDiscoveredList@@PAVBoolObjectClosure@@PAVOopClosure@@@Z 0806acf0 f   referenceProcessor.obj
 0001:00069d70       ?pp2_work_concurrent_discovery@ReferenceProcessor@@QAEXAAVDiscoveredList@@PAVBoolObjectClosure@@PAVOopClosure@@PAVVoidClosure@@@Z 0806ad70 f   referenceProcessor.obj
 0001:00069e20       ?process_phase3@ReferenceProcessor@@QAEXAAVDiscoveredList@@_NPAVBoolObjectClosure@@PAVOopClosure@@PAVVoidClosure@@@Z 0806ae20 f   referenceProcessor.obj
 0001:00069ef0       ?abandon_partial_discovery@ReferenceProcessor@@QAEXXZ 0806aef0 f   referenceProcessor.obj
 0001:00069f70       ?work@RefProcPhase3Task@@UAEXIAAVBoolObjectClosure@@AAVOopClosure@@AAVVoidClosure@@@Z 0806af70 f i referenceProcessor.obj
 0001:00069fa0       ?clean_up_discovered_reflist@ReferenceProcessor@@QAEXAAVDiscoveredList@@@Z 0806afa0 f   referenceProcessor.obj
 0001:0006a010       ?get_discovered_list@ReferenceProcessor@@IAEPAVDiscoveredList@@W4ReferenceType@@@Z 0806b010 f i referenceProcessor.obj
 0001:0006a0e0       ?add_to_discovered_list_mt@ReferenceProcessor@@IAEXAAVDiscoveredList@@PAVoopDesc@@PAVHeapWord@@@Z 0806b0e0 f i referenceProcessor.obj
 0001:0006a1a0       ?discover_reference@ReferenceProcessor@@QAE_NPAVoopDesc@@W4ReferenceType@@@Z 0806b1a0 f   referenceProcessor.obj
 0001:0006a310       ?preclean_discovered_reflist@ReferenceProcessor@@IAEXAAVDiscoveredList@@PAVBoolObjectClosure@@PAVOopClosure@@PAVVoidClosure@@PAVYieldClosure@@@Z 0806b310 f   referenceProcessor.obj
 0001:0006a3d0       ?verify@ReferenceProcessor@@SAXXZ 0806b3d0 f   referenceProcessor.obj
 0001:0006a4a0       ?referenceProcessor_init@@YAXXZ 0806b4a0 f   referenceProcessor.obj
 0001:0006a4b0       ?work@RefProcPhase2Task@@UAEXIAAVBoolObjectClosure@@AAVOopClosure@@AAVVoidClosure@@@Z 0806b4b0 f i referenceProcessor.obj
 0001:0006a4f0       ?clean_up_discovered_references@ReferenceProcessor@@QAEXXZ 0806b4f0 f   referenceProcessor.obj
 0001:0006a530       ?preclean_discovered_references@ReferenceProcessor@@QAEXPAVBoolObjectClosure@@PAVOopClosure@@PAVVoidClosure@@PAVYieldClosure@@_N@Z 0806b530 f   referenceProcessor.obj
 0001:0006a750       ?enqueue_discovered_reflist@ReferenceProcessor@@QAEXAAVDiscoveredList@@PAVHeapWord@@@Z 0806b750 f   referenceProcessor.obj
 0001:0006a860       ?work@RefProcEnqueueTask@@UAEXI@Z 0806b860 f i referenceProcessor.obj
 0001:0006aa50       ?enqueue_discovered_reflists@ReferenceProcessor@@QAEXPAVHeapWord@@PAVAbstractRefProcTaskExecutor@@@Z 0806ba50 f   referenceProcessor.obj
 0001:0006aaf0       ?process_phase1@ReferenceProcessor@@QAEXAAVDiscoveredList@@PAVReferencePolicy@@PAVBoolObjectClosure@@PAVOopClosure@@PAVVoidClosure@@@Z 0806baf0 f   referenceProcessor.obj
 0001:0006aba0       ?work@RefProcPhase1Task@@UAEXIAAVBoolObjectClosure@@AAVOopClosure@@AAVVoidClosure@@@Z 0806bba0 f i referenceProcessor.obj
 0001:0006abe0       ?balance_queues@ReferenceProcessor@@IAEXQAVDiscoveredList@@@Z 0806bbe0 f   referenceProcessor.obj
 0001:0006ad70       ?balance_all_queues@ReferenceProcessor@@QAEXXZ 0806bd70 f   referenceProcessor.obj
 0001:0006ada0       ?process_discovered_reflist@ReferenceProcessor@@QAEXQAVDiscoveredList@@PAVReferencePolicy@@_NPAVBoolObjectClosure@@PAVOopClosure@@PAVVoidClosure@@PAVAbstractRefProcTaskExecutor@@@Z 0806bda0 f   referenceProcessor.obj
 0001:0006af80       ?process_discovered_references@ReferenceProcessor@@QAEXPAVBoolObjectClosure@@PAVOopClosure@@PAVVoidClosure@@PAVAbstractRefProcTaskExecutor@@@Z 0806bf80 f   referenceProcessor.obj
 0001:0006b130       ?enqueue_discovered_references@ReferenceProcessor@@QAE_NPAVAbstractRefProcTaskExecutor@@@Z 0806c130 f   referenceProcessor.obj
 0001:0006b170       ?resource_allocate_bytes@@YAPADPAVThread@@I@Z 0806c170 f   resourceArea.obj
 0001:0006b1c0       ?resource_allocate_bytes@@YAPADI@Z 0806c1c0 f   resourceArea.obj
 0001:0006b220       ?resource_reallocate_bytes@@YAPADPADII@Z 0806c220 f   resourceArea.obj
 0001:0006b250       ?resource_free_bytes@@YAXPADI@Z 0806c250 f   resourceArea.obj
 0001:0006b280       ?do_oop@ReadClosure@@UAEXPAI@Z 0806c280 f i restore.obj
 0001:0006b2a0       ?do_ptr@ReadClosure@@UAEXPAPAVHeapWord@@@Z 0806c2a0 f i restore.obj
 0001:0006b2a0       ?do_ptr@WriteClosure@@UAEXPAPAVHeapWord@@@Z 0806c2a0 f i dump.obj
 0001:0006b2b0       ?do_oop@ReadClosure@@UAEXPAPAVoopDesc@@@Z 0806c2b0 f i restore.obj
 0001:0006b2b0       ?do_int@ReadClosure@@UAEXPAH@Z 0806c2b0 f i restore.obj
 0001:0006b2b0       ?do_size_t@ReadClosure@@UAEXPAI@Z 0806c2b0 f i restore.obj
 0001:0006b2b0       ?do_ptr@ReadClosure@@UAEXPAPAX@Z 0806c2b0 f i restore.obj
 0001:0006b2d0       ?do_tag@ReadClosure@@UAEXH@Z 0806c2d0 f i restore.obj
 0001:0006b300       ?do_region@ReadClosure@@UAEXPAEI@Z 0806c300 f i restore.obj
 0001:0006b340       ?initialize_oops@CompactingPermGenGen@@SAXXZ 0806c340 f   restore.obj
 0001:0006b480       ?serialize_oops@CompactingPermGenGen@@SAXPAVSerializeOopClosure@@@Z 0806c480 f   serialize.obj
 0001:0006b630       ?set_par_threads@SharedHeap@@UAEXH@Z 0806c630 f   sharedHeap.obj
 0001:0006b650       ??0StrongRootsScope@SharedHeap@@QAE@PAV1@_N@Z 0806c650 f   sharedHeap.obj
 0001:0006b680       ?post_initialize@SharedHeap@@UAEXXZ 0806c680 f   sharedHeap.obj
 0001:0006b690       ?do_oop@AssertIsPermClosure@@UAEXPAI@Z 0806c690 f i sharedHeap.obj
 0001:0006b6b0       ?process_strong_roots@SharedHeap@@QAEX_N0W4ScanningOption@1@PAVOopClosure@@PAVCodeBlobClosure@@PAVOopsInGenClosure@@@Z 0806c6b0 f   sharedHeap.obj
 0001:0006b870       ?do_object@AlwaysTrueClosure@@UAEXPAVoopDesc@@@Z 0806c870 f i sharedHeap.obj
 0001:0006b890       ?oop_is_conc_safe@Klass@@UBE_NPAVoopDesc@@@Z 0806c890 f i universe.obj
 0001:0006b890       ?should_clear_reference@AlwaysClearPolicy@@UAE_NPAVoopDesc@@@Z 0806c890 f i referenceProcessor.obj
 0001:0006b890       ?obj_is_alive@Space@@UBE_NPBVHeapWord@@@Z 0806c890 f i space.obj
 0001:0006b890       ?do_object_b@AlwaysTrueClosure@@UAE_NPAVoopDesc@@@Z 0806c890 f i sharedHeap.obj
 0001:0006b890       ?verify@PcDesc@@QAE_NPAVnmethod@@@Z 0806c890 f i pcDesc.obj
 0001:0006b890       ?do_object_b@PSAlwaysTrueClosure@@UAE_NPAVoopDesc@@@Z 0806c890 f i psMarkSweep.obj
 0001:0006b890       ?do_object_b@AlwaysAliveClosure@@UAE_NPAVoopDesc@@@Z 0806c890 f i jniHandles.obj
 0001:0006b890       ?oop_is_parsable@Klass@@UBE_NPAVoopDesc@@@Z 0806c890 f i universe.obj
 0001:0006b8a0       ?do_oop@SkipAdjustingSharedStrings@@UAEXPAI@Z 0806c8a0 f i sharedHeap.obj
 0001:0006b8c0       ?do_oop@SkipAdjustingSharedStrings@@UAEXPAPAVoopDesc@@@Z 0806c8c0 f i sharedHeap.obj
 0001:0006b8f0       ?process_weak_roots@SharedHeap@@QAEXPAVOopClosure@@PAVCodeBlobClosure@@0@Z 0806c8f0 f   sharedHeap.obj
 0001:0006b960       ?set_barrier_set@SharedHeap@@QAEXPAVBarrierSet@@@Z 0806c960 f   sharedHeap.obj
 0001:0006b980       ?ref_processing_init@SharedHeap@@UAEXXZ 0806c980 f   sharedHeap.obj
 0001:0006b9a0       ?print_size_transition@SharedHeap@@QAEXPAVoutputStream@@III@Z 0806c9a0 f   sharedHeap.obj
 0001:0006ba80       ?active_workers@FlexibleWorkGang@@UBEHXZ 0806ca80 f i sharedHeap.obj
 0001:0006ba90       ??0SharedHeap@@IAE@PAVCollectorPolicy@@@Z 0806ca90 f   sharedHeap.obj
 0001:0006bb90       ?is_in@Space@@UBE_NPBX@Z   0806cb90 f   space.obj
 0001:0006bbd0       ?is_in@ContiguousSpace@@UBE_NPBX@Z 0806cbd0 f   space.obj
 0001:0006bbf0       ?is_free_block@ContiguousSpace@@UBE_NPBVHeapWord@@@Z 0806cbf0 f   space.obj
 0001:0006bc00       ?print_short@Space@@UBEXXZ 0806cc00 f   space.obj
 0001:0006bc20       ?print@CompactibleFreeListSpace@@UBEXXZ 0806cc20 f   compactibleFreeListSpace.obj
 0001:0006bc20       ?print@Space@@UBEXXZ       0806cc20 f   space.obj
 0001:0006bc40       ?safe_object_iterate@ContiguousSpace@@UAEXPAVObjectClosure@@@Z 0806cc40 f   space.obj
 0001:0006bc50       ?initialize_threshold@OffsetTableContigSpace@@UAEPAVHeapWord@@XZ 0806cc50 f   space.obj
 0001:0006bc60       ?serialize_block_offset_array_offsets@OffsetTableContigSpace@@QAEXPAVSerializeOopClosure@@@Z 0806cc60 f   space.obj
 0001:0006bc70       ?allowed_dead_ratio@TenuredSpace@@MBEIXZ 0806cc70 f   space.obj
 0001:0006bc80       ?allowed_dead_ratio@ContigPermSpace@@MBEIXZ 0806cc80 f   space.obj
 0001:0006bc90       ?alloc_block@BlockOffsetArrayContigSpace@@UAEXPAVHeapWord@@0@Z 0806cc90 f i space.obj
 0001:0006bcb0       ?used_region@Space@@UBE?AVMemRegion@@XZ 0806ccb0 f i space.obj
 0001:0006bcd0       ?update_minor_pause_old_estimator@CMSAdaptiveSizePolicy@@MAEXN@Z 0806ccd0 f i cmsAdaptiveSizePolicy.obj
 0001:0006bcd0       ?post_initialize@ProfileData@@UAEXPAVBytecodeStream@@PAVmethodDataOopDesc@@@Z 0806ccd0 f i ciMethodData.obj
 0001:0006bcd0       ?write_ref_field_pre_work@BarrierSet@@MAEXPAIPAVoopDesc@@@Z 0806ccd0 f i cardTableModRefBS.obj
 0001:0006bcd0       ?update_gc_stats@Generation@@UAEXH_N@Z 0806ccd0 f i compactingPermGenGen.obj
 0001:0006bcd0       ?mangle_region@MutableSpace@@UAEXVMemRegion@@@Z 0806ccd0 f i mutableSpace.obj
 0001:0006bcd0       ?oop_push_contents@constMethodKlass@@UAEXPAVPSPromotionManager@@PAVoopDesc@@@Z 0806ccd0 f i constMethodKlass.obj
 0001:0006bcd0       ?read_region@ModRefBarrierSet@@UAEXVMemRegion@@@Z 0806ccd0 f i cardTableModRefBS.obj
 0001:0006bcd0       ?do_it@NoopGCTask@@UAEXPAVGCTaskManager@@I@Z 0806ccd0 f i gcTaskManager.obj
 0001:0006bcd0       ?mangle_region@MutableNUMASpace@@UAEXVMemRegion@@@Z 0806ccd0 f i mutableNUMASpace.obj
 0001:0006bcd0       ?read_ref_array@ModRefBarrierSet@@UAEXVMemRegion@@@Z 0806ccd0 f i cardTableModRefBS.obj
 0001:0006bcd0       ?print_block_comment@CodeBlob@@UAEXPAVoutputStream@@PAE@Z 0806ccd0 f i codeBlob.obj
 0001:0006bcd0       ?oop_follow_contents@typeArrayKlass@@UAEXPAVParCompactionManager@@PAVoopDesc@@@Z 0806ccd0 f i typeArrayKlass.obj
 0001:0006bcd0       ?check_for_bad_heap_word_value@CollectedHeap@@MAEXPAVHeapWord@@I@Z 0806ccd0 f i collectedHeap.obj
 0001:0006bcd0       ?mangle_region@ContiguousSpace@@UAEXVMemRegion@@@Z 0806ccd0 f i compactingPermGenGen.obj
 0001:0006bcd0       ?dispatch_prolog@InterpreterMacroAssembler@@QAEXW4TosState@@H@Z 0806ccd0 f i interp_masm_x86_32.obj
 0001:0006bcd0       ?write_ref_field_pre_work@BarrierSet@@MAEXPAPAVoopDesc@@PAV2@@Z 0806ccd0 f i cardTableModRefBS.obj
 0001:0006bcd0       ?oop_push_contents@methodDataKlass@@UAEXPAVPSPromotionManager@@PAVoopDesc@@@Z 0806ccd0 f i methodDataKlass.obj
 0001:0006bcd0       ?fix_relocation_after_move@poll_return_Relocation@@EAEXPBVCodeBuffer@@PAV2@@Z 0806ccd0 f i relocInfo_x86.obj
 0001:0006bcd0       ?fix_relocation_after_move@Relocation@@UAEXPBVCodeBuffer@@PAV2@@Z 0806ccd0 f i compiledIC.obj
 0001:0006bcd0       ?mangle_region@Space@@UAEXVMemRegion@@@Z 0806ccd0 f i space.obj
 0001:0006bcd0       ?check_for_non_bad_heap_word_value@GenCollectedHeap@@EAEXPAVHeapWord@@I@Z 0806ccd0 f i genCollectedHeap.obj
 0001:0006bcd0       ?oop_push_contents@methodKlass@@UAEXPAVPSPromotionManager@@PAVoopDesc@@@Z 0806ccd0 f i methodKlass.obj
 0001:0006bcd0       ?verify_oop@MacroAssembler@@QAEXPAVRegisterImpl@@PBD@Z 0806ccd0 f i assembler_x86.obj
 0001:0006bcd0       ?write_prim_array@ModRefBarrierSet@@UAEXVMemRegion@@@Z 0806ccd0 f i cardTableModRefBS.obj
 0001:0006bcd0       ?read_prim_array@ModRefBarrierSet@@UAEXVMemRegion@@@Z 0806ccd0 f i cardTableModRefBS.obj
 0001:0006bcd0       ?see_tag@xmlStream@@MAEXPBD_N@Z 0806ccd0 f i compileLog.obj
 0001:0006bcd0       ?read_prim_field@ModRefBarrierSet@@UAEXPAVHeapWord@@I@Z 0806ccd0 f i cardTableModRefBS.obj
 0001:0006bcd0       ?oop_push_contents@compiledICHolderKlass@@UAEXPAVPSPromotionManager@@PAVoopDesc@@@Z 0806ccd0 f i compiledICHolderKlass.obj
 0001:0006bcd0       ?oop_push_contents@typeArrayKlass@@UAEXPAVPSPromotionManager@@PAVoopDesc@@@Z 0806ccd0 f i typeArrayKlass.obj
 0001:0006bcd0       ?fix_relocation_after_move@poll_Relocation@@EAEXPBVCodeBuffer@@PAV2@@Z 0806ccd0 f i relocInfo_x86.obj
 0001:0006bcd0       ?check_for_non_bad_heap_word_value@CollectedHeap@@MAEXPAVHeapWord@@I@Z 0806ccd0 f i collectedHeap.obj
 0001:0006bcd0       ?fix_relocation_after_move@breakpoint_Relocation@@UAEXPBVCodeBuffer@@PAV2@@Z 0806ccd0 f i relocInfo.obj
 0001:0006bcd0       ?update_minor_pause_old_estimator@AdaptiveSizePolicy@@MAEXN@Z 0806ccd0 f i adaptiveSizePolicy.obj
 0001:0006bce0       ?top@GenSpaceMangler@@EBEPAVHeapWord@@XZ 0806cce0 f i space.obj
 0001:0006bcf0       ?do_MemRegion@DirtyCardToOopClosure@@UAEXVMemRegion@@@Z 0806ccf0 f   space.obj
 0001:0006bdb0       ?walk_mem_region@Filtering_DCTOC@@MAEXVMemRegion@@PAVHeapWord@@1@Z 0806cdb0 f   space.obj
 0001:0006be30       ?initialize@Space@@UAEXVMemRegion@@_N1@Z 0806ce30 f   space.obj
 0001:0006be70       ??1ContiguousSpace@@QAE@XZ 0806ce70 f   space.obj
 0001:0006be90       ?set_end@OffsetTableContigSpace@@UAEXPAVHeapWord@@@Z 0806ce90 f   space.obj
 0001:0006bec0       ?initialize@CompactibleSpace@@UAEXVMemRegion@@_N1@Z 0806cec0 f   space.obj
 0001:0006bf10       ?clear@CompactibleSpace@@UAEX_N@Z 0806cf10 f   space.obj
 0001:0006bf20       ?insert_deadspace@CompactibleSpace@@IAE_NAAIPAVHeapWord@@I@Z 0806cf20 f   space.obj
 0001:0006bf70       ?prepare_for_compaction@CompactibleSpace@@UAEXPAVCompactPoint@@@Z 0806cf70 f   space.obj
 0001:0006c180       ?print_short_on@Space@@UBEXPAVoutputStream@@@Z 0806d180 f   space.obj
 0001:0006c1f0       ?print_on@Space@@UBEXPAVoutputStream@@@Z 0806d1f0 f   space.obj
 0001:0006c230       ?print_on@ContiguousSpace@@UBEXPAVoutputStream@@@Z 0806d230 f   space.obj
 0001:0006c270       ?print_on@OffsetTableContigSpace@@UBEXPAVoutputStream@@@Z 0806d270 f   space.obj
 0001:0006c2b0       ?object_iterate_careful@Space@@UAEPAVHeapWord@@PAVObjectClosureCareful@@@Z 0806d2b0 f   space.obj
 0001:0006c2e0       ?object_iterate_careful_m@Space@@UAEPAVHeapWord@@VMemRegion@@PAVObjectClosureCareful@@@Z 0806d2e0 f   space.obj
 0001:0006c310       ?object_iterate_mem@Space@@UAEXVMemRegion@@PAVUpwardsObjectClosure@@@Z 0806d310 f   space.obj
 0001:0006c3c0       ?object_iterate@ContiguousSpace@@UAEXPAVObjectClosure@@@Z 0806d3c0 f   space.obj
 0001:0006c3f0       ?object_iterate_careful@ContiguousSpace@@UAEPAVHeapWord@@PAVObjectClosureCareful@@@Z 0806d3f0 f   space.obj
 0001:0006c430       ?par_allocate_impl@ContiguousSpace@@IAEPAVHeapWord@@IPAV2@@Z 0806d430 f i space.obj
 0001:0006c4b0       ?allocate@ContiguousSpace@@UAEPAVHeapWord@@I@Z 0806d4b0 f   space.obj
 0001:0006c4e0       ?par_allocate@ContiguousSpace@@UAEPAVHeapWord@@I@Z 0806d4e0 f   space.obj
 0001:0006c500       ?allocate@EdenSpace@@UAEPAVHeapWord@@I@Z 0806d500 f   space.obj
 0001:0006c530       ?par_allocate@EdenSpace@@UAEPAVHeapWord@@I@Z 0806d530 f   space.obj
 0001:0006c550       ?cross_threshold@OffsetTableContigSpace@@UAEPAVHeapWord@@PAV2@0@Z 0806d550 f   space.obj
 0001:0006c580       ?do_oop@VerifyOldOopClosure@@UAEXPAPAVoopDesc@@@Z 0806d580 f i space.obj
 0001:0006c5a0       ?do_oop@VerifyOldOopClosure@@UAEXPAI@Z 0806d5a0 f i space.obj
 0001:0006c5c0       ?oop_iterate@oopDesc@@QAEHPAVMarkRefsIntoAndScanClosure@@@Z 0806d5c0 f i space.obj
 0001:0006c5f0       ?do_oop@SpaceMemRegionOopsIterClosure@@UAEXPAPAVoopDesc@@@Z 0806d5f0 f   space.obj
 0001:0006c620       ?do_oop@SpaceMemRegionOopsIterClosure@@UAEXPAI@Z 0806d620 f   space.obj
 0001:0006c650       ?get_actual_top@DirtyCardToOopClosure@@MAEPAVHeapWord@@PAV2@0@Z 0806d650 f   space.obj
 0001:0006c6b0       ?walk_mem_region@DirtyCardToOopClosure@@MAEXVMemRegion@@PAVHeapWord@@1@Z 0806d6b0 f   space.obj
 0001:0006c730       ?get_actual_top@ContiguousSpaceDCTOC@@MAEPAVHeapWord@@PAV2@0@Z 0806d730 f   space.obj
 0001:0006c7a0       ?walk_mem_region_with_cl@ContiguousSpaceDCTOC@@MAEXVMemRegion@@PAVHeapWord@@1PAVOopClosure@@@Z 0806d7a0 f   space.obj
 0001:0006c880       ?walk_mem_region_with_cl@ContiguousSpaceDCTOC@@MAEXVMemRegion@@PAVHeapWord@@1PAVFilteringClosure@@@Z 0806d880 f   space.obj
 0001:0006c960       ??0ContiguousSpace@@QAE@XZ 0806d960 f   space.obj
 0001:0006c9c0       ?initialize@ContiguousSpace@@UAEXVMemRegion@@_N1@Z 0806d9c0 f   space.obj
 0001:0006ca20       ?clear@ContiguousSpace@@UAEX_N@Z 0806da20 f   space.obj
 0001:0006ca40       ?clear@OffsetTableContigSpace@@UAEX_N@Z 0806da40 f   space.obj
 0001:0006ca70       ?prepare_for_compaction@ContiguousSpace@@UAEXPAVCompactPoint@@@Z 0806da70 f   space.obj
 0001:0006cce0       ?adjust_pointers@Space@@UAEXXZ 0806dce0 f   space.obj
 0001:0006cd30       ?adjust_pointers@CompactibleSpace@@UAEXXZ 0806dd30 f   space.obj
 0001:0006ce00       ?verify@ContiguousSpace@@UBEX_N@Z 0806de00 f   space.obj
 0001:0006cef0       ?oop_iterate@Space@@UAEXPAVOopClosure@@@Z 0806def0 f   space.obj
 0001:0006cf20       ?object_iterate_mem@ContiguousSpace@@UAEXVMemRegion@@PAVUpwardsObjectClosure@@@Z 0806df20 f   space.obj
 0001:0006cff0       ?par_oop_iterate@ContiguousSpace@@QAEXVMemRegion@@PAVPar_MarkRefsIntoAndScanClosure@@@Z 0806dff0 f   space.obj
 0001:0006d040       ?oop_iterate@ContiguousSpace@@UAEXPAVOopClosure@@@Z 0806e040 f   space.obj
 0001:0006d090       ?oop_iterate@ContiguousSpace@@UAEXVMemRegion@@PAVOopClosure@@@Z 0806e090 f   space.obj
 0001:0006d200       ?object_iterate_from@ContiguousSpace@@UAEXVWaterMark@@PAVObjectClosure@@@Z 0806e200 f   space.obj
 0001:0006d280       ?oop_since_save_marks_iterate_v@ContiguousSpace@@QAEXPAVOopsInGenClosure@@@Z 0806e280 f   space.obj
 0001:0006d2e0       ?oop_since_save_marks_iterate_nv@ContiguousSpace@@QAEXPAVScanClosure@@@Z 0806e2e0 f   space.obj
 0001:0006d340       ?oop_since_save_marks_iterate_nv@ContiguousSpace@@QAEXPAVFastScanClosure@@@Z 0806e340 f   space.obj
 0001:0006d3a0       ?oop_since_save_marks_iterate_nv@ContiguousSpace@@QAEXPAVParScanWithBarrierClosure@@@Z 0806e3a0 f   space.obj
 0001:0006d400       ?oop_since_save_marks_iterate_nv@ContiguousSpace@@QAEXPAVParScanWithoutBarrierClosure@@@Z 0806e400 f   space.obj
 0001:0006d460       ?block_start_const@ContiguousSpace@@UBEPAVHeapWord@@PBX@Z 0806e460 f   space.obj
 0001:0006d4e0       ?block_size@ContiguousSpace@@UBEIPBVHeapWord@@@Z 0806e4e0 f   space.obj
 0001:0006d510       ?clear@EdenSpace@@UAEX_N@Z 0806e510 f   space.obj
 0001:0006d540       ?par_allocate@ConcEdenSpace@@UAEPAVHeapWord@@I@Z 0806e540 f   space.obj
 0001:0006d5b0       ??0OffsetTableContigSpace@@QAE@PAVBlockOffsetSharedArray@@VMemRegion@@@Z 0806e5b0 f   space.obj
 0001:0006d650       ?verify@OffsetTableContigSpace@@UBEX_N@Z 0806e650 f   space.obj
 0001:0006d790       ?new_dcto_cl@Space@@UAEPAVDirtyCardToOopClosure@@PAVOopClosure@@W4PrecisionStyle@CardTableModRefBS@@PAVHeapWord@@@Z 0806e790 f   space.obj
 0001:0006d7e0       ?new_dcto_cl@ContiguousSpace@@UAEPAVDirtyCardToOopClosure@@PAVOopClosure@@W4PrecisionStyle@CardTableModRefBS@@PAVHeapWord@@@Z 0806e7e0 f   space.obj
 0001:0006d830       ?forward@CompactibleSpace@@UAEPAVHeapWord@@PAVoopDesc@@IPAVCompactPoint@@PAV2@@Z 0806e830 f   space.obj
 0001:0006d910       ?compact@CompactibleSpace@@UAEXXZ 0806e910 f   space.obj
 0001:0006da80       ?name@TenuredGeneration@@UBEPBDXZ 0806ea80 f   tenuredGeneration.obj
 0001:0006da90       ?should_collect@TenuredGeneration@@UAE_N_NI0@Z 0806ea90 f   tenuredGeneration.obj
 0001:0006daf0       ?par_promote_alloc_done@TenuredGeneration@@UAEXH@Z 0806eaf0 f   tenuredGeneration.obj
 0001:0006db20       ?allocate@ParGCAllocBufferWithBOT@@QAEPAVHeapWord@@I@Z 0806eb20 f i tenuredGeneration.obj
 0001:0006db60       ?set_buf@ParGCAllocBufferWithBOT@@QAEXPAVHeapWord@@@Z 0806eb60 f i tenuredGeneration.obj
 0001:0006dbb0       ?compute_new_size@TenuredGeneration@@UAEXXZ 0806ebb0 f   tenuredGeneration.obj
 0001:0006dd80       ?collect@TenuredGeneration@@UAEX_N0I0@Z 0806ed80 f   tenuredGeneration.obj
 0001:0006dde0       ?update_gc_stats@TenuredGeneration@@UAEXH_N@Z 0806ede0 f   tenuredGeneration.obj
 0001:0006de30       ?update_counters@TenuredGeneration@@UAEXXZ 0806ee30 f   tenuredGeneration.obj
 0001:0006de90       ?par_promote_alloc_undo@TenuredGeneration@@UAEXHPAVHeapWord@@I@Z 0806ee90 f   tenuredGeneration.obj
 0001:0006df10       ?verify_alloc_buffers_clean@TenuredGeneration@@QAEXXZ 0806ef10 f   tenuredGeneration.obj
 0001:0006df70       ?promotion_attempt_is_safe@TenuredGeneration@@UBE_NI@Z 0806ef70 f   tenuredGeneration.obj
 0001:0006dfc0       ?gc_prologue@TenuredGeneration@@UAEX_N@Z 0806efc0 f   tenuredGeneration.obj
 0001:0006e000       ?gc_epilogue@TenuredGeneration@@UAEX_N@Z 0806f000 f   tenuredGeneration.obj
 0001:0006e030       ?par_promote@TenuredGeneration@@UAEPAVoopDesc@@HPAV2@PAVmarkOopDesc@@I@Z 0806f030 f   tenuredGeneration.obj
 0001:0006e150       ??0TenuredGeneration@@QAE@VReservedSpace@@IHPAVGenRemSet@@@Z 0806f150 f   tenuredGeneration.obj
 0001:0006e3a0       ?short_name@TenuredGeneration@@UBEPBDXZ 0806f3a0 f i tenuredGeneration.obj
 0001:0006e3b0       ?full_collects_younger_generations@TenuredGeneration@@UBE_NXZ 0806f3b0 f i tenuredGeneration.obj
 0001:0006e3c0       ?print@GlobalTLABStats@@QAEXXZ 0806f3c0 f   threadLocalAllocBuffer.obj
 0001:0006e460       ?myThread@ThreadLocalAllocBuffer@@AAEPAVThread@@XZ 0806f460 f   threadLocalAllocBuffer.obj
 0001:0006e470       ?publish@GlobalTLABStats@@QAEXXZ 0806f470 f   threadLocalAllocBuffer.obj
 0001:0006e550       ?print_stats@ThreadLocalAllocBuffer@@AAEXPBD@Z 0806f550 f   threadLocalAllocBuffer.obj
 0001:0006e650       ??0GlobalTLABStats@@QAE@XZ 0806f650 f   threadLocalAllocBuffer.obj
 0001:0006e990       ?fill@ThreadLocalAllocBuffer@@QAEXPAVHeapWord@@0I@Z 0806f990 f   threadLocalAllocBuffer.obj
 0001:0006ea10       ?max_size@ThreadLocalAllocBuffer@@SA?BIXZ 0806fa10 f   threadLocalAllocBuffer.obj
 0001:0006ea20       ?make_parsable@ThreadLocalAllocBuffer@@QAEX_N@Z 0806fa20 f   threadLocalAllocBuffer.obj
 0001:0006eac0       ?initial_desired_size@ThreadLocalAllocBuffer@@AAEIXZ 0806fac0 f   threadLocalAllocBuffer.obj
 0001:0006eba0       ?remaining@ThreadLocalAllocBuffer@@ABEIXZ 0806fba0 f i threadLocalAllocBuffer.obj
 0001:0006ec00       ?clear_before_allocation@ThreadLocalAllocBuffer@@QAEXXZ 0806fc00 f   threadLocalAllocBuffer.obj
 0001:0006ec90       ?accumulate_statistics@ThreadLocalAllocBuffer@@AAEXXZ 0806fc90 f   threadLocalAllocBuffer.obj
 0001:0006ee00       ?resize_all_tlabs@ThreadLocalAllocBuffer@@SAXXZ 0806fe00 f   threadLocalAllocBuffer.obj
 0001:0006eed0       ?initialize@ThreadLocalAllocBuffer@@QAEXXZ 0806fed0 f   threadLocalAllocBuffer.obj
 0001:0006ef70       ?startup_initialization@ThreadLocalAllocBuffer@@SAXXZ 0806ff70 f   threadLocalAllocBuffer.obj
 0001:0006f010       ?accumulate_statistics_before_gc@ThreadLocalAllocBuffer@@SAXXZ 08070010 f   threadLocalAllocBuffer.obj
 0001:0006f0a0       ??0G1CollectorPolicy_BestRegionsFirst@@QAE@XZ 080700a0 f i universe.obj
 0001:0006f0e0       ?default_init_heap_size@G1CollectorPolicy@@MAEIXZ 080700e0 f i universe.obj
 0001:0006f0f0       ?initialize_basic_type_mirrors@Universe@@CAXPAVThread@@@Z 080700f0 f   universe.obj
 0001:0006f280       ?non_oop_word@Universe@@SAPAXXZ 08070280 f   universe.obj
 0001:0006f2a0       ?create_klass@typeArrayKlass@@SAPAVklassOopDesc@@W4BasicType@@HPAVThread@@@Z 080702a0 f i universe.obj
 0001:0006f2d0       ?kind@PSMarkSweepMemoryManager@@UAE?AW4Name@MemoryManager@@XZ 080702d0 f i memoryManager.obj
 0001:0006f2d0       ?cell_count@RetData@@UAEHXZ 080702d0 f i ciMethodData.obj
 0001:0006f2d0       ?legal_state@VM_CMS_Final_Remark@@UBE?BW4CollectorState@CMSCollector@@XZ 080702d0 f i concurrentMarkSweepGeneration.obj
 0001:0006f2d0       ?type@external_word_Relocation@@EAE?AW4relocType@relocInfo@@XZ 080702d0 f i relocInfo.obj
 0001:0006f2d0       ?type@VM_Deoptimize@@UBE?AW4VMOp_Type@VM_Operation@@XZ 080702d0 f i universe.obj
 0001:0006f2e0       ?unlock@GC_locker@@SAXXZ   080702e0 f i universe.obj
 0001:0006f310       ?basic_type_classes_do@Universe@@SAXP6AXPAVklassOopDesc@@@Z@Z 08070310 f   universe.obj
 0001:0006f370       ?oops_do@Universe@@SAXPAVOopClosure@@_N@Z 08070370 f   universe.obj
 0001:0006f6b0       ?fixup_mirrors@Universe@@CAXPAVThread@@@Z 080706b0 f   universe.obj
 0001:0006f6f0       ?initialize_itable_for_klass@@YAXPAVklassOopDesc@@PAVThread@@@Z 080706f0 f   universe.obj
 0001:0006f710       ?should_fill_in_stack_trace@Universe@@SA_NVHandle@@@Z 08070710 f   universe.obj
 0001:0006f770       ?update_heap_info_at_gc@Universe@@SAXXZ 08070770 f   universe.obj
 0001:0006f7a0       ?flush_dependents_on@Universe@@SAXVinstanceKlassHandle@@@Z 080707a0 f   universe.obj
 0001:0006f800       ?print_on@Universe@@SAXPAVoutputStream@@@Z 08070800 f   universe.obj
 0001:0006f830       ?print_heap_at_SIGBREAK@Universe@@SAXXZ 08070830 f   universe.obj
 0001:0006f890       ?print_heap_before_gc@Universe@@SAXPAVoutputStream@@@Z 08070890 f   universe.obj
 0001:0006f8d0       ?print_heap_after_gc@Universe@@SAXPAVoutputStream@@@Z 080708d0 f   universe.obj
 0001:0006f920       ?init@CommonMethodOopCache@@QAEXPAVklassOopDesc@@PAVmethodOopDesc@@PAVThread@@@Z 08070920 f   universe.obj
 0001:0006f950       ?is_same_method@ActiveMethodOopsCache@@QBE_NQAVmethodOopDesc@@@Z 08070950 f   universe.obj
 0001:0006f9b0       ?get_methodOop@LatestMethodOopCache@@QAEPAVmethodOopDesc@@XZ 080709b0 f   universe.obj
 0001:0006f9c0       ?is_leaf_class@Klass@@UBE_NXZ 080709c0 f i universe.obj
 0001:0006f9e0       ?oop_oop_iterate_nv_m@Klass@@UAEHPAVoopDesc@@PAVCMSInnerParMarkAndPushClosure@@VMemRegion@@@Z 080709e0 f i universe.obj
 0001:0006f9e0       ?oop_oop_iterate_nv_m@Klass@@UAEHPAVoopDesc@@PAVG1ParScanClosure@@VMemRegion@@@Z 080709e0 f i universe.obj
 0001:0006f9e0       ?oop_oop_iterate_nv_m@Klass@@UAEHPAVoopDesc@@PAVFastScanClosure@@VMemRegion@@@Z 080709e0 f i universe.obj
 0001:0006f9e0       ?oop_oop_iterate_nv_m@Klass@@UAEHPAVoopDesc@@PAVParScanWithBarrierClosure@@VMemRegion@@@Z 080709e0 f i universe.obj
 0001:0006f9e0       ?oop_oop_iterate_nv_m@Klass@@UAEHPAVoopDesc@@PAVFilteringClosure@@VMemRegion@@@Z 080709e0 f i universe.obj
 0001:0006f9e0       ?oop_oop_iterate_nv_m@Klass@@UAEHPAVoopDesc@@PAVCMSKeepAliveClosure@@VMemRegion@@@Z 080709e0 f i universe.obj
 0001:0006f9e0       ?oop_oop_iterate_v_m@Klass@@UAEHPAVoopDesc@@PAVOopClosure@@VMemRegion@@@Z 080709e0 f i universe.obj
 0001:0006f9e0       ?oop_oop_iterate_nv_m@Klass@@UAEHPAVoopDesc@@PAVPar_PushOrMarkClosure@@VMemRegion@@@Z 080709e0 f i universe.obj
 0001:0006f9e0       ?oop_oop_iterate_nv_m@Klass@@UAEHPAVoopDesc@@PAVMarkRefsIntoAndScanClosure@@VMemRegion@@@Z 080709e0 f i universe.obj
 0001:0006f9e0       ?oop_oop_iterate_nv_m@Klass@@UAEHPAVoopDesc@@PAVG1ParPushHeapRSClosure@@VMemRegion@@@Z 080709e0 f i universe.obj
 0001:0006f9e0       ?oop_oop_iterate_nv_m@Klass@@UAEHPAVoopDesc@@PAVPushAndMarkClosure@@VMemRegion@@@Z 080709e0 f i universe.obj
 0001:0006f9e0       ?oop_oop_iterate_nv_m@Klass@@UAEHPAVoopDesc@@PAVFilterOutOfRegionClosure@@VMemRegion@@@Z 080709e0 f i universe.obj
 0001:0006f9e0       ?oop_oop_iterate_nv_m@Klass@@UAEHPAVoopDesc@@PAVParScanWithoutBarrierClosure@@VMemRegion@@@Z 080709e0 f i universe.obj
 0001:0006f9e0       ?oop_oop_iterate_nv_m@Klass@@UAEHPAVoopDesc@@PAVFilterInHeapRegionAndIntoCSClosure@@VMemRegion@@@Z 080709e0 f i universe.obj
 0001:0006f9e0       ?oop_oop_iterate_nv_m@Klass@@UAEHPAVoopDesc@@PAVPar_PushAndMarkClosure@@VMemRegion@@@Z 080709e0 f i universe.obj
 0001:0006f9e0       ?oop_oop_iterate_nv_m@Klass@@UAEHPAVoopDesc@@PAVScanClosure@@VMemRegion@@@Z 080709e0 f i universe.obj
 0001:0006f9e0       ?oop_oop_iterate_nv_m@Klass@@UAEHPAVoopDesc@@PAVFilterAndMarkInHeapRegionAndIntoCSClosure@@VMemRegion@@@Z 080709e0 f i universe.obj
 0001:0006f9e0       ?oop_oop_iterate_nv_m@Klass@@UAEHPAVoopDesc@@PAVPar_MarkRefsIntoAndScanClosure@@VMemRegion@@@Z 080709e0 f i universe.obj
 0001:0006f9e0       ?oop_oop_iterate_nv_m@Klass@@UAEHPAVoopDesc@@PAVFilterIntoCSClosure@@VMemRegion@@@Z 080709e0 f i universe.obj
 0001:0006f9e0       ?oop_oop_iterate_nv_m@Klass@@UAEHPAVoopDesc@@PAVPushOrMarkClosure@@VMemRegion@@@Z 080709e0 f i universe.obj
 0001:0006f9e0       ?oop_oop_iterate_nv_m@Klass@@UAEHPAVoopDesc@@PAV?$G1ParCopyClosure@$0A@$01$0A@@@VMemRegion@@@Z 080709e0 f i universe.obj
 0001:0006fa10       ?oop_oop_iterate_nv@Klass@@UAEHPAVoopDesc@@PAVParScanWithoutBarrierClosure@@@Z 08070a10 f i universe.obj
 0001:0006fa10       ?oop_oop_iterate_nv@Klass@@UAEHPAVoopDesc@@PAVFilteringClosure@@@Z 08070a10 f i universe.obj
 0001:0006fa10       ?oop_oop_iterate_nv@Klass@@UAEHPAVoopDesc@@PAVPar_MarkRefsIntoAndScanClosure@@@Z 08070a10 f i universe.obj
 0001:0006fa10       ?oop_oop_iterate_nv@Klass@@UAEHPAVoopDesc@@PAVCMSInnerParMarkAndPushClosure@@@Z 08070a10 f i universe.obj
 0001:0006fa10       ?oop_oop_iterate_nv@Klass@@UAEHPAVoopDesc@@PAVPushAndMarkClosure@@@Z 08070a10 f i universe.obj
 0001:0006fa10       ?oop_oop_iterate_nv@Klass@@UAEHPAVoopDesc@@PAVPar_PushAndMarkClosure@@@Z 08070a10 f i universe.obj
 0001:0006fa10       ?oop_oop_iterate_nv@Klass@@UAEHPAVoopDesc@@PAVFastScanClosure@@@Z 08070a10 f i universe.obj
 0001:0006fa10       ?oop_oop_iterate_nv@Klass@@UAEHPAVoopDesc@@PAVG1ParPushHeapRSClosure@@@Z 08070a10 f i universe.obj
 0001:0006fa10       ?oop_oop_iterate_nv@Klass@@UAEHPAVoopDesc@@PAVCMSKeepAliveClosure@@@Z 08070a10 f i universe.obj
 0001:0006fa10       ?oop_oop_iterate_nv@Klass@@UAEHPAVoopDesc@@PAVFilterOutOfRegionClosure@@@Z 08070a10 f i universe.obj
 0001:0006fa10       ?oop_oop_iterate_nv@Klass@@UAEHPAVoopDesc@@PAVFilterInHeapRegionAndIntoCSClosure@@@Z 08070a10 f i universe.obj
 0001:0006fa10       ?oop_oop_iterate_nv@Klass@@UAEHPAVoopDesc@@PAVPar_PushOrMarkClosure@@@Z 08070a10 f i universe.obj
 0001:0006fa10       ?oop_oop_iterate_nv@Klass@@UAEHPAVoopDesc@@PAVMarkRefsIntoAndScanClosure@@@Z 08070a10 f i universe.obj
 0001:0006fa10       ?oop_oop_iterate_v@Klass@@UAEHPAVoopDesc@@PAVOopClosure@@@Z 08070a10 f i universe.obj
 0001:0006fa10       ?oop_oop_iterate_nv@Klass@@UAEHPAVoopDesc@@PAVScanClosure@@@Z 08070a10 f i universe.obj
 0001:0006fa10       ?oop_oop_iterate_nv@Klass@@UAEHPAVoopDesc@@PAVFilterAndMarkInHeapRegionAndIntoCSClosure@@@Z 08070a10 f i universe.obj
 0001:0006fa10       ?oop_oop_iterate_nv@Klass@@UAEHPAVoopDesc@@PAVParScanWithBarrierClosure@@@Z 08070a10 f i universe.obj
 0001:0006fa10       ?oop_oop_iterate_nv@Klass@@UAEHPAVoopDesc@@PAVG1ParScanClosure@@@Z 08070a10 f i universe.obj
 0001:0006fa10       ?oop_oop_iterate_nv@Klass@@UAEHPAVoopDesc@@PAVPushOrMarkClosure@@@Z 08070a10 f i universe.obj
 0001:0006fa10       ?oop_oop_iterate_nv@Klass@@UAEHPAVoopDesc@@PAV?$G1ParCopyClosure@$0A@$01$0A@@@@Z 08070a10 f i universe.obj
 0001:0006fa10       ?oop_oop_iterate_nv@Klass@@UAEHPAVoopDesc@@PAVFilterIntoCSClosure@@@Z 08070a10 f i universe.obj
 0001:0006fa20       ?oop_oop_iterate_backwards_nv@Klass@@UAEHPAVoopDesc@@PAVG1ParScanClosure@@@Z 08070a20 f i universe.obj
 0001:0006fa20       ?oop_oop_iterate_backwards_nv@Klass@@UAEHPAVoopDesc@@PAVPar_PushAndMarkClosure@@@Z 08070a20 f i universe.obj
 0001:0006fa20       ?oop_oop_iterate_backwards_nv@Klass@@UAEHPAVoopDesc@@PAVMarkRefsIntoAndScanClosure@@@Z 08070a20 f i universe.obj
 0001:0006fa20       ?oop_oop_iterate_backwards_nv@Klass@@UAEHPAVoopDesc@@PAVFilterOutOfRegionClosure@@@Z 08070a20 f i universe.obj
 0001:0006fa20       ?oop_oop_iterate_backwards_nv@Klass@@UAEHPAVoopDesc@@PAVFastScanClosure@@@Z 08070a20 f i universe.obj
 0001:0006fa20       ?oop_oop_iterate_backwards_nv@Klass@@UAEHPAVoopDesc@@PAV?$G1ParCopyClosure@$0A@$01$0A@@@@Z 08070a20 f i universe.obj
 0001:0006fa20       ?oop_oop_iterate_backwards_nv@Klass@@UAEHPAVoopDesc@@PAVFilteringClosure@@@Z 08070a20 f i universe.obj
 0001:0006fa20       ?oop_oop_iterate_backwards_nv@Klass@@UAEHPAVoopDesc@@PAVPar_PushOrMarkClosure@@@Z 08070a20 f i universe.obj
 0001:0006fa20       ?oop_oop_iterate_backwards_nv@Klass@@UAEHPAVoopDesc@@PAVCMSKeepAliveClosure@@@Z 08070a20 f i universe.obj
 0001:0006fa20       ?oop_oop_iterate_backwards_nv@Klass@@UAEHPAVoopDesc@@PAVScanClosure@@@Z 08070a20 f i universe.obj
 0001:0006fa20       ?oop_oop_iterate_backwards_nv@Klass@@UAEHPAVoopDesc@@PAVParScanWithoutBarrierClosure@@@Z 08070a20 f i universe.obj
 0001:0006fa20       ?oop_oop_iterate_backwards_nv@Klass@@UAEHPAVoopDesc@@PAVParScanWithBarrierClosure@@@Z 08070a20 f i universe.obj
 0001:0006fa20       ?oop_oop_iterate_backwards_nv@Klass@@UAEHPAVoopDesc@@PAVFilterIntoCSClosure@@@Z 08070a20 f i universe.obj
 0001:0006fa20       ?oop_oop_iterate_backwards_nv@Klass@@UAEHPAVoopDesc@@PAVFilterAndMarkInHeapRegionAndIntoCSClosure@@@Z 08070a20 f i universe.obj
 0001:0006fa20       ?oop_oop_iterate_backwards_nv@Klass@@UAEHPAVoopDesc@@PAVPushAndMarkClosure@@@Z 08070a20 f i universe.obj
 0001:0006fa20       ?oop_oop_iterate_backwards_nv@Klass@@UAEHPAVoopDesc@@PAVPushOrMarkClosure@@@Z 08070a20 f i universe.obj
 0001:0006fa20       ?oop_oop_iterate_backwards_nv@Klass@@UAEHPAVoopDesc@@PAVCMSInnerParMarkAndPushClosure@@@Z 08070a20 f i universe.obj
 0001:0006fa20       ?oop_oop_iterate_backwards_nv@Klass@@UAEHPAVoopDesc@@PAVFilterInHeapRegionAndIntoCSClosure@@@Z 08070a20 f i universe.obj
 0001:0006fa20       ?oop_oop_iterate_backwards_nv@Klass@@UAEHPAVoopDesc@@PAVPar_MarkRefsIntoAndScanClosure@@@Z 08070a20 f i universe.obj
 0001:0006fa20       ?oop_oop_iterate_backwards_nv@Klass@@UAEHPAVoopDesc@@PAVG1ParPushHeapRSClosure@@@Z 08070a20 f i universe.obj
 0001:0006fa30       ?class_loader@instanceKlass@@UBEPAVoopDesc@@XZ 08070a30 f i universe.obj
 0001:0006fa40       ?is_leaf_class@instanceKlass@@UBE_NXZ 08070a40 f i universe.obj
 0001:0006fa50       ?oop_size@instanceKlass@@UBEHPAVoopDesc@@@Z 08070a50 f i universe.obj
 0001:0006fa60       ?alloc_size@instanceKlass@@UBEIXZ 08070a60 f i universe.obj
 0001:0006fa70       ?oop_oop_iterate@objArrayKlass@@UAEHPAVoopDesc@@PAVOopClosure@@@Z 08070a70 f i universe.obj
 0001:0006fa70       ?oop_oop_iterate@instanceRefKlass@@UAEHPAVoopDesc@@PAVOopClosure@@@Z 08070a70 f i universe.obj
 0001:0006fa70       ?oop_oop_iterate@instanceMirrorKlass@@UAEHPAVoopDesc@@PAVOopClosure@@@Z 08070a70 f i universe.obj
 0001:0006fa70       ?oop_oop_iterate@instanceKlass@@UAEHPAVoopDesc@@PAVOopClosure@@@Z 08070a70 f i universe.obj
 0001:0006fa70       ?oop_oop_iterate_backwards_v@Klass@@UAEHPAVoopDesc@@PAVOopClosure@@@Z 08070a70 f i universe.obj
 0001:0006fa80       ?size_policy@ParallelScavengeHeap@@UAEPAVPSAdaptiveSizePolicy@@XZ 08070a80 f i universe.obj
 0001:0006fa90       ?is_in_permanent@ParallelScavengeHeap@@UBE_NPBX@Z 08070a90 f i universe.obj
 0001:0006fac0       ?is_permanent@ParallelScavengeHeap@@UBE_NPBX@Z 08070ac0 f i universe.obj
 0001:0006fae0       ?large_typearray_limit@ParallelScavengeHeap@@UAEIXZ 08070ae0 f i universe.obj
 0001:0006fae0       ?large_typearray_limit@GenCollectorPolicy@@UAEIXZ 08070ae0 f i collectorPolicy.obj
 0001:0006faf0       ?supports_inline_contig_alloc@ParallelScavengeHeap@@UBE_NXZ 08070af0 f i universe.obj
 0001:0006fb00       ?top_addr@ParallelScavengeHeap@@UBEPAPAVHeapWord@@XZ 08070b00 f i universe.obj
 0001:0006fb20       ?end_addr@ParallelScavengeHeap@@UBEPAPAVHeapWord@@XZ 08070b20 f i universe.obj
 0001:0006fb40       ?safe_object_iterate@ParallelScavengeHeap@@UAEXPAVObjectClosure@@@Z 08070b40 f i universe.obj
 0001:0006fb50       ?set_alloc_size@constantPoolCacheKlass@@UAEXI@Z 08070b50 f i universe.obj
 0001:0006fb50       ?set_alloc_size@compiledICHolderKlass@@UAEXI@Z 08070b50 f i universe.obj
 0001:0006fb50       ?set_alloc_size@constMethodKlass@@UAEXI@Z 08070b50 f i universe.obj
 0001:0006fb50       ?set_alloc_size@constantPoolKlass@@UAEXI@Z 08070b50 f i universe.obj
 0001:0006fb50       ?set_alloc_size@klassKlass@@UAEXI@Z 08070b50 f i universe.obj
 0001:0006fb50       ?set_alloc_size@methodDataKlass@@UAEXI@Z 08070b50 f i universe.obj
 0001:0006fb50       ?set_alloc_size@methodKlass@@UAEXI@Z 08070b50 f i universe.obj
 0001:0006fb60       ?oop_oop_iterate_m@instanceRefKlass@@UAEHPAVoopDesc@@PAVOopClosure@@VMemRegion@@@Z 08070b60 f i universe.obj
 0001:0006fb60       ?oop_oop_iterate_m@instanceMirrorKlass@@UAEHPAVoopDesc@@PAVOopClosure@@VMemRegion@@@Z 08070b60 f i universe.obj
 0001:0006fb60       ?oop_oop_iterate_m@objArrayKlass@@UAEHPAVoopDesc@@PAVOopClosure@@VMemRegion@@@Z 08070b60 f i universe.obj
 0001:0006fb60       ?oop_oop_iterate_m@instanceKlass@@UAEHPAVoopDesc@@PAVOopClosure@@VMemRegion@@@Z 08070b60 f i universe.obj
 0001:0006fb90       ?alloc_size@constMethodKlass@@UBEIXZ 08070b90 f i universe.obj
 0001:0006fb90       ?alloc_size@compiledICHolderKlass@@UBEIXZ 08070b90 f i universe.obj
 0001:0006fb90       ?alloc_size@methodDataKlass@@UBEIXZ 08070b90 f i universe.obj
 0001:0006fb90       ?alloc_size@methodKlass@@UBEIXZ 08070b90 f i universe.obj
 0001:0006fb90       ?alloc_size@klassKlass@@UBEIXZ 08070b90 f i universe.obj
 0001:0006fb90       ?alloc_size@constantPoolKlass@@UBEIXZ 08070b90 f i universe.obj
 0001:0006fb90       ?alloc_size@constantPoolCacheKlass@@UBEIXZ 08070b90 f i universe.obj
 0001:0006fb90       ?gen_size_limit@PSOldGen@@UAEIXZ 08070b90 f i psOldGen.obj
 0001:0006fb90       ?max_gen_size@PSOldGen@@UAEIXZ 08070b90 f i psOldGen.obj
 0001:0006fba0       ?oop_size@typeArrayKlassKlass@@UBEHPAVoopDesc@@@Z 08070ba0 f i universe.obj
 0001:0006fba0       ?oop_size@objArrayKlassKlass@@UBEHPAVoopDesc@@@Z 08070ba0 f i universe.obj
 0001:0006fbc0       ?klass_oop_size@klassKlass@@UBEHXZ 08070bc0 f i universe.obj
 0001:0006fbc0       ?klass_oop_size@constantPoolKlass@@UBEHXZ 08070bc0 f i universe.obj
 0001:0006fbc0       ?klass_oop_size@methodDataKlass@@UBEHXZ 08070bc0 f i universe.obj
 0001:0006fbc0       ?klass_oop_size@constantPoolCacheKlass@@UBEHXZ 08070bc0 f i universe.obj
 0001:0006fbc0       ?klass_oop_size@constMethodKlass@@UBEHXZ 08070bc0 f i universe.obj
 0001:0006fbc0       ?klass_oop_size@typeArrayKlassKlass@@UBEHXZ 08070bc0 f i universe.obj
 0001:0006fbc0       ?klass_oop_size@objArrayKlassKlass@@UBEHXZ 08070bc0 f i universe.obj
 0001:0006fbc0       ?klass_oop_size@methodKlass@@UBEHXZ 08070bc0 f i universe.obj
 0001:0006fbc0       ?klass_oop_size@instanceKlassKlass@@UBEHXZ 08070bc0 f i universe.obj
 0001:0006fbc0       ?klass_oop_size@compiledICHolderKlass@@UBEHXZ 08070bc0 f i universe.obj
 0001:0006fbe0       ?check_alignment@Universe@@SAXIIPBD@Z 08070be0 f   universe.obj
 0001:0006fc90       ?do_object@FixupMirrorClosure@@UAEXPAVoopDesc@@@Z 08070c90 f i universe.obj
 0001:0006fd40       ?run_finalizers_on_exit@Universe@@SAXXZ 08070d40 f   universe.obj
 0001:0006fdf0       ?initialize_heap@Universe@@CAHXZ 08070df0 f   universe.obj
 0001:0006ff30       ?flush_evol_dependents_on@Universe@@SAXVinstanceKlassHandle@@@Z 08070f30 f   universe.obj
 0001:0006ffb0       ?flush_dependents_on_method@Universe@@SAXVmethodHandle@@@Z 08070fb0 f   universe.obj
 0001:00070030       ?print@Universe@@SAXXZ     08071030 f   universe.obj
 0001:00070060       ?verify@Universe@@SAX_N00@Z 08071060 f   universe.obj
 0001:00070240       ?alloc_size@arrayKlass@@UBEIXZ 08071240 f i universe.obj
 0001:00070250       ?set_alloc_size@arrayKlass@@UAEXI@Z 08071250 f i universe.obj
 0001:00070260       ?allocate_permanent@instanceKlass@@UBEPAXAAVKlassHandle@@HPAVThread@@@Z 08071260 f i universe.obj
 0001:000702d0       ?klass_oop_size@instanceKlass@@UBEHXZ 080712d0 f i universe.obj
 0001:00070300       ?allocate_permanent@instanceRefKlass@@UBEPAXAAVKlassHandle@@HPAVThread@@@Z 08071300 f i universe.obj
 0001:00070370       ?protection_domain@objArrayKlass@@UAEPAVoopDesc@@XZ 08071370 f i universe.obj
 0001:00070390       ?class_loader@objArrayKlass@@UBEPAVoopDesc@@XZ 08071390 f i universe.obj
 0001:000703b0       ?allocate_permanent@klassKlass@@UBEPAXAAVKlassHandle@@HPAVThread@@@Z 080713b0 f i universe.obj
 0001:00070410       ?allocate_permanent@arrayKlassKlass@@UBEPAXAAVKlassHandle@@HPAVThread@@@Z 08071410 f i universe.obj
 0001:00070470       ?allocate_permanent@compiledICHolderKlass@@UBEPAXAAVKlassHandle@@HPAVThread@@@Z 08071470 f i universe.obj
 0001:000704d0       ?allocate_permanent@constMethodKlass@@UBEPAXAAVKlassHandle@@HPAVThread@@@Z 080714d0 f i universe.obj
 0001:00070530       ?allocate_permanent@constantPoolKlass@@UBEPAXAAVKlassHandle@@HPAVThread@@@Z 08071530 f i universe.obj
 0001:00070590       ?allocate_permanent@constantPoolCacheKlass@@UBEPAXAAVKlassHandle@@HPAVThread@@@Z 08071590 f i universe.obj
 0001:000705f0       ?allocate_permanent@instanceMirrorKlass@@UBEPAXAAVKlassHandle@@HPAVThread@@@Z 080715f0 f i universe.obj
 0001:00070660       ?allocate_permanent@instanceKlassKlass@@UBEPAXAAVKlassHandle@@HPAVThread@@@Z 08071660 f i universe.obj
 0001:000706c0       ?allocate_permanent@methodDataKlass@@UBEPAXAAVKlassHandle@@HPAVThread@@@Z 080716c0 f i universe.obj
 0001:00070720       ?allocate_permanent@methodKlass@@UBEPAXAAVKlassHandle@@HPAVThread@@@Z 08071720 f i universe.obj
 0001:00070780       ?allocate_permanent@objArrayKlassKlass@@UBEPAXAAVKlassHandle@@HPAVThread@@@Z 08071780 f i universe.obj
 0001:000707e0       ?allocate_permanent@typeArrayKlassKlass@@UBEPAXAAVKlassHandle@@HPAVThread@@@Z 080717e0 f i universe.obj
 0001:00070840       ?reinitialize_vtable_of@Universe@@CAXVKlassHandle@@PAVThread@@@Z 08071840 f   universe.obj
 0001:00070920       ?universe_init@@YAHXZ      08071920 f   universe.obj
 0001:00070ae0       ?klass_oop_size@objArrayKlass@@UBEHXZ 08071ae0 f i universe.obj
 0001:00070ae0       ?klass_oop_size@typeArrayKlass@@UBEHXZ 08071ae0 f i universe.obj
 0001:00070af0       ?allocate_permanent@objArrayKlass@@UBEPAXAAVKlassHandle@@HPAVThread@@@Z 08071af0 f i universe.obj
 0001:00070b60       ?init_self_patching_vtbl_list@Universe@@SAXPAPAXH@Z 08071b60 f   universe.obj
 0001:00070e00       ?allocate_permanent@typeArrayKlass@@UBEPAXAAVKlassHandle@@HPAVThread@@@Z 08071e00 f i universe.obj
 0001:00070e70       ?add_previous_version@ActiveMethodOopsCache@@QAEXQAVmethodOopDesc@@@Z 08071e70 f   universe.obj
 0001:00071100       ?set_super@Klass@@QAEXPAVklassOopDesc@@@Z 08072100 f i universe.obj
 0001:00071130       ?gen_out_of_memory_error@Universe@@CAPAVoopDesc@@PAV2@@Z 08072130 f   universe.obj
 0001:000711c0       ?universe_post_init@@YA_NXZ 080721c0 f   universe.obj
 0001:000719e0       ?set_bottom_klass@objArrayKlass@@QAEXPAVklassOopDesc@@@Z 080729e0 f i universe.obj
 0001:00071a10       ?genesis@Universe@@CAXPAVThread@@@Z 08072a10 f   universe.obj
 0001:00072190       ?universe2_init@@YAXXZ     08073190 f   universe.obj
 0001:00072230       ?multi_allocate@arrayKlass@@UAEPAVoopDesc@@HPAHPAVThread@@@Z 08073230 f   arrayKlass.obj
 0001:00072250       ?with_array_klasses_do@arrayKlass@@UAEXP6AXPAVklassOopDesc@@@Z@Z 08073250 f   arrayKlass.obj
 0001:00072260       ?compute_modifier_flags@arrayKlass@@UBEHPAVThread@@@Z 08073260 f   arrayKlass.obj
 0001:00072270       ?jvmti_class_status@arrayKlass@@UBEHXZ 08073270 f   arrayKlass.obj
 0001:00072280       ?object_size@arrayKlass@@QBEHH@Z 08073280 f   arrayKlass.obj
 0001:000722a0       ?java_super@arrayKlass@@UBEPAVklassOopDesc@@XZ 080732a0 f   arrayKlass.obj
 0001:000722b0       ?uncached_lookup_method@arrayKlass@@UBEPAVmethodOopDesc@@PAVSymbol@@0@Z 080732b0 f   arrayKlass.obj
 0001:000722d0       ?compute_secondary_supers@arrayKlass@@UAEPAVobjArrayOopDesc@@HPAVThread@@@Z 080732d0 f   arrayKlass.obj
 0001:000722e0       ?compute_is_subtype_of@arrayKlass@@UAE_NPAVklassOopDesc@@@Z 080732e0 f   arrayKlass.obj
 0001:00072310       ?array_klasses_do@arrayKlass@@UAEXP6AXPAVklassOopDesc@@@Z@Z 08073310 f   arrayKlass.obj
 0001:00072340       ?common_mem_allocate_noinit@CollectedHeap@@KAPAVHeapWord@@I_NPAVThread@@@Z 08073340 f i arrayKlass.obj
 0001:00072460       ?complete_create_array_klass@arrayKlass@@SAXVarrayKlassHandle@@VKlassHandle@@PAVThread@@@Z 08073460 f   arrayKlass.obj
 0001:00072540       ?vtable@arrayKlass@@UBEPAVklassVtable@@XZ 08073540 f   arrayKlass.obj
 0001:000725e0       ?oop_print_on@arrayKlass@@UAEXPAVoopDesc@@PAVoutputStream@@@Z 080735e0 f   arrayKlass.obj
 0001:00072610       ?oop_verify_on@arrayKlass@@UAEXPAVoopDesc@@PAVoutputStream@@@Z 08073610 f   arrayKlass.obj
 0001:00072680       ?set_higher_dimension@arrayKlass@@QAEXPAVklassOopDesc@@@Z 08073680 f i arrayKlass.obj
 0001:00072680       ?set_methods@instanceKlass@@QAEXPAVobjArrayOopDesc@@@Z 08073680 f i classFileParser.obj
 0001:000726b0       ?set_lower_dimension@arrayKlass@@QAEXPAVklassOopDesc@@@Z 080736b0 f i arrayKlass.obj
 0001:000726b0       ?set_method_ordering@instanceKlass@@QAEXPAVtypeArrayOopDesc@@@Z 080736b0 f i classFileParser.obj
 0001:000726e0       ?base_create_array_klass@arrayKlass@@SA?AVarrayKlassHandle@@ABVKlass_vtbl@@HVKlassHandle@@PAVThread@@@Z 080736e0 f   arrayKlass.obj
 0001:00072860       ?array_allocate@CollectedHeap@@SAPAVoopDesc@@VKlassHandle@@HHPAVThread@@@Z 08073860 f i arrayKlass.obj
 0001:000728c0       ?allocate_arrayArray@arrayKlass@@QAEPAVobjArrayOopDesc@@HHPAVThread@@@Z 080738c0 f   arrayKlass.obj
 0001:00072a00       ?oop_print_on@arrayKlassKlass@@UAEXPAVoopDesc@@PAVoutputStream@@@Z 08073a00 f   arrayKlassKlass.obj
 0001:00072a10       ?internal_name@arrayKlassKlass@@UBEPBDXZ 08073a10 f   arrayKlassKlass.obj
 0001:00072a20       ??$adjust_pointer@PAVoopDesc@@@PSParallelCompact@@CAXPAPAVoopDesc@@_N@Z 08073a20 f i arrayKlassKlass.obj
 0001:00072a50       ?oop_is_parsable@arrayKlassKlass@@UBE_NPAVoopDesc@@@Z 08073a50 f   arrayKlassKlass.obj
 0001:00072a80       ?oop_oop_iterate@arrayKlassKlass@@UAEHPAVoopDesc@@PAVOopClosure@@@Z 08073a80 f   arrayKlassKlass.obj
 0001:00072ae0       ?oop_oop_iterate_m@arrayKlassKlass@@UAEHPAVoopDesc@@PAVOopClosure@@VMemRegion@@@Z 08073ae0 f   arrayKlassKlass.obj
 0001:00072b90       ?oop_print_value_on@arrayKlassKlass@@UAEXPAVoopDesc@@PAVoutputStream@@@Z 08073b90 f   arrayKlassKlass.obj
 0001:00072bc0       ?push@?$GenericTaskQueue@PAVoopDesc@@$0EAAA@@@QAE_NPAVoopDesc@@@Z 08073bc0 f i arrayKlassKlass.obj
 0001:00072c40       ?create_klass@arrayKlassKlass@@SAPAVklassOopDesc@@PAVThread@@@Z 08073c40 f   arrayKlassKlass.obj
 0001:00072cf0       ?oop_adjust_pointers@arrayKlassKlass@@UAEHPAVoopDesc@@@Z 08073cf0 f   arrayKlassKlass.obj
 0001:00072dc0       ?oop_update_pointers@arrayKlassKlass@@UAEHPAVParCompactionManager@@PAVoopDesc@@@Z 08073dc0 f   arrayKlassKlass.obj
 0001:00072e70       ?oop_verify_on@arrayKlassKlass@@UAEXPAVoopDesc@@PAVoutputStream@@@Z 08073e70 f   arrayKlassKlass.obj
 0001:00072f20       ?push@?$GenericTaskQueue@VStarTask@@$0EAAA@@@QAE_NVStarTask@@@Z 08073f20 f i arrayKlassKlass.obj
 0001:00072f90       ?mark_obj@PSParallelCompact@@SA_NPAVoopDesc@@@Z 08073f90 f i arrayKlassKlass.obj
 0001:00073010       ?must_be_preserved@markOopDesc@@QBE_NPAVoopDesc@@@Z 08074010 f i arrayKlassKlass.obj
 0001:00073070       ??$mark_and_push@PAVoopDesc@@@MarkSweep@@SAXPAPAVoopDesc@@@Z 08074070 f i arrayKlassKlass.obj
 0001:000730e0       ?oop_follow_contents@arrayKlassKlass@@UAEXPAVoopDesc@@@Z 080740e0 f   arrayKlassKlass.obj
 0001:00073150       ??$mark_and_push@PAVoopDesc@@@PSParallelCompact@@SAXPAVParCompactionManager@@PAPAVoopDesc@@@Z 08074150 f i arrayKlassKlass.obj
 0001:000731d0       ??$push_depth@PAVoopDesc@@@PSPromotionManager@@AAEXPAPAVoopDesc@@@Z 080741d0 f i arrayKlassKlass.obj
 0001:00073210       ?oop_follow_contents@arrayKlassKlass@@UAEXPAVParCompactionManager@@PAVoopDesc@@@Z 08074210 f   arrayKlassKlass.obj
 0001:00073290       ??$claim_or_forward_internal_depth@PAVoopDesc@@@PSPromotionManager@@AAEXPAPAVoopDesc@@@Z 08074290 f i arrayKlassKlass.obj
 0001:00073320       ?oop_push_contents@arrayKlassKlass@@UAEXPAVPSPromotionManager@@PAVoopDesc@@@Z 08074320 f   arrayKlassKlass.obj
 0001:00073370       ?oop_print_on@compiledICHolderKlass@@UAEXPAVoopDesc@@PAVoutputStream@@@Z 08074370 f   compiledICHolderKlass.obj
 0001:000733d0       ?internal_name@compiledICHolderKlass@@UBEPBDXZ 080743d0 f   compiledICHolderKlass.obj
 0001:000733e0       ?oop_size@compiledICHolderKlass@@UBEHPAVoopDesc@@@Z 080743e0 f   compiledICHolderKlass.obj
 0001:00073400       ?oop_oop_iterate@compiledICHolderKlass@@UAEHPAVoopDesc@@PAVOopClosure@@@Z 08074400 f   compiledICHolderKlass.obj
 0001:00073450       ?oop_oop_iterate_m@compiledICHolderKlass@@UAEHPAVoopDesc@@PAVOopClosure@@VMemRegion@@@Z 08074450 f   compiledICHolderKlass.obj
 0001:000734d0       ?create_klass@compiledICHolderKlass@@SAPAVklassOopDesc@@PAVThread@@@Z 080744d0 f   compiledICHolderKlass.obj
 0001:00073580       ?oop_adjust_pointers@compiledICHolderKlass@@UAEHPAVoopDesc@@@Z 08074580 f   compiledICHolderKlass.obj
 0001:00073610       ?oop_update_pointers@compiledICHolderKlass@@UAEHPAVParCompactionManager@@PAVoopDesc@@@Z 08074610 f   compiledICHolderKlass.obj
 0001:00073660       ?oop_verify_on@compiledICHolderKlass@@UAEXPAVoopDesc@@PAVoutputStream@@@Z 08074660 f   compiledICHolderKlass.obj
 0001:000737b0       ?permanent_obj_allocate_no_klass_install@CollectedHeap@@SAPAVoopDesc@@VKlassHandle@@HPAVThread@@@Z 080747b0 f i compiledICHolderKlass.obj
 0001:00073830       ??$mark_and_push@I@MarkSweep@@SAXPAI@Z 08074830 f i compiledICHolderKlass.obj
 0001:000738b0       ?oop_follow_contents@compiledICHolderKlass@@UAEXPAVoopDesc@@@Z 080748b0 f   compiledICHolderKlass.obj
 0001:000738e0       ??$mark_and_push@I@PSParallelCompact@@SAXPAVParCompactionManager@@PAI@Z 080748e0 f i compiledICHolderKlass.obj
 0001:00073970       ?oop_follow_contents@compiledICHolderKlass@@UAEXPAVParCompactionManager@@PAVoopDesc@@@Z 08074970 f   compiledICHolderKlass.obj
 0001:000739b0       ?allocate@compiledICHolderKlass@@QAEPAVcompiledICHolderOopDesc@@PAVThread@@@Z 080749b0 f   compiledICHolderKlass.obj
 0001:00073ab0       ?internal_name@constantPoolKlass@@UBEPBDXZ 08074ab0 f   constantPoolKlass.obj
 0001:00073ac0       ?uncached_klass_ref_index_at@constantPoolOopDesc@@QAEHH@Z 08074ac0 f i constantPoolKlass.obj
 0001:00073ae0       ?oop_size@constantPoolKlass@@UBEHPAVoopDesc@@@Z 08074ae0 f   constantPoolKlass.obj
 0001:00073b00       ?oop_is_conc_safe@constantPoolKlass@@UBE_NPAVoopDesc@@@Z 08074b00 f   constantPoolKlass.obj
 0001:00073b10       ?oop_partially_loaded@constantPoolKlass@@UBE_NPAVoopDesc@@@Z 08074b10 f   constantPoolKlass.obj
 0001:00073b30       ?create_klass@constantPoolKlass@@SAPAVklassOopDesc@@PAVThread@@@Z 08074b30 f   constantPoolKlass.obj
 0001:00073be0       ?oop_print_value_on@constantPoolKlass@@UAEXPAVoopDesc@@PAVoutputStream@@@Z 08074be0 f   constantPoolKlass.obj
 0001:00073c90       ?oop_adjust_pointers@constantPoolKlass@@UAEHPAVoopDesc@@@Z 08074c90 f   constantPoolKlass.obj
 0001:00073da0       ?oop_oop_iterate@constantPoolKlass@@UAEHPAVoopDesc@@PAVOopClosure@@@Z 08074da0 f   constantPoolKlass.obj
 0001:00073e40       ?oop_oop_iterate_m@constantPoolKlass@@UAEHPAVoopDesc@@PAVOopClosure@@VMemRegion@@@Z 08074e40 f   constantPoolKlass.obj
 0001:00073f50       ?oop_update_pointers@constantPoolKlass@@UAEHPAVParCompactionManager@@PAVoopDesc@@@Z 08074f50 f   constantPoolKlass.obj
 0001:00074020       ?oop_follow_contents@constantPoolKlass@@UAEXPAVoopDesc@@@Z 08075020 f   constantPoolKlass.obj
 0001:00074200       ?oop_print_on@constantPoolKlass@@UAEXPAVoopDesc@@PAVoutputStream@@@Z 08075200 f   constantPoolKlass.obj
 0001:00074700       ?oop_verify_on@constantPoolKlass@@UAEXPAVoopDesc@@PAVoutputStream@@@Z 08075700 f   constantPoolKlass.obj
 0001:00074b90       ?oop_follow_contents@constantPoolKlass@@UAEXPAVParCompactionManager@@PAVoopDesc@@@Z 08075b90 f   constantPoolKlass.obj
 0001:00074c20       ?oop_set_partially_loaded@constantPoolKlass@@UAEXPAVoopDesc@@@Z 08075c20 f   constantPoolKlass.obj
 0001:00074c50       ?allocate@constantPoolKlass@@QAEPAVconstantPoolOopDesc@@H_NPAVThread@@@Z 08075c50 f   constantPoolKlass.obj
 0001:00074e70       ?oop_push_contents@constantPoolKlass@@UAEXPAVPSPromotionManager@@PAVoopDesc@@@Z 08075e70 f   constantPoolKlass.obj
 0001:00074ed0       ?set_flag_at@constantPoolOopDesc@@AAEXW4FlagBit@1@@Z 08075ed0 f   constantPoolOop.obj
 0001:00074f40       ?name_ref_index_at@constantPoolOopDesc@@QAEHH@Z 08075f40 f   constantPoolOop.obj
 0001:00074f60       ?signature_ref_index_at@constantPoolOopDesc@@QAEHH@Z 08075f60 f   constantPoolOop.obj
 0001:00074f70       ?shared_tags_iterate@constantPoolOopDesc@@QAEXPAVOopClosure@@@Z 08075f70 f   constantPoolOop.obj
 0001:00074fa0       ?add_entry@SymbolHashMap@@QAEXPAVSymbol@@G@Z 08075fa0 f   constantPoolOop.obj
 0001:00075040       ?find_entry@SymbolHashMap@@QAEPAVSymbolHashMapEntry@@PAVSymbol@@@Z 08076040 f   constantPoolOop.obj
 0001:000750a0       ?verify_constant_pool_resolve@constantPoolOopDesc@@CAXVconstantPoolHandle@@VKlassHandle@@PAVThread@@@Z 080760a0 f   constantPoolOop.obj
 0001:00075180       ?impl_klass_ref_index_at@constantPoolOopDesc@@AAEHH_N@Z 08076180 f   constantPoolOop.obj
 0001:000751e0       ?operand_array_length@constantPoolOopDesc@@SAHPAVtypeArrayOopDesc@@@Z 080761e0 f i constantPoolOop.obj
 0001:00075210       ?impl_name_and_type_ref_index_at@constantPoolOopDesc@@AAEHH_N@Z 08076210 f   constantPoolOop.obj
 0001:00075260       ?shared_symbols_iterate@constantPoolOopDesc@@QAEXPAVSymbolClosure@@@Z 08076260 f   constantPoolOop.obj
 0001:00075380       ?shared_strings_iterate@constantPoolOopDesc@@QAEXPAVOopClosure@@@Z 08076380 f   constantPoolOop.obj
 0001:00075460       ?set_f1@ConstantPoolCacheEntry@@AAEXPAVoopDesc@@@Z 08076460 f i constantPoolOop.obj
 0001:000754b0       ?klass_at_impl@constantPoolOopDesc@@CAPAVklassOopDesc@@VconstantPoolHandle@@HPAVThread@@@Z 080764b0 f   constantPoolOop.obj
 0001:00075ab0       ?klass_at_if_loaded@constantPoolOopDesc@@SAPAVklassOopDesc@@VconstantPoolHandle@@H@Z 08076ab0 f   constantPoolOop.obj
 0001:00075c10       ?klass_ref_at_if_loaded_check@constantPoolOopDesc@@SAPAVklassOopDesc@@VconstantPoolHandle@@HPAVThread@@@Z 08076c10 f   constantPoolOop.obj
 0001:00075d90       ?impl_name_ref_at@constantPoolOopDesc@@AAEPAVSymbol@@H_N@Z 08076d90 f   constantPoolOop.obj
 0001:00075e30       ?impl_signature_ref_at@constantPoolOopDesc@@AAEPAVSymbol@@H_N@Z 08076e30 f   constantPoolOop.obj
 0001:00075ec0       ?klass_name_at@constantPoolOopDesc@@QAEPAVSymbol@@H@Z 08076ec0 f   constantPoolOop.obj
 0001:00075f20       ?string_at_noresolve@constantPoolOopDesc@@QAEPADH@Z 08076f20 f   constantPoolOop.obj
 0001:00075fa0       ?basic_type_for_signature_at@constantPoolOopDesc@@QAE?AW4BasicType@@H@Z 08076fa0 f   constantPoolOop.obj
 0001:00076000       ?string_at_impl@constantPoolOopDesc@@CAPAVoopDesc@@VconstantPoolHandle@@HPAVThread@@@Z 08077000 f   constantPoolOop.obj
 0001:00076100       ?is_pseudo_string_at@constantPoolOopDesc@@QAE_NH@Z 08077100 f   constantPoolOop.obj
 0001:00076170       ?klass_name_at_matches@constantPoolOopDesc@@QAE_NVinstanceKlassHandle@@H@Z 08077170 f   constantPoolOop.obj
 0001:000761a0       ?unreference_symbols@constantPoolOopDesc@@QAEXXZ 080771a0 f   constantPoolOop.obj
 0001:00076220       ?hash_entries_to@constantPoolOopDesc@@AAEHPAVSymbolHashMap@@0@Z 08077220 f   constantPoolOop.obj
 0001:00076400       ?copy_cpool_bytes@constantPoolOopDesc@@AAEHHPAVSymbolHashMap@@PAE@Z 08077400 f   constantPoolOop.obj
 0001:00076900       ?klass_ref_at@constantPoolOopDesc@@QAEPAVklassOopDesc@@HPAVThread@@@Z 08077900 f   constantPoolOop.obj
 0001:00076960       ?klass_ref_at_noresolve@constantPoolOopDesc@@QAEPAVSymbol@@H@Z 08077960 f   constantPoolOop.obj
 0001:000769c0       ?uncached_klass_ref_at_noresolve@constantPoolOopDesc@@QAEPAVSymbol@@H@Z 080779c0 f   constantPoolOop.obj
 0001:00076a10       ?resolve_string_constants_impl@constantPoolOopDesc@@CAXVconstantPoolHandle@@PAVThread@@@Z 08077a10 f   constantPoolOop.obj
 0001:00076aa0       ?resolve_constant_at_impl@constantPoolOopDesc@@CAPAVoopDesc@@VconstantPoolHandle@@HHPAVThread@@@Z 08077aa0 f   constantPoolOop.obj
 0001:00077030       ?compare_entry_to@constantPoolOopDesc@@QAE_NHVconstantPoolHandle@@HPAVThread@@@Z 08078030 f   constantPoolOop.obj
 0001:00077520       ?copy_entry_to@constantPoolOopDesc@@SAXVconstantPoolHandle@@H0HPAVThread@@@Z 08078520 f   constantPoolOop.obj
 0001:000779f0       ?find_matching_entry@constantPoolOopDesc@@QAEHHVconstantPoolHandle@@PAVThread@@@Z 080789f0 f   constantPoolOop.obj
 0001:00077a50       ?copy_cp_to_impl@constantPoolOopDesc@@SAXVconstantPoolHandle@@HH0HPAVThread@@@Z 08078a50 f   constantPoolOop.obj
 0001:00077c80       ?internal_name@constMethodKlass@@UBEPBDXZ 08078c80 f   constMethodKlass.obj
 0001:00077c90       ?oop_size@constMethodKlass@@UBEHPAVoopDesc@@@Z 08078c90 f   constMethodKlass.obj
 0001:00077ca0       ?oop_is_parsable@constMethodKlass@@UBE_NPAVoopDesc@@@Z 08078ca0 f   constMethodKlass.obj
 0001:00077cc0       ?oop_is_conc_safe@constMethodKlass@@UBE_NPAVoopDesc@@@Z 08078cc0 f   constMethodKlass.obj
 0001:00077cd0       ?oop_oop_iterate@constMethodKlass@@UAEHPAVoopDesc@@PAVOopClosure@@@Z 08078cd0 f   constMethodKlass.obj
 0001:00077d10       ?oop_oop_iterate_m@constMethodKlass@@UAEHPAVoopDesc@@PAVOopClosure@@VMemRegion@@@Z 08078d10 f   constMethodKlass.obj
 0001:00077d80       ?oop_print_value_on@constMethodKlass@@UAEXPAVoopDesc@@PAVoutputStream@@@Z 08078d80 f   constMethodKlass.obj
 0001:00077db0       ?oop_partially_loaded@constMethodKlass@@UBE_NPAVoopDesc@@@Z 08078db0 f   constMethodKlass.obj
 0001:00077dd0       ?create_klass@constMethodKlass@@SAPAVklassOopDesc@@PAVThread@@@Z 08078dd0 f   constMethodKlass.obj
 0001:00077e70       ?oop_adjust_pointers@constMethodKlass@@UAEHPAVoopDesc@@@Z 08078e70 f   constMethodKlass.obj
 0001:00077ef0       ?oop_update_pointers@constMethodKlass@@UAEHPAVParCompactionManager@@PAVoopDesc@@@Z 08078ef0 f   constMethodKlass.obj
 0001:00077f30       ?oop_print_on@constMethodKlass@@UAEXPAVoopDesc@@PAVoutputStream@@@Z 08078f30 f   constMethodKlass.obj
 0001:00077ff0       ?oop_verify_on@constMethodKlass@@UAEXPAVoopDesc@@PAVoutputStream@@@Z 08078ff0 f   constMethodKlass.obj
 0001:00078310       ?oop_follow_contents@constMethodKlass@@UAEXPAVoopDesc@@@Z 08079310 f   constMethodKlass.obj
 0001:00078340       ?oop_follow_contents@constMethodKlass@@UAEXPAVParCompactionManager@@PAVoopDesc@@@Z 08079340 f   constMethodKlass.obj
 0001:00078380       ?oop_set_partially_loaded@constMethodKlass@@UAEXPAVoopDesc@@@Z 08079380 f   constMethodKlass.obj
 0001:000783b0       ?allocate@constMethodKlass@@QAEPAVconstMethodOopDesc@@HHHH_NPAVThread@@@Z 080793b0 f   constMethodKlass.obj
 0001:00078510       ?object_size@constMethodOopDesc@@SAHHHHH@Z 08079510 f   constMethodOop.obj
 0001:00078560       ?compressed_linenumber_table@constMethodOopDesc@@QBEPAEXZ 08079560 f   constMethodOop.obj
 0001:00078570       ?checked_exceptions_length_addr@constMethodOopDesc@@QBEPAGXZ 08079570 f   constMethodOop.obj
 0001:00078580       ?checked_exceptions_length@constMethodOopDesc@@QBEHXZ 08079580 f   constMethodOop.obj
 0001:000785a0       ?checked_exceptions_start@constMethodOopDesc@@QBEPAVCheckedExceptionElement@@XZ 080795a0 f   constMethodOop.obj
 0001:000785c0       ?localvariable_table_length_addr@constMethodOopDesc@@QBEPAGXZ 080795c0 f   constMethodOop.obj
 0001:000785f0       ?set_inlined_tables_length@constMethodOopDesc@@QAEXHHH@Z 080795f0 f   constMethodOop.obj
 0001:00078640       ?localvariable_table_length@constMethodOopDesc@@QBEHXZ 08079640 f   constMethodOop.obj
 0001:00078670       ?localvariable_table_start@constMethodOopDesc@@QBEPAVLocalVariableTableElement@@XZ 08079670 f   constMethodOop.obj
 0001:000786c0       ?internal_name@constantPoolCacheKlass@@UBEPBDXZ 080796c0 f   cpCacheKlass.obj
 0001:000786d0       ?oop_size@constantPoolCacheKlass@@UBEHPAVoopDesc@@@Z 080796d0 f   cpCacheKlass.obj
 0001:000786f0       ?oop_print_value_on@constantPoolCacheKlass@@UAEXPAVoopDesc@@PAVoutputStream@@@Z 080796f0 f   cpCacheKlass.obj
 0001:00078740       ?create_klass@constantPoolCacheKlass@@SAPAVklassOopDesc@@PAVThread@@@Z 08079740 f   cpCacheKlass.obj
 0001:000787f0       ?oop_oop_iterate@constantPoolCacheKlass@@UAEHPAVoopDesc@@PAVOopClosure@@@Z 080797f0 f   cpCacheKlass.obj
 0001:00078850       ?oop_oop_iterate_m@constantPoolCacheKlass@@UAEHPAVoopDesc@@PAVOopClosure@@VMemRegion@@@Z 08079850 f   cpCacheKlass.obj
 0001:000788d0       ?oop_adjust_pointers@constantPoolCacheKlass@@UAEHPAVoopDesc@@@Z 080798d0 f   cpCacheKlass.obj
 0001:00078940       ?oop_update_pointers@constantPoolCacheKlass@@UAEHPAVParCompactionManager@@PAVoopDesc@@@Z 08079940 f   cpCacheKlass.obj
 0001:000789a0       ?oop_print_on@constantPoolCacheKlass@@UAEXPAVoopDesc@@PAVoutputStream@@@Z 080799a0 f   cpCacheKlass.obj
 0001:000789e0       ?oop_verify_on@constantPoolCacheKlass@@UAEXPAVoopDesc@@PAVoutputStream@@@Z 080799e0 f   cpCacheKlass.obj
 0001:00078a50       ?oop_follow_contents@constantPoolCacheKlass@@UAEXPAVoopDesc@@@Z 08079a50 f   cpCacheKlass.obj
 0001:00078a90       ?allocate@constantPoolCacheKlass@@QAEPAVconstantPoolCacheOopDesc@@HPAVThread@@@Z 08079a90 f   cpCacheKlass.obj
 0001:00078b70       ?oop_follow_contents@constantPoolCacheKlass@@UAEXPAVParCompactionManager@@PAVoopDesc@@@Z 08079b70 f   cpCacheKlass.obj
 0001:00078bc0       ?oop_push_contents@constantPoolCacheKlass@@UAEXPAVPSPromotionManager@@PAVoopDesc@@@Z 08079bc0 f   cpCacheKlass.obj
 0001:00078c10       ?field_index@ConstantPoolCacheEntry@@QBEHXZ 08079c10 f   cpCacheOop.obj
 0001:00078c30       ?do_oop@LocalOopClosure@@UAEXPAPAVoopDesc@@@Z 08079c30 f i cpCacheOop.obj
 0001:00078c50       ?do_oop@LocalOopClosure@@UAEXPAI@Z 08079c50 f i cpCacheOop.obj
 0001:00078c70       ?oop_iterate@ConstantPoolCacheEntry@@QAEXPAVOopClosure@@@Z 08079c70 f   cpCacheOop.obj
 0001:00078cb0       ?oop_iterate_m@ConstantPoolCacheEntry@@QAEXPAVOopClosure@@VMemRegion@@@Z 08079cb0 f   cpCacheOop.obj
 0001:00078d10       ?print@ConstantPoolCacheEntry@@QBEXPAVoutputStream@@H@Z 08079d10 f   cpCacheOop.obj
 0001:00078e00       ?adjust_pointers@ConstantPoolCacheEntry@@QAEXXZ 08079e00 f   cpCacheOop.obj
 0001:00078e60       ?update_pointers@ConstantPoolCacheEntry@@QAEXXZ 08079e60 f   cpCacheOop.obj
 0001:00078eb0       ?is_interesting_method_entry@ConstantPoolCacheEntry@@QAE_NPAVklassOopDesc@@@Z 08079eb0 f   cpCacheOop.obj
 0001:00078f30       ?initialize@constantPoolCacheOopDesc@@QAEXAAVintArray@@@Z 08079f30 f   cpCacheOop.obj
 0001:00078f70       ?set_f1_if_null_atomic@ConstantPoolCacheEntry@@AAEXPAVoopDesc@@@Z 08079f70 f   cpCacheOop.obj
 0001:00078ff0       ?set_dynamic_call@ConstantPoolCacheEntry@@QAEXVHandle@@VmethodHandle@@@Z 08079ff0 f   cpCacheOop.obj
 0001:00079060       ?set_field@ConstantPoolCacheEntry@@QAEXW4Code@Bytecodes@@0VKlassHandle@@HHW4TosState@@_N3@Z 0807a060 f   cpCacheOop.obj
 0001:00079120       ?set_method@ConstantPoolCacheEntry@@QAEXW4Code@Bytecodes@@VmethodHandle@@H@Z 0807a120 f   cpCacheOop.obj
 0001:00079320       ?set_interface_call@ConstantPoolCacheEntry@@QAEXVmethodHandle@@H@Z 0807a320 f   cpCacheOop.obj
 0001:000793e0       ?follow_contents@ConstantPoolCacheEntry@@QAEXXZ 0807a3e0 f   cpCacheOop.obj
 0001:00079410       ?adjust_method_entry@ConstantPoolCacheEntry@@QAE_NPAVmethodOopDesc@@0PA_N@Z 0807a410 f   cpCacheOop.obj
 0001:00079610       ?adjust_method_entries@constantPoolCacheOopDesc@@QAEXPAPAVmethodOopDesc@@0HPA_N@Z 0807a610 f   cpCacheOop.obj
 0001:000796b0       ?follow_contents@ConstantPoolCacheEntry@@QAEXPAVParCompactionManager@@@Z 0807a6b0 f   cpCacheOop.obj
 0001:000796f0       ?do_bool@ComputeEntryStack@@EAEXXZ 0807a6f0 f i generateOopMap.obj
 0001:000796f0       ?do_bool@ComputeCallStack@@EAEXXZ 0807a6f0 f i generateOopMap.obj
 0001:000796f0       ?do_char@ComputeCallStack@@EAEXXZ 0807a6f0 f i generateOopMap.obj
 0001:000796f0       ?do_short@ComputeCallStack@@EAEXXZ 0807a6f0 f i generateOopMap.obj
 0001:000796f0       ?do_byte@ComputeCallStack@@EAEXXZ 0807a6f0 f i generateOopMap.obj
 0001:000796f0       ?do_int@ComputeCallStack@@EAEXXZ 0807a6f0 f i generateOopMap.obj
 0001:000796f0       ?do_int@ComputeEntryStack@@EAEXXZ 0807a6f0 f i generateOopMap.obj
 0001:000796f0       ?do_float@ComputeCallStack@@EAEXXZ 0807a6f0 f i generateOopMap.obj
 0001:000796f0       ?do_char@ComputeEntryStack@@EAEXXZ 0807a6f0 f i generateOopMap.obj
 0001:000796f0       ?do_byte@ComputeEntryStack@@EAEXXZ 0807a6f0 f i generateOopMap.obj
 0001:000796f0       ?do_float@ComputeEntryStack@@EAEXXZ 0807a6f0 f i generateOopMap.obj
 0001:000796f0       ?do_short@ComputeEntryStack@@EAEXXZ 0807a6f0 f i generateOopMap.obj
 0001:00079710       ?do_object@ComputeCallStack@@EAEXHH@Z 0807a710 f i generateOopMap.obj
 0001:00079710       ?do_array@ComputeCallStack@@EAEXHH@Z 0807a710 f i generateOopMap.obj
 0001:00079730       ?do_void@ComputeEntryStack@@EAEXXZ 0807a730 f i generateOopMap.obj
 0001:00079730       ?do_void@ComputeCallStack@@EAEXXZ 0807a730 f i generateOopMap.obj
 0001:00079750       ?do_object@ComputeEntryStack@@EAEXHH@Z 0807a750 f i generateOopMap.obj
 0001:00079750       ?do_array@ComputeEntryStack@@EAEXHH@Z 0807a750 f i generateOopMap.obj
 0001:00079770       ?do_double@ComputeEntryStack@@EAEXXZ 0807a770 f i generateOopMap.obj
 0001:00079770       ?do_double@ComputeCallStack@@EAEXXZ 0807a770 f i generateOopMap.obj
 0001:00079770       ?do_long@ComputeEntryStack@@EAEXXZ 0807a770 f i generateOopMap.obj
 0001:00079770       ?do_long@ComputeCallStack@@EAEXXZ 0807a770 f i generateOopMap.obj
 0001:000797a0       ?to_char@CellTypeState@@QBEDXZ 0807a7a0 f   generateOopMap.obj
 0001:000797f0       ?get_basic_block_containing@GenerateOopMap@@IBEPAVBasicBlock@@H@Z 0807a7f0 f   generateOopMap.obj
 0001:00079880       ?merge_local_state_vectors@GenerateOopMap@@IAE_NPAVCellTypeState@@0@Z 0807a880 f   generateOopMap.obj
 0001:00079920       ?merge_monitor_state_vectors@GenerateOopMap@@IAE_NPAVCellTypeState@@0@Z 0807a920 f   generateOopMap.obj
 0001:000799d0       ?copy_state@GenerateOopMap@@IAEXPAVCellTypeState@@0@Z 0807a9d0 f   generateOopMap.obj
 0001:00079a70       ?replace_all_CTS_matches@GenerateOopMap@@IAEXVCellTypeState@@0@Z 0807aa70 f   generateOopMap.obj
 0001:00079ad0       ?next@BytecodeStream@@QAE?AW4Code@Bytecodes@@XZ 0807aad0 f i generateOopMap.obj
 0001:00079bb0       ?update_ret_table@RetTable@@QAEXHH@Z 0807abb0 f   generateOopMap.obj
 0001:00079c00       ?initialize_bb@GenerateOopMap@@IAEXXZ 0807ac00 f   generateOopMap.obj
 0001:00079c60       ?bb_mark_fct@GenerateOopMap@@KAXPAV1@HPAH@Z 0807ac60 f   generateOopMap.obj
 0001:00079ca0       ?monitor_push@GenerateOopMap@@IAEXVCellTypeState@@@Z 0807aca0 f   generateOopMap.obj
 0001:00079ce0       ?update_basic_blocks@GenerateOopMap@@IAEXHHH@Z 0807ace0 f   generateOopMap.obj
 0001:00079d70       ?initialize_vars@GenerateOopMap@@IAEXXZ 0807ad70 f   generateOopMap.obj
 0001:00079db0       ??0GenerateOopMap@@QAE@VmethodHandle@@@Z 0807adb0 f   generateOopMap.obj
 0001:00079de0       ?possible_gc_point@GenerateOopMap@@UAE_NPAVBytecodeStream@@@Z 0807ade0 f i generateOopMap.obj
 0001:00079e00       ?fill_stackmap_prolog@GenerateOopMap@@UAEXH@Z 0807ae00 f i generateOopMap.obj
 0001:00079e20       ?fill_stackmap_epilog@GenerateOopMap@@UAEXXZ 0807ae20 f i generateOopMap.obj
 0001:00079e40       ?fill_stackmap_for_opcodes@GenerateOopMap@@UAEXPAVBytecodeStream@@PAVCellTypeState@@1H@Z 0807ae40 f i generateOopMap.obj
 0001:00079e60       ?fill_init_vars@GenerateOopMap@@UAEXPAV?$GrowableArray@H@@@Z 0807ae60 f i generateOopMap.obj
 0001:00079e80       ??0Bytecode_anewarray@@QAE@PAVmethodOopDesc@@PAE@Z 0807ae80 f i c1_Runtime1.obj
 0001:00079e80       ??0Bytecode_tableswitch@@QAE@PAVmethodOopDesc@@PAE@Z 0807ae80 f i generateOopMap.obj
 0001:00079e80       ??0Bytecode_instanceof@@QAE@PAVmethodOopDesc@@PAE@Z 0807ae80 f i c1_Runtime1.obj
 0001:00079e80       ??0Bytecode_checkcast@@QAE@PAVmethodOopDesc@@PAE@Z 0807ae80 f i sharedRuntime.obj
 0001:00079e80       ??0Bytecode_multianewarray@@QAE@PAVmethodOopDesc@@PAE@Z 0807ae80 f i c1_Runtime1.obj
 0001:00079e80       ??0Bytecode_lookupswitch@@QAE@PAVmethodOopDesc@@PAE@Z 0807ae80 f i rewriter.obj
 0001:00079e80       ??0Bytecode_new@@QAE@PAVmethodOopDesc@@PAE@Z 0807ae80 f i c1_Runtime1.obj
 0001:00079ec0       ?get_index_u2_cpcache@BytecodeStream@@QBEHXZ 0807aec0 f i generateOopMap.obj
 0001:00079ef0       ?get_index_u4@BytecodeStream@@QBEHXZ 0807aef0 f i generateOopMap.obj
 0001:00079f20       ??0RetTableEntry@@QAE@HPAV0@@Z 0807af20 f i generateOopMap.obj
 0001:00079fa0       ?reachable_basicblock@GenerateOopMap@@KAXPAV1@HPAH@Z 0807afa0 f   generateOopMap.obj
 0001:00079fd0       ?jump_targets_do@GenerateOopMap@@IAE_NPAVBytecodeStream@@P6AXPAV1@HPAH@Z2@Z 0807afd0 f   generateOopMap.obj
 0001:0007a1e0       ?init_state@GenerateOopMap@@IAEXXZ 0807b1e0 f   generateOopMap.obj
 0001:0007a240       ?relocated@RelocCallback@@UAEXHHH@Z 0807b240 f i generateOopMap.obj
 0001:0007a2b0       ?get_index@BytecodeStream@@QBEHXZ 0807b2b0 f i generateOopMap.obj
 0001:0007a320       ?compute_ret_table@RetTable@@QAEXVmethodHandle@@@Z 0807b320 f   generateOopMap.obj
 0001:0007a4a0       ?mark_bbheaders_and_count_gc_points@GenerateOopMap@@IAEXXZ 0807b4a0 f   generateOopMap.obj
 0001:0007a620       ?mark_reachable_code@GenerateOopMap@@IAEXXZ 0807b620 f   generateOopMap.obj
 0001:0007a770       ?error_work@GenerateOopMap@@IAEXPBDPAD@Z 0807b770 f   generateOopMap.obj
 0001:0007a830       ?report_error@GenerateOopMap@@IAAXPBDZZ 0807b830 f   generateOopMap.obj
 0001:0007a850       ?verify_error@GenerateOopMap@@IAAXPBDZZ 0807b850 f   generateOopMap.obj
 0001:0007a8f0       ?record_refval_conflict@GenerateOopMap@@IAEXH@Z 0807b8f0 f   generateOopMap.obj
 0001:0007a960       ?expand_current_instr@GenerateOopMap@@IAEXHHHQAE@Z 0807b960 f   generateOopMap.obj
 0001:0007aa00       ?merge_state_into_bb@GenerateOopMap@@IAEXPAVBasicBlock@@@Z 0807ba00 f   generateOopMap.obj
 0001:0007aaa0       ?merge_state@GenerateOopMap@@KAXPAV1@HPAH@Z 0807baa0 f   generateOopMap.obj
 0001:0007aac0       ?init_basic_blocks@GenerateOopMap@@IAEXXZ 0807bac0 f   generateOopMap.obj
 0001:0007ac60       ?setup_method_entry_state@GenerateOopMap@@IAEXXZ 0807bc60 f   generateOopMap.obj
 0001:0007ad00       ?do_exception_edge@GenerateOopMap@@IAEXPAVBytecodeStream@@@Z 0807bd00 f   generateOopMap.obj
 0001:0007aec0       ?check_type@GenerateOopMap@@IAEXVCellTypeState@@0@Z 0807bec0 f   generateOopMap.obj
 0001:0007afa0       ?ppstore@GenerateOopMap@@IAEXPAVCellTypeState@@H@Z 0807bfa0 f   generateOopMap.obj
 0001:0007b040       ?ppload@GenerateOopMap@@IAEXPAVCellTypeState@@H@Z 0807c040 f   generateOopMap.obj
 0001:0007b1a0       ?ppdupswap@GenerateOopMap@@IAEXHPBD@Z 0807c1a0 f   generateOopMap.obj
 0001:0007b260       ?ppop1@GenerateOopMap@@IAEXVCellTypeState@@@Z 0807c260 f   generateOopMap.obj
 0001:0007b2c0       ?ppop@GenerateOopMap@@IAEXPAVCellTypeState@@@Z 0807c2c0 f   generateOopMap.obj
 0001:0007b320       ?ppush1@GenerateOopMap@@IAEXVCellTypeState@@@Z 0807c320 f   generateOopMap.obj
 0001:0007b360       ?ppush@GenerateOopMap@@IAEXPAVCellTypeState@@@Z 0807c360 f   generateOopMap.obj
 0001:0007b3b0       ?pp_new_ref@GenerateOopMap@@IAEXPAVCellTypeState@@H@Z 0807c3b0 f   generateOopMap.obj
 0001:0007b400       ?ppop_any@GenerateOopMap@@IAEXH@Z 0807c400 f   generateOopMap.obj
 0001:0007b430       ?do_checkcast@GenerateOopMap@@IAEXXZ 0807c430 f   generateOopMap.obj
 0001:0007b4a0       ?do_monitorenter@GenerateOopMap@@IAEXH@Z 0807c4a0 f   generateOopMap.obj
 0001:0007b540       ?do_monitorexit@GenerateOopMap@@IAEXH@Z 0807c540 f   generateOopMap.obj
 0001:0007b600       ?do_jsr@GenerateOopMap@@IAEXH@Z 0807c600 f   generateOopMap.obj
 0001:0007b640       ?do_ldc@GenerateOopMap@@IAEXH@Z 0807c640 f   generateOopMap.obj
 0001:0007b700       ?do_multianewarray@GenerateOopMap@@IAEXHH@Z 0807c700 f   generateOopMap.obj
 0001:0007b790       ?do_astore@GenerateOopMap@@IAEXH@Z 0807c790 f   generateOopMap.obj
 0001:0007b830       ?do_field@GenerateOopMap@@IAEXHHHH@Z 0807c830 f   generateOopMap.obj
 0001:0007b970       ?do_method@GenerateOopMap@@IAEXHHHH@Z 0807c970 f   generateOopMap.obj
 0001:0007bb00       ?ret_jump_targets_do@GenerateOopMap@@IAEXPAVBytecodeStream@@P6AXPAV1@HPAH@ZH2@Z 0807cb00 f   generateOopMap.obj
 0001:0007bbc0       ?rewrite_load_or_store@GenerateOopMap@@IAE_NPAVBytecodeStream@@W4Code@Bytecodes@@1I@Z 0807cbc0 f   generateOopMap.obj
 0001:0007bcc0       ?interp1@GenerateOopMap@@IAEXPAVBytecodeStream@@@Z 0807ccc0 f   generateOopMap.obj
 0001:0007c630       ?rewrite_refval_conflict_inst@GenerateOopMap@@IAE_NPAVBytecodeStream@@HH@Z 0807d630 f   generateOopMap.obj
 0001:0007c6e0       ?compute_ret_adr_at_TOS@GenerateOopMap@@IAEXXZ 0807d6e0 f   generateOopMap.obj
 0001:0007c820       ?interp_bb@GenerateOopMap@@IAEXPAVBasicBlock@@@Z 0807d820 f   generateOopMap.obj
 0001:0007c9a0       ?report_result@GenerateOopMap@@IAEXXZ 0807d9a0 f   generateOopMap.obj
 0001:0007cb90       ?result_for_basicblock@GenerateOopMap@@QAEXH@Z 0807db90 f   generateOopMap.obj
 0001:0007cbc0       ?rewrite_refval_conflict@GenerateOopMap@@IAEXHH@Z 0807dbc0 f   generateOopMap.obj
 0001:0007cc40       ?interp_all@GenerateOopMap@@IAEXXZ 0807dc40 f   generateOopMap.obj
 0001:0007ce10       ?rewrite_refval_conflicts@GenerateOopMap@@IAEXXZ 0807de10 f   generateOopMap.obj
 0001:0007ceb0       ?do_interpretation@GenerateOopMap@@IAEXXZ 0807deb0 f   generateOopMap.obj
 0001:0007cf00       ?compute_map@GenerateOopMap@@QAEXPAVThread@@@Z 0807df00 f   generateOopMap.obj
 0001:0007d0e0       ?do_potential_rewrite@ResolveOopMapConflicts@@QAE?AVmethodHandle@@PAVThread@@@Z 0807e0e0 f   generateOopMap.obj
 0001:0007d140       ?unlink_class@instanceKlass@@QAEXXZ 0807e140 f   instanceKlass.obj
 0001:0007d150       ?can_be_primary_super_slow@instanceKlass@@UBE_NXZ 0807e150 f   instanceKlass.obj
 0001:0007d170       ?array_klass_impl@instanceKlass@@EAEPAVklassOopDesc@@_NPAVThread@@@Z 0807e170 f   instanceKlass.obj
 0001:0007d190       ?with_array_klasses_do@instanceKlass@@UAEXP6AXPAVklassOopDesc@@@Z@Z 0807e190 f   instanceKlass.obj
 0001:0007d1c0       ?add_dependent_nmethod@instanceKlass@@QAEXPAVnmethod@@@Z 0807e1c0 f   instanceKlass.obj
 0001:0007d230       ?remove_dependent_nmethod@instanceKlass@@QAEXPAVnmethod@@@Z 0807e230 f   instanceKlass.obj
 0001:0007d2a0       ?set_source_file_name@instanceKlass@@QAEXPAVSymbol@@@Z 0807e2a0 f   instanceKlass.obj
 0001:0007d2c0       ?set_source_debug_extension@instanceKlass@@QAEXPAVSymbol@@@Z 0807e2c0 f   instanceKlass.obj
 0001:0007d2e0       ?static_field_addr@instanceKlass@@QAEPAEH@Z 0807e2e0 f   instanceKlass.obj
 0001:0007d300       ?signature_name@instanceKlass@@UBEPBDXZ 0807e300 f   instanceKlass.obj
 0001:0007d350       ?internal_name@typeArrayKlass@@UBEPBDXZ 0807e350 f   typeArrayKlass.obj
 0001:0007d350       ?internal_name@objArrayKlass@@UBEPBDXZ 0807e350 f   objArrayKlass.obj
 0001:0007d350       ?internal_name@instanceKlass@@UBEPBDXZ 0807e350 f   instanceKlass.obj
 0001:0007d360       ??$adjust_pointer@I@PSParallelCompact@@CAXPAI_N@Z 0807e360 f i instanceKlass.obj
 0001:0007d3b0       ?heap_region_containing@G1CollectedHeap@@QBEPAVHeapRegion@@PBX@Z 0807e3b0 f i instanceKlass.obj
 0001:0007d400       ?should_be_initialized@instanceKlass@@UBE_NXZ 0807e400 f   instanceKlass.obj
 0001:0007d410       ?verify_code@instanceKlass@@CA_NVinstanceKlassHandle@@_NPAVThread@@@Z 0807e410 f   instanceKlass.obj
 0001:0007d450       ?rewrite_class@instanceKlass@@QAEXPAVThread@@@Z 0807e450 f   instanceKlass.obj
 0001:0007d4e0       ?relocate_and_link_methods@instanceKlass@@QAEXPAVThread@@@Z 0807e4e0 f   instanceKlass.obj
 0001:0007d560       ?mask_for@instanceKlass@@QAEXVmethodHandle@@HPAVInterpreterOopMap@@@Z 0807e560 f   instanceKlass.obj
 0001:0007d5d0       ?array_klasses_do@instanceKlass@@UAEXP6AXPAVklassOopDesc@@@Z@Z 0807e5d0 f   instanceKlass.obj
 0001:0007d5f0       ?get_jmethod_id_fetch_or_update@instanceKlass@@SAPAU_jmethodID@@VinstanceKlassHandle@@IPAU2@PAPAU2@2PAPAPAU2@@Z 0807e5f0 f   instanceKlass.obj
 0001:0007d690       ?jmethod_id_or_null@instanceKlass@@QAEPAU_jmethodID@@PAVmethodOopDesc@@@Z 0807e690 f   instanceKlass.obj
 0001:0007d6c0       ?set_cached_itable_index@instanceKlass@@QAEXIH@Z 0807e6c0 f   instanceKlass.obj
 0001:0007d7f0       ?cached_itable_index@instanceKlass@@QAEHI@Z 0807e7f0 f   instanceKlass.obj
 0001:0007d820       ?oop_oop_iterate_v@instanceKlass@@UAEHPAVoopDesc@@PAVOopClosure@@@Z 0807e820 f   instanceKlass.obj
 0001:0007d8c0       ?oop_oop_iterate_nv@instanceKlass@@UAEHPAVoopDesc@@PAVFilteringClosure@@@Z 0807e8c0 f   instanceKlass.obj
 0001:0007d950       ?oop_oop_iterate_nv@instanceKlass@@UAEHPAVoopDesc@@PAVMarkRefsIntoAndScanClosure@@@Z 0807e950 f   instanceKlass.obj
 0001:0007d9f0       ?oop_oop_iterate_nv@instanceKlass@@UAEHPAVoopDesc@@PAVPar_MarkRefsIntoAndScanClosure@@@Z 0807e9f0 f   instanceKlass.obj
 0001:0007da90       ?oop_oop_iterate_nv@instanceKlass@@UAEHPAVoopDesc@@PAVPushAndMarkClosure@@@Z 0807ea90 f   instanceKlass.obj
 0001:0007db30       ?oop_oop_iterate_nv@instanceKlass@@UAEHPAVoopDesc@@PAVPar_PushAndMarkClosure@@@Z 0807eb30 f   instanceKlass.obj
 0001:0007dbd0       ?oop_oop_iterate_nv@instanceKlass@@UAEHPAVoopDesc@@PAVPushOrMarkClosure@@@Z 0807ebd0 f   instanceKlass.obj
 0001:0007dc70       ?oop_oop_iterate_nv@instanceKlass@@UAEHPAVoopDesc@@PAVPar_PushOrMarkClosure@@@Z 0807ec70 f   instanceKlass.obj
 0001:0007dd10       ?oop_oop_iterate_nv@instanceKlass@@UAEHPAVoopDesc@@PAVCMSKeepAliveClosure@@@Z 0807ed10 f   instanceKlass.obj
 0001:0007ddb0       ?oop_oop_iterate_nv@instanceKlass@@UAEHPAVoopDesc@@PAVCMSInnerParMarkAndPushClosure@@@Z 0807edb0 f   instanceKlass.obj
 0001:0007de50       ?oop_oop_iterate_nv@instanceKlass@@UAEHPAVoopDesc@@PAV?$G1ParCopyClosure@$0A@$01$0A@@@@Z 0807ee50 f   instanceKlass.obj
 0001:0007dee0       ?oop_oop_iterate_v_m@instanceKlass@@UAEHPAVoopDesc@@PAVOopClosure@@VMemRegion@@@Z 0807eee0 f   instanceKlass.obj
 0001:0007dfa0       ?oop_oop_iterate_nv_m@instanceKlass@@UAEHPAVoopDesc@@PAVFilteringClosure@@VMemRegion@@@Z 0807efa0 f   instanceKlass.obj
 0001:0007e050       ?oop_oop_iterate_nv_m@instanceKlass@@UAEHPAVoopDesc@@PAVMarkRefsIntoAndScanClosure@@VMemRegion@@@Z 0807f050 f   instanceKlass.obj
 0001:0007e110       ?oop_oop_iterate_nv_m@instanceKlass@@UAEHPAVoopDesc@@PAVPar_MarkRefsIntoAndScanClosure@@VMemRegion@@@Z 0807f110 f   instanceKlass.obj
 0001:0007e1d0       ?oop_oop_iterate_nv_m@instanceKlass@@UAEHPAVoopDesc@@PAVPushAndMarkClosure@@VMemRegion@@@Z 0807f1d0 f   instanceKlass.obj
 0001:0007e290       ?oop_oop_iterate_nv_m@instanceKlass@@UAEHPAVoopDesc@@PAVPar_PushAndMarkClosure@@VMemRegion@@@Z 0807f290 f   instanceKlass.obj
 0001:0007e350       ?oop_oop_iterate_nv_m@instanceKlass@@UAEHPAVoopDesc@@PAVPushOrMarkClosure@@VMemRegion@@@Z 0807f350 f   instanceKlass.obj
 0001:0007e410       ?oop_oop_iterate_nv_m@instanceKlass@@UAEHPAVoopDesc@@PAVPar_PushOrMarkClosure@@VMemRegion@@@Z 0807f410 f   instanceKlass.obj
 0001:0007e4d0       ?oop_oop_iterate_nv_m@instanceKlass@@UAEHPAVoopDesc@@PAVCMSKeepAliveClosure@@VMemRegion@@@Z 0807f4d0 f   instanceKlass.obj
 0001:0007e590       ?oop_oop_iterate_nv_m@instanceKlass@@UAEHPAVoopDesc@@PAVCMSInnerParMarkAndPushClosure@@VMemRegion@@@Z 0807f590 f   instanceKlass.obj
 0001:0007e650       ?oop_oop_iterate_nv_m@instanceKlass@@UAEHPAVoopDesc@@PAV?$G1ParCopyClosure@$0A@$01$0A@@@VMemRegion@@@Z 0807f650 f   instanceKlass.obj
 0001:0007e710       ?oop_oop_iterate_backwards_v@instanceKlass@@UAEHPAVoopDesc@@PAVOopClosure@@@Z 0807f710 f   instanceKlass.obj
 0001:0007e7a0       ?oop_oop_iterate_backwards_nv@instanceKlass@@UAEHPAVoopDesc@@PAVFilteringClosure@@@Z 0807f7a0 f   instanceKlass.obj
 0001:0007e830       ?oop_oop_iterate_backwards_nv@instanceKlass@@UAEHPAVoopDesc@@PAVMarkRefsIntoAndScanClosure@@@Z 0807f830 f   instanceKlass.obj
 0001:0007e8d0       ?oop_oop_iterate_backwards_nv@instanceKlass@@UAEHPAVoopDesc@@PAVPar_MarkRefsIntoAndScanClosure@@@Z 0807f8d0 f   instanceKlass.obj
 0001:0007e970       ?oop_oop_iterate_backwards_nv@instanceKlass@@UAEHPAVoopDesc@@PAVPushAndMarkClosure@@@Z 0807f970 f   instanceKlass.obj
 0001:0007ea10       ?oop_oop_iterate_backwards_nv@instanceKlass@@UAEHPAVoopDesc@@PAVPar_PushAndMarkClosure@@@Z 0807fa10 f   instanceKlass.obj
 0001:0007eab0       ?oop_oop_iterate_backwards_nv@instanceKlass@@UAEHPAVoopDesc@@PAVPushOrMarkClosure@@@Z 0807fab0 f   instanceKlass.obj
 0001:0007eb50       ?oop_oop_iterate_backwards_nv@instanceKlass@@UAEHPAVoopDesc@@PAVPar_PushOrMarkClosure@@@Z 0807fb50 f   instanceKlass.obj
 0001:0007ebf0       ?oop_oop_iterate_backwards_nv@instanceKlass@@UAEHPAVoopDesc@@PAVCMSKeepAliveClosure@@@Z 0807fbf0 f   instanceKlass.obj
 0001:0007ec90       ?oop_oop_iterate_backwards_nv@instanceKlass@@UAEHPAVoopDesc@@PAVCMSInnerParMarkAndPushClosure@@@Z 0807fc90 f   instanceKlass.obj
 0001:0007ed30       ?oop_oop_iterate_backwards_nv@instanceKlass@@UAEHPAVoopDesc@@PAV?$G1ParCopyClosure@$0A@$01$0A@@@@Z 0807fd30 f   instanceKlass.obj
 0001:0007edc0       ?follow_weak_klass_links@instanceKlass@@UAEXPAVBoolObjectClosure@@PAVOopClosure@@@Z 0807fdc0 f   instanceKlass.obj
 0001:0007ee60       ?jvmti_class_status@instanceKlass@@UBEHXZ 0807fe60 f   instanceKlass.obj
 0001:0007ee90       ?method_at_itable@instanceKlass@@QAEPAVmethodOopDesc@@PAVklassOopDesc@@HPAVThread@@@Z 0807fe90 f   instanceKlass.obj
 0001:0007ef30       ?remove_osr_nmethod@instanceKlass@@QAEXPAVnmethod@@@Z 0807ff30 f   instanceKlass.obj
 0001:0007efe0       ?lookup_osr_nmethod@instanceKlass@@QBEPAVnmethod@@QAVmethodOopDesc@@HH_N@Z 0807ffe0 f   instanceKlass.obj
 0001:0007f090       ?oop_verify_on@instanceKlass@@UAEXPAVoopDesc@@PAVoutputStream@@@Z 08080090 f   instanceKlass.obj
 0001:0007f0d0       ?oops_do@JNIid@@QAEXPAVOopClosure@@@Z 080800d0 f   instanceKlass.obj
 0001:0007f100       ?verify@JNIid@@QAEXPAVklassOopDesc@@@Z 08080100 f   instanceKlass.obj
 0001:0007f140       ??1PreviousVersionWalker@@QAE@XZ 08080140 f   instanceKlass.obj
 0001:0007f160       ??$do_oop_nv@I@FilterOutOfRegionClosure@@QAEXPAI@Z 08080160 f i instanceKlass.obj
 0001:0007f1a0       ??$do_oop_nv@PAVoopDesc@@@FilterOutOfRegionClosure@@QAEXPAPAVoopDesc@@@Z 080801a0 f i instanceKlass.obj
 0001:0007f1d0       ??$do_oop_nv@PAVoopDesc@@@FilterInHeapRegionAndIntoCSClosure@@QAEXPAPAVoopDesc@@@Z 080801d0 f i instanceKlass.obj
 0001:0007f230       ??$do_oop_nv@PAVoopDesc@@@FilterAndMarkInHeapRegionAndIntoCSClosure@@QAEXPAPAVoopDesc@@@Z 08080230 f i instanceKlass.obj
 0001:0007f2c0       ??$par_write_ref@I@G1RemSet@@QAEXPAVHeapRegion@@PAIH@Z 080802c0 f i instanceKlass.obj
 0001:0007f340       ??$par_write_ref@PAVoopDesc@@@G1RemSet@@QAEXPAVHeapRegion@@PAPAVoopDesc@@H@Z 08080340 f i instanceKlass.obj
 0001:0007f3b0       ??$deferred_rs_update@I@G1ParScanThreadState@@IAEXPAVHeapRegion@@PAIH@Z 080803b0 f i instanceKlass.obj
 0001:0007f420       ?compute_enclosing_class@instanceKlass@@QAEPAVklassOopDesc@@PA_NPAVThread@@@Z 08080420 f i instanceKlass.obj
 0001:0007f490       ?vtable@instanceKlass@@UBEPAVklassVtable@@XZ 08080490 f   instanceKlass.obj
 0001:0007f510       ?itable@instanceKlass@@QBEPAVklassItable@@XZ 08080510 f   instanceKlass.obj
 0001:0007f540       ?set_initialization_state_and_notify@instanceKlass@@QAEXW4ClassState@1@PAVThread@@@Z 08080540 f   instanceKlass.obj
 0001:0007f5d0       ?register_finalizer@instanceKlass@@SAPAVinstanceOopDesc@@PAV2@PAVThread@@@Z 080805d0 f   instanceKlass.obj
 0001:0007f6f0       ?check_valid_for_instantiation@instanceKlass@@UAEX_NPAVThread@@@Z 080806f0 f   instanceKlass.obj
 0001:0007f7e0       ?do_local_static_fields_impl@instanceKlass@@CAXVinstanceKlassHandle@@P6AXPAVfieldDescriptor@@PAVThread@@@Z2@Z 080807e0 f   instanceKlass.obj
 0001:0007f860       ?jni_id_for_impl@instanceKlass@@CAPAVJNIid@@VinstanceKlassHandle@@H@Z 08080860 f   instanceKlass.obj
 0001:0007f930       ?jni_id_for@instanceKlass@@QAEPAVJNIid@@H@Z 08080930 f   instanceKlass.obj
 0001:0007f970       ?mark_dependent_nmethods@instanceKlass@@QAEHAAVDepChange@@@Z 08080970 f   instanceKlass.obj
 0001:0007f9d0       ?oop_oop_iterate_nv@instanceKlass@@UAEHPAVoopDesc@@PAVFilterIntoCSClosure@@@Z 080809d0 f   instanceKlass.obj
 0001:0007fa90       ?oop_oop_iterate_nv@instanceKlass@@UAEHPAVoopDesc@@PAVFilterOutOfRegionClosure@@@Z 08080a90 f   instanceKlass.obj
 0001:0007fb30       ?oop_oop_iterate_nv@instanceKlass@@UAEHPAVoopDesc@@PAVFilterInHeapRegionAndIntoCSClosure@@@Z 08080b30 f   instanceKlass.obj
 0001:0007fbf0       ?oop_oop_iterate_nv@instanceKlass@@UAEHPAVoopDesc@@PAVFilterAndMarkInHeapRegionAndIntoCSClosure@@@Z 08080bf0 f   instanceKlass.obj
 0001:0007fcf0       ?oop_oop_iterate_nv_m@instanceKlass@@UAEHPAVoopDesc@@PAVFilterIntoCSClosure@@VMemRegion@@@Z 08080cf0 f   instanceKlass.obj
 0001:0007fdd0       ?oop_oop_iterate_nv_m@instanceKlass@@UAEHPAVoopDesc@@PAVFilterOutOfRegionClosure@@VMemRegion@@@Z 08080dd0 f   instanceKlass.obj
 0001:0007fe80       ?oop_oop_iterate_nv_m@instanceKlass@@UAEHPAVoopDesc@@PAVFilterInHeapRegionAndIntoCSClosure@@VMemRegion@@@Z 08080e80 f   instanceKlass.obj
 0001:0007ff60       ?oop_oop_iterate_nv_m@instanceKlass@@UAEHPAVoopDesc@@PAVFilterAndMarkInHeapRegionAndIntoCSClosure@@VMemRegion@@@Z 08080f60 f   instanceKlass.obj
 0001:00080080       ?oop_oop_iterate_backwards_nv@instanceKlass@@UAEHPAVoopDesc@@PAVFilterIntoCSClosure@@@Z 08081080 f   instanceKlass.obj
 0001:00080140       ?oop_oop_iterate_backwards_nv@instanceKlass@@UAEHPAVoopDesc@@PAVFilterOutOfRegionClosure@@@Z 08081140 f   instanceKlass.obj
 0001:000801d0       ?oop_oop_iterate_backwards_nv@instanceKlass@@UAEHPAVoopDesc@@PAVFilterInHeapRegionAndIntoCSClosure@@@Z 080811d0 f   instanceKlass.obj
 0001:00080290       ?oop_oop_iterate_backwards_nv@instanceKlass@@UAEHPAVoopDesc@@PAVFilterAndMarkInHeapRegionAndIntoCSClosure@@@Z 08081290 f   instanceKlass.obj
 0001:00080390       ?oop_adjust_pointers@instanceKlass@@UAEHPAVoopDesc@@@Z 08081390 f   instanceKlass.obj
 0001:00080450       ?oop_update_pointers@instanceKlass@@UAEHPAVParCompactionManager@@PAVoopDesc@@@Z 08081450 f   instanceKlass.obj
 0001:000804e0       ?is_same_class_package@instanceKlass@@SA_NPAVoopDesc@@PAVSymbol@@01@Z 080814e0 f   instanceKlass.obj
 0001:000805f0       ?add_osr_nmethod@instanceKlass@@QAEXPAVnmethod@@@Z 080815f0 f   instanceKlass.obj
 0001:000806a0       ?oop_print_value_on@instanceKlass@@UAEXPAVoopDesc@@PAVoutputStream@@@Z 080816a0 f   instanceKlass.obj
 0001:00080860       ??0PreviousVersionInfo@@QAE@PAVPreviousVersionNode@@@Z 08081860 f   instanceKlass.obj
 0001:00080970       ??0PreviousVersionWalker@@QAE@PAVinstanceKlass@@@Z 08081970 f   instanceKlass.obj
 0001:000809b0       ?next_previous_version@PreviousVersionWalker@@QAEPAVPreviousVersionInfo@@XZ 080819b0 f   instanceKlass.obj
 0001:00080a30       ??$do_oop_work@I@ParScanClosure@@IAEXPAI_N1@Z 08081a30 f i instanceKlass.obj
 0001:00080b20       ??$do_oop_work@PAVoopDesc@@@VerifyFieldClosure@@IAEXPAPAVoopDesc@@@Z 08081b20 f i instanceKlass.obj
 0001:00080bb0       ??$do_oop_work@I@VerifyFieldClosure@@IAEXPAI@Z 08081bb0 f i instanceKlass.obj
 0001:00080c50       ??$update_rs@PAVoopDesc@@@G1ParScanThreadState@@QAEXPAVHeapRegion@@PAPAVoopDesc@@H@Z 08081c50 f i instanceKlass.obj
 0001:00080cb0       ?do_local_static_fields@instanceKlass@@QAEXP6AXPAVfieldDescriptor@@PAVThread@@@Z1@Z 08081cb0 f   instanceKlass.obj
 0001:00080d20       ?oop_oop_iterate_nv@instanceKlass@@UAEHPAVoopDesc@@PAVScanClosure@@@Z 08081d20 f   instanceKlass.obj
 0001:00080e00       ?oop_oop_iterate_nv@instanceKlass@@UAEHPAVoopDesc@@PAVFastScanClosure@@@Z 08081e00 f   instanceKlass.obj
 0001:00080ee0       ?oop_oop_iterate_nv@instanceKlass@@UAEHPAVoopDesc@@PAVParScanWithBarrierClosure@@@Z 08081ee0 f   instanceKlass.obj
 0001:00081040       ?oop_oop_iterate_nv@instanceKlass@@UAEHPAVoopDesc@@PAVParScanWithoutBarrierClosure@@@Z 08082040 f   instanceKlass.obj
 0001:00081190       ?oop_oop_iterate_nv_m@instanceKlass@@UAEHPAVoopDesc@@PAVScanClosure@@VMemRegion@@@Z 08082190 f   instanceKlass.obj
 0001:000812a0       ?oop_oop_iterate_nv_m@instanceKlass@@UAEHPAVoopDesc@@PAVFastScanClosure@@VMemRegion@@@Z 080822a0 f   instanceKlass.obj
 0001:000813a0       ?oop_oop_iterate_nv_m@instanceKlass@@UAEHPAVoopDesc@@PAVParScanWithBarrierClosure@@VMemRegion@@@Z 080823a0 f   instanceKlass.obj
 0001:00081530       ?oop_oop_iterate_nv_m@instanceKlass@@UAEHPAVoopDesc@@PAVParScanWithoutBarrierClosure@@VMemRegion@@@Z 08082530 f   instanceKlass.obj
 0001:000816b0       ?oop_oop_iterate_backwards_nv@instanceKlass@@UAEHPAVoopDesc@@PAVScanClosure@@@Z 080826b0 f   instanceKlass.obj
 0001:000817a0       ?oop_oop_iterate_backwards_nv@instanceKlass@@UAEHPAVoopDesc@@PAVFastScanClosure@@@Z 080827a0 f   instanceKlass.obj
 0001:00081890       ?oop_oop_iterate_backwards_nv@instanceKlass@@UAEHPAVoopDesc@@PAVParScanWithBarrierClosure@@@Z 08082890 f   instanceKlass.obj
 0001:000819f0       ?oop_oop_iterate_backwards_nv@instanceKlass@@UAEHPAVoopDesc@@PAVParScanWithoutBarrierClosure@@@Z 080829f0 f   instanceKlass.obj
 0001:00081b40       ?is_same_class_package@instanceKlass@@QAE_NPAVklassOopDesc@@@Z 08082b40 f   instanceKlass.obj
 0001:00081ba0       ?is_override@instanceKlass@@QAE_NVmethodHandle@@VHandle@@PAVSymbol@@PAVThread@@@Z 08082ba0 f   instanceKlass.obj
 0001:00081c10       ?is_same_package_member_impl@instanceKlass@@SA_NVinstanceKlassHandle@@PAVklassOopDesc@@PAVThread@@@Z 08082c10 f   instanceKlass.obj
 0001:00081dd0       ?do_oop@VerifyFieldClosure@@UAEXPAPAVoopDesc@@@Z 08082dd0 f i instanceKlass.obj
 0001:00081de0       ?do_oop@VerifyFieldClosure@@UAEXPAI@Z 08082de0 f i instanceKlass.obj
 0001:00081df0       ?shared_symbols_iterate@instanceKlass@@UAEXPAVSymbolClosure@@@Z 08082df0 f   instanceKlass.obj
 0001:00081eb0       ?find_local_field_from_offset@instanceKlass@@QBE_NH_NPAVfieldDescriptor@@@Z 08082eb0 f   instanceKlass.obj
 0001:00081f30       ?find_field_from_offset@instanceKlass@@QBE_NH_NPAVfieldDescriptor@@@Z 08082f30 f   instanceKlass.obj
 0001:00081fc0       ?compute_modifier_flags@instanceKlass@@UBEHPAVThread@@@Z 08082fc0 f   instanceKlass.obj
 0001:00082100       ??1PreviousVersionNode@@QAE@XZ 08083100 f   instanceKlass.obj
 0001:00082180       ?link_class_impl@instanceKlass@@CA_NVinstanceKlassHandle@@_NPAVThread@@@Z 08083180 f   instanceKlass.obj
 0001:00082670       ?implements_interface@instanceKlass@@QBE_NPAVklassOopDesc@@@Z 08083670 f   instanceKlass.obj
 0001:000826b0       ?find_local_field@instanceKlass@@QBE_NPAVSymbol@@0PAVfieldDescriptor@@@Z 080836b0 f   instanceKlass.obj
 0001:000827d0       ?find_interface_field@instanceKlass@@QBEPAVklassOopDesc@@PAVSymbol@@0PAVfieldDescriptor@@@Z 080837d0 f   instanceKlass.obj
 0001:00082860       ?find_field@instanceKlass@@QBEPAVklassOopDesc@@PAVSymbol@@0PAVfieldDescriptor@@@Z 08083860 f   instanceKlass.obj
 0001:000828c0       ?find_field@instanceKlass@@QBEPAVklassOopDesc@@PAVSymbol@@0_NPAVfieldDescriptor@@@Z 080838c0 f   instanceKlass.obj
 0001:00082930       ?methods_do@instanceKlass@@QAEXP6AXPAVmethodOopDesc@@@Z@Z 08083930 f   instanceKlass.obj
 0001:00082970       ?find_method@instanceKlass@@SAPAVmethodOopDesc@@PAVobjArrayOopDesc@@PAVSymbol@@1@Z 08083970 f   instanceKlass.obj
 0001:00082b60       ?lookup_method_in_all_interfaces@instanceKlass@@QBEPAVmethodOopDesc@@PAVSymbol@@0@Z 08083b60 f   instanceKlass.obj
 0001:00082ba0       ?add_previous_version@instanceKlass@@QAEXVinstanceKlassHandle@@PAVBitMap@@H@Z 08083ba0 f   instanceKlass.obj
 0001:00083650       ?method_with_idnum@instanceKlass@@QAEPAVmethodOopDesc@@H@Z 08084650 f   instanceKlass.obj
 0001:000836a0       ??$push_on_queue@PAVoopDesc@@@G1ParScanThreadState@@QAEXPAPAVoopDesc@@@Z 080846a0 f i instanceKlass.obj
 0001:000836e0       ?link_class@instanceKlass@@QAEXPAVThread@@@Z 080846e0 f   instanceKlass.obj
 0001:00083760       ?link_class_or_fail@instanceKlass@@QAE_NPAVThread@@@Z 08084760 f   instanceKlass.obj
 0001:000837f0       ?add_implementor@instanceKlass@@QAEXPAVklassOopDesc@@@Z 080847f0 f   instanceKlass.obj
 0001:000838c0       ?init_implementor@instanceKlass@@QAEXXZ 080848c0 f   instanceKlass.obj
 0001:00083950       ?process_interfaces@instanceKlass@@QAEXPAVThread@@@Z 08084950 f   instanceKlass.obj
 0001:000839e0       ?compute_secondary_supers@instanceKlass@@UAEPAVobjArrayOopDesc@@HPAVThread@@@Z 080849e0 f   instanceKlass.obj
 0001:00083aa0       ?compute_is_subtype_of@instanceKlass@@UAE_NPAVklassOopDesc@@@Z 08084aa0 f   instanceKlass.obj
 0001:00083ad0       ?find_method@instanceKlass@@QBEPAVmethodOopDesc@@PAVSymbol@@0@Z 08084ad0 f   instanceKlass.obj
 0001:00083af0       ?uncached_lookup_method@instanceKlass@@UBEPAVmethodOopDesc@@PAVSymbol@@0@Z 08084af0 f   instanceKlass.obj
 0001:00083b30       ?get_jmethod_id@instanceKlass@@SAPAU_jmethodID@@VinstanceKlassHandle@@VmethodHandle@@@Z 08084b30 f   instanceKlass.obj
 0001:00083d30       ?oop_follow_contents@instanceKlass@@UAEXPAVoopDesc@@@Z 08084d30 f   instanceKlass.obj
 0001:00083ee0       ?remove_unshareable_info@instanceKlass@@UAEXXZ 08084ee0 f   instanceKlass.obj
 0001:00083ef0       ?release_C_heap_structures@instanceKlass@@QAEXXZ 08084ef0 f   instanceKlass.obj
 0001:000840c0       ??$do_oop_nv@I@G1ParScanClosure@@QAEXPAI@Z 080850c0 f i instanceKlass.obj
 0001:00084170       ??$do_oop_nv@PAVoopDesc@@@G1ParScanClosure@@QAEXPAPAVoopDesc@@@Z 08085170 f i instanceKlass.obj
 0001:00084200       ??$do_oop_nv@I@G1ParPushHeapRSClosure@@QAEXPAI@Z 08085200 f i instanceKlass.obj
 0001:00084290       ??$do_oop_nv@PAVoopDesc@@@G1ParPushHeapRSClosure@@QAEXPAPAVoopDesc@@@Z 08085290 f i instanceKlass.obj
 0001:00084310       ?set_array_klasses@instanceKlass@@QAEXPAVklassOopDesc@@@Z 08085310 f i instanceKlass.obj
 0001:00084340       ?array_klass_impl@instanceKlass@@CAPAVklassOopDesc@@VinstanceKlassHandle@@_NHPAVThread@@@Z 08085340 f   instanceKlass.obj
 0001:00084480       ?call_class_initializer_impl@instanceKlass@@CAXVinstanceKlassHandle@@PAVThread@@@Z 08085480 f   instanceKlass.obj
 0001:00084550       ?oop_follow_contents@instanceKlass@@UAEXPAVParCompactionManager@@PAVoopDesc@@@Z 08085550 f   instanceKlass.obj
 0001:00084710       ?oop_oop_iterate_nv@instanceKlass@@UAEHPAVoopDesc@@PAVG1ParScanClosure@@@Z 08085710 f   instanceKlass.obj
 0001:000847a0       ?oop_oop_iterate_nv@instanceKlass@@UAEHPAVoopDesc@@PAVG1ParPushHeapRSClosure@@@Z 080857a0 f   instanceKlass.obj
 0001:00084910       ?oop_oop_iterate_nv_m@instanceKlass@@UAEHPAVoopDesc@@PAVG1ParScanClosure@@VMemRegion@@@Z 08085910 f   instanceKlass.obj
 0001:000849d0       ?oop_oop_iterate_nv_m@instanceKlass@@UAEHPAVoopDesc@@PAVG1ParPushHeapRSClosure@@VMemRegion@@@Z 080859d0 f   instanceKlass.obj
 0001:00084b70       ?oop_oop_iterate_backwards_nv@instanceKlass@@UAEHPAVoopDesc@@PAVG1ParScanClosure@@@Z 08085b70 f   instanceKlass.obj
 0001:00084c00       ?oop_oop_iterate_backwards_nv@instanceKlass@@UAEHPAVoopDesc@@PAVG1ParPushHeapRSClosure@@@Z 08085c00 f   instanceKlass.obj
 0001:00084d70       ?oop_push_contents@instanceKlass@@UAEXPAVPSPromotionManager@@PAVoopDesc@@@Z 08085d70 f   instanceKlass.obj
 0001:00084e00       ?set_methods_annotations_of@instanceKlass@@AAEXHPAVtypeArrayOopDesc@@PAPAVobjArrayOopDesc@@@Z 08085e00 f   instanceKlass.obj
 0001:00084ed0       ?allocate_permanent_instance@instanceKlass@@QAEPAVinstanceOopDesc@@PAVThread@@@Z 08085ed0 f   instanceKlass.obj
 0001:00084fa0       ?array_klass_impl@instanceKlass@@EAEPAVklassOopDesc@@_NHPAVThread@@@Z 08085fa0 f   instanceKlass.obj
 0001:00085010       ?call_class_initializer@instanceKlass@@QAEXPAVThread@@@Z 08086010 f   instanceKlass.obj
 0001:00085090       ?obj_allocate@CollectedHeap@@SAPAVoopDesc@@VKlassHandle@@HPAVThread@@@Z 08086090 f i instanceKlass.obj
 0001:00085130       ?initialize_impl@instanceKlass@@CAXVinstanceKlassHandle@@PAVThread@@@Z 08086130 f   instanceKlass.obj
 0001:00085530       ?allocate_objArray@instanceKlass@@QAEPAVobjArrayOopDesc@@HHPAVThread@@@Z 08086530 f   instanceKlass.obj
 0001:00085660       ?allocate_instance@instanceKlass@@QAEPAVinstanceOopDesc@@PAVThread@@@Z 08086660 f   instanceKlass.obj
 0001:00085700       ?initialize@instanceKlass@@UAEXPAVThread@@@Z 08086700 f   instanceKlass.obj
 0001:00085790       ?internal_name@instanceKlassKlass@@UBEPBDXZ 08086790 f   instanceKlassKlass.obj
 0001:000857a0       ?oop_is_parsable@instanceKlassKlass@@UBE_NPAVoopDesc@@@Z 080867a0 f   instanceKlassKlass.obj
 0001:000857d0       ?oop_print_value_on@instanceKlassKlass@@UAEXPAVoopDesc@@PAVoutputStream@@@Z 080867d0 f   instanceKlassKlass.obj
 0001:000857f0       ?oop_partially_loaded@instanceKlassKlass@@UBE_NPAVoopDesc@@@Z 080867f0 f   instanceKlassKlass.obj
 0001:00085810       ?create_klass@instanceKlassKlass@@SAPAVklassOopDesc@@PAVThread@@@Z 08086810 f   instanceKlassKlass.obj
 0001:000858c0       ?oop_size@instanceKlassKlass@@UBEHPAVoopDesc@@@Z 080868c0 f   instanceKlassKlass.obj
 0001:00085900       ?oop_oop_iterate@instanceKlassKlass@@UAEHPAVoopDesc@@PAVOopClosure@@@Z 08086900 f   instanceKlassKlass.obj
 0001:00085ac0       ?oop_oop_iterate_m@instanceKlassKlass@@UAEHPAVoopDesc@@PAVOopClosure@@VMemRegion@@@Z 08086ac0 f   instanceKlassKlass.obj
 0001:00085df0       ?oop_adjust_pointers@instanceKlassKlass@@UAEHPAVoopDesc@@@Z 08086df0 f   instanceKlassKlass.obj
 0001:00086140       ?oop_update_pointers@instanceKlassKlass@@UAEHPAVParCompactionManager@@PAVoopDesc@@@Z 08087140 f   instanceKlassKlass.obj
 0001:00086210       ?oop_follow_contents@instanceKlassKlass@@UAEXPAVoopDesc@@@Z 08087210 f   instanceKlassKlass.obj
 0001:00086370       ?oop_verify_on@instanceKlassKlass@@UAEXPAVoopDesc@@PAVoutputStream@@@Z 08087370 f   instanceKlassKlass.obj
 0001:00086f40       ?oop_follow_contents@instanceKlassKlass@@UAEXPAVParCompactionManager@@PAVoopDesc@@@Z 08087f40 f   instanceKlassKlass.obj
 0001:000870a0       ?oop_set_partially_loaded@instanceKlassKlass@@UAEXPAVoopDesc@@@Z 080880a0 f   instanceKlassKlass.obj
 0001:000870d0       ?oop_push_contents@instanceKlassKlass@@UAEXPAVPSPromotionManager@@PAVoopDesc@@@Z 080880d0 f   instanceKlassKlass.obj
 0001:00087190       ?allocate_instance_klass@instanceKlassKlass@@QAEPAVklassOopDesc@@PAVSymbol@@HHHIW4ReferenceType@@PAVThread@@@Z 08088190 f   instanceKlassKlass.obj
 0001:00087580       ?oop_size@instanceMirrorKlass@@UBEHPAVoopDesc@@@Z 08088580 f   instanceMirrorKlass.obj
 0001:000875a0       ?oop_oop_iterate_v@instanceMirrorKlass@@UAEHPAVoopDesc@@PAVOopClosure@@@Z 080885a0 f   instanceMirrorKlass.obj
 0001:00087600       ?oop_oop_iterate_nv@instanceMirrorKlass@@UAEHPAVoopDesc@@PAVFilteringClosure@@@Z 08088600 f   instanceMirrorKlass.obj
 0001:00087670       ?oop_oop_iterate_nv@instanceMirrorKlass@@UAEHPAVoopDesc@@PAVMarkRefsIntoAndScanClosure@@@Z 08088670 f   instanceMirrorKlass.obj
 0001:000876d0       ?oop_oop_iterate_nv@instanceMirrorKlass@@UAEHPAVoopDesc@@PAVPar_MarkRefsIntoAndScanClosure@@@Z 080886d0 f   instanceMirrorKlass.obj
 0001:00087730       ?oop_oop_iterate_nv@instanceMirrorKlass@@UAEHPAVoopDesc@@PAVPushAndMarkClosure@@@Z 08088730 f   instanceMirrorKlass.obj
 0001:00087790       ?oop_oop_iterate_nv@instanceMirrorKlass@@UAEHPAVoopDesc@@PAVPar_PushAndMarkClosure@@@Z 08088790 f   instanceMirrorKlass.obj
 0001:000877f0       ?oop_oop_iterate_nv@instanceMirrorKlass@@UAEHPAVoopDesc@@PAVPushOrMarkClosure@@@Z 080887f0 f   instanceMirrorKlass.obj
 0001:00087850       ?oop_oop_iterate_nv@instanceMirrorKlass@@UAEHPAVoopDesc@@PAVPar_PushOrMarkClosure@@@Z 08088850 f   instanceMirrorKlass.obj
 0001:000878b0       ?oop_oop_iterate_nv@instanceMirrorKlass@@UAEHPAVoopDesc@@PAVCMSKeepAliveClosure@@@Z 080888b0 f   instanceMirrorKlass.obj
 0001:00087910       ?oop_oop_iterate_nv@instanceMirrorKlass@@UAEHPAVoopDesc@@PAVCMSInnerParMarkAndPushClosure@@@Z 08088910 f   instanceMirrorKlass.obj
 0001:00087970       ?oop_oop_iterate_nv@instanceMirrorKlass@@UAEHPAVoopDesc@@PAV?$G1ParCopyClosure@$0A@$01$0A@@@@Z 08088970 f   instanceMirrorKlass.obj
 0001:000879d0       ?oop_oop_iterate_backwards_v@instanceMirrorKlass@@UAEHPAVoopDesc@@PAVOopClosure@@@Z 080889d0 f   instanceMirrorKlass.obj
 0001:00087a30       ?oop_oop_iterate_backwards_nv@instanceMirrorKlass@@UAEHPAVoopDesc@@PAVFilteringClosure@@@Z 08088a30 f   instanceMirrorKlass.obj
 0001:00087aa0       ?oop_oop_iterate_backwards_nv@instanceMirrorKlass@@UAEHPAVoopDesc@@PAVMarkRefsIntoAndScanClosure@@@Z 08088aa0 f   instanceMirrorKlass.obj
 0001:00087b00       ?oop_oop_iterate_backwards_nv@instanceMirrorKlass@@UAEHPAVoopDesc@@PAVPar_MarkRefsIntoAndScanClosure@@@Z 08088b00 f   instanceMirrorKlass.obj
 0001:00087b60       ?oop_oop_iterate_backwards_nv@instanceMirrorKlass@@UAEHPAVoopDesc@@PAVPushAndMarkClosure@@@Z 08088b60 f   instanceMirrorKlass.obj
 0001:00087bc0       ?oop_oop_iterate_backwards_nv@instanceMirrorKlass@@UAEHPAVoopDesc@@PAVPar_PushAndMarkClosure@@@Z 08088bc0 f   instanceMirrorKlass.obj
 0001:00087c20       ?oop_oop_iterate_backwards_nv@instanceMirrorKlass@@UAEHPAVoopDesc@@PAVPushOrMarkClosure@@@Z 08088c20 f   instanceMirrorKlass.obj
 0001:00087c80       ?oop_oop_iterate_backwards_nv@instanceMirrorKlass@@UAEHPAVoopDesc@@PAVPar_PushOrMarkClosure@@@Z 08088c80 f   instanceMirrorKlass.obj
 0001:00087ce0       ?oop_oop_iterate_backwards_nv@instanceMirrorKlass@@UAEHPAVoopDesc@@PAVCMSKeepAliveClosure@@@Z 08088ce0 f   instanceMirrorKlass.obj
 0001:00087d40       ?oop_oop_iterate_backwards_nv@instanceMirrorKlass@@UAEHPAVoopDesc@@PAVCMSInnerParMarkAndPushClosure@@@Z 08088d40 f   instanceMirrorKlass.obj
 0001:00087da0       ?oop_oop_iterate_backwards_nv@instanceMirrorKlass@@UAEHPAVoopDesc@@PAV?$G1ParCopyClosure@$0A@$01$0A@@@@Z 08088da0 f   instanceMirrorKlass.obj
 0001:00087e00       ?oop_oop_iterate_v_m@instanceMirrorKlass@@UAEHPAVoopDesc@@PAVOopClosure@@VMemRegion@@@Z 08088e00 f   instanceMirrorKlass.obj
 0001:00087e90       ?oop_oop_iterate_nv_m@instanceMirrorKlass@@UAEHPAVoopDesc@@PAVFilteringClosure@@VMemRegion@@@Z 08088e90 f   instanceMirrorKlass.obj
 0001:00087f30       ?oop_oop_iterate_nv_m@instanceMirrorKlass@@UAEHPAVoopDesc@@PAVMarkRefsIntoAndScanClosure@@VMemRegion@@@Z 08088f30 f   instanceMirrorKlass.obj
 0001:00087fc0       ?oop_oop_iterate_nv_m@instanceMirrorKlass@@UAEHPAVoopDesc@@PAVPar_MarkRefsIntoAndScanClosure@@VMemRegion@@@Z 08088fc0 f   instanceMirrorKlass.obj
 0001:00088050       ?oop_oop_iterate_nv_m@instanceMirrorKlass@@UAEHPAVoopDesc@@PAVPushAndMarkClosure@@VMemRegion@@@Z 08089050 f   instanceMirrorKlass.obj
 0001:000880e0       ?oop_oop_iterate_nv_m@instanceMirrorKlass@@UAEHPAVoopDesc@@PAVPar_PushAndMarkClosure@@VMemRegion@@@Z 080890e0 f   instanceMirrorKlass.obj
 0001:00088170       ?oop_oop_iterate_nv_m@instanceMirrorKlass@@UAEHPAVoopDesc@@PAVPushOrMarkClosure@@VMemRegion@@@Z 08089170 f   instanceMirrorKlass.obj
 0001:00088200       ?oop_oop_iterate_nv_m@instanceMirrorKlass@@UAEHPAVoopDesc@@PAVPar_PushOrMarkClosure@@VMemRegion@@@Z 08089200 f   instanceMirrorKlass.obj
 0001:00088290       ?oop_oop_iterate_nv_m@instanceMirrorKlass@@UAEHPAVoopDesc@@PAVCMSKeepAliveClosure@@VMemRegion@@@Z 08089290 f   instanceMirrorKlass.obj
 0001:00088320       ?oop_oop_iterate_nv_m@instanceMirrorKlass@@UAEHPAVoopDesc@@PAVCMSInnerParMarkAndPushClosure@@VMemRegion@@@Z 08089320 f   instanceMirrorKlass.obj
 0001:000883b0       ?oop_oop_iterate_nv_m@instanceMirrorKlass@@UAEHPAVoopDesc@@PAV?$G1ParCopyClosure@$0A@$01$0A@@@VMemRegion@@@Z 080893b0 f   instanceMirrorKlass.obj
 0001:00088440       ?instance_size@instanceMirrorKlass@@QAEHVKlassHandle@@@Z 08089440 f   instanceMirrorKlass.obj
 0001:00088490       ?compute_static_oop_field_count@instanceMirrorKlass@@QAEHPAVoopDesc@@@Z 08089490 f   instanceMirrorKlass.obj
 0001:000884c0       ?oop_adjust_pointers@instanceMirrorKlass@@UAEHPAVoopDesc@@@Z 080894c0 f   instanceMirrorKlass.obj
 0001:00088530       ?oop_oop_iterate_nv@instanceMirrorKlass@@UAEHPAVoopDesc@@PAVFilterIntoCSClosure@@@Z 08089530 f   instanceMirrorKlass.obj
 0001:000885d0       ?oop_oop_iterate_nv@instanceMirrorKlass@@UAEHPAVoopDesc@@PAVFilterOutOfRegionClosure@@@Z 080895d0 f   instanceMirrorKlass.obj
 0001:00088640       ?oop_oop_iterate_nv@instanceMirrorKlass@@UAEHPAVoopDesc@@PAVFilterInHeapRegionAndIntoCSClosure@@@Z 08089640 f   instanceMirrorKlass.obj
 0001:000886e0       ?oop_oop_iterate_nv@instanceMirrorKlass@@UAEHPAVoopDesc@@PAVFilterAndMarkInHeapRegionAndIntoCSClosure@@@Z 080896e0 f   instanceMirrorKlass.obj
 0001:00088740       ?oop_oop_iterate_backwards_nv@instanceMirrorKlass@@UAEHPAVoopDesc@@PAVFilterIntoCSClosure@@@Z 08089740 f   instanceMirrorKlass.obj
 0001:000887e0       ?oop_oop_iterate_backwards_nv@instanceMirrorKlass@@UAEHPAVoopDesc@@PAVFilterOutOfRegionClosure@@@Z 080897e0 f   instanceMirrorKlass.obj
 0001:00088850       ?oop_oop_iterate_backwards_nv@instanceMirrorKlass@@UAEHPAVoopDesc@@PAVFilterInHeapRegionAndIntoCSClosure@@@Z 08089850 f   instanceMirrorKlass.obj
 0001:000888f0       ?oop_oop_iterate_backwards_nv@instanceMirrorKlass@@UAEHPAVoopDesc@@PAVFilterAndMarkInHeapRegionAndIntoCSClosure@@@Z 080898f0 f   instanceMirrorKlass.obj
 0001:00088950       ?oop_oop_iterate_nv_m@instanceMirrorKlass@@UAEHPAVoopDesc@@PAVFilterIntoCSClosure@@VMemRegion@@@Z 08089950 f   instanceMirrorKlass.obj
 0001:00088a20       ?oop_oop_iterate_nv_m@instanceMirrorKlass@@UAEHPAVoopDesc@@PAVFilterOutOfRegionClosure@@VMemRegion@@@Z 08089a20 f   instanceMirrorKlass.obj
 0001:00088ac0       ?oop_oop_iterate_nv_m@instanceMirrorKlass@@UAEHPAVoopDesc@@PAVFilterInHeapRegionAndIntoCSClosure@@VMemRegion@@@Z 08089ac0 f   instanceMirrorKlass.obj
 0001:00088b90       ?oop_oop_iterate_nv_m@instanceMirrorKlass@@UAEHPAVoopDesc@@PAVFilterAndMarkInHeapRegionAndIntoCSClosure@@VMemRegion@@@Z 08089b90 f   instanceMirrorKlass.obj
 0001:00088c20       ?oop_update_pointers@instanceMirrorKlass@@UAEHPAVParCompactionManager@@PAVoopDesc@@@Z 08089c20 f   instanceMirrorKlass.obj
 0001:00088c90       ?oop_oop_iterate_nv@instanceMirrorKlass@@UAEHPAVoopDesc@@PAVScanClosure@@@Z 08089c90 f   instanceMirrorKlass.obj
 0001:00088d40       ?oop_oop_iterate_nv@instanceMirrorKlass@@UAEHPAVoopDesc@@PAVFastScanClosure@@@Z 08089d40 f   instanceMirrorKlass.obj
 0001:00088df0       ?oop_oop_iterate_nv@instanceMirrorKlass@@UAEHPAVoopDesc@@PAVParScanWithBarrierClosure@@@Z 08089df0 f   instanceMirrorKlass.obj
 0001:00088e50       ?oop_oop_iterate_nv@instanceMirrorKlass@@UAEHPAVoopDesc@@PAVParScanWithoutBarrierClosure@@@Z 08089e50 f   instanceMirrorKlass.obj
 0001:00088eb0       ?oop_oop_iterate_backwards_nv@instanceMirrorKlass@@UAEHPAVoopDesc@@PAVScanClosure@@@Z 08089eb0 f   instanceMirrorKlass.obj
 0001:00088f60       ?oop_oop_iterate_backwards_nv@instanceMirrorKlass@@UAEHPAVoopDesc@@PAVFastScanClosure@@@Z 08089f60 f   instanceMirrorKlass.obj
 0001:00089010       ?oop_oop_iterate_backwards_nv@instanceMirrorKlass@@UAEHPAVoopDesc@@PAVParScanWithBarrierClosure@@@Z 0808a010 f   instanceMirrorKlass.obj
 0001:00089070       ?oop_oop_iterate_backwards_nv@instanceMirrorKlass@@UAEHPAVoopDesc@@PAVParScanWithoutBarrierClosure@@@Z 0808a070 f   instanceMirrorKlass.obj
 0001:000890d0       ?oop_oop_iterate_nv_m@instanceMirrorKlass@@UAEHPAVoopDesc@@PAVScanClosure@@VMemRegion@@@Z 0808a0d0 f   instanceMirrorKlass.obj
 0001:000891c0       ?oop_oop_iterate_nv_m@instanceMirrorKlass@@UAEHPAVoopDesc@@PAVFastScanClosure@@VMemRegion@@@Z 0808a1c0 f   instanceMirrorKlass.obj
 0001:000892a0       ?oop_oop_iterate_nv_m@instanceMirrorKlass@@UAEHPAVoopDesc@@PAVParScanWithBarrierClosure@@VMemRegion@@@Z 0808a2a0 f   instanceMirrorKlass.obj
 0001:00089330       ?oop_oop_iterate_nv_m@instanceMirrorKlass@@UAEHPAVoopDesc@@PAVParScanWithoutBarrierClosure@@VMemRegion@@@Z 0808a330 f   instanceMirrorKlass.obj
 0001:000893c0       ?oop_follow_contents@instanceMirrorKlass@@UAEXPAVoopDesc@@@Z 0808a3c0 f   instanceMirrorKlass.obj
 0001:00089490       ?oop_follow_contents@instanceMirrorKlass@@UAEXPAVParCompactionManager@@PAVoopDesc@@@Z 0808a490 f   instanceMirrorKlass.obj
 0001:00089540       ?oop_oop_iterate_nv@instanceMirrorKlass@@UAEHPAVoopDesc@@PAVG1ParScanClosure@@@Z 0808a540 f   instanceMirrorKlass.obj
 0001:000895a0       ?oop_oop_iterate_nv@instanceMirrorKlass@@UAEHPAVoopDesc@@PAVG1ParPushHeapRSClosure@@@Z 0808a5a0 f   instanceMirrorKlass.obj
 0001:00089660       ?oop_oop_iterate_backwards_nv@instanceMirrorKlass@@UAEHPAVoopDesc@@PAVG1ParScanClosure@@@Z 0808a660 f   instanceMirrorKlass.obj
 0001:000896c0       ?oop_oop_iterate_backwards_nv@instanceMirrorKlass@@UAEHPAVoopDesc@@PAVG1ParPushHeapRSClosure@@@Z 0808a6c0 f   instanceMirrorKlass.obj
 0001:00089780       ?oop_oop_iterate_nv_m@instanceMirrorKlass@@UAEHPAVoopDesc@@PAVG1ParScanClosure@@VMemRegion@@@Z 0808a780 f   instanceMirrorKlass.obj
 0001:00089810       ?oop_oop_iterate_nv_m@instanceMirrorKlass@@UAEHPAVoopDesc@@PAVG1ParPushHeapRSClosure@@VMemRegion@@@Z 0808a810 f   instanceMirrorKlass.obj
 0001:00089900       ?oop_push_contents@instanceMirrorKlass@@UAEXPAVPSPromotionManager@@PAVoopDesc@@@Z 0808a900 f   instanceMirrorKlass.obj
 0001:00089960       ?allocate_instance@instanceMirrorKlass@@QAEPAVinstanceOopDesc@@VKlassHandle@@PAVThread@@@Z 0808a960 f   instanceMirrorKlass.obj
 0001:00089a10       ?update_nonstatic_oop_maps@instanceRefKlass@@SAXPAVklassOopDesc@@@Z 0808aa10 f   instanceRefKlass.obj
 0001:00089a50       ?owns_pending_list_lock@instanceRefKlass@@SA_NPAVJavaThread@@@Z 0808aa50 f   instanceRefKlass.obj
 0001:00089a90       ?acquire_pending_list_lock@instanceRefKlass@@SAXPAVBasicLock@@@Z 0808aa90 f   instanceRefKlass.obj
 0001:00089b20       ?release_and_notify_pending_list_lock@instanceRefKlass@@SAXPAVBasicLock@@@Z 0808ab20 f   instanceRefKlass.obj
 0001:00089bd0       ?oop_oop_iterate_v@instanceRefKlass@@UAEHPAVoopDesc@@PAVOopClosure@@@Z 0808abd0 f   instanceRefKlass.obj
 0001:00089c70       ?oop_oop_iterate_nv@instanceRefKlass@@UAEHPAVoopDesc@@PAVFilteringClosure@@@Z 0808ac70 f   instanceRefKlass.obj
 0001:00089d30       ?oop_oop_iterate_nv@instanceRefKlass@@UAEHPAVoopDesc@@PAVMarkRefsIntoAndScanClosure@@@Z 0808ad30 f   instanceRefKlass.obj
 0001:00089dd0       ?oop_oop_iterate_nv@instanceRefKlass@@UAEHPAVoopDesc@@PAVPar_MarkRefsIntoAndScanClosure@@@Z 0808add0 f   instanceRefKlass.obj
 0001:00089e70       ?oop_oop_iterate_nv@instanceRefKlass@@UAEHPAVoopDesc@@PAVPushAndMarkClosure@@@Z 0808ae70 f   instanceRefKlass.obj
 0001:00089f10       ?oop_oop_iterate_nv@instanceRefKlass@@UAEHPAVoopDesc@@PAVPar_PushAndMarkClosure@@@Z 0808af10 f   instanceRefKlass.obj
 0001:00089fb0       ?oop_oop_iterate_nv@instanceRefKlass@@UAEHPAVoopDesc@@PAVPushOrMarkClosure@@@Z 0808afb0 f   instanceRefKlass.obj
 0001:0008a050       ?oop_oop_iterate_nv@instanceRefKlass@@UAEHPAVoopDesc@@PAVPar_PushOrMarkClosure@@@Z 0808b050 f   instanceRefKlass.obj
 0001:0008a0f0       ?oop_oop_iterate_nv@instanceRefKlass@@UAEHPAVoopDesc@@PAVCMSKeepAliveClosure@@@Z 0808b0f0 f   instanceRefKlass.obj
 0001:0008a190       ?oop_oop_iterate_nv@instanceRefKlass@@UAEHPAVoopDesc@@PAVCMSInnerParMarkAndPushClosure@@@Z 0808b190 f   instanceRefKlass.obj
 0001:0008a230       ?oop_oop_iterate_nv@instanceRefKlass@@UAEHPAVoopDesc@@PAV?$G1ParCopyClosure@$0A@$01$0A@@@@Z 0808b230 f   instanceRefKlass.obj
 0001:0008a2c0       ?oop_oop_iterate_nv@instanceRefKlass@@UAEHPAVoopDesc@@PAVFilterIntoCSClosure@@@Z 0808b2c0 f   instanceRefKlass.obj
 0001:0008a350       ?oop_oop_iterate_nv@instanceRefKlass@@UAEHPAVoopDesc@@PAVFilterOutOfRegionClosure@@@Z 0808b350 f   instanceRefKlass.obj
 0001:0008a420       ?oop_oop_iterate_nv@instanceRefKlass@@UAEHPAVoopDesc@@PAVFilterInHeapRegionAndIntoCSClosure@@@Z 0808b420 f   instanceRefKlass.obj
 0001:0008a4b0       ?oop_oop_iterate_nv@instanceRefKlass@@UAEHPAVoopDesc@@PAVFilterAndMarkInHeapRegionAndIntoCSClosure@@@Z 0808b4b0 f   instanceRefKlass.obj
 0001:0008a540       ?oop_oop_iterate_backwards_v@instanceRefKlass@@UAEHPAVoopDesc@@PAVOopClosure@@@Z 0808b540 f   instanceRefKlass.obj
 0001:0008a5e0       ?oop_oop_iterate_backwards_nv@instanceRefKlass@@UAEHPAVoopDesc@@PAVFilteringClosure@@@Z 0808b5e0 f   instanceRefKlass.obj
 0001:0008a6a0       ?oop_oop_iterate_backwards_nv@instanceRefKlass@@UAEHPAVoopDesc@@PAVMarkRefsIntoAndScanClosure@@@Z 0808b6a0 f   instanceRefKlass.obj
 0001:0008a740       ?oop_oop_iterate_backwards_nv@instanceRefKlass@@UAEHPAVoopDesc@@PAVPar_MarkRefsIntoAndScanClosure@@@Z 0808b740 f   instanceRefKlass.obj
 0001:0008a7e0       ?oop_oop_iterate_backwards_nv@instanceRefKlass@@UAEHPAVoopDesc@@PAVPushAndMarkClosure@@@Z 0808b7e0 f   instanceRefKlass.obj
 0001:0008a880       ?oop_oop_iterate_backwards_nv@instanceRefKlass@@UAEHPAVoopDesc@@PAVPar_PushAndMarkClosure@@@Z 0808b880 f   instanceRefKlass.obj
 0001:0008a920       ?oop_oop_iterate_backwards_nv@instanceRefKlass@@UAEHPAVoopDesc@@PAVPushOrMarkClosure@@@Z 0808b920 f   instanceRefKlass.obj
 0001:0008a9c0       ?oop_oop_iterate_backwards_nv@instanceRefKlass@@UAEHPAVoopDesc@@PAVPar_PushOrMarkClosure@@@Z 0808b9c0 f   instanceRefKlass.obj
 0001:0008aa60       ?oop_oop_iterate_backwards_nv@instanceRefKlass@@UAEHPAVoopDesc@@PAVCMSKeepAliveClosure@@@Z 0808ba60 f   instanceRefKlass.obj
 0001:0008ab00       ?oop_oop_iterate_backwards_nv@instanceRefKlass@@UAEHPAVoopDesc@@PAVCMSInnerParMarkAndPushClosure@@@Z 0808bb00 f   instanceRefKlass.obj
 0001:0008aba0       ?oop_oop_iterate_backwards_nv@instanceRefKlass@@UAEHPAVoopDesc@@PAV?$G1ParCopyClosure@$0A@$01$0A@@@@Z 0808bba0 f   instanceRefKlass.obj
 0001:0008ac30       ?oop_oop_iterate_backwards_nv@instanceRefKlass@@UAEHPAVoopDesc@@PAVFilterIntoCSClosure@@@Z 0808bc30 f   instanceRefKlass.obj
 0001:0008acc0       ?oop_oop_iterate_backwards_nv@instanceRefKlass@@UAEHPAVoopDesc@@PAVFilterOutOfRegionClosure@@@Z 0808bcc0 f   instanceRefKlass.obj
 0001:0008ad90       ?oop_oop_iterate_backwards_nv@instanceRefKlass@@UAEHPAVoopDesc@@PAVFilterInHeapRegionAndIntoCSClosure@@@Z 0808bd90 f   instanceRefKlass.obj
 0001:0008ae20       ?oop_oop_iterate_backwards_nv@instanceRefKlass@@UAEHPAVoopDesc@@PAVFilterAndMarkInHeapRegionAndIntoCSClosure@@@Z 0808be20 f   instanceRefKlass.obj
 0001:0008aeb0       ?oop_oop_iterate_v_m@instanceRefKlass@@UAEHPAVoopDesc@@PAVOopClosure@@VMemRegion@@@Z 0808beb0 f   instanceRefKlass.obj
 0001:0008af80       ?oop_oop_iterate_nv_m@instanceRefKlass@@UAEHPAVoopDesc@@PAVFilteringClosure@@VMemRegion@@@Z 0808bf80 f   instanceRefKlass.obj
 0001:0008b070       ?oop_oop_iterate_nv_m@instanceRefKlass@@UAEHPAVoopDesc@@PAVMarkRefsIntoAndScanClosure@@VMemRegion@@@Z 0808c070 f   instanceRefKlass.obj
 0001:0008b140       ?oop_oop_iterate_nv_m@instanceRefKlass@@UAEHPAVoopDesc@@PAVPar_MarkRefsIntoAndScanClosure@@VMemRegion@@@Z 0808c140 f   instanceRefKlass.obj
 0001:0008b210       ?oop_oop_iterate_nv_m@instanceRefKlass@@UAEHPAVoopDesc@@PAVPushAndMarkClosure@@VMemRegion@@@Z 0808c210 f   instanceRefKlass.obj
 0001:0008b2e0       ?oop_oop_iterate_nv_m@instanceRefKlass@@UAEHPAVoopDesc@@PAVPar_PushAndMarkClosure@@VMemRegion@@@Z 0808c2e0 f   instanceRefKlass.obj
 0001:0008b3b0       ?oop_oop_iterate_nv_m@instanceRefKlass@@UAEHPAVoopDesc@@PAVPushOrMarkClosure@@VMemRegion@@@Z 0808c3b0 f   instanceRefKlass.obj
 0001:0008b480       ?oop_oop_iterate_nv_m@instanceRefKlass@@UAEHPAVoopDesc@@PAVPar_PushOrMarkClosure@@VMemRegion@@@Z 0808c480 f   instanceRefKlass.obj
 0001:0008b550       ?oop_oop_iterate_nv_m@instanceRefKlass@@UAEHPAVoopDesc@@PAVCMSKeepAliveClosure@@VMemRegion@@@Z 0808c550 f   instanceRefKlass.obj
 0001:0008b620       ?oop_oop_iterate_nv_m@instanceRefKlass@@UAEHPAVoopDesc@@PAVCMSInnerParMarkAndPushClosure@@VMemRegion@@@Z 0808c620 f   instanceRefKlass.obj
 0001:0008b6f0       ?oop_oop_iterate_nv_m@instanceRefKlass@@UAEHPAVoopDesc@@PAV?$G1ParCopyClosure@$0A@$01$0A@@@VMemRegion@@@Z 0808c6f0 f   instanceRefKlass.obj
 0001:0008b7b0       ?oop_oop_iterate_nv_m@instanceRefKlass@@UAEHPAVoopDesc@@PAVFilterIntoCSClosure@@VMemRegion@@@Z 0808c7b0 f   instanceRefKlass.obj
 0001:0008b870       ?oop_oop_iterate_nv_m@instanceRefKlass@@UAEHPAVoopDesc@@PAVFilterOutOfRegionClosure@@VMemRegion@@@Z 0808c870 f   instanceRefKlass.obj
 0001:0008b970       ?oop_oop_iterate_nv_m@instanceRefKlass@@UAEHPAVoopDesc@@PAVFilterInHeapRegionAndIntoCSClosure@@VMemRegion@@@Z 0808c970 f   instanceRefKlass.obj
 0001:0008ba30       ?oop_oop_iterate_nv_m@instanceRefKlass@@UAEHPAVoopDesc@@PAVFilterAndMarkInHeapRegionAndIntoCSClosure@@VMemRegion@@@Z 0808ca30 f   instanceRefKlass.obj
 0001:0008baf0       ?oop_verify_on@instanceRefKlass@@UAEXPAVoopDesc@@PAVoutputStream@@@Z 0808caf0 f   instanceRefKlass.obj
 0001:0008bc10       ??$specialized_oop_adjust_pointers@PAVoopDesc@@@@YAXPAVinstanceRefKlass@@PAVoopDesc@@@Z 0808cc10 f i instanceRefKlass.obj
 0001:0008bca0       ??$specialized_oop_update_pointers@PAVoopDesc@@@@YAXPAVinstanceRefKlass@@PAVParCompactionManager@@PAVoopDesc@@@Z 0808cca0 f i instanceRefKlass.obj
 0001:0008bd10       ?oop_adjust_pointers@instanceRefKlass@@UAEHPAVoopDesc@@@Z 0808cd10 f   instanceRefKlass.obj
 0001:0008bd40       ?oop_oop_iterate_nv@instanceRefKlass@@UAEHPAVoopDesc@@PAVScanClosure@@@Z 0808cd40 f   instanceRefKlass.obj
 0001:0008bdd0       ?oop_oop_iterate_nv@instanceRefKlass@@UAEHPAVoopDesc@@PAVFastScanClosure@@@Z 0808cdd0 f   instanceRefKlass.obj
 0001:0008be60       ?oop_oop_iterate_nv@instanceRefKlass@@UAEHPAVoopDesc@@PAVParScanWithBarrierClosure@@@Z 0808ce60 f   instanceRefKlass.obj
 0001:0008bef0       ?oop_oop_iterate_nv@instanceRefKlass@@UAEHPAVoopDesc@@PAVParScanWithoutBarrierClosure@@@Z 0808cef0 f   instanceRefKlass.obj
 0001:0008bf80       ?oop_oop_iterate_backwards_nv@instanceRefKlass@@UAEHPAVoopDesc@@PAVScanClosure@@@Z 0808cf80 f   instanceRefKlass.obj
 0001:0008c010       ?oop_oop_iterate_backwards_nv@instanceRefKlass@@UAEHPAVoopDesc@@PAVFastScanClosure@@@Z 0808d010 f   instanceRefKlass.obj
 0001:0008c0a0       ?oop_oop_iterate_backwards_nv@instanceRefKlass@@UAEHPAVoopDesc@@PAVParScanWithBarrierClosure@@@Z 0808d0a0 f   instanceRefKlass.obj
 0001:0008c130       ?oop_oop_iterate_backwards_nv@instanceRefKlass@@UAEHPAVoopDesc@@PAVParScanWithoutBarrierClosure@@@Z 0808d130 f   instanceRefKlass.obj
 0001:0008c1c0       ?oop_oop_iterate_nv_m@instanceRefKlass@@UAEHPAVoopDesc@@PAVScanClosure@@VMemRegion@@@Z 0808d1c0 f   instanceRefKlass.obj
 0001:0008c280       ?oop_oop_iterate_nv_m@instanceRefKlass@@UAEHPAVoopDesc@@PAVFastScanClosure@@VMemRegion@@@Z 0808d280 f   instanceRefKlass.obj
 0001:0008c340       ?oop_oop_iterate_nv_m@instanceRefKlass@@UAEHPAVoopDesc@@PAVParScanWithBarrierClosure@@VMemRegion@@@Z 0808d340 f   instanceRefKlass.obj
 0001:0008c400       ?oop_oop_iterate_nv_m@instanceRefKlass@@UAEHPAVoopDesc@@PAVParScanWithoutBarrierClosure@@VMemRegion@@@Z 0808d400 f   instanceRefKlass.obj
 0001:0008c4c0       ?oop_update_pointers@instanceRefKlass@@UAEHPAVParCompactionManager@@PAVoopDesc@@@Z 0808d4c0 f   instanceRefKlass.obj
 0001:0008c550       ?oop_follow_contents@instanceRefKlass@@UAEXPAVoopDesc@@@Z 0808d550 f   instanceRefKlass.obj
 0001:0008c570       ??$specialized_oop_follow_contents@PAVoopDesc@@@@YAXPAVinstanceRefKlass@@PAVParCompactionManager@@PAVoopDesc@@@Z 0808d570 f i instanceRefKlass.obj
 0001:0008c610       ?oop_follow_contents@instanceRefKlass@@UAEXPAVParCompactionManager@@PAVoopDesc@@@Z 0808d610 f   instanceRefKlass.obj
 0001:0008c630       ?oop_oop_iterate_nv@instanceRefKlass@@UAEHPAVoopDesc@@PAVG1ParScanClosure@@@Z 0808d630 f   instanceRefKlass.obj
 0001:0008c6c0       ?oop_oop_iterate_nv@instanceRefKlass@@UAEHPAVoopDesc@@PAVG1ParPushHeapRSClosure@@@Z 0808d6c0 f   instanceRefKlass.obj
 0001:0008c750       ?oop_oop_iterate_backwards_nv@instanceRefKlass@@UAEHPAVoopDesc@@PAVG1ParScanClosure@@@Z 0808d750 f   instanceRefKlass.obj
 0001:0008c7e0       ?oop_oop_iterate_backwards_nv@instanceRefKlass@@UAEHPAVoopDesc@@PAVG1ParPushHeapRSClosure@@@Z 0808d7e0 f   instanceRefKlass.obj
 0001:0008c870       ?oop_oop_iterate_nv_m@instanceRefKlass@@UAEHPAVoopDesc@@PAVG1ParScanClosure@@VMemRegion@@@Z 0808d870 f   instanceRefKlass.obj
 0001:0008c930       ?oop_oop_iterate_nv_m@instanceRefKlass@@UAEHPAVoopDesc@@PAVG1ParPushHeapRSClosure@@VMemRegion@@@Z 0808d930 f   instanceRefKlass.obj
 0001:0008c9f0       ??$specialized_oop_push_contents@PAVoopDesc@@@@YAXPAVinstanceRefKlass@@PAVPSPromotionManager@@PAVoopDesc@@@Z 0808d9f0 f i instanceRefKlass.obj
 0001:0008ca80       ?oop_push_contents@instanceRefKlass@@UAEXPAVPSPromotionManager@@PAVoopDesc@@@Z 0808da80 f   instanceRefKlass.obj
 0001:0008caa0       ?set_name@Klass@@QAEXPAVSymbol@@@Z 0808daa0 f   klass.obj
 0001:0008cac0       ?initialize@Klass@@UAEXPAVThread@@@Z 0808dac0 f   klass.obj
 0001:0008cae0       ?uncached_lookup_method@Klass@@UBEPAVmethodOopDesc@@PAVSymbol@@0@Z 0808dae0 f   klass.obj
 0001:0008cb00       ?shared_symbols_iterate@Klass@@UAEXPAVSymbolClosure@@@Z 0808db00 f   klass.obj
 0001:0008cb20       ?array_klass_or_null@Klass@@QAEPAVklassOopDesc@@H@Z 0808db20 f   klass.obj
 0001:0008cb60       ?array_klass_or_null@Klass@@QAEPAVklassOopDesc@@XZ 0808db60 f   klass.obj
 0001:0008cba0       ?array_klass_impl@Klass@@MAEPAVklassOopDesc@@_NHPAVThread@@@Z 0808dba0 f   klass.obj
 0001:0008cbc0       ?array_klass_impl@Klass@@MAEPAVklassOopDesc@@_NPAVThread@@@Z 0808dbc0 f   klass.obj
 0001:0008cbe0       ?compute_modifier_flags@Klass@@UBEHPAVThread@@@Z 0808dbe0 f   klass.obj
 0001:0008cbe0       ?get_data_recorder@Generation@@UAEPAXH@Z 0808dbe0 f   compactingPermGenGen.obj
 0001:0008cbe0       ?verify_region_extra@HeapRegionSetBase@@MAEPBDPAVHeapRegion@@@Z 0808dbe0 f   concurrentMark.obj
 0001:0008cbf0       ?is_subclass_of@Klass@@QBE_NPAVklassOopDesc@@@Z 0808dbf0 f   klass.obj
 0001:0008cbf0       ?compute_is_subtype_of@Klass@@MAE_NPAVklassOopDesc@@@Z 0808dbf0 f   klass.obj
 0001:0008cc30       ?copy_array@Klass@@UAEXPAVarrayOopDesc@@H0HHPAVThread@@@Z 0808dc30 f   klass.obj
 0001:0008cc60       ?compute_secondary_supers@Klass@@UAEPAVobjArrayOopDesc@@HPAVThread@@@Z 0808dc60 f   klass.obj
 0001:0008cc70       ?subklass@Klass@@QBEPAV1@XZ 0808dc70 f   klass.obj
 0001:0008cc80       ?superklass@Klass@@QBEPAVinstanceKlass@@XZ 0808dc80 f   klass.obj
 0001:0008cc90       ?next_sibling@Klass@@QBEPAV1@XZ 0808dc90 f   klass.obj
 0001:0008cca0       ?with_array_klasses_do@Klass@@UAEXP6AXPAVklassOopDesc@@@Z@Z 0808dca0 f   klass.obj
 0001:0008ccc0       ?external_name@Klass@@QBEPBDXZ 0808dcc0 f   klass.obj
 0001:0008cdc0       ?signature_name@Klass@@UBEPBDXZ 0808ddc0 f   klass.obj
 0001:0008cde0       ?atomic_incr_biased_lock_revocation_count@Klass@@QAEHXZ 0808dde0 f   klass.obj
 0001:0008ce20       ?check_valid_for_instantiation@Klass@@UAEX_NPAVThread@@@Z 0808de20 f   klass.obj
 0001:0008cea0       ?can_be_primary_super_slow@Klass@@UBE_NXZ 0808dea0 f   klass.obj
 0001:0008cec0       ?oop_print_on@Klass@@UAEXPAVoopDesc@@PAVoutputStream@@@Z 0808dec0 f   klass.obj
 0001:0008cf60       ?oop_print_value_on@Klass@@UAEXPAVoopDesc@@PAVoutputStream@@@Z 0808df60 f   klass.obj
 0001:0008cfe0       ?oop_verify_on@Klass@@UAEXPAVoopDesc@@PAVoutputStream@@@Z 0808dfe0 f   klass.obj
 0001:0008d080       ??2Klass_vtbl@@KAPAXIAAVKlassHandle@@HPAVThread@@@Z 0808e080 f   klass.obj
 0001:0008d0b0       ?array_layout_helper@Klass@@SAHW4BasicType@@@Z 0808e0b0 f   klass.obj
 0001:0008d110       ?append_to_sibling_list@Klass@@QAEXXZ 0808e110 f   klass.obj
 0001:0008d170       ?follow_weak_klass_links@Klass@@UAEXPAVBoolObjectClosure@@PAVOopClosure@@@Z 0808e170 f   klass.obj
 0001:0008d250       ?remove_unshareable_info@Klass@@UAEXXZ 0808e250 f   klass.obj
 0001:0008d2c0       ?search_secondary_supers@Klass@@QBE_NPAVklassOopDesc@@@Z 0808e2c0 f   klass.obj
 0001:0008d330       ?base_create_klass_oop@Klass@@SAPAVklassOopDesc@@AAVKlassHandle@@HABVKlass_vtbl@@PAVThread@@@Z 0808e330 f   klass.obj
 0001:0008d4b0       ?base_create_klass@Klass@@SA?AVKlassHandle@@AAV2@HABVKlass_vtbl@@PAVThread@@@Z 0808e4b0 f   klass.obj
 0001:0008d4e0       ?initialize_supers@Klass@@QAEXPAVklassOopDesc@@PAVThread@@@Z 0808e4e0 f   klass.obj
 0001:0008d8d0       ?post_new_init_klass@Klass_vtbl@@QBEXAAVKlassHandle@@PAVklassOopDesc@@H@Z 0808e8d0 f   klass.obj
 0001:0008d910       ?oop_print_on@klassKlass@@UAEXPAVoopDesc@@PAVoutputStream@@@Z 0808e910 f   klassKlass.obj
 0001:0008d920       ?oop_print_value_on@compiledICHolderKlass@@UAEXPAVoopDesc@@PAVoutputStream@@@Z 0808e920 f   compiledICHolderKlass.obj
 0001:0008d920       ?oop_print_value_on@klassKlass@@UAEXPAVoopDesc@@PAVoutputStream@@@Z 0808e920 f   klassKlass.obj
 0001:0008d930       ?internal_name@klassKlass@@UBEPBDXZ 0808e930 f   klassKlass.obj
 0001:0008d940       ?oop_size@klassKlass@@UBEHPAVoopDesc@@@Z 0808e940 f   klassKlass.obj
 0001:0008d960       ?oop_oop_iterate@klassKlass@@UAEHPAVoopDesc@@PAVOopClosure@@@Z 0808e960 f   klassKlass.obj
 0001:0008da00       ?oop_oop_iterate_m@klassKlass@@UAEHPAVoopDesc@@PAVOopClosure@@VMemRegion@@@Z 0808ea00 f   klassKlass.obj
 0001:0008db30       ?oop_adjust_pointers@klassKlass@@UAEHPAVoopDesc@@@Z 0808eb30 f   klassKlass.obj
 0001:0008dc80       ?oop_update_pointers@klassKlass@@UAEHPAVParCompactionManager@@PAVoopDesc@@@Z 0808ec80 f   klassKlass.obj
 0001:0008dcd0       ?oop_verify_on@klassKlass@@UAEXPAVoopDesc@@PAVoutputStream@@@Z 0808ecd0 f   klassKlass.obj
 0001:0008df10       ?oop_follow_contents@klassKlass@@UAEXPAVoopDesc@@@Z 0808ef10 f   klassKlass.obj
 0001:0008e1e0       ?create_klass@klassKlass@@SAPAVklassOopDesc@@PAVThread@@@Z 0808f1e0 f   klassKlass.obj
 0001:0008e250       ?oop_follow_contents@klassKlass@@UAEXPAVParCompactionManager@@PAVoopDesc@@@Z 0808f250 f   klassKlass.obj
 0001:0008e460       ?oop_push_contents@klassKlass@@UAEXPAVPSPromotionManager@@PAVoopDesc@@@Z 0808f460 f   klassKlass.obj
 0001:0008e490       ?table@klassVtable@@QBEPAVvtableEntry@@XZ 0808f490 f i klassVtable.obj
 0001:0008e4b0       ??CinstanceKlassHandle@@QBEPAVinstanceKlass@@XZ 0808f4b0 f i classFileParser.obj
 0001:0008e4b0       ?ik@klassVtable@@ABEPAVinstanceKlass@@XZ 0808f4b0 f i klassVtable.obj
 0001:0008e4d0       ?put_method_at@klassVtable@@AAEXPAVmethodOopDesc@@H@Z 0808f4d0 f   klassVtable.obj
 0001:0008e510       ?clear_vtable@klassVtable@@QAEXXZ 0808f510 f   klassVtable.obj
 0001:0008e540       ?is_initialized@klassVtable@@QAE_NXZ 0808f540 f   klassVtable.obj
 0001:0008e560       ?oop_oop_iterate@klassVtable@@QAEXPAVOopClosure@@@Z 0808f560 f   klassVtable.obj
 0001:0008e5b0       ?oop_oop_iterate_m@klassVtable@@QAEXPAVOopClosure@@VMemRegion@@@Z 0808f5b0 f   klassVtable.obj
 0001:0008e640       ??0klassItable@@QAE@VinstanceKlassHandle@@@Z 0808f640 f   klassVtable.obj
 0001:0008e700       ?doit@CountInterfacesClosure@@UAEXPAVklassOopDesc@@H@Z 0808f700 f i klassVtable.obj
 0001:0008e710       ?doit@SetupItableClosure@@UAEXPAVklassOopDesc@@H@Z 0808f710 f i klassVtable.obj
 0001:0008e740       ?method_entry@klassItable@@QAEPAVitableMethodEntry@@H@Z 0808f740 f i klassVtable.obj
 0001:0008e780       ?oop_adjust_pointers@klassVtable@@QAEXXZ 0808f780 f   klassVtable.obj
 0001:0008e7d0       ?oop_update_pointers@klassVtable@@QAEXPAVParCompactionManager@@@Z 0808f7d0 f   klassVtable.obj
 0001:0008e820       ?oop_adjust_pointers@klassItable@@QAEXXZ 0808f820 f   klassVtable.obj
 0001:0008e8b0       ?oop_update_pointers@klassItable@@QAEXPAVParCompactionManager@@@Z 0808f8b0 f   klassVtable.obj
 0001:0008e940       ?oop_oop_iterate@klassItable@@QAEXPAVOopClosure@@@Z 0808f940 f   klassVtable.obj
 0001:0008e9e0       ?oop_oop_iterate_m@klassItable@@QAEXPAVOopClosure@@VMemRegion@@@Z 0808f9e0 f   klassVtable.obj
 0001:0008ea80       ?initialize_from_super@klassVtable@@AAEHVKlassHandle@@@Z 0808fa80 f   klassVtable.obj
 0001:0008eae0       ?find_transitive_override@klassVtable@@AAEPAVinstanceKlass@@PAV2@VmethodHandle@@HVHandle@@PAVSymbol@@PAVThread@@@Z 0808fae0 f   klassVtable.obj
 0001:0008ebd0       ?update_inherited_vtable@klassVtable@@AAE_NPAVinstanceKlass@@VmethodHandle@@H_NPAVThread@@@Z 0808fbd0 f   klassVtable.obj
 0001:0008efe0       ?needs_new_vtable_entry@klassVtable@@CA_NVmethodHandle@@PAVklassOopDesc@@VHandle@@PAVSymbol@@VAccessFlags@@PAVThread@@@Z 0808ffe0 f   klassVtable.obj
 0001:0008f140       ?index_of_miranda@klassVtable@@QAEHPAVSymbol@@0@Z 08090140 f   klassVtable.obj
 0001:0008f220       ?add_new_mirandas_to_list@klassVtable@@CAXPAV?$GrowableArray@PAVmethodOopDesc@@@@PAVobjArrayOopDesc@@1PAVklassOopDesc@@@Z 08090220 f   klassVtable.obj
 0001:0008f590       ?get_mirandas@klassVtable@@CAXPAV?$GrowableArray@PAVmethodOopDesc@@@@PAVklassOopDesc@@PAVobjArrayOopDesc@@2@Z 08090590 f   klassVtable.obj
 0001:0008f610       ?get_num_mirandas@klassVtable@@CAHPAVklassOopDesc@@PAVobjArrayOopDesc@@1@Z 08090610 f   klassVtable.obj
 0001:0008f6d0       ?fill_in_mirandas@klassVtable@@AAEXAAH@Z 080906d0 f   klassVtable.obj
 0001:0008f7f0       ?adjust_method_entries@klassVtable@@QAEXPAPAVmethodOopDesc@@0HPA_N@Z 080907f0 f   klassVtable.obj
 0001:0008fa70       ?oop_follow_contents@klassVtable@@QAEXXZ 08090a70 f   klassVtable.obj
 0001:0008fb40       ?oop_follow_contents@klassItable@@QAEXXZ 08090b40 f   klassVtable.obj
 0001:0008fcf0       ?initialize_itable_for_interface@klassItable@@AAEXHVKlassHandle@@_NPAVThread@@@Z 08090cf0 f   klassVtable.obj
 0001:00090190       ?adjust_method_entries@klassItable@@QAEXPAPAVmethodOopDesc@@0HPA_N@Z 08091190 f   klassVtable.obj
 0001:000903f0       ?visit_all_interfaces@@YAXPAVobjArrayOopDesc@@PAVInterfaceVisiterClosure@@@Z 080913f0 f   klassVtable.obj
 0001:000904a0       ?compute_itable_size@klassItable@@SAHVobjArrayHandle@@@Z 080914a0 f   klassVtable.obj
 0001:000904e0       ?setup_itable_offset_table@klassItable@@SAXVinstanceKlassHandle@@@Z 080914e0 f   klassVtable.obj
 0001:00090590       ?compute_itable_index@klassItable@@SAHPAVmethodOopDesc@@@Z 08091590 f   klassVtable.obj
 0001:000905d0       ?method_for_itable_index@klassItable@@SAPAVmethodOopDesc@@PAVklassOopDesc@@H@Z 080915d0 f   klassVtable.obj
 0001:00090610       ?verify_against@klassVtable@@AAEXPAVoutputStream@@PAV1@H@Z 08091610 f   klassVtable.obj
 0001:000906a0       ?compute_vtable_size_and_num_mirandas@klassVtable@@SAXAAH0PAVklassOopDesc@@PAVobjArrayOopDesc@@VAccessFlags@@VHandle@@PAVSymbol@@2PAVThread@@@Z 080916a0 f   klassVtable.obj
 0001:000907b0       ?initialize_vtable@klassVtable@@QAEX_NPAVThread@@@Z 080917b0 f   klassVtable.obj
 0001:00090a00       ?initialize_itable@klassItable@@QAEX_NPAVThread@@@Z 08091a00 f   klassVtable.obj
 0001:00090b60       ?verify@klassVtable@@QAEXPAVoutputStream@@_N@Z 08091b60 f   klassVtable.obj
 0001:00090cb0       ?oop_follow_contents@klassVtable@@QAEXPAVParCompactionManager@@@Z 08091cb0 f   klassVtable.obj
 0001:00090d70       ?oop_follow_contents@klassItable@@QAEXPAVParCompactionManager@@@Z 08091d70 f   klassVtable.obj
 0001:00090f40       ?should_not_be_cached@markOopDesc@@QBE_NXZ 08091f40 f   markOop.obj
 0001:00090f80       ?internal_name@methodDataKlass@@UBEPBDXZ 08091f80 f   methodDataKlass.obj
 0001:00090f90       ?oop_size@methodDataKlass@@UBEHPAVoopDesc@@@Z 08091f90 f   methodDataKlass.obj
 0001:00090fc0       ?oop_is_parsable@methodDataKlass@@UBE_NPAVoopDesc@@@Z 08091fc0 f   methodDataKlass.obj
 0001:00090fe0       ?oop_print_value_on@methodDataKlass@@UAEXPAVoopDesc@@PAVoutputStream@@@Z 08091fe0 f   methodDataKlass.obj
 0001:00091010       ?create_klass@methodDataKlass@@SAPAVklassOopDesc@@PAVThread@@@Z 08092010 f   methodDataKlass.obj
 0001:000910b0       ?oop_oop_iterate@methodDataKlass@@UAEHPAVoopDesc@@PAVOopClosure@@@Z 080920b0 f   methodDataKlass.obj
 0001:00091180       ?oop_oop_iterate_m@methodDataKlass@@UAEHPAVoopDesc@@PAVOopClosure@@VMemRegion@@@Z 08092180 f   methodDataKlass.obj
 0001:00091280       ?oop_adjust_pointers@methodDataKlass@@UAEHPAVoopDesc@@@Z 08092280 f   methodDataKlass.obj
 0001:00091380       ?oop_update_pointers@methodDataKlass@@UAEHPAVParCompactionManager@@PAVoopDesc@@@Z 08092380 f   methodDataKlass.obj
 0001:00091440       ?oop_verify_on@methodDataKlass@@UAEXPAVoopDesc@@PAVoutputStream@@@Z 08092440 f   methodDataKlass.obj
 0001:000914d0       ?oop_follow_contents@methodDataKlass@@UAEXPAVoopDesc@@@Z 080924d0 f   methodDataKlass.obj
 0001:00091570       ?oop_follow_contents@methodDataKlass@@UAEXPAVParCompactionManager@@PAVoopDesc@@@Z 08092570 f   methodDataKlass.obj
 0001:00091620       ?allocate@methodDataKlass@@QAEPAVmethodDataOopDesc@@VmethodHandle@@PAVThread@@@Z 08092620 f   methodDataKlass.obj
 0001:000916e0       ?oop_verify_old_oop@Klass@@UAEXPAVoopDesc@@PAI_N@Z 080926e0 f   klass.obj
 0001:000916e0       ?write_ref_array_pre@BarrierSet@@UAEXPAIH_N@Z 080926e0 f   cardTableModRefBS.obj
 0001:000916e0       ?write_ref_array_pre@BarrierSet@@UAEXPAPAVoopDesc@@H_N@Z 080926e0 f   cardTableModRefBS.obj
 0001:000916e0       ?oop_iterate_m@ProfileData@@UAEXPAVOopClosure@@VMemRegion@@@Z 080926e0 f   ciMethodData.obj
 0001:000916e0       ?oop_verify_old_oop@objArrayKlass@@UAEXPAVoopDesc@@PAI_N@Z 080926e0 f   objArrayKlass.obj
 0001:000916e0       ?oop_verify_old_oop@objArrayKlass@@UAEXPAVoopDesc@@PAPAV2@_N@Z 080926e0 f   objArrayKlass.obj
 0001:000916e0       ?oop_verify_old_oop@Klass@@UAEXPAVoopDesc@@PAPAV2@_N@Z 080926e0 f   klass.obj
 0001:000916e0       ?oop_iterate_m@ReceiverTypeData@@UAEXPAVOopClosure@@VMemRegion@@@Z 080926e0 f   methodDataOop.obj
 0001:000916e0       ?contribute_scratch@Generation@@UAEXAAPAUScratchBlock@@PAV1@I@Z 080926e0 f   compactingPermGenGen.obj
 0001:000916e0       ?call@ErrorReporter@@QAEXPAU_iobuf@@PADH@Z 080926e0 f   errorReporter.obj
 0001:000916f0       ?is_mature@methodDataOopDesc@@QBE_NXZ 080926f0 f   methodDataOop.obj
 0001:00091710       ?follow_contents@ReceiverTypeData@@UAEXXZ 08092710 f   methodDataOop.obj
 0001:00091720       ?follow_contents@ReceiverTypeData@@UAEXPAVParCompactionManager@@@Z 08092720 f   methodDataOop.obj
 0001:00091740       ?oop_iterate@ReceiverTypeData@@UAEXPAVOopClosure@@@Z 08092740 f   methodDataOop.obj
 0001:000917b0       ?follow_weak_refs@ReceiverTypeData@@UAEXPAVBoolObjectClosure@@@Z 080927b0 f   methodDataOop.obj
 0001:00091810       ?post_initialize@RetData@@UAEXPAVBytecodeStream@@PAVmethodDataOopDesc@@@Z 08092810 f   methodDataOop.obj
 0001:00091840       ?data_in@DataLayout@@QAEPAVProfileData@@XZ 08092840 f   methodDataOop.obj
 0001:00091990       ?mileage_of@methodDataOopDesc@@SAHPAVmethodOopDesc@@@Z 08092990 f   methodDataOop.obj
 0001:00091a10       ?follow_weak_refs@DataLayout@@QAEXPAVBoolObjectClosure@@@Z 08092a10 f   methodDataOop.obj
 0001:00091a80       ?adjust_pointers@ReceiverTypeData@@UAEXXZ 08092a80 f   methodDataOop.obj
 0001:00091ad0       ?update_pointers@ReceiverTypeData@@UAEXXZ 08092ad0 f   methodDataOop.obj
 0001:00091b20       ?compute_cell_count@MultiBranchData@@SAHPAVBytecodeStream@@@Z 08092b20 f   methodDataOop.obj
 0001:00091bb0       ?compute_data_size@methodDataOopDesc@@CAHPAVBytecodeStream@@@Z 08092bb0 f   methodDataOop.obj
 0001:00091cd0       ?compute_allocation_size_in_words@methodDataOopDesc@@SAHVmethodHandle@@@Z 08092cd0 f   methodDataOop.obj
 0001:00091d50       ?initialize_data@methodDataOopDesc@@AAEHPAVBytecodeStream@@H@Z 08092d50 f   methodDataOop.obj
 0001:00091ec0       ?data_at@methodDataOopDesc@@QAEPAVProfileData@@H@Z 08092ec0 f   methodDataOop.obj
 0001:00091ee0       ?next_data@methodDataOopDesc@@QAEPAVProfileData@@PAV2@@Z 08092ee0 f   methodDataOop.obj
 0001:00091f20       ?post_initialize@methodDataOopDesc@@AAEXPAVBytecodeStream@@@Z 08092f20 f   methodDataOop.obj
 0001:00092000       ?initialize@methodDataOopDesc@@QAEXVmethodHandle@@@Z 08093000 f   methodDataOop.obj
 0001:00092170       ?bci_to_dp@methodDataOopDesc@@QAEPAEH@Z 08093170 f   methodDataOop.obj
 0001:00092280       ?post_initialize@JumpData@@UAEXPAVBytecodeStream@@PAVmethodDataOopDesc@@@Z 08093280 f   methodDataOop.obj
 0001:00092320       ?fixup_ret@RetData@@QAEPAEHVmethodDataHandle@@@Z 08093320 f   methodDataOop.obj
 0001:00092380       ?post_initialize@BranchData@@UAEXPAVBytecodeStream@@PAVmethodDataOopDesc@@@Z 08093380 f   methodDataOop.obj
 0001:000923e0       ?post_initialize@MultiBranchData@@UAEXPAVBytecodeStream@@PAVmethodDataOopDesc@@@Z 080933e0 f   methodDataOop.obj
 0001:00092570       ?internal_name@methodKlass@@UBEPBDXZ 08093570 f   methodKlass.obj
 0001:00092580       ?oop_size@methodKlass@@UBEHPAVoopDesc@@@Z 08093580 f   methodKlass.obj
 0001:00092590       ?oop_is_parsable@methodKlass@@UBE_NPAVoopDesc@@@Z 08093590 f   methodKlass.obj
 0001:000925b0       ?oop_oop_iterate@methodKlass@@UAEHPAVoopDesc@@PAVOopClosure@@@Z 080935b0 f   methodKlass.obj
 0001:00092600       ?oop_oop_iterate_m@methodKlass@@UAEHPAVoopDesc@@PAVOopClosure@@VMemRegion@@@Z 08093600 f   methodKlass.obj
 0001:00092680       ?create_klass@methodKlass@@SAPAVklassOopDesc@@PAVThread@@@Z 08093680 f   methodKlass.obj
 0001:00092730       ?oop_adjust_pointers@methodKlass@@UAEHPAVoopDesc@@@Z 08093730 f   methodKlass.obj
 0001:000927c0       ?oop_update_pointers@methodKlass@@UAEHPAVParCompactionManager@@PAVoopDesc@@@Z 080937c0 f   methodKlass.obj
 0001:00092810       ?oop_verify_on@methodKlass@@UAEXPAVoopDesc@@PAVoutputStream@@@Z 08093810 f   methodKlass.obj
 0001:000929d0       ?oop_partially_loaded@methodKlass@@UBE_NPAVoopDesc@@@Z 080939d0 f   methodKlass.obj
 0001:000929f0       ?oop_set_partially_loaded@methodKlass@@UAEXPAVoopDesc@@@Z 080939f0 f   methodKlass.obj
 0001:00092a10       ?oop_follow_contents@methodKlass@@UAEXPAVoopDesc@@@Z 08093a10 f   methodKlass.obj
 0001:00092a50       ?oop_print_value_on@methodKlass@@UAEXPAVoopDesc@@PAVoutputStream@@@Z 08093a50 f   methodKlass.obj
 0001:00092ac0       ?oop_follow_contents@methodKlass@@UAEXPAVParCompactionManager@@PAVoopDesc@@@Z 08093ac0 f   methodKlass.obj
 0001:00092af0       ?allocate@methodKlass@@QAEPAVmethodOopDesc@@VconstMethodHandle@@VAccessFlags@@PAVThread@@@Z 08093af0 f   methodKlass.obj
 0001:00092cb0       ?is_method_handle_invoke_name@methodOopDesc@@SA_NW4SID@vmSymbols@@@Z 08093cb0 f   methodOop.obj
 0001:00092ce0       ?contains@constMethodOopDesc@@QBE_NPAE@Z 08093ce0 f i methodOop.obj
 0001:00092d10       ?get_c2i_entry@methodOopDesc@@QAEPAEXZ 08093d10 f   methodOop.obj
 0001:00092d20       ?get_c2i_unverified_entry@methodOopDesc@@QAEPAEXZ 08093d20 f   methodOop.obj
 0001:00092d30       ?name_and_sig_as_C_string@methodOopDesc@@SAPADPAVKlass@@PAVSymbol@@1@Z 08093d30 f   methodOop.obj
 0001:00092de0       ?name_and_sig_as_C_string@methodOopDesc@@SAPADPAVKlass@@PAVSymbol@@1PADH@Z 08093de0 f   methodOop.obj
 0001:00092e50       ?bci_from@methodOopDesc@@QBEHPAE@Z 08093e50 f   methodOop.obj
 0001:00092e60       ?validate_bci_from_bcx@methodOopDesc@@QBEHH@Z 08093e60 f   methodOop.obj
 0001:00092ec0       ?bcp_from@methodOopDesc@@QBEPAEH@Z 08093ec0 f   methodOop.obj
 0001:00092ee0       ?object_size@methodOopDesc@@SAH_N@Z 08093ee0 f   methodOop.obj
 0001:00092f10       ?klass_name@methodOopDesc@@QBEPAVSymbol@@XZ 08093f10 f   methodOop.obj
 0001:00092f20       ?is_empty_method@methodOopDesc@@QBE_NXZ 08093f20 f   methodOop.obj
 0001:00092f40       ?is_vanilla_constructor@methodOopDesc@@QBE_NXZ 08093f40 f   methodOop.obj
 0001:00092fc0       ?is_final_method@methodOopDesc@@QBE_NXZ 08093fc0 f   methodOop.obj
 0001:00092ff0       ?can_be_statically_bound@methodOopDesc@@QBE_NXZ 08093ff0 f   methodOop.obj
 0001:00093020       ?has_valid_initializer_flags@methodOopDesc@@QBE_NXZ 08094020 f   methodOop.obj
 0001:00093050       ?set_native_function@methodOopDesc@@QAEXPAE_N@Z 08094050 f   methodOop.obj
 0001:000930a0       ?set_signature_handler@methodOopDesc@@QAEXPAE@Z 080940a0 f   methodOop.obj
 0001:000930b0       ?is_not_compilable@methodOopDesc@@QBE_NH@Z 080940b0 f   methodOop.obj
 0001:00093130       ?make_adapters@methodOopDesc@@SAPAEVmethodHandle@@PAVThread@@@Z 08094130 f   methodOop.obj
 0001:00093190       ?should_not_be_cached@methodOopDesc@@QBE_NXZ 08094190 f   methodOop.obj
 0001:000931b0       ?method_handle_type@methodOopDesc@@QBEPAVoopDesc@@XZ 080941b0 f   methodOop.obj
 0001:000931d0       ?method_type_offsets_chain@methodOopDesc@@SAPAHXZ 080941d0 f   methodOop.obj
 0001:00093200       ?klass_id_for_intrinsics@methodOopDesc@@SA?AW4SID@vmSymbols@@PAVklassOopDesc@@@Z 08094200 f   methodOop.obj
 0001:00093230       ?write_pair_regular@CompressedLineNumberWriteStream@@QAEXHH@Z 08094230 f   methodOop.obj
 0001:00093270       ??0CompressedLineNumberReadStream@@QAE@PAE@Z 08094270 f   methodOop.obj
 0001:00093290       ?read_pair@CompressedLineNumberReadStream@@QAE_NXZ 08094290 f   methodOop.obj
 0001:000932e0       ?invocation_count@methodOopDesc@@QAEHXZ 080942e0 f   methodOop.obj
 0001:00093330       ?backedge_count@methodOopDesc@@QAEHXZ 08094330 f   methodOop.obj
 0001:00093380       ?highest_osr_comp_level@methodOopDesc@@QBEHXZ 08094380 f   methodOop.obj
 0001:00093390       ?set_highest_osr_comp_level@methodOopDesc@@QAEXH@Z 08094390 f   methodOop.obj
 0001:000933b0       ?mask_for@methodOopDesc@@QAEXHPAVInterpreterOopMap@@@Z 080943b0 f   methodOop.obj
 0001:00093420       ?is_accessor@methodOopDesc@@QBE_NXZ 08094420 f   methodOop.obj
 0001:000934a0       ?line_number_from_bci@methodOopDesc@@QBEHH@Z 080944a0 f   methodOop.obj
 0001:00093550       ?has_native_function@methodOopDesc@@QBE_NXZ 08094550 f   methodOop.obj
 0001:00093570       ?clear_code@methodOopDesc@@QAEXXZ 08094570 f   methodOop.obj
 0001:000935b0       ?link_method@methodOopDesc@@QAEXVmethodHandle@@PAVThread@@@Z 080945b0 f   methodOop.obj
 0001:00093630       ?set_code@methodOopDesc@@SAXVmethodHandle@@PAVnmethod@@@Z 08094630 f   methodOop.obj
 0001:000936c0       ?orig_bytecode_at@methodOopDesc@@QBE?AW4Code@Bytecodes@@H@Z 080946c0 f   methodOop.obj
 0001:00093730       ?set_orig_bytecode_at@methodOopDesc@@QAEXHW4Code@Bytecodes@@@Z 08094730 f   methodOop.obj
 0001:00093830       ?clear_breakpoint@methodOopDesc@@QAEXH@Z 08094830 f   methodOop.obj
 0001:00093850       ?clear_all_breakpoints@methodOopDesc@@QAEXXZ 08094850 f   methodOop.obj
 0001:000938f0       ?set@BreakpointInfo@@QAEXPAVmethodOopDesc@@@Z 080948f0 f   methodOop.obj
 0001:00093980       ?compute_has_loops_flag@methodOopDesc@@QAE_NXZ 08094980 f   methodOop.obj
 0001:00093ac0       ?clear_native_function@methodOopDesc@@QAEXXZ 08094ac0 f   methodOop.obj
 0001:00093b20       ?verified_code_entry@methodOopDesc@@QAEPAEXZ 08094b20 f   methodOop.obj
 0001:00093b70       ?set_breakpoint@methodOopDesc@@QAEXH@Z 08094b70 f   methodOop.obj
 0001:00093bf0       ?fast_exception_handler_bci_for@methodOopDesc@@QAEHVKlassHandle@@HPAVThread@@@Z 08094bf0 f   methodOop.obj
 0001:00093da0       ?name_and_sig_as_C_string@methodOopDesc@@QAEPADXZ 08094da0 f   methodOop.obj
 0001:00093dd0       ?name_and_sig_as_C_string@methodOopDesc@@QAEPADPADH@Z 08094dd0 f   methodOop.obj
 0001:00093e10       ?compute_size_of_parameters@methodOopDesc@@QAEXPAVThread@@@Z 08094e10 f   methodOop.obj
 0001:00093e70       ?result_type@methodOopDesc@@QBE?AW4BasicType@@XZ 08094e70 f   methodOop.obj
 0001:00093eb0       ?is_static_initializer@methodOopDesc@@QBE_NXZ 08094eb0 f   methodOop.obj
 0001:00093ef0       ?is_overridden_in@methodOopDesc@@QBE_NPAVklassOopDesc@@@Z 08094ef0 f   methodOop.obj
 0001:00093f60       ?is_method_handle_adapter@methodOopDesc@@QBE_NXZ 08094f60 f   methodOop.obj
 0001:00093fc0       ?init_intrinsic_id@methodOopDesc@@QAEXXZ 08094fc0 f   methodOop.obj
 0001:00094140       ?print_short_name@methodOopDesc@@QAEXPAVoutputStream@@@Z 08095140 f   methodOop.obj
 0001:00094250       ?is_initializer@methodOopDesc@@QBE_NXZ 08095250 f   methodOop.obj
 0001:000942a0       ?resolved_checked_exceptions_impl@methodOopDesc@@SA?AVobjArrayHandle@@PAV1@PAVThread@@@Z 080952a0 f   methodOop.obj
 0001:000943f0       ?set_not_compilable@methodOopDesc@@QAEXH_N@Z 080953f0 f   methodOop.obj
 0001:000945f0       ?sort_methods@methodOopDesc@@SAXPAVobjArrayOopDesc@@000_N@Z 080955f0 f   methodOop.obj
 0001:00094930       ?build_interpreter_method_data@methodOopDesc@@SAXVmethodHandle@@PAVThread@@@Z 08095930 f   methodOop.obj
 0001:000949b0       ?unlink_method@methodOopDesc@@QAEXXZ 080959b0 f   methodOop.obj
 0001:00094a20       ?make_invoke_method@methodOopDesc@@SA?AVmethodHandle@@VKlassHandle@@PAVSymbol@@1VHandle@@PAVThread@@@Z 08095a20 f   methodOop.obj
 0001:00094c30       ?clone_with_new_data@methodOopDesc@@SA?AVmethodHandle@@V2@PAEH1HPAVThread@@@Z 08095c30 f   methodOop.obj
 0001:00094e30       ?remove_unshareable_info@methodOopDesc@@QAEXXZ 08095e30 f   methodOop.obj
 0001:00094e60       ?array_klass_impl@objArrayKlass@@MAEPAVklassOopDesc@@_NPAVThread@@@Z 08095e60 f   objArrayKlass.obj
 0001:00094e60       ?array_klass_impl@typeArrayKlass@@MAEPAVklassOopDesc@@_NPAVThread@@@Z 08095e60 f   typeArrayKlass.obj
 0001:00094e80       ?compute_is_subtype_of@objArrayKlass@@UAE_NPAVklassOopDesc@@@Z 08095e80 f   objArrayKlass.obj
 0001:00094ed0       ?initialize@objArrayKlass@@UAEXPAVThread@@@Z 08095ed0 f   objArrayKlass.obj
 0001:00094ef0       ?compute_modifier_flags@objArrayKlass@@UBEHPAVThread@@@Z 08095ef0 f   objArrayKlass.obj
 0001:00094f40       ?can_be_primary_super_slow@objArrayKlass@@UBE_NXZ 08095f40 f   objArrayKlass.obj
 0001:00094f60       ??$do_copy@PAVoopDesc@@@objArrayKlass@@AAEXPAVarrayOopDesc@@PAPAVoopDesc@@01HPAVThread@@@Z 08095f60 f i objArrayKlass.obj
 0001:00095190       ?push@?$GenericTaskQueue@VObjArrayTask@@$0BAAA@@@QAE_NVObjArrayTask@@@Z 08096190 f i objArrayKlass.obj
 0001:00095220       ?push_segment@?$Stack@VObjArrayTask@@@@IAEXXZ 08096220 f i objArrayKlass.obj
 0001:000952a0       ?oop_size@objArrayKlass@@UBEHPAVoopDesc@@@Z 080962a0 f   objArrayKlass.obj
 0001:000952e0       ?copy_array@objArrayKlass@@UAEXPAVarrayOopDesc@@H0HHPAVThread@@@Z 080962e0 f   objArrayKlass.obj
 0001:000953c0       ?oop_oop_iterate_v@objArrayKlass@@UAEHPAVoopDesc@@PAVOopClosure@@@Z 080963c0 f   objArrayKlass.obj
 0001:00095430       ?oop_oop_iterate_nv@objArrayKlass@@UAEHPAVoopDesc@@PAVScanClosure@@@Z 08096430 f   objArrayKlass.obj
 0001:000954f0       ?oop_oop_iterate_nv@objArrayKlass@@UAEHPAVoopDesc@@PAVFastScanClosure@@@Z 080964f0 f   objArrayKlass.obj
 0001:000955a0       ?oop_oop_iterate_nv@objArrayKlass@@UAEHPAVoopDesc@@PAVFilteringClosure@@@Z 080965a0 f   objArrayKlass.obj
 0001:00095610       ?oop_oop_iterate_nv@objArrayKlass@@UAEHPAVoopDesc@@PAVParScanWithBarrierClosure@@@Z 08096610 f   objArrayKlass.obj
 0001:00095680       ?oop_oop_iterate_nv@objArrayKlass@@UAEHPAVoopDesc@@PAVParScanWithoutBarrierClosure@@@Z 08096680 f   objArrayKlass.obj
 0001:00095750       ?oop_oop_iterate_nv@objArrayKlass@@UAEHPAVoopDesc@@PAVMarkRefsIntoAndScanClosure@@@Z 08096750 f   objArrayKlass.obj
 0001:000957c0       ?oop_oop_iterate_nv@objArrayKlass@@UAEHPAVoopDesc@@PAVPar_MarkRefsIntoAndScanClosure@@@Z 080967c0 f   objArrayKlass.obj
 0001:00095830       ?oop_oop_iterate_nv@objArrayKlass@@UAEHPAVoopDesc@@PAVPushAndMarkClosure@@@Z 08096830 f   objArrayKlass.obj
 0001:000958a0       ?oop_oop_iterate_nv@objArrayKlass@@UAEHPAVoopDesc@@PAVPar_PushAndMarkClosure@@@Z 080968a0 f   objArrayKlass.obj
 0001:00095910       ?oop_oop_iterate_nv@objArrayKlass@@UAEHPAVoopDesc@@PAVPushOrMarkClosure@@@Z 08096910 f   objArrayKlass.obj
 0001:00095980       ?oop_oop_iterate_nv@objArrayKlass@@UAEHPAVoopDesc@@PAVPar_PushOrMarkClosure@@@Z 08096980 f   objArrayKlass.obj
 0001:000959f0       ?oop_oop_iterate_nv@objArrayKlass@@UAEHPAVoopDesc@@PAVCMSKeepAliveClosure@@@Z 080969f0 f   objArrayKlass.obj
 0001:00095a60       ?oop_oop_iterate_nv@objArrayKlass@@UAEHPAVoopDesc@@PAVCMSInnerParMarkAndPushClosure@@@Z 08096a60 f   objArrayKlass.obj
 0001:00095ad0       ?oop_oop_iterate_nv@objArrayKlass@@UAEHPAVoopDesc@@PAV?$G1ParCopyClosure@$0A@$01$0A@@@@Z 08096ad0 f   objArrayKlass.obj
 0001:00095b40       ?oop_oop_iterate_nv@objArrayKlass@@UAEHPAVoopDesc@@PAVFilterIntoCSClosure@@@Z 08096b40 f   objArrayKlass.obj
 0001:00095be0       ?oop_oop_iterate_nv@objArrayKlass@@UAEHPAVoopDesc@@PAVFilterOutOfRegionClosure@@@Z 08096be0 f   objArrayKlass.obj
 0001:00095c50       ?oop_oop_iterate_nv@objArrayKlass@@UAEHPAVoopDesc@@PAVFilterInHeapRegionAndIntoCSClosure@@@Z 08096c50 f   objArrayKlass.obj
 0001:00095cf0       ?oop_oop_iterate_nv@objArrayKlass@@UAEHPAVoopDesc@@PAVFilterAndMarkInHeapRegionAndIntoCSClosure@@@Z 08096cf0 f   objArrayKlass.obj
 0001:00095d50       ?oop_oop_iterate_v_m@objArrayKlass@@UAEHPAVoopDesc@@PAVOopClosure@@VMemRegion@@@Z 08096d50 f   objArrayKlass.obj
 0001:00095df0       ?oop_oop_iterate_nv_m@objArrayKlass@@UAEHPAVoopDesc@@PAVScanClosure@@VMemRegion@@@Z 08096df0 f   objArrayKlass.obj
 0001:00095ec0       ?oop_oop_iterate_nv_m@objArrayKlass@@UAEHPAVoopDesc@@PAVFastScanClosure@@VMemRegion@@@Z 08096ec0 f   objArrayKlass.obj
 0001:00095f90       ?oop_oop_iterate_nv_m@objArrayKlass@@UAEHPAVoopDesc@@PAVFilteringClosure@@VMemRegion@@@Z 08096f90 f   objArrayKlass.obj
 0001:00096010       ?oop_oop_iterate_nv_m@objArrayKlass@@UAEHPAVoopDesc@@PAVParScanWithBarrierClosure@@VMemRegion@@@Z 08097010 f   objArrayKlass.obj
 0001:000960a0       ?oop_oop_iterate_nv_m@objArrayKlass@@UAEHPAVoopDesc@@PAVParScanWithoutBarrierClosure@@VMemRegion@@@Z 080970a0 f   objArrayKlass.obj
 0001:000961a0       ?oop_oop_iterate_nv_m@objArrayKlass@@UAEHPAVoopDesc@@PAVMarkRefsIntoAndScanClosure@@VMemRegion@@@Z 080971a0 f   objArrayKlass.obj
 0001:00096240       ?oop_oop_iterate_nv_m@objArrayKlass@@UAEHPAVoopDesc@@PAVPar_MarkRefsIntoAndScanClosure@@VMemRegion@@@Z 08097240 f   objArrayKlass.obj
 0001:000962e0       ?oop_oop_iterate_nv_m@objArrayKlass@@UAEHPAVoopDesc@@PAVPushAndMarkClosure@@VMemRegion@@@Z 080972e0 f   objArrayKlass.obj
 0001:00096380       ?oop_oop_iterate_nv_m@objArrayKlass@@UAEHPAVoopDesc@@PAVPar_PushAndMarkClosure@@VMemRegion@@@Z 08097380 f   objArrayKlass.obj
 0001:00096420       ?oop_oop_iterate_nv_m@objArrayKlass@@UAEHPAVoopDesc@@PAVPushOrMarkClosure@@VMemRegion@@@Z 08097420 f   objArrayKlass.obj
 0001:000964c0       ?oop_oop_iterate_nv_m@objArrayKlass@@UAEHPAVoopDesc@@PAVPar_PushOrMarkClosure@@VMemRegion@@@Z 080974c0 f   objArrayKlass.obj
 0001:00096560       ?oop_oop_iterate_nv_m@objArrayKlass@@UAEHPAVoopDesc@@PAVCMSKeepAliveClosure@@VMemRegion@@@Z 08097560 f   objArrayKlass.obj
 0001:00096600       ?oop_oop_iterate_nv_m@objArrayKlass@@UAEHPAVoopDesc@@PAVCMSInnerParMarkAndPushClosure@@VMemRegion@@@Z 08097600 f   objArrayKlass.obj
 0001:000966a0       ?oop_oop_iterate_nv_m@objArrayKlass@@UAEHPAVoopDesc@@PAV?$G1ParCopyClosure@$0A@$01$0A@@@VMemRegion@@@Z 080976a0 f   objArrayKlass.obj
 0001:00096730       ?oop_oop_iterate_nv_m@objArrayKlass@@UAEHPAVoopDesc@@PAVFilterIntoCSClosure@@VMemRegion@@@Z 08097730 f   objArrayKlass.obj
 0001:000967e0       ?oop_oop_iterate_nv_m@objArrayKlass@@UAEHPAVoopDesc@@PAVFilterOutOfRegionClosure@@VMemRegion@@@Z 080977e0 f   objArrayKlass.obj
 0001:00096860       ?oop_oop_iterate_nv_m@objArrayKlass@@UAEHPAVoopDesc@@PAVFilterInHeapRegionAndIntoCSClosure@@VMemRegion@@@Z 08097860 f   objArrayKlass.obj
 0001:00096910       ?oop_oop_iterate_nv_m@objArrayKlass@@UAEHPAVoopDesc@@PAVFilterAndMarkInHeapRegionAndIntoCSClosure@@VMemRegion@@@Z 08097910 f   objArrayKlass.obj
 0001:00096980       ?oop_oop_iterate_range_nv@objArrayKlass@@QAEHPAVoopDesc@@PAVParScanWithBarrierClosure@@HH@Z 08097980 f   objArrayKlass.obj
 0001:00096a30       ?oop_oop_iterate_range_nv@objArrayKlass@@QAEHPAVoopDesc@@PAVParScanWithoutBarrierClosure@@HH@Z 08097a30 f   objArrayKlass.obj
 0001:00096b30       ?oop_adjust_pointers@objArrayKlass@@UAEHPAVoopDesc@@@Z 08097b30 f   objArrayKlass.obj
 0001:00096bd0       ?oop_update_pointers@objArrayKlass@@UAEHPAVParCompactionManager@@PAVoopDesc@@@Z 08097bd0 f   objArrayKlass.obj
 0001:00096c40       ?oop_print_value_on@objArrayKlass@@UAEXPAVoopDesc@@PAVoutputStream@@@Z 08097c40 f   objArrayKlass.obj
 0001:00096c90       ?oop_verify_on@objArrayKlass@@UAEXPAVoopDesc@@PAVoutputStream@@@Z 08097c90 f   objArrayKlass.obj
 0001:00096d20       ??$objarray_follow_contents@PAVoopDesc@@@objArrayKlass@@QAEXPAVoopDesc@@H@Z 08097d20 f i objArrayKlass.obj
 0001:00096e50       ?compute_secondary_supers@objArrayKlass@@UAEPAVobjArrayOopDesc@@HPAVThread@@@Z 08097e50 f   objArrayKlass.obj
 0001:00096fa0       ?oop_follow_contents@objArrayKlass@@UAEXPAVoopDesc@@@Z 08097fa0 f   objArrayKlass.obj
 0001:00096fd0       ?oop_oop_iterate_nv@objArrayKlass@@UAEHPAVoopDesc@@PAVG1ParScanClosure@@@Z 08097fd0 f   objArrayKlass.obj
 0001:00097040       ?oop_oop_iterate_nv@objArrayKlass@@UAEHPAVoopDesc@@PAVG1ParPushHeapRSClosure@@@Z 08098040 f   objArrayKlass.obj
 0001:00097110       ?oop_oop_iterate_nv_m@objArrayKlass@@UAEHPAVoopDesc@@PAVG1ParScanClosure@@VMemRegion@@@Z 08098110 f   objArrayKlass.obj
 0001:000971a0       ?oop_oop_iterate_nv_m@objArrayKlass@@UAEHPAVoopDesc@@PAVG1ParPushHeapRSClosure@@VMemRegion@@@Z 080981a0 f   objArrayKlass.obj
 0001:00097290       ?oop_oop_iterate_range_nv@objArrayKlass@@QAEHPAVoopDesc@@PAVG1ParScanClosure@@HH@Z 08098290 f   objArrayKlass.obj
 0001:00097340       ?oop_push_contents@objArrayKlass@@UAEXPAVPSPromotionManager@@PAVoopDesc@@@Z 08098340 f   objArrayKlass.obj
 0001:00097390       ??$objarray_follow_contents@PAVoopDesc@@@objArrayKlass@@QAEXPAVParCompactionManager@@PAVoopDesc@@H@Z 08098390 f i objArrayKlass.obj
 0001:000974a0       ?oop_follow_contents@objArrayKlass@@UAEXPAVParCompactionManager@@PAVoopDesc@@@Z 080984a0 f   objArrayKlass.obj
 0001:000974d0       ?allocate@objArrayKlass@@QAEPAVobjArrayOopDesc@@HPAVThread@@@Z 080984d0 f   objArrayKlass.obj
 0001:00097600       ?multi_allocate@objArrayKlass@@UAEPAVoopDesc@@HPAHPAVThread@@@Z 08098600 f   objArrayKlass.obj
 0001:00097780       ?internal_name@objArrayKlassKlass@@UBEPBDXZ 08098780 f   objArrayKlassKlass.obj
 0001:00097790       ?oop_oop_iterate@objArrayKlassKlass@@UAEHPAVoopDesc@@PAVOopClosure@@@Z 08098790 f   objArrayKlassKlass.obj
 0001:000977d0       ?oop_oop_iterate_m@objArrayKlassKlass@@UAEHPAVoopDesc@@PAVOopClosure@@VMemRegion@@@Z 080987d0 f   objArrayKlassKlass.obj
 0001:00097840       ?oop_print_value_on@objArrayKlassKlass@@UAEXPAVoopDesc@@PAVoutputStream@@@Z 08098840 f   objArrayKlassKlass.obj
 0001:00097870       ?create_klass@objArrayKlassKlass@@SAPAVklassOopDesc@@PAVThread@@@Z 08098870 f   objArrayKlassKlass.obj
 0001:00097920       ?oop_adjust_pointers@objArrayKlassKlass@@UAEHPAVoopDesc@@@Z 08098920 f   objArrayKlassKlass.obj
 0001:00097990       ?oop_update_pointers@objArrayKlassKlass@@UAEHPAVParCompactionManager@@PAVoopDesc@@@Z 08098990 f   objArrayKlassKlass.obj
 0001:000979f0       ?oop_verify_on@objArrayKlassKlass@@UAEXPAVoopDesc@@PAVoutputStream@@@Z 080989f0 f   objArrayKlassKlass.obj
 0001:00097b20       ?oop_follow_contents@objArrayKlassKlass@@UAEXPAVoopDesc@@@Z 08098b20 f   objArrayKlassKlass.obj
 0001:00097b60       ?allocate_objArray_klass_impl@objArrayKlassKlass@@CAPAVklassOopDesc@@VobjArrayKlassKlassHandle@@HVKlassHandle@@PAVThread@@@Z 08098b60 f   objArrayKlassKlass.obj
 0001:000980a0       ?oop_follow_contents@objArrayKlassKlass@@UAEXPAVParCompactionManager@@PAVoopDesc@@@Z 080990a0 f   objArrayKlassKlass.obj
 0001:000980e0       ?allocate_objArray_klass@objArrayKlassKlass@@QAEPAVklassOopDesc@@HVKlassHandle@@PAVThread@@@Z 080990e0 f   objArrayKlassKlass.obj
 0001:00098150       ?allocate_system_objArray_klass@objArrayKlassKlass@@QAEPAVklassOopDesc@@PAVThread@@@Z 08099150 f   objArrayKlassKlass.obj
 0001:00098270       ?oop_push_contents@objArrayKlassKlass@@UAEXPAVPSPromotionManager@@PAVoopDesc@@@Z 08099270 f   objArrayKlassKlass.obj
 0001:000982e0       ?oop_iterate_range@objArrayOopDesc@@QAEHPAVParScanWithBarrierClosure@@HH@Z 080992e0 f   objArrayOop.obj
 0001:00098300       ?oop_iterate_range@objArrayOopDesc@@QAEHPAVParScanWithoutBarrierClosure@@HH@Z 08099300 f   objArrayOop.obj
 0001:00098320       ?oop_iterate_range@objArrayOopDesc@@QAEHPAVG1ParScanClosure@@HH@Z 08099320 f   objArrayOop.obj
 0001:00098340       ?print_address_on@oopDesc@@QBEXPAVoutputStream@@@Z 08099340 f   oop.obj
 0001:00098370       ?print_on@oopDesc@@QBEXPAVoutputStream@@@Z 08099370 f   oop.obj
 0001:000983b0       ?print@oopDesc@@QAEXXZ     080993b0 f   oop.obj
 0001:000983f0       ?print_value_on@oopDesc@@QBEXPAVoutputStream@@@Z 080993f0 f   oop.obj
 0001:00098470       ?verify@oopDesc@@QAEXXZ    08099470 f   oop.obj
 0001:00098490       ?verify_old_oop@oopDesc@@QAEXPAPAV1@_N@Z 08099490 f   oop.obj
 0001:000984c0       ?verify_old_oop@oopDesc@@QAEXPAI_N@Z 080994c0 f   oop.obj
 0001:000984f0       ?partially_loaded@oopDesc@@QAE_NXZ 080994f0 f   oop.obj
 0001:00098510       ?set_partially_loaded@oopDesc@@QAEXXZ 08099510 f   oop.obj
 0001:00098530       ?slow_identity_hash@oopDesc@@QAEHXZ 08099530 f   oop.obj
 0001:00098580       ??$do_oop_work@I@VerifyOopClosure@@IAEXPAI@Z 08099580 f i oop.obj
 0001:00098600       ?do_oop@VerifyOopClosure@@UAEXPAPAVoopDesc@@@Z 08099600 f   oop.obj
 0001:00098670       ?do_oop@VerifyOopClosure@@UAEXPAI@Z 08099670 f   oop.obj
 0001:00098680       ??0Symbol@@AAE@PBEH@Z      08099680 f   symbol.obj
 0001:000986d0       ??2Symbol@@CAPAXIH@Z       080996d0 f   symbol.obj
 0001:00098720       ?equals@Symbol@@QBE_NPBDH@Z 08099720 f   symbol.obj
 0001:00098760       ?starts_with@Symbol@@QBE_NPBDH@Z 08099760 f   symbol.obj
 0001:000987a0       ?index_of_at@Symbol@@QBEHHPBDH@Z 080997a0 f   symbol.obj
 0001:00098880       ?as_C_string@Symbol@@QBEPADPADH@Z 08099880 f   symbol.obj
 0001:000988d0       ?as_C_string@Symbol@@QBEPADXZ 080998d0 f   symbol.obj
 0001:00098920       ?as_C_string_flexible_buffer@Symbol@@QBEPADPAVThread@@PADH@Z 08099920 f   symbol.obj
 0001:00098970       ?print_symbol_on@Symbol@@QBEXPAVoutputStream@@@Z 08099970 f   symbol.obj
 0001:000989f0       ?as_unicode@Symbol@@QBEPAGAAH@Z 080999f0 f   symbol.obj
 0001:00098a30       ?as_klass_external_name@Symbol@@QBEPBDPADH@Z 08099a30 f   symbol.obj
 0001:00098aa0       ?as_klass_external_name@Symbol@@QBEPBDXZ 08099aa0 f   symbol.obj
 0001:00098b10       ?print_value_on@Symbol@@QBEXPAVoutputStream@@@Z 08099b10 f   symbol.obj
 0001:00098b90       ?increment_refcount@Symbol@@QAEXXZ 08099b90 f   symbol.obj
 0001:00098bc0       ?decrement_refcount@Symbol@@QAEXXZ 08099bc0 f   symbol.obj
 0001:00098bf0       ?external_name@typeArrayKlass@@SAPBDW4BasicType@@@Z 08099bf0 f   typeArrayKlass.obj
 0001:00098c80       ?compute_is_subtype_of@typeArrayKlass@@UAE_NPAVklassOopDesc@@@Z 08099c80 f   typeArrayKlass.obj
 0001:00098cc0       ?copy_array@typeArrayKlass@@UAEXPAVarrayOopDesc@@H0HHPAVThread@@@Z 08099cc0 f   typeArrayKlass.obj
 0001:00098dd0       ?oop_size@typeArrayKlass@@UBEHPAVoopDesc@@@Z 08099dd0 f   typeArrayKlass.obj
 0001:00098dd0       ?oop_adjust_pointers@typeArrayKlass@@UAEHPAVoopDesc@@@Z 08099dd0 f   typeArrayKlass.obj
 0001:00098e30       ?oop_oop_iterate@typeArrayKlass@@UAEHPAVoopDesc@@PAVOopClosure@@@Z 08099e30 f   typeArrayKlass.obj
 0001:00098e90       ?oop_oop_iterate_m@typeArrayKlass@@UAEHPAVoopDesc@@PAVOopClosure@@VMemRegion@@@Z 08099e90 f   typeArrayKlass.obj
 0001:00098ef0       ?oop_update_pointers@typeArrayKlass@@UAEHPAVParCompactionManager@@PAVoopDesc@@@Z 08099ef0 f   typeArrayKlass.obj
 0001:00098f50       ?create_klass@typeArrayKlass@@SAPAVklassOopDesc@@W4BasicType@@HPBDPAVThread@@@Z 08099f50 f   typeArrayKlass.obj
 0001:000990b0       ?array_klass_impl@typeArrayKlass@@CAPAVklassOopDesc@@VtypeArrayKlassHandle@@_NHPAVThread@@@Z 0809a0b0 f   typeArrayKlass.obj
 0001:000990b0       ?array_klass_impl@objArrayKlass@@CAPAVklassOopDesc@@VobjArrayKlassHandle@@_NHPAVThread@@@Z 0809a0b0 f   objArrayKlass.obj
 0001:00099320       ?array_klass_impl@typeArrayKlass@@MAEPAVklassOopDesc@@_NHPAVThread@@@Z 0809a320 f   typeArrayKlass.obj
 0001:00099320       ?array_klass_impl@objArrayKlass@@MAEPAVklassOopDesc@@_NHPAVThread@@@Z 0809a320 f   objArrayKlass.obj
 0001:00099390       ?large_typearray_allocate@CollectedHeap@@SAPAVoopDesc@@VKlassHandle@@HHPAVThread@@@Z 0809a390 f i typeArrayKlass.obj
 0001:000993f0       ?allocate@typeArrayKlass@@QAEPAVtypeArrayOopDesc@@HPAVThread@@@Z 0809a3f0 f   typeArrayKlass.obj
 0001:00099530       ?allocate_permanent@typeArrayKlass@@QAEPAVtypeArrayOopDesc@@HPAVThread@@@Z 0809a530 f   typeArrayKlass.obj
 0001:00099610       ?multi_allocate@typeArrayKlass@@UAEPAVoopDesc@@HPAHPAVThread@@@Z 0809a610 f   typeArrayKlass.obj
 0001:00099630       ?internal_name@typeArrayKlassKlass@@UBEPBDXZ 0809a630 f   typeArrayKlassKlass.obj
 0001:00099640       ?oop_print_value_on@typeArrayKlassKlass@@UAEXPAVoopDesc@@PAVoutputStream@@@Z 0809a640 f   typeArrayKlassKlass.obj
 0001:000997d0       ?create_klass@typeArrayKlassKlass@@SAPAVklassOopDesc@@PAVThread@@@Z 0809a7d0 f   typeArrayKlassKlass.obj
 0001:00099910       ?is_valid_method@CollectedHeap@@QBE_NPAVoopDesc@@@Z 0809a910 f i forte.obj
 0001:00099d30       ??0vframeStreamForte@@QAE@PAVJavaThread@@Vframe@@_N@Z 0809ad30 f   forte.obj
 0001:00099da0       ?forte_next@vframeStreamForte@@QAEXXZ 0809ada0 f   forte.obj
 0001:0009a110       _AsyncGetCallTrace         0809b110 f   forte.obj
 0001:0009a310       ?NewObject@JNIEnv_@@QAAPAV_jobject@@PAV_jclass@@PAU_jmethodID@@ZZ 0809b310 f i jni.obj
 0001:0009a330       ?jni_functions@@YAPAUJNINativeInterface_@@XZ 0809b330 f   jni.obj
 0001:0009a350       ?jni_functions_nocheck@@YAPAUJNINativeInterface_@@XZ 0809b350 f   jni.obj
 0001:0009a360       _JNI_GetDefaultJavaVMInitArgs@4 0809b360 f   jni.obj
 0001:0009a3a0       _JNI_GetCreatedJavaVMs@12  0809b3a0 f   jni.obj
 0001:0009a3e0       ??0JavaCallArguments@@QAE@H@Z 0809b3e0 f i jni.obj
 0001:0009a450       ?klass_hash_ok@jfieldIDWorkaround@@CA_NPAVklassOopDesc@@PAU_jfieldID@@@Z 0809b450 f   jni.obj
 0001:0009a4b0       _jni_GetSuperclass@8       0809b4b0 f   jni.obj
 0001:0009a660       _jni_IsAssignableFrom@12   0809b660 f   jni.obj
 0001:0009a790       _jni_Throw@8               0809b790 f   jni.obj
 0001:0009a8a0       _jni_ThrowNew@12           0809b8a0 f   jni.obj
 0001:0009aa50       _jni_ExceptionOccurred@4   0809ba50 f   jni.obj
 0001:0009ab20       _jni_FatalError@8          0809bb20 f   jni.obj
 0001:0009ac30       _jni_PushLocalFrame@8      0809bc30 f   jni.obj
 0001:0009ad80       _jni_PopLocalFrame@8       0809bd80 f   jni.obj
 0001:0009aee0       _jni_NewGlobalRef@8        0809bee0 f   jni.obj
 0001:0009b020       _jni_DeleteGlobalRef@8     0809c020 f   jni.obj
 0001:0009b0e0       _jni_DeleteLocalRef@8      0809c0e0 f   jni.obj
 0001:0009b180       _jni_IsSameObject@12       0809c180 f   jni.obj
 0001:0009b230       _jni_NewLocalRef@8         0809c230 f   jni.obj
 0001:0009b330       _jni_EnsureLocalCapacity@8 0809c330 f   jni.obj
 0001:0009b370       _jni_GetObjectRefType@8    0809c370 f   jni.obj
 0001:0009b400       ?do_bool@JNI_ArgumentPusher@@UAEXXZ 0809c400 f i jni.obj
 0001:0009b410       ?do_char@JNI_ArgumentPusher@@UAEXXZ 0809c410 f i jni.obj
 0001:0009b420       ?do_short@JNI_ArgumentPusher@@UAEXXZ 0809c420 f i jni.obj
 0001:0009b430       ?do_byte@JNI_ArgumentPusher@@UAEXXZ 0809c430 f i jni.obj
 0001:0009b440       ?do_int@JNI_ArgumentPusher@@UAEXXZ 0809c440 f i jni.obj
 0001:0009b450       ?do_long@JNI_ArgumentPusher@@UAEXXZ 0809c450 f i jni.obj
 0001:0009b460       ?do_float@JNI_ArgumentPusher@@UAEXXZ 0809c460 f i jni.obj
 0001:0009b470       ?do_double@JNI_ArgumentPusher@@UAEXXZ 0809c470 f i jni.obj
 0001:0009b480       ?do_array@JNI_ArgumentPusher@@UAEXHH@Z 0809c480 f i jni.obj
 0001:0009b480       ?do_object@JNI_ArgumentPusher@@UAEXHH@Z 0809c480 f i jni.obj
 0001:0009b490       _jni_GetStaticByteField@12 0809c490 f   jni.obj
 0001:0009b490       _jni_GetStaticBooleanField@12 0809c490 f   jni.obj
 0001:0009b5a0       _jni_GetStaticCharField@12 0809c5a0 f   jni.obj
 0001:0009b5a0       _jni_GetStaticShortField@12 0809c5a0 f   jni.obj
 0001:0009b6b0       _jni_GetStaticIntField@12  0809c6b0 f   jni.obj
 0001:0009b7c0       _jni_GetStaticLongField@12 0809c7c0 f   jni.obj
 0001:0009b8e0       _jni_GetStaticFloatField@12 0809c8e0 f   jni.obj
 0001:0009b9f0       _jni_GetStaticDoubleField@12 0809c9f0 f   jni.obj
 0001:0009bb00       _jni_SetStaticBooleanField@16 0809cb00 f   jni.obj
 0001:0009bc20       _jni_SetStaticByteField@16 0809cc20 f   jni.obj
 0001:0009bd40       _jni_SetStaticCharField@16 0809cd40 f   jni.obj
 0001:0009be60       _jni_SetStaticShortField@16 0809ce60 f   jni.obj
 0001:0009bf80       _jni_SetStaticIntField@16  0809cf80 f   jni.obj
 0001:0009c0a0       _jni_SetStaticLongField@20 0809d0a0 f   jni.obj
 0001:0009c1c0       _jni_SetStaticFloatField@16 0809d1c0 f   jni.obj
 0001:0009c2e0       _jni_SetStaticDoubleField@20 0809d2e0 f   jni.obj
 0001:0009c400       _jni_NewString@12          0809d400 f   jni.obj
 0001:0009c590       _jni_GetStringLength@8     0809d590 f   jni.obj
 0001:0009c630       _jni_ReleaseStringChars@12 0809d630 f   jni.obj
 0001:0009c6d0       _jni_NewStringUTF@8        0809d6d0 f   jni.obj
 0001:0009c860       _jni_GetStringUTFLength@8  0809d860 f   jni.obj
 0001:0009c960       _jni_GetStringUTFChars@12  0809d960 f   jni.obj
 0001:0009ca90       _jni_ReleaseStringUTFChars@12 0809da90 f   jni.obj
 0001:0009cad0       _jni_NewBooleanArray@8     0809dad0 f   jni.obj
 0001:0009cc70       _jni_NewByteArray@8        0809dc70 f   jni.obj
 0001:0009ce10       _jni_NewShortArray@8       0809de10 f   jni.obj
 0001:0009cfb0       _jni_NewCharArray@8        0809dfb0 f   jni.obj
 0001:0009d150       _jni_NewIntArray@8         0809e150 f   jni.obj
 0001:0009d2f0       _jni_NewLongArray@8        0809e2f0 f   jni.obj
 0001:0009d490       _jni_NewFloatArray@8       0809e490 f   jni.obj
 0001:0009d630       _jni_NewDoubleArray@8      0809e630 f   jni.obj
 0001:0009d7d0       _jni_MonitorEnter@8        0809e7d0 f   jni.obj
 0001:0009d990       _jni_MonitorExit@8         0809e990 f   jni.obj
 0001:0009db50       _jni_ReleasePrimitiveArrayCritical@16 0809eb50 f   jni.obj
 0001:0009dc70       _jni_ReleaseStringCritical@12 0809ec70 f   jni.obj
 0001:0009dd90       _jni_NewWeakGlobalRef@8    0809ed90 f   jni.obj
 0001:0009ded0       _jni_DeleteWeakGlobalRef@8 0809eed0 f   jni.obj
 0001:0009dfc0       _jni_ExceptionCheck@4      0809efc0 f   jni.obj
 0001:0009e0f0       _lookupDirectBufferClasses@4 0809f0f0 f   jni.obj
 0001:0009e500       _jni_NewDirectByteBuffer@16 0809f500 f   jni.obj
 0001:0009e570       _jni_GetDirectBufferAddress@8 0809f570 f   jni.obj
 0001:0009e600       _jni_GetDirectBufferCapacity@8 0809f600 f   jni.obj
 0001:0009e690       _jni_GetVersion@4          0809f690 f   jni.obj
 0001:0009e6d0       _jni_GetJavaVM@8           0809f6d0 f   jni.obj
 0001:0009e730       ?copy_jni_function_table@@YAXPBUJNINativeInterface_@@@Z 0809f730 f   jni.obj
 0001:0009e770       ?quicken_jni_functions@@YAXXZ 0809f770 f   jni.obj
 0001:0009e9e0       _jni_AttachCurrentThread@12 0809f9e0 f   jni.obj
 0001:0009ea10       _jni_AttachCurrentThreadAsDaemon@12 0809fa10 f   jni.obj
 0001:0009ea40       ?is_valid_jfieldID@jfieldIDWorkaround@@SA_NPAVklassOopDesc@@PAU_jfieldID@@@Z 0809fa40 f   jni.obj
 0001:0009eaa0       _jni_DefineClass@20        0809faa0 f   jni.obj
 0001:0009ed30       _jni_FindClass@8           0809fd30 f   jni.obj
 0001:0009f0c0       _jni_ToReflectedMethod@16  080a00c0 f   jni.obj
 0001:0009f2b0       _jni_ExceptionDescribe@4   080a02b0 f   jni.obj
 0001:0009f550       _jni_ExceptionClear@4      080a0550 f   jni.obj
 0001:0009f6c0       _jni_AllocObject@8         080a06c0 f   jni.obj
 0001:0009f850       _jni_GetObjectClass@8      080a0850 f   jni.obj
 0001:0009f950       _jni_IsInstanceOf@12       080a0950 f   jni.obj
 0001:0009fa30       _jni_GetStaticFieldID@16   080a0a30 f   jni.obj
 0001:0009fd60       _jni_GetStaticObjectField@12 080a0d60 f   jni.obj
 0001:0009fe80       _jni_GetArrayLength@8      080a0e80 f   jni.obj
 0001:000a00a0       _jni_GetStringUTFRegion@20 080a10a0 f   jni.obj
 0001:000a0270       _JNI_CreateJavaVM@12       080a1270 f   jni.obj
 0001:000a0340       _jni_DestroyJavaVM@4       080a1340 f   jni.obj
 0001:000a03e0       _jni_DetachCurrentThread@4 080a13e0 f   jni.obj
 0001:000a0450       _jni_GetEnv@12             080a1450 f   jni.obj
 0001:000a0570       _jni_FromReflectedMethod@8 080a1570 f   jni.obj
 0001:000a09c0       _jni_GetMethodID@16        080a19c0 f   jni.obj
 0001:000a0ac0       _jni_GetStaticMethodID@16  080a1ac0 f   jni.obj
 0001:000a0bc0       _jni_GetFieldID@16         080a1bc0 f   jni.obj
 0001:000a0ef0       _jni_GetObjectField@12     080a1ef0 f   jni.obj
 0001:000a1040       _jni_GetByteField@12       080a2040 f   jni.obj
 0001:000a1040       _jni_GetBooleanField@12    080a2040 f   jni.obj
 0001:000a1100       _jni_GetCharField@12       080a2100 f   jni.obj
 0001:000a1100       _jni_GetShortField@12      080a2100 f   jni.obj
 0001:000a11c0       _jni_GetIntField@12        080a21c0 f   jni.obj
 0001:000a1280       _jni_GetLongField@12       080a2280 f   jni.obj
 0001:000a1340       _jni_GetFloatField@12      080a2340 f   jni.obj
 0001:000a1400       _jni_GetDoubleField@12     080a2400 f   jni.obj
 0001:000a14d0       ?jni_GetBooleanField_addr@@YAPAEXZ 080a24d0 f   jni.obj
 0001:000a14d0       ?jni_GetByteField_addr@@YAPAEXZ 080a24d0 f   jni.obj
 0001:000a14e0       ?jni_GetCharField_addr@@YAPAEXZ 080a24e0 f   jni.obj
 0001:000a14e0       ?jni_GetShortField_addr@@YAPAEXZ 080a24e0 f   jni.obj
 0001:000a14f0       ?jni_GetIntField_addr@@YAPAEXZ 080a24f0 f   jni.obj
 0001:000a1500       ?jni_GetLongField_addr@@YAPAEXZ 080a2500 f   jni.obj
 0001:000a1510       ?jni_GetFloatField_addr@@YAPAEXZ 080a2510 f   jni.obj
 0001:000a1520       ?jni_GetDoubleField_addr@@YAPAEXZ 080a2520 f   jni.obj
 0001:000a1530       _jni_SetBooleanField@16    080a2530 f   jni.obj
 0001:000a1600       _jni_SetByteField@16       080a2600 f   jni.obj
 0001:000a16d0       _jni_SetCharField@16       080a26d0 f   jni.obj
 0001:000a17b0       _jni_SetShortField@16      080a27b0 f   jni.obj
 0001:000a1890       _jni_SetIntField@16        080a2890 f   jni.obj
 0001:000a1960       _jni_SetLongField@20       080a2960 f   jni.obj
 0001:000a1a40       _jni_SetFloatField@16      080a2a40 f   jni.obj
 0001:000a1b10       _jni_SetDoubleField@20     080a2b10 f   jni.obj
 0001:000a1be0       _jni_ToReflectedField@16   080a2be0 f   jni.obj
 0001:000a1db0       _jni_FromReflectedField@8  080a2db0 f   jni.obj
 0001:000a2010       _jni_GetStringChars@12     080a3010 f   jni.obj
 0001:000a2130       _jni_GetBooleanArrayElements@12 080a3130 f   jni.obj
 0001:000a2260       _jni_GetByteArrayElements@12 080a3260 f   jni.obj
 0001:000a2390       _jni_GetShortArrayElements@12 080a3390 f   jni.obj
 0001:000a24c0       _jni_GetCharArrayElements@12 080a34c0 f   jni.obj
 0001:000a25f0       _jni_GetIntArrayElements@12 080a35f0 f   jni.obj
 0001:000a2720       _jni_GetLongArrayElements@12 080a3720 f   jni.obj
 0001:000a2850       _jni_GetFloatArrayElements@12 080a3850 f   jni.obj
 0001:000a2980       _jni_GetDoubleArrayElements@12 080a3980 f   jni.obj
 0001:000a2ab0       _jni_ReleaseBooleanArrayElements@16 080a3ab0 f   jni.obj
 0001:000a2ab0       _jni_ReleaseByteArrayElements@16 080a3ab0 f   jni.obj
 0001:000a2b80       _jni_ReleaseCharArrayElements@16 080a3b80 f   jni.obj
 0001:000a2b80       _jni_ReleaseShortArrayElements@16 080a3b80 f   jni.obj
 0001:000a2c50       _jni_ReleaseIntArrayElements@16 080a3c50 f   jni.obj
 0001:000a2c50       _jni_ReleaseFloatArrayElements@16 080a3c50 f   jni.obj
 0001:000a2d20       _jni_ReleaseDoubleArrayElements@16 080a3d20 f   jni.obj
 0001:000a2d20       _jni_ReleaseLongArrayElements@16 080a3d20 f   jni.obj
 0001:000a2df0       _jni_GetBooleanArrayRegion@20 080a3df0 f   jni.obj
 0001:000a2f70       _jni_GetByteArrayRegion@20 080a3f70 f   jni.obj
 0001:000a30f0       _jni_GetShortArrayRegion@20 080a40f0 f   jni.obj
 0001:000a3270       _jni_GetCharArrayRegion@20 080a4270 f   jni.obj
 0001:000a33f0       _jni_GetIntArrayRegion@20  080a43f0 f   jni.obj
 0001:000a3570       _jni_GetLongArrayRegion@20 080a4570 f   jni.obj
 0001:000a36f0       _jni_GetFloatArrayRegion@20 080a46f0 f   jni.obj
 0001:000a3870       _jni_GetDoubleArrayRegion@20 080a4870 f   jni.obj
 0001:000a39f0       _jni_SetBooleanArrayRegion@20 080a49f0 f   jni.obj
 0001:000a3b70       _jni_SetByteArrayRegion@20 080a4b70 f   jni.obj
 0001:000a3cf0       _jni_SetShortArrayRegion@20 080a4cf0 f   jni.obj
 0001:000a3e70       _jni_SetCharArrayRegion@20 080a4e70 f   jni.obj
 0001:000a3ff0       _jni_SetIntArrayRegion@20  080a4ff0 f   jni.obj
 0001:000a4170       _jni_SetLongArrayRegion@20 080a5170 f   jni.obj
 0001:000a42f0       _jni_SetFloatArrayRegion@20 080a52f0 f   jni.obj
 0001:000a4470       _jni_SetDoubleArrayRegion@20 080a5470 f   jni.obj
 0001:000a45f0       _jni_GetStringRegion@20    080a55f0 f   jni.obj
 0001:000a4790       _jni_GetPrimitiveArrayCritical@12 080a5790 f   jni.obj
 0001:000a48f0       _jni_GetStringCritical@12  080a58f0 f   jni.obj
 0001:000a4a50       ?iterate@JNI_ArgumentPusherVaArg@@UAEX_K@Z 080a5a50 f i jni.obj
 0001:000a4b60       ?push_double@JavaCallArguments@@QAEXN@Z 080a5b60 f i jni.obj
 0001:000a4ba0       ?push_long@JavaCallArguments@@QAEX_J@Z 080a5ba0 f i jni.obj
 0001:000a4be0       ?get_short@JNI_ArgumentPusherVaArg@@MAEXXZ 080a5be0 f i jni.obj
 0001:000a4be0       ?get_byte@JNI_ArgumentPusherVaArg@@MAEXXZ 080a5be0 f i jni.obj
 0001:000a4be0       ?get_char@JNI_ArgumentPusherVaArg@@MAEXXZ 080a5be0 f i jni.obj
 0001:000a4be0       ?get_bool@JNI_ArgumentPusherVaArg@@MAEXXZ 080a5be0 f i jni.obj
 0001:000a4be0       ?get_int@JNI_ArgumentPusherVaArg@@MAEXXZ 080a5be0 f i jni.obj
 0001:000a4c10       ?get_long@JNI_ArgumentPusherVaArg@@MAEXXZ 080a5c10 f i jni.obj
 0001:000a4c50       ?get_float@JNI_ArgumentPusherVaArg@@MAEXXZ 080a5c50 f i jni.obj
 0001:000a4c90       ?get_double@JNI_ArgumentPusherVaArg@@MAEXXZ 080a5c90 f i jni.obj
 0001:000a4ce0       ?get_object@JNI_ArgumentPusherVaArg@@MAEXXZ 080a5ce0 f i jni.obj
 0001:000a4d10       ?iterate@JNI_ArgumentPusherArray@@UAEX_K@Z 080a5d10 f i jni.obj
 0001:000a4e80       ?get_bool@JNI_ArgumentPusherArray@@MAEXXZ 080a5e80 f i jni.obj
 0001:000a4eb0       ?get_char@JNI_ArgumentPusherArray@@MAEXXZ 080a5eb0 f i jni.obj
 0001:000a4ee0       ?get_short@JNI_ArgumentPusherArray@@MAEXXZ 080a5ee0 f i jni.obj
 0001:000a4f10       ?get_byte@JNI_ArgumentPusherArray@@MAEXXZ 080a5f10 f i jni.obj
 0001:000a4f40       ?get_int@JNI_ArgumentPusherArray@@MAEXXZ 080a5f40 f i jni.obj
 0001:000a4f70       ?get_long@JNI_ArgumentPusherArray@@MAEXXZ 080a5f70 f i jni.obj
 0001:000a4fb0       ?get_float@JNI_ArgumentPusherArray@@MAEXXZ 080a5fb0 f i jni.obj
 0001:000a4ff0       ?get_double@JNI_ArgumentPusherArray@@MAEXXZ 080a5ff0 f i jni.obj
 0001:000a5040       ?get_object@JNI_ArgumentPusherArray@@MAEXXZ 080a6040 f i jni.obj
 0001:000a5460       _jni_NewObjectA@16         080a6460 f   jni.obj
 0001:000a5640       _jni_NewObjectV@16         080a6640 f   jni.obj
 0001:000a5820       _jni_NewObject             080a6820 f   jni.obj
 0001:000a5a00       _jni_CallBooleanMethod     080a6a00 f   jni.obj
 0001:000a5bc0       _jni_CallBooleanMethodV@16 080a6bc0 f   jni.obj
 0001:000a5d90       _jni_CallBooleanMethodA@16 080a6d90 f   jni.obj
 0001:000a5f60       _jni_CallByteMethod        080a6f60 f   jni.obj
 0001:000a6120       _jni_CallByteMethodV@16    080a7120 f   jni.obj
 0001:000a62f0       _jni_CallByteMethodA@16    080a72f0 f   jni.obj
 0001:000a64c0       _jni_CallCharMethod        080a74c0 f   jni.obj
 0001:000a6680       _jni_CallCharMethodV@16    080a7680 f   jni.obj
 0001:000a6850       _jni_CallCharMethodA@16    080a7850 f   jni.obj
 0001:000a6a20       _jni_CallShortMethod       080a7a20 f   jni.obj
 0001:000a6be0       _jni_CallShortMethodV@16   080a7be0 f   jni.obj
 0001:000a6db0       _jni_CallShortMethodA@16   080a7db0 f   jni.obj
 0001:000a6f80       _jni_CallObjectMethod      080a7f80 f   jni.obj
 0001:000a7140       _jni_CallObjectMethodV@16  080a8140 f   jni.obj
 0001:000a7310       _jni_CallObjectMethodA@16  080a8310 f   jni.obj
 0001:000a74e0       _jni_CallIntMethod         080a84e0 f   jni.obj
 0001:000a76a0       _jni_CallIntMethodV@16     080a86a0 f   jni.obj
 0001:000a7870       _jni_CallIntMethodA@16     080a8870 f   jni.obj
 0001:000a7a40       _jni_CallLongMethod        080a8a40 f   jni.obj
 0001:000a7c10       _jni_CallLongMethodV@16    080a8c10 f   jni.obj
 0001:000a7de0       _jni_CallLongMethodA@16    080a8de0 f   jni.obj
 0001:000a7fb0       _jni_CallFloatMethod       080a8fb0 f   jni.obj
 0001:000a8170       _jni_CallFloatMethodV@16   080a9170 f   jni.obj
 0001:000a8340       _jni_CallFloatMethodA@16   080a9340 f   jni.obj
 0001:000a8510       _jni_CallDoubleMethod      080a9510 f   jni.obj
 0001:000a86d0       _jni_CallDoubleMethodV@16  080a96d0 f   jni.obj
 0001:000a88a0       _jni_CallDoubleMethodA@16  080a98a0 f   jni.obj
 0001:000a8a70       _jni_CallVoidMethod        080a9a70 f   jni.obj
 0001:000a8c10       _jni_CallVoidMethodV@16    080a9c10 f   jni.obj
 0001:000a8db0       _jni_CallVoidMethodA@16    080a9db0 f   jni.obj
 0001:000a8f50       _jni_CallNonvirtualBooleanMethod 080a9f50 f   jni.obj
 0001:000a9110       _jni_CallNonvirtualBooleanMethodV@20 080aa110 f   jni.obj
 0001:000a92e0       _jni_CallNonvirtualBooleanMethodA@20 080aa2e0 f   jni.obj
 0001:000a94b0       _jni_CallNonvirtualByteMethod 080aa4b0 f   jni.obj
 0001:000a9670       _jni_CallNonvirtualByteMethodV@20 080aa670 f   jni.obj
 0001:000a9840       _jni_CallNonvirtualByteMethodA@20 080aa840 f   jni.obj
 0001:000a9a10       _jni_CallNonvirtualCharMethod 080aaa10 f   jni.obj
 0001:000a9bd0       _jni_CallNonvirtualCharMethodV@20 080aabd0 f   jni.obj
 0001:000a9da0       _jni_CallNonvirtualCharMethodA@20 080aada0 f   jni.obj
 0001:000a9f70       _jni_CallNonvirtualShortMethod 080aaf70 f   jni.obj
 0001:000aa130       _jni_CallNonvirtualShortMethodV@20 080ab130 f   jni.obj
 0001:000aa300       _jni_CallNonvirtualShortMethodA@20 080ab300 f   jni.obj
 0001:000aa4d0       _jni_CallNonvirtualObjectMethod 080ab4d0 f   jni.obj
 0001:000aa690       _jni_CallNonvirtualObjectMethodV@20 080ab690 f   jni.obj
 0001:000aa860       _jni_CallNonvirtualObjectMethodA@20 080ab860 f   jni.obj
 0001:000aaa30       _jni_CallNonvirtualIntMethod 080aba30 f   jni.obj
 0001:000aabf0       _jni_CallNonvirtualIntMethodV@20 080abbf0 f   jni.obj
 0001:000aadc0       _jni_CallNonvirtualIntMethodA@20 080abdc0 f   jni.obj
 0001:000aaf90       _jni_CallNonvirtualLongMethod 080abf90 f   jni.obj
 0001:000ab160       _jni_CallNonvirtualLongMethodV@20 080ac160 f   jni.obj
 0001:000ab330       _jni_CallNonvirtualLongMethodA@20 080ac330 f   jni.obj
 0001:000ab500       _jni_CallNonvirtualFloatMethod 080ac500 f   jni.obj
 0001:000ab6c0       _jni_CallNonvirtualFloatMethodV@20 080ac6c0 f   jni.obj
 0001:000ab890       _jni_CallNonvirtualFloatMethodA@20 080ac890 f   jni.obj
 0001:000aba60       _jni_CallNonvirtualDoubleMethod 080aca60 f   jni.obj
 0001:000abc20       _jni_CallNonvirtualDoubleMethodV@20 080acc20 f   jni.obj
 0001:000abdf0       _jni_CallNonvirtualDoubleMethodA@20 080acdf0 f   jni.obj
 0001:000abfc0       _jni_CallNonvirtualVoidMethod 080acfc0 f   jni.obj
 0001:000ac160       _jni_CallNonvirtualVoidMethodV@20 080ad160 f   jni.obj
 0001:000ac300       _jni_CallNonvirtualVoidMethodA@20 080ad300 f   jni.obj
 0001:000ac4a0       _jni_CallStaticBooleanMethod 080ad4a0 f   jni.obj
 0001:000ac660       _jni_CallStaticBooleanMethodV@16 080ad660 f   jni.obj
 0001:000ac820       _jni_CallStaticBooleanMethodA@16 080ad820 f   jni.obj
 0001:000ac9e0       _jni_CallStaticByteMethod  080ad9e0 f   jni.obj
 0001:000acba0       _jni_CallStaticByteMethodV@16 080adba0 f   jni.obj
 0001:000acd60       _jni_CallStaticByteMethodA@16 080add60 f   jni.obj
 0001:000acf20       _jni_CallStaticCharMethod  080adf20 f   jni.obj
 0001:000ad0e0       _jni_CallStaticCharMethodV@16 080ae0e0 f   jni.obj
 0001:000ad2b0       _jni_CallStaticCharMethodA@16 080ae2b0 f   jni.obj
 0001:000ad480       _jni_CallStaticShortMethod 080ae480 f   jni.obj
 0001:000ad640       _jni_CallStaticShortMethodV@16 080ae640 f   jni.obj
 0001:000ad810       _jni_CallStaticShortMethodA@16 080ae810 f   jni.obj
 0001:000ad9e0       _jni_CallStaticObjectMethod 080ae9e0 f   jni.obj
 0001:000adba0       _jni_CallStaticObjectMethodV@16 080aeba0 f   jni.obj
 0001:000add60       _jni_CallStaticObjectMethodA@16 080aed60 f   jni.obj
 0001:000adf20       _jni_CallStaticIntMethod   080aef20 f   jni.obj
 0001:000ae0e0       _jni_CallStaticIntMethodV@16 080af0e0 f   jni.obj
 0001:000ae2a0       _jni_CallStaticIntMethodA@16 080af2a0 f   jni.obj
 0001:000ae460       _jni_CallStaticLongMethod  080af460 f   jni.obj
 0001:000ae620       _jni_CallStaticLongMethodV@16 080af620 f   jni.obj
 0001:000ae7f0       _jni_CallStaticLongMethodA@16 080af7f0 f   jni.obj
 0001:000ae9c0       _jni_CallStaticFloatMethod 080af9c0 f   jni.obj
 0001:000aeb80       _jni_CallStaticFloatMethodV@16 080afb80 f   jni.obj
 0001:000aed40       _jni_CallStaticFloatMethodA@16 080afd40 f   jni.obj
 0001:000aef00       _jni_CallStaticDoubleMethod 080aff00 f   jni.obj
 0001:000af0c0       _jni_CallStaticDoubleMethodV@16 080b00c0 f   jni.obj
 0001:000af280       _jni_CallStaticDoubleMethodA@16 080b0280 f   jni.obj
 0001:000af440       _jni_CallStaticVoidMethod  080b0440 f   jni.obj
 0001:000af5d0       _jni_CallStaticVoidMethodV@16 080b05d0 f   jni.obj
 0001:000af770       _jni_CallStaticVoidMethodA@16 080b0770 f   jni.obj
 0001:000af910       _jni_GetObjectArrayElement@12 080b0910 f   jni.obj
 0001:000afd30       _jni_RegisterNatives@16    080b0d30 f   jni.obj
 0001:000b0090       _jni_UnregisterNatives@8   080b1090 f   jni.obj
 0001:000b01d0       _jni_SetObjectField@16     080b11d0 f   jni.obj
 0001:000b02b0       _jni_SetStaticObjectField@16 080b12b0 f   jni.obj
 0001:000b03d0       _jni_NewObjectArray@16     080b13d0 f   jni.obj
 0001:000b06b0       _jni_SetObjectArrayElement@16 080b16b0 f   jni.obj
 0001:000b08f0       ?jni_functions_check@@YAPAUJNINativeInterface_@@XZ 080b18f0 f   jniCheck.obj
 0001:000b0920       ?resolve_external_guard@JNIHandles@@SAPAVoopDesc@@PAV_jobject@@@Z 080b1920 f i jniCheck.obj
 0001:000b0ac0       ?validate_handle@jniCheck@@SAPAVoopDesc@@PAVJavaThread@@PAV_jobject@@@Z 080b1ac0 f   jniCheck.obj
 0001:000b0b30       ?validate_object@jniCheck@@SAPAVoopDesc@@PAVJavaThread@@PAV_jobject@@@Z 080b1b30 f   jniCheck.obj
 0001:000b0b90       ?validate_throwable_klass@jniCheck@@SAXPAVJavaThread@@PAVklassOopDesc@@@Z 080b1b90 f   jniCheck.obj
 0001:000b0bf0       _checked_jni_DefineClass@20 080b1bf0 f   jniCheck.obj
 0001:000b0d60       _checked_jni_FindClass@8   080b1d60 f   jniCheck.obj
 0001:000b0ef0       _checked_jni_FromReflectedMethod@8 080b1ef0 f   jniCheck.obj
 0001:000b1050       _checked_jni_FromReflectedField@8 080b2050 f   jniCheck.obj
 0001:000b11b0       _checked_jni_ExceptionOccurred@4 080b21b0 f   jniCheck.obj
 0001:000b1260       _checked_jni_ExceptionDescribe@4 080b2260 f   jniCheck.obj
 0001:000b1310       _checked_jni_ExceptionClear@4 080b2310 f   jniCheck.obj
 0001:000b13c0       _checked_jni_FatalError@8  080b23c0 f   jniCheck.obj
 0001:000b1490       _checked_jni_PushLocalFrame@8 080b2490 f   jniCheck.obj
 0001:000b1560       _checked_jni_PopLocalFrame@8 080b2560 f   jniCheck.obj
 0001:000b1620       _checked_jni_NewGlobalRef@8 080b2620 f   jniCheck.obj
 0001:000b1750       _checked_jni_DeleteGlobalRef@8 080b2750 f   jniCheck.obj
 0001:000b18e0       _checked_jni_DeleteLocalRef@8 080b28e0 f   jniCheck.obj
 0001:000b1a80       _checked_jni_IsSameObject@12 080b2a80 f   jniCheck.obj
 0001:000b1bd0       _checked_jni_NewLocalRef@8 080b2bd0 f   jniCheck.obj
 0001:000b1d00       _checked_jni_EnsureLocalCapacity@8 080b2d00 f   jniCheck.obj
 0001:000b1de0       _checked_jni_GetObjectClass@8 080b2de0 f   jniCheck.obj
 0001:000b1f40       _checked_jni_NewString@12  080b2f40 f   jniCheck.obj
 0001:000b2010       _checked_jni_NewStringUTF@8 080b3010 f   jniCheck.obj
 0001:000b20e0       _checked_jni_NewObjectArray@16 080b30e0 f   jniCheck.obj
 0001:000b21c0       _checked_jni_NewBooleanArray@8 080b31c0 f   jniCheck.obj
 0001:000b2290       _checked_jni_NewByteArray@8 080b3290 f   jniCheck.obj
 0001:000b2360       _checked_jni_NewShortArray@8 080b3360 f   jniCheck.obj
 0001:000b2430       _checked_jni_NewCharArray@8 080b3430 f   jniCheck.obj
 0001:000b2500       _checked_jni_NewIntArray@8 080b3500 f   jniCheck.obj
 0001:000b25d0       _checked_jni_NewLongArray@8 080b35d0 f   jniCheck.obj
 0001:000b26a0       _checked_jni_NewFloatArray@8 080b36a0 f   jniCheck.obj
 0001:000b2770       _checked_jni_NewDoubleArray@8 080b3770 f   jniCheck.obj
 0001:000b2840       _checked_jni_RegisterNatives@16 080b3840 f   jniCheck.obj
 0001:000b2920       _checked_jni_UnregisterNatives@8 080b3920 f   jniCheck.obj
 0001:000b29f0       _checked_jni_MonitorEnter@8 080b39f0 f   jniCheck.obj
 0001:000b2b60       _checked_jni_MonitorExit@8 080b3b60 f   jniCheck.obj
 0001:000b2cb0       _checked_jni_GetJavaVM@8   080b3cb0 f   jniCheck.obj
 0001:000b2d80       _checked_jni_NewWeakGlobalRef@8 080b3d80 f   jniCheck.obj
 0001:000b2eb0       _checked_jni_DeleteWeakGlobalRef@8 080b3eb0 f   jniCheck.obj
 0001:000b2f70       _checked_jni_ExceptionCheck@4 080b3f70 f   jniCheck.obj
 0001:000b3030       _checked_jni_NewDirectByteBuffer@16 080b4030 f   jniCheck.obj
 0001:000b3110       _checked_jni_GetDirectBufferAddress@8 080b4110 f   jniCheck.obj
 0001:000b31e0       _checked_jni_GetDirectBufferCapacity@8 080b41e0 f   jniCheck.obj
 0001:000b32c0       _checked_jni_GetObjectRefType@8 080b42c0 f   jniCheck.obj
 0001:000b3430       _checked_jni_GetVersion@4  080b4430 f   jniCheck.obj
 0001:000b3690       ?validate_class@jniCheck@@SAPAVklassOopDesc@@PAVJavaThread@@PAV_jclass@@_N@Z 080b4690 f   jniCheck.obj
 0001:000b3780       _checked_jni_GetSuperclass@8 080b4780 f   jniCheck.obj
 0001:000b38b0       _checked_jni_IsAssignableFrom@12 080b48b0 f   jniCheck.obj
 0001:000b39f0       _checked_jni_ToReflectedField@16 080b49f0 f   jniCheck.obj
 0001:000b3b20       _checked_jni_Throw@8       080b4b20 f   jniCheck.obj
 0001:000b3cc0       _checked_jni_ThrowNew@12   080b4cc0 f   jniCheck.obj
 0001:000b3e40       _checked_jni_AllocObject@8 080b4e40 f   jniCheck.obj
 0001:000b3f70       _checked_jni_IsInstanceOf@12 080b4f70 f   jniCheck.obj
 0001:000b40f0       _checked_jni_GetMethodID@16 080b50f0 f   jniCheck.obj
 0001:000b4220       _checked_jni_GetFieldID@16 080b5220 f   jniCheck.obj
 0001:000b4350       _checked_jni_GetStaticMethodID@16 080b5350 f   jniCheck.obj
 0001:000b4480       _checked_jni_GetStaticFieldID@16 080b5480 f   jniCheck.obj
 0001:000b45b0       _checked_jni_GetStringLength@8 080b55b0 f   jniCheck.obj
 0001:000b46e0       _checked_jni_GetStringChars@12 080b56e0 f   jniCheck.obj
 0001:000b4870       _checked_jni_ReleaseStringChars@12 080b5870 f   jniCheck.obj
 0001:000b49b0       _checked_jni_GetStringUTFLength@8 080b59b0 f   jniCheck.obj
 0001:000b4ae0       _checked_jni_GetStringUTFChars@12 080b5ae0 f   jniCheck.obj
 0001:000b4c70       _checked_jni_ReleaseStringUTFChars@12 080b5c70 f   jniCheck.obj
 0001:000b4db0       _checked_jni_GetArrayLength@8 080b5db0 f   jniCheck.obj
 0001:000b4ee0       _checked_jni_GetObjectArrayElement@12 080b5ee0 f   jniCheck.obj
 0001:000b5010       _checked_jni_SetObjectArrayElement@16 080b6010 f   jniCheck.obj
 0001:000b5140       _checked_jni_GetBooleanArrayElements@12 080b6140 f   jniCheck.obj
 0001:000b5270       _checked_jni_GetByteArrayElements@12 080b6270 f   jniCheck.obj
 0001:000b53a0       _checked_jni_GetShortArrayElements@12 080b63a0 f   jniCheck.obj
 0001:000b54d0       _checked_jni_GetCharArrayElements@12 080b64d0 f   jniCheck.obj
 0001:000b5600       _checked_jni_GetIntArrayElements@12 080b6600 f   jniCheck.obj
 0001:000b5730       _checked_jni_GetLongArrayElements@12 080b6730 f   jniCheck.obj
 0001:000b5860       _checked_jni_GetFloatArrayElements@12 080b6860 f   jniCheck.obj
 0001:000b5990       _checked_jni_GetDoubleArrayElements@12 080b6990 f   jniCheck.obj
 0001:000b5ac0       _checked_jni_ReleaseBooleanArrayElements@16 080b6ac0 f   jniCheck.obj
 0001:000b5be0       _checked_jni_ReleaseByteArrayElements@16 080b6be0 f   jniCheck.obj
 0001:000b5d00       _checked_jni_ReleaseShortArrayElements@16 080b6d00 f   jniCheck.obj
 0001:000b5e20       _checked_jni_ReleaseCharArrayElements@16 080b6e20 f   jniCheck.obj
 0001:000b5f40       _checked_jni_ReleaseIntArrayElements@16 080b6f40 f   jniCheck.obj
 0001:000b6060       _checked_jni_ReleaseLongArrayElements@16 080b7060 f   jniCheck.obj
 0001:000b6180       _checked_jni_ReleaseFloatArrayElements@16 080b7180 f   jniCheck.obj
 0001:000b62a0       _checked_jni_ReleaseDoubleArrayElements@16 080b72a0 f   jniCheck.obj
 0001:000b63c0       _checked_jni_GetBooleanArrayRegion@20 080b73c0 f   jniCheck.obj
 0001:000b6500       _checked_jni_GetByteArrayRegion@20 080b7500 f   jniCheck.obj
 0001:000b6640       _checked_jni_GetShortArrayRegion@20 080b7640 f   jniCheck.obj
 0001:000b6780       _checked_jni_GetCharArrayRegion@20 080b7780 f   jniCheck.obj
 0001:000b68c0       _checked_jni_GetIntArrayRegion@20 080b78c0 f   jniCheck.obj
 0001:000b6a00       _checked_jni_GetLongArrayRegion@20 080b7a00 f   jniCheck.obj
 0001:000b6b40       _checked_jni_GetFloatArrayRegion@20 080b7b40 f   jniCheck.obj
 0001:000b6c80       _checked_jni_GetDoubleArrayRegion@20 080b7c80 f   jniCheck.obj
 0001:000b6dc0       _checked_jni_SetBooleanArrayRegion@20 080b7dc0 f   jniCheck.obj
 0001:000b6f00       _checked_jni_SetByteArrayRegion@20 080b7f00 f   jniCheck.obj
 0001:000b7040       _checked_jni_SetShortArrayRegion@20 080b8040 f   jniCheck.obj
 0001:000b7180       _checked_jni_SetCharArrayRegion@20 080b8180 f   jniCheck.obj
 0001:000b72c0       _checked_jni_SetIntArrayRegion@20 080b82c0 f   jniCheck.obj
 0001:000b7400       _checked_jni_SetLongArrayRegion@20 080b8400 f   jniCheck.obj
 0001:000b7540       _checked_jni_SetFloatArrayRegion@20 080b8540 f   jniCheck.obj
 0001:000b7680       _checked_jni_SetDoubleArrayRegion@20 080b8680 f   jniCheck.obj
 0001:000b77c0       _checked_jni_GetStringRegion@20 080b87c0 f   jniCheck.obj
 0001:000b78f0       _checked_jni_GetStringUTFRegion@20 080b88f0 f   jniCheck.obj
 0001:000b7a20       _checked_jni_GetPrimitiveArrayCritical@12 080b8a20 f   jniCheck.obj
 0001:000b7b30       _checked_jni_ReleasePrimitiveArrayCritical@16 080b8b30 f   jniCheck.obj
 0001:000b7c30       _checked_jni_GetStringCritical@12 080b8c30 f   jniCheck.obj
 0001:000b7d40       _checked_jni_ReleaseStringCritical@12 080b8d40 f   jniCheck.obj
 0001:000b7e40       ?checked_resolve_jmethod_id@JNIHandles@@SAPAVmethodOopDesc@@PAU_jmethodID@@@Z 080b8e40 f i jniCheck.obj
 0001:000b7e80       ?validate_jmethod_id@jniCheck@@SAPAVmethodOopDesc@@PAVJavaThread@@PAU_jmethodID@@@Z 080b8e80 f   jniCheck.obj
 0001:000b7f00       _checked_jni_ToReflectedMethod@16 080b8f00 f   jniCheck.obj
 0001:000b8040       _checked_jni_NewObject     080b9040 f   jniCheck.obj
 0001:000b8180       _checked_jni_NewObjectV@16 080b9180 f   jniCheck.obj
 0001:000b82c0       _checked_jni_NewObjectA@16 080b92c0 f   jniCheck.obj
 0001:000b8400       _checked_jni_CallObjectMethod 080b9400 f   jniCheck.obj
 0001:000b8580       _checked_jni_CallObjectMethodV@16 080b9580 f   jniCheck.obj
 0001:000b86f0       _checked_jni_CallObjectMethodA@16 080b96f0 f   jniCheck.obj
 0001:000b8860       _checked_jni_CallBooleanMethod 080b9860 f   jniCheck.obj
 0001:000b89e0       _checked_jni_CallBooleanMethodV@16 080b99e0 f   jniCheck.obj
 0001:000b8b50       _checked_jni_CallBooleanMethodA@16 080b9b50 f   jniCheck.obj
 0001:000b8cc0       _checked_jni_CallByteMethod 080b9cc0 f   jniCheck.obj
 0001:000b8e40       _checked_jni_CallByteMethodV@16 080b9e40 f   jniCheck.obj
 0001:000b8fb0       _checked_jni_CallByteMethodA@16 080b9fb0 f   jniCheck.obj
 0001:000b9120       _checked_jni_CallShortMethod 080ba120 f   jniCheck.obj
 0001:000b92a0       _checked_jni_CallShortMethodV@16 080ba2a0 f   jniCheck.obj
 0001:000b9420       _checked_jni_CallShortMethodA@16 080ba420 f   jniCheck.obj
 0001:000b95a0       _checked_jni_CallCharMethod 080ba5a0 f   jniCheck.obj
 0001:000b9720       _checked_jni_CallCharMethodV@16 080ba720 f   jniCheck.obj
 0001:000b98a0       _checked_jni_CallCharMethodA@16 080ba8a0 f   jniCheck.obj
 0001:000b9a20       _checked_jni_CallIntMethod 080baa20 f   jniCheck.obj
 0001:000b9ba0       _checked_jni_CallIntMethodV@16 080baba0 f   jniCheck.obj
 0001:000b9d10       _checked_jni_CallIntMethodA@16 080bad10 f   jniCheck.obj
 0001:000b9e80       _checked_jni_CallLongMethod 080bae80 f   jniCheck.obj
 0001:000ba000       _checked_jni_CallLongMethodV@16 080bb000 f   jniCheck.obj
 0001:000ba180       _checked_jni_CallLongMethodA@16 080bb180 f   jniCheck.obj
 0001:000ba300       _checked_jni_CallFloatMethod 080bb300 f   jniCheck.obj
 0001:000ba480       _checked_jni_CallFloatMethodV@16 080bb480 f   jniCheck.obj
 0001:000ba600       _checked_jni_CallFloatMethodA@16 080bb600 f   jniCheck.obj
 0001:000ba780       _checked_jni_CallDoubleMethod 080bb780 f   jniCheck.obj
 0001:000ba900       _checked_jni_CallDoubleMethodV@16 080bb900 f   jniCheck.obj
 0001:000baa80       _checked_jni_CallDoubleMethodA@16 080bba80 f   jniCheck.obj
 0001:000bac00       _checked_jni_CallVoidMethod 080bbc00 f   jniCheck.obj
 0001:000bad70       _checked_jni_CallVoidMethodV@16 080bbd70 f   jniCheck.obj
 0001:000baee0       _checked_jni_CallVoidMethodA@16 080bbee0 f   jniCheck.obj
 0001:000bb050       _checked_jni_CallNonvirtualObjectMethod 080bc050 f   jniCheck.obj
 0001:000bb1e0       _checked_jni_CallNonvirtualObjectMethodV@20 080bc1e0 f   jniCheck.obj
 0001:000bb370       _checked_jni_CallNonvirtualObjectMethodA@20 080bc370 f   jniCheck.obj
 0001:000bb500       _checked_jni_CallNonvirtualBooleanMethod 080bc500 f   jniCheck.obj
 0001:000bb690       _checked_jni_CallNonvirtualBooleanMethodV@20 080bc690 f   jniCheck.obj
 0001:000bb820       _checked_jni_CallNonvirtualBooleanMethodA@20 080bc820 f   jniCheck.obj
 0001:000bb9b0       _checked_jni_CallNonvirtualByteMethod 080bc9b0 f   jniCheck.obj
 0001:000bbb40       _checked_jni_CallNonvirtualByteMethodV@20 080bcb40 f   jniCheck.obj
 0001:000bbcd0       _checked_jni_CallNonvirtualByteMethodA@20 080bccd0 f   jniCheck.obj
 0001:000bbe60       _checked_jni_CallNonvirtualShortMethod 080bce60 f   jniCheck.obj
 0001:000bbff0       _checked_jni_CallNonvirtualShortMethodV@20 080bcff0 f   jniCheck.obj
 0001:000bc180       _checked_jni_CallNonvirtualShortMethodA@20 080bd180 f   jniCheck.obj
 0001:000bc310       _checked_jni_CallNonvirtualCharMethod 080bd310 f   jniCheck.obj
 0001:000bc4a0       _checked_jni_CallNonvirtualCharMethodV@20 080bd4a0 f   jniCheck.obj
 0001:000bc630       _checked_jni_CallNonvirtualCharMethodA@20 080bd630 f   jniCheck.obj
 0001:000bc7c0       _checked_jni_CallNonvirtualIntMethod 080bd7c0 f   jniCheck.obj
 0001:000bc950       _checked_jni_CallNonvirtualIntMethodV@20 080bd950 f   jniCheck.obj
 0001:000bcae0       _checked_jni_CallNonvirtualIntMethodA@20 080bdae0 f   jniCheck.obj
 0001:000bcc70       _checked_jni_CallNonvirtualLongMethod 080bdc70 f   jniCheck.obj
 0001:000bce10       _checked_jni_CallNonvirtualLongMethodV@20 080bde10 f   jniCheck.obj
 0001:000bcfb0       _checked_jni_CallNonvirtualLongMethodA@20 080bdfb0 f   jniCheck.obj
 0001:000bd150       _checked_jni_CallNonvirtualFloatMethod 080be150 f   jniCheck.obj
 0001:000bd2e0       _checked_jni_CallNonvirtualFloatMethodV@20 080be2e0 f   jniCheck.obj
 0001:000bd470       _checked_jni_CallNonvirtualFloatMethodA@20 080be470 f   jniCheck.obj
 0001:000bd600       _checked_jni_CallNonvirtualDoubleMethod 080be600 f   jniCheck.obj
 0001:000bd7a0       _checked_jni_CallNonvirtualDoubleMethodV@20 080be7a0 f   jniCheck.obj
 0001:000bd940       _checked_jni_CallNonvirtualDoubleMethodA@20 080be940 f   jniCheck.obj
